
RF_CH582M.elf:     file format elf32-littleriscv
RF_CH582M.elf
architecture: riscv:rv32, flags 0x00000112:
EXEC_P, HAS_SYMS, D_PAGED
start address 0x00000000

Program Header:
    LOAD off    0x00001000 vaddr 0x00000000 paddr 0x00000000 align 2**12
         filesz 0x00000004 memsz 0x00000004 flags r-x
    LOAD off    0x00002000 vaddr 0x20000000 paddr 0x00000004 align 2**12
         filesz 0x00001814 memsz 0x00001814 flags r-x
    LOAD off    0x00003818 vaddr 0x00001818 paddr 0x00001818 align 2**12
         filesz 0x00004e78 memsz 0x00004e78 flags r-x
    LOAD off    0x00008814 vaddr 0x20001814 paddr 0x00006690 align 2**12
         filesz 0x0000000c memsz 0x00001d04 flags rw-

Sections:
Idx Name            Size      VMA       LMA       File off  Algn  Flags
  0 .init           00000004  00000000  00000000  00001000  2**1  CONTENTS, ALLOC, LOAD, READONLY, CODE
  1 .highcodelalign 00000000  00000004  00000004  00008820  2**0  CONTENTS
  2 .highcode       00001814  20000000  00000004  00002000  2**1  CONTENTS, ALLOC, LOAD, READONLY, CODE
  3 .text           00004e78  00001818  00001818  00003818  2**2  CONTENTS, ALLOC, LOAD, READONLY, CODE
  4 .fini           00000000  00006690  00006690  00008820  2**0  CONTENTS, ALLOC, LOAD, CODE
  5 .dalign         00000000  20001814  20001814  00008820  2**0  CONTENTS
  6 .dlalign        00000000  00006690  00006690  00008820  2**0  CONTENTS
  7 .data           0000000c  20001814  00006690  00008814  2**0  CONTENTS, ALLOC, LOAD, DATA
  8 .bss            00001cf8  20001820  0000669c  00008820  2**3  ALLOC
  9 .stack          00000000  20008000  20008000  00008820  2**0  CONTENTS
 10 .debug_info     0000effa  00000000  00000000  00008820  2**0  CONTENTS, READONLY, DEBUGGING
 11 .debug_abbrev   000026df  00000000  00000000  0001781a  2**0  CONTENTS, READONLY, DEBUGGING
 12 .debug_loc      00001f0c  00000000  00000000  00019ef9  2**0  CONTENTS, READONLY, DEBUGGING
 13 .debug_aranges  00000428  00000000  00000000  0001be08  2**3  CONTENTS, READONLY, DEBUGGING
 14 .debug_ranges   00000418  00000000  00000000  0001c230  2**3  CONTENTS, READONLY, DEBUGGING
 15 .debug_line     00007c5d  00000000  00000000  0001c648  2**0  CONTENTS, READONLY, DEBUGGING
 16 .debug_str      000020ae  00000000  00000000  000242a5  2**0  CONTENTS, READONLY, DEBUGGING
 17 .comment        00000033  00000000  00000000  00026353  2**0  CONTENTS, READONLY
 18 .debug_frame    000008d8  00000000  00000000  00026388  2**2  CONTENTS, READONLY, DEBUGGING
SYMBOL TABLE:
00000000 l    d  .init	00000000 .init
00000004 l    d  .highcodelalign	00000000 .highcodelalign
20000000 l    d  .highcode	00000000 .highcode
00001818 l    d  .text	00000000 .text
00006690 l    d  .fini	00000000 .fini
20001814 l    d  .dalign	00000000 .dalign
00006690 l    d  .dlalign	00000000 .dlalign
20001814 l    d  .data	00000000 .data
20001820 l    d  .bss	00000000 .bss
20008000 l    d  .stack	00000000 .stack
00000000 l    d  .debug_info	00000000 .debug_info
00000000 l    d  .debug_abbrev	00000000 .debug_abbrev
00000000 l    d  .debug_loc	00000000 .debug_loc
00000000 l    d  .debug_aranges	00000000 .debug_aranges
00000000 l    d  .debug_ranges	00000000 .debug_ranges
00000000 l    d  .debug_line	00000000 .debug_line
00000000 l    d  .debug_str	00000000 .debug_str
00000000 l    d  .comment	00000000 .comment
00000000 l    d  .debug_frame	00000000 .debug_frame
00000000 l    df *ABS*	00000000 ./Startup/startup_CH583.o
20000000 l       .highcode	00000000 _vector_base
00000000 l    df *ABS*	00000000 CH58x_sys.c
00000000 l    df *ABS*	00000000 ISP.c
00000000 l    df *ABS*	00000000 RTC.c
00000000 l    df *ABS*	00000000 USB.c
00000000 l    df *ABS*	00000000 RF_PHY.c
00000000 l    df *ABS*	00000000 RF_main.c
00000000 l    df *ABS*	00000000 ISP583.c
2000045e l       .highcode	00000000 .loop18
2000046c l       .highcode	00000000 .loop29
2000047a l       .highcode	00000000 .loop40
20000706 l       .highcode	00000000 .loop402
00000000 l    df *ABS*	00000000 tmos.c
00002e7a l     F .text	00000024 tmosFindTask
00000000 l    df *ABS*	00000000 tmos_hw.c
20000cbc l     F .highcode	00000032 clockGetHSEValue
20000cee l     F .highcode	00000018 clockGetLSEValue
00003572 l     F .text	00000056 clockGetTickValve
00000000 l    df *ABS*	00000000 bb.c
00000000 l    df *ABS*	00000000 ip.c
00000000 l    df *ABS*	00000000 lle.c
00000000 l    df *ABS*	00000000 rf_fh.c
00004948 l     F .text	00000582 rfRxProcess
00000000 l    df *ABS*	00000000 rfend.c
00000000 l    df *ABS*	00000000 memory.c
00000000 l    df *ABS*	00000000 CH58x_adc.c
00000000 l    df *ABS*	00000000 CH58x_clk.c
00000000 l    df *ABS*	00000000 CH58x_gpio.c
00000000 l    df *ABS*	00000000 CH58x_timer0.c
00000000 l    df *ABS*	00000000 CH58x_usbdev.c
00000000 l    df *ABS*	00000000 LED.c
00001efe l     F .text	0000009c HalLedBlink.part.2
00001fe6 l     F .text	00000056 HalLedSet.part.1
20001834 l     O .bss	00000034 HalLedStatusControl
20001820 l     O .bss	00000001 HalLedState
20001821 l     O .bss	00000001 preBlinkState
00000000 l    df *ABS*	00000000 MCU.c
00000000 l    df *ABS*	00000000 message.c
00000000 l    df *ABS*	00000000 tmos_snv.c
00000000 l    df *ABS*	00000000 ll_connect.c
00000000 l    df *ABS*	00000000 ll_scan.c
00000000 l    df *ABS*	00000000 ll_initiate.c
00000000 l    df *ABS*	00000000 memcpy.c
200033e8 g     O .bss	00000001 nGA2440
00001ed2 g     F .text	00000016 DevEP3_IN_Deal
20001828 g     O .bss	00000004 heartbeat_cnt
00002be4 g     F .text	000000ba RF_2G4StatusCallBack
20000e56 g     F .highcode	0000003e ll_rx_wait_finish
00001ea6 g     F .text	00000016 DevEP1_IN_Deal
2000047a g     F .highcode	0000000e FLASH_ROM_OUT
20001818 g     O .data	00000001 usbTaskID
20000ab8 g     F .highcode	00000204 TMOS_SystemProcess
0000526e g     F .text	00000034 RFEND_Reset
00002724 g     F .text	000004c0 USB_DevTransProcess
20002018 g       .data	00000000 __global_pointer$
000018c6 g     F .text	00000028 ADC_InterTSSampInit
200002ac g     F .highcode	0000000e mDelayuS
20000272  w    F .highcode	0000003a HardFault_Handler
200000a2  w      .highcode	00000000 GPIOB_IRQHandler
00002312 g     F .text	00000076 HAL_ProcessEvent
200000a0  w      .highcode	00000000 GPIOA_IRQHandler
20003384 g     O .bss	00000004 gptrBBReg
000033c0 g     F .text	0000003c TMOS_ProcessEventRegister
2000009a  w      .highcode	00000000 SysTick_Handler
000026d8 g     F .text	00000026 DevEP3_OUT_Deal
000030d6 g     F .text	00000032 TMOS_GetSystemClock
20001ad8 g     O .bss	00000001 RFtaskID
20000090  w      .highcode	00000000 NMI_Handler
200008aa g     F .highcode	00000012 tmos_memset
2000096e g     F .highcode	0000014a tmos_proces_system_time
200000b4  w      .highcode	00000000 UART1_IRQHandler
0000209c g     F .text	00000036 HAL_LedInit
20000f5e g     F .highcode	00000124 ll_tx_wait_finish
00003aa0 g     F .text	000000b4 BB_DevInit
200008bc g     F .highcode	00000014 tmos_strlen
20000e94 g     F .highcode	000000ca ble_ll_chkcrc
2000094c g     F .highcode	00000022 tmos_isbufset
20001820 g       .bss	00000000 _sbss
00004fde g     F .text	0000014a rf_hop_heart_beat
00004eca g     F .text	00000090 RF_Shut
2000187c g     O .bss	00000004 RTCTigFlag
2000046c g     F .highcode	0000000e FLASH_ROM_IN
000041c8 g     F .text	00000198 RF_TxProcess
20001880 g     O .bss	00000001 DevConfig
00006678 g     O .text	00000014 VER_LIB
000036f2 g     F .text	000000c0 tmos_snv_init
00005128 g     F .text	000000f4 RFFH_ProcessEvent
00002528 g     F .text	0000010c USB_ProcessEvent
200000b2  w      .highcode	00000000 UART0_IRQHandler
200032e0 g     O .bss	0000002c gTmosPara
00006644 g     O .text	00000012 MyDevDescr
00006406 g     F .text	000000b6 memcpy
20001882 g     O .bss	00000002 SetupReqLen
200033f4 g     O .bss	00000004 MemCtlEnd
00000004 g       .init	00000000 _einit
2000330c g     O .bss	00000004 tasksArr
200033f8 g     O .bss	00000004 MemCtlPartition
20000d08 g     F .highcode	0000014e BB_IRQLibHandler
20001244 g     F .highcode	00000212 LLE_IRQLibHandler
20003310 g     O .bss	0000001c pfnProcessCBs
200000a6  w      .highcode	00000000 BB_IRQHandler
20000508 g     F .highcode	0000036a FLASH_EEPROM_CMD
000061e6 g     F .text	00000014 RFEND_TXFtune
20000098  w      .highcode	00000000 Break_Point_Handler
00001d22 g     F .text	000000a6 GPIOB_ModeCfg
20001884 g     O .bss	00000001 SetupReqCode
2000032c g     F .highcode	00000030 SoftReset
00005416 g     F .text	00000080 RFEND_RXFilter
00002260 g     F .text	00000040 Lib_Write_Flash
0000668c g     O .text	00000004 MyLangDescr
2000037e g     F .highcode	000000c6 TMR0_IRQHandler
20001658 g     F .highcode	000000d2 tmos_memory_allocate
2000332c g     O .bss	00000002 eventsClear
2000044c g     F .highcode	00000012 FLASH_ROM_BEG
20000930 g     F .highcode	0000001c tmos_revmemcpy
00002e9e g     F .text	00000086 TMOS_CB_PeriodicProcessEvent
200002ba g     F .highcode	00000028 mDelaymS
20000094  w      .highcode	00000000 Ecall_M_Mode_Handler
00003db4 g     F .text	000000a4 ll_multi_states_process
00006608 g     O .text	00000039 MyCfgDescr
00003942 g     F .text	0000015e LL_ScanSetRF
20000488 g     F .highcode	00000048 FLASH_ROM_ADDR
000037b2 g     F .text	00000190 LL_GetNextConnectEventTime
20001456 g     F .highcode	00000082 RF_HopGetChannel
20001878 g     O .bss	00000001 halTaskID
20000444 g     F .highcode	00000008 Main_Circulation
2000337c g     O .bss	00000004 fnGetClockCBs
000033fc g     F .text	00000176 BLE_LibInit
00006658 g     O .text	0000000e MyManuInfo
0000401a g     F .text	00000058 LLE_DevInit
00003b54 g     F .text	0000012c BLE_SetPHYTxMode
200033fc g     O .bss	00000004 MemCtlStart
20001628 g     F .highcode	00000030 RFEND_WaitTune
00004360 g     F .text	0000011e RF_Config
0000447e g     F .text	000002c6 RF_Tx
00003108 g     F .text	0000002e tmos_set_event
2000035c g     F .highcode	00000016 RTC_IRQHandler
20003518 g       .bss	00000000 _ebss
0000629e g     F .text	00000168 LL_InitiateSetRF
000035c8 g     F .text	00000062 TMOS_TempSample
20001888 g     O .bss	00000004 pDescr
2000188c g     O .bss	000000c0 EP0_Databuf
00003d80 g     F .text	00000034 ll_multi_states_check
0000249c g     F .text	00000036 HAL_Init
200004d0 g     F .highcode	00000038 FLASH_ROM_WAIT
00003e58 g     F .text	0000008c ble_ll_hw_api_shut
00002058 g     F .text	00000044 HalLedSet
20001082 g     F .highcode	000001c2 BLE_CheckHoppingMap
200033e9 g     O .bss	00000001 nGA2480
20003380 g     O .bss	00000004 gptrAESReg
00004f5a g     F .text	00000084 RF_FrequencyHoppingShut
000052a2 g     F .text	00000174 RFEND_DevInit
00002388 g     F .text	00000114 CH58X_BLEInit
200000c0  w      .highcode	00000000 UART2_IRQHandler
00001f9a g     F .text	0000004c HalLedOnOff
200000bc  w      .highcode	00000000 PWMX_IRQHandler
200032dc g     O .bss	00000004 msg_qHead
00003c80 g     F .text	00000100 BLE_SetPHYRxMode
2000182f g     O .bss	00000001 nCO2401
20003388 g     O .bss	00000004 gPaControl
2000194c g     O .bss	00000080 EP1_Databuf
00000000 g       .init	00000000 _start
00004744 g     F .text	00000204 RF_Rx
00001ee8 g     F .text	00000016 DevEP4_IN_Deal
00003f9e g     F .text	0000007c BLE_IPCoreInit
200000b8  w      .highcode	00000000 ADC_IRQHandler
20001868 g     O .bss	00000004 pEP2_RAM_Addr
20000000 g       .highcode	00000000 _highcode_vma_start
200008d0 g     F .highcode	00000032 tmos_memdup
00006534 g     O .text	000000d1 HID_Rep_Desc
20003330 g     O .bss	00000004 EventsArr
200000b0  w      .highcode	00000000 TMR2_IRQHandler
20001814 g       .data	00000000 _data_vma
2000186c g     O .bss	00000004 pEP3_RAM_Addr
200033ec g     O .bss	00000004 gptrRFENDReg
200019cc g     O .bss	00000009 HID_dat
200019d8 g     O .bss	00000080 EP2_Databuf
200000c6 g     F .highcode	00000170 SetSysClock
20001831 g     O .bss	00000001 l2capNumRecvDataPkts
20000372 g     F .highcode	0000000c USB_IRQHandler
000026b2 g     F .text	00000026 DevEP2_OUT_Deal
20003400 g     O .bss	00000118 gBleLlPara
20000d06 g     F .highcode	00000002 TMOS_TimerIRQHandler
0000268c g     F .text	00000026 DevEP1_OUT_Deal
200014d8 g     F .highcode	000000b6 RF_FrequencyHoppingGet
20001adc g     O .bss	00001800 MEM_BUF
200033ac g     O .bss	00000020 rfConfig
000061fa g     F .text	0000002c tmos_memory_getlen
20001870 g     O .bss	00000004 pEP0_RAM_Addr
20000902 g     F .highcode	0000002e tmos_memcmp
00001e28 g     F .text	0000007e USB_DeviceInit
200000ba  w      .highcode	00000000 I2C_IRQHandler
200033a8 g     O .bss	00000004 gptrLLEReg
00002daa g     F .text	0000002a main
00002f24 g     F .text	00000080 TMOS_CB_ProcessEvent
0000203c g     F .text	0000001c HalLedBlink
2000158e g     F .highcode	0000009a RF_FrequencyHoppingChange
0000521c g     F .text	00000052 RF_RoleInit
2000172a g     F .highcode	000000e8 tmos_memory_free
00002634 g     F .text	00000058 HAL_USBInit
200000ac  w      .highcode	00000000 USB2_IRQHandler
00003ee4 g     F .text	000000ba BLE_RegInit
000032ca g     F .text	000000f6 TMOS_Init
00003168 g     F .text	000000e0 tmos_start_task
00006668 g     O .text	00000010 MyProdInfo
000024d2 g     F .text	00000056 HAL_TimeInit
20001822 g     O .bss	00000001 USB_Ready
00002c9e g     F .text	0000006a RF_ProcessEvent
00000004 g       .highcodelalign	00000000 _highcode_lma
00002d08 g     F .text	000000a2 RF_Init
00003248 g     F .text	0000004e tmos_stop_task
200000a8  w      .highcode	00000000 LLE_IRQHandler
20001824 g     O .bss	00000002 LEDOUT_DATA
00000000 g       .init	00000000 _sinit
00001ebc g     F .text	00000016 DevEP2_IN_Deal
20003334 g     O .bss	00000004 taskHead
000020d2 g     F .text	0000016c HalLedUpdate
00006226 g     F .text	00000078 tmos_memory_init
00005496 g     F .text	0000003a RFEND_RXAdc
000041aa g     F .text	0000001e rf_stop
200000c4  w      .highcode	00000000 WDOG_BAT_IRQHandler
20000096  w      .highcode	00000000 Ecall_U_Mode_Handler
200000be  w      .highcode	00000000 TMR3_IRQHandler
0000223e g     F .text	00000006 Lib_Calibration_LSI
20008000 g       .stack	00000000 _eusrstack
2000009c  w      .highcode	00000000 SW_Handler
20000892 g     F .highcode	00000018 tmos_memcpy_word
20003338 g     O .bss	0000003c ble
200033f0 g     O .bss	00000001 nCO2440
00001dc8 g     F .text	00000042 GetSysClock
20001830 g     O .bss	00000001 nGA2401
20001820 g       .data	00000000 _edata
200000a4  w      .highcode	00000000 SPI0_IRQHandler
00002dd4 g     F .text	0000002c tmos_msg_deallocate
20001814 g       .highcode	00000000 _highcode_vma_end
20003374 g     O .bss	00000004 cbTimersHead
00006690 g       .dlalign	00000000 _data_lma
00003136 g     F .text	00000032 tmos_clear_event
000022a0 g     F .text	00000072 HAL_GetInterTempValue
00002244 g     F .text	0000001c Lib_Read_Flash
20000872 g     F .highcode	00000020 tmos_memcpy
2000338c g     O .bss	0000001c gBleIPPara
00001e0a g     F .text	0000000a SYS_GetSysTickCnt
00001818  w      .text	00000000 handle_reset
200002e2 g     F .highcode	0000004a APPJumpBoot
00002fa4 g     F .text	00000132 tmos_proces_sleep
000054d0 g     F .text	00000d16 RFEND_TXCtune
20001a58 g     O .bss	00000080 EP3_Databuf
200000c2  w      .highcode	00000000 UART3_IRQHandler
00001b94 g     F .text	0000018e RTC_InitTime
000032b4 g     F .text	00000016 TMOS_ProcessRegister
2000045e g     F .highcode	0000000e FLASH_ROM_END
00002e00 g     F .text	00000070 tmos_msg_receive
200033cc g     O .bss	0000001c rfInfo
00003296 g     F .text	0000001e TMOS_TimerRegister
000026fe g     F .text	00000026 DevEP4_OUT_Deal
200033f1 g     O .bss	00000001 nCO2480
200000ae  w      .highcode	00000000 TMR1_IRQHandler
0000362a g     F .text	000000c8 TMOS_TimerInit
000018ee g     F .text	000002a6 Calibration_LSI
20001874 g     O .bss	00000004 pEP1_RAM_Addr
20003378 g     O .bss	00000004 pfnTimerCBs
00002e70 g     F .text	0000000a tmos_msg_init
00004072 g     F .text	00000138 RF_DevSetChannel
20000236 g     F .highcode	0000003c SYS_ResetExecute
00001e14 g     F .text	00000014 TMR0_TimerInit
2000182c g     O .bss	00000003 lastevent



Disassembly of section .init:

00000000 <_sinit>:
_start():
E:\Project\tp78_v2\mounriver_project\RF_CH582M\obj/../Startup/startup_CH583.S:15

	.section	.init,"ax",@progbits
	.global	_start
	.align	1
_start:
	j	handle_reset
   0:	0190106f          	j	1818 <handle_reset>

Disassembly of section .highcode:

20000000 <_highcode_vma_start>:
	...
_vector_base():
20000008:	0090                	addi	a2,sp,64
2000000a:	2000                	fld	fs0,0(s0)
2000000c:	0272                	slli	tp,tp,0x1c
2000000e:	2000                	fld	fs0,0(s0)
20000010:	bda9                	j	1ffffe6a <_data_lma+0x1fff97da>
20000012:	f5f9                	bnez	a1,1fffffe0 <_data_lma+0x1fff9950>
20000014:	0094                	addi	a3,sp,64
20000016:	2000                	fld	fs0,0(s0)
	...
20000020:	0096                	slli	ra,ra,0x5
20000022:	2000                	fld	fs0,0(s0)
20000024:	0098                	addi	a4,sp,64
20000026:	2000                	fld	fs0,0(s0)
	...
20000030:	009a                	slli	ra,ra,0x6
20000032:	2000                	fld	fs0,0(s0)
20000034:	0000                	unimp
20000036:	0000                	unimp
20000038:	009c                	addi	a5,sp,64
2000003a:	2000                	fld	fs0,0(s0)
2000003c:	0000                	unimp
2000003e:	0000                	unimp
20000040:	037e                	slli	t1,t1,0x1f
20000042:	2000                	fld	fs0,0(s0)
20000044:	00a0                	addi	s0,sp,72
20000046:	2000                	fld	fs0,0(s0)
20000048:	00a2                	slli	ra,ra,0x8
2000004a:	2000                	fld	fs0,0(s0)
2000004c:	00a4                	addi	s1,sp,72
2000004e:	2000                	fld	fs0,0(s0)
20000050:	00a6                	slli	ra,ra,0x9
20000052:	2000                	fld	fs0,0(s0)
20000054:	00a8                	addi	a0,sp,72
20000056:	2000                	fld	fs0,0(s0)
20000058:	0372                	slli	t1,t1,0x1c
2000005a:	2000                	fld	fs0,0(s0)
2000005c:	00ac                	addi	a1,sp,72
2000005e:	2000                	fld	fs0,0(s0)
20000060:	00ae                	slli	ra,ra,0xb
20000062:	2000                	fld	fs0,0(s0)
20000064:	00b0                	addi	a2,sp,72
20000066:	2000                	fld	fs0,0(s0)
20000068:	00b2                	slli	ra,ra,0xc
2000006a:	2000                	fld	fs0,0(s0)
2000006c:	00b4                	addi	a3,sp,72
2000006e:	2000                	fld	fs0,0(s0)
20000070:	035c                	addi	a5,sp,388
20000072:	2000                	fld	fs0,0(s0)
20000074:	00b8                	addi	a4,sp,72
20000076:	2000                	fld	fs0,0(s0)
20000078:	00ba                	slli	ra,ra,0xe
2000007a:	2000                	fld	fs0,0(s0)
2000007c:	00bc                	addi	a5,sp,72
2000007e:	2000                	fld	fs0,0(s0)
20000080:	00be                	slli	ra,ra,0xf
20000082:	2000                	fld	fs0,0(s0)
20000084:	00c0                	addi	s0,sp,68
20000086:	2000                	fld	fs0,0(s0)
20000088:	00c2                	slli	ra,ra,0x10
2000008a:	2000                	fld	fs0,0(s0)
2000008c:	00c4                	addi	s1,sp,68
2000008e:	2000                	fld	fs0,0(s0)

20000090 <NMI_Handler>:
NMI_Handler():
E:\Project\tp78_v2\mounriver_project\RF_CH582M\obj/../Startup/startup_CH583.S:91
    .weak   TMR3_IRQHandler
    .weak   UART2_IRQHandler
    .weak   UART3_IRQHandler
    .weak   WDOG_BAT_IRQHandler

NMI_Handler:         1:  j 1b
20000090:	a001                	j	20000090 <NMI_Handler>
E:\Project\tp78_v2\mounriver_project\RF_CH582M\obj/../Startup/startup_CH583.S:92
HardFault_Handler:   1:  j 1b
20000092:	a001                	j	20000092 <NMI_Handler+0x2>

20000094 <Ecall_M_Mode_Handler>:
Ecall_M_Mode_Handler():
E:\Project\tp78_v2\mounriver_project\RF_CH582M\obj/../Startup/startup_CH583.S:93
Ecall_M_Mode_Handler:   1:  j 1b
20000094:	a001                	j	20000094 <Ecall_M_Mode_Handler>

20000096 <Ecall_U_Mode_Handler>:
Ecall_U_Mode_Handler():
E:\Project\tp78_v2\mounriver_project\RF_CH582M\obj/../Startup/startup_CH583.S:94
Ecall_U_Mode_Handler:   1:  j 1b
20000096:	a001                	j	20000096 <Ecall_U_Mode_Handler>

20000098 <Break_Point_Handler>:
Break_Point_Handler():
E:\Project\tp78_v2\mounriver_project\RF_CH582M\obj/../Startup/startup_CH583.S:95
Break_Point_Handler:   1:  j 1b
20000098:	a001                	j	20000098 <Break_Point_Handler>

2000009a <SysTick_Handler>:
SysTick_Handler():
E:\Project\tp78_v2\mounriver_project\RF_CH582M\obj/../Startup/startup_CH583.S:96
SysTick_Handler:     1:  j 1b
2000009a:	a001                	j	2000009a <SysTick_Handler>

2000009c <SW_Handler>:
SW_Handler():
E:\Project\tp78_v2\mounriver_project\RF_CH582M\obj/../Startup/startup_CH583.S:97
SW_Handler:          1:  j 1b
2000009c:	a001                	j	2000009c <SW_Handler>
E:\Project\tp78_v2\mounriver_project\RF_CH582M\obj/../Startup/startup_CH583.S:98
TMR0_IRQHandler:     1:  j 1b
2000009e:	a001                	j	2000009e <SW_Handler+0x2>

200000a0 <GPIOA_IRQHandler>:
GPIOA_IRQHandler():
E:\Project\tp78_v2\mounriver_project\RF_CH582M\obj/../Startup/startup_CH583.S:99
GPIOA_IRQHandler:    1:  j 1b
200000a0:	a001                	j	200000a0 <GPIOA_IRQHandler>

200000a2 <GPIOB_IRQHandler>:
GPIOB_IRQHandler():
E:\Project\tp78_v2\mounriver_project\RF_CH582M\obj/../Startup/startup_CH583.S:100
GPIOB_IRQHandler:    1:  j 1b
200000a2:	a001                	j	200000a2 <GPIOB_IRQHandler>

200000a4 <SPI0_IRQHandler>:
SPI0_IRQHandler():
E:\Project\tp78_v2\mounriver_project\RF_CH582M\obj/../Startup/startup_CH583.S:101
SPI0_IRQHandler:     1:  j 1b
200000a4:	a001                	j	200000a4 <SPI0_IRQHandler>

200000a6 <BB_IRQHandler>:
BB_IRQHandler():
E:\Project\tp78_v2\mounriver_project\RF_CH582M\obj/../Startup/startup_CH583.S:102
BB_IRQHandler:       1:  j 1b
200000a6:	a001                	j	200000a6 <BB_IRQHandler>

200000a8 <LLE_IRQHandler>:
LLE_IRQHandler():
E:\Project\tp78_v2\mounriver_project\RF_CH582M\obj/../Startup/startup_CH583.S:103
LLE_IRQHandler:      1:  j 1b
200000a8:	a001                	j	200000a8 <LLE_IRQHandler>
E:\Project\tp78_v2\mounriver_project\RF_CH582M\obj/../Startup/startup_CH583.S:104
USB_IRQHandler:      1:  j 1b
200000aa:	a001                	j	200000aa <LLE_IRQHandler+0x2>

200000ac <USB2_IRQHandler>:
USB2_IRQHandler():
E:\Project\tp78_v2\mounriver_project\RF_CH582M\obj/../Startup/startup_CH583.S:105
USB2_IRQHandler:      1:  j 1b
200000ac:	a001                	j	200000ac <USB2_IRQHandler>

200000ae <TMR1_IRQHandler>:
TMR1_IRQHandler():
E:\Project\tp78_v2\mounriver_project\RF_CH582M\obj/../Startup/startup_CH583.S:106
TMR1_IRQHandler:     1:  j 1b
200000ae:	a001                	j	200000ae <TMR1_IRQHandler>

200000b0 <TMR2_IRQHandler>:
TMR2_IRQHandler():
E:\Project\tp78_v2\mounriver_project\RF_CH582M\obj/../Startup/startup_CH583.S:107
TMR2_IRQHandler:     1:  j 1b
200000b0:	a001                	j	200000b0 <TMR2_IRQHandler>

200000b2 <UART0_IRQHandler>:
UART0_IRQHandler():
E:\Project\tp78_v2\mounriver_project\RF_CH582M\obj/../Startup/startup_CH583.S:108
UART0_IRQHandler:    1:  j 1b
200000b2:	a001                	j	200000b2 <UART0_IRQHandler>

200000b4 <UART1_IRQHandler>:
UART1_IRQHandler():
E:\Project\tp78_v2\mounriver_project\RF_CH582M\obj/../Startup/startup_CH583.S:109
UART1_IRQHandler:    1:  j 1b
200000b4:	a001                	j	200000b4 <UART1_IRQHandler>
E:\Project\tp78_v2\mounriver_project\RF_CH582M\obj/../Startup/startup_CH583.S:110
RTC_IRQHandler:      1:  j 1b
200000b6:	a001                	j	200000b6 <UART1_IRQHandler+0x2>

200000b8 <ADC_IRQHandler>:
ADC_IRQHandler():
E:\Project\tp78_v2\mounriver_project\RF_CH582M\obj/../Startup/startup_CH583.S:111
ADC_IRQHandler:      1:  j 1b
200000b8:	a001                	j	200000b8 <ADC_IRQHandler>

200000ba <I2C_IRQHandler>:
I2C_IRQHandler():
E:\Project\tp78_v2\mounriver_project\RF_CH582M\obj/../Startup/startup_CH583.S:112
I2C_IRQHandler:		 1:  j 1b
200000ba:	a001                	j	200000ba <I2C_IRQHandler>

200000bc <PWMX_IRQHandler>:
PWMX_IRQHandler():
E:\Project\tp78_v2\mounriver_project\RF_CH582M\obj/../Startup/startup_CH583.S:113
PWMX_IRQHandler:     1:  j 1b
200000bc:	a001                	j	200000bc <PWMX_IRQHandler>

200000be <TMR3_IRQHandler>:
TMR3_IRQHandler():
E:\Project\tp78_v2\mounriver_project\RF_CH582M\obj/../Startup/startup_CH583.S:114
TMR3_IRQHandler:     1:  j 1b
200000be:	a001                	j	200000be <TMR3_IRQHandler>

200000c0 <UART2_IRQHandler>:
UART2_IRQHandler():
E:\Project\tp78_v2\mounriver_project\RF_CH582M\obj/../Startup/startup_CH583.S:115
UART2_IRQHandler:    1:  j 1b
200000c0:	a001                	j	200000c0 <UART2_IRQHandler>

200000c2 <UART3_IRQHandler>:
UART3_IRQHandler():
E:\Project\tp78_v2\mounriver_project\RF_CH582M\obj/../Startup/startup_CH583.S:116
UART3_IRQHandler:    1:  j 1b
200000c2:	a001                	j	200000c2 <UART3_IRQHandler>

200000c4 <WDOG_BAT_IRQHandler>:
WDOG_BAT_IRQHandler():
E:\Project\tp78_v2\mounriver_project\RF_CH582M\obj/../Startup/startup_CH583.S:117
WDOG_BAT_IRQHandler: 1:  j 1b
200000c4:	a001                	j	200000c4 <WDOG_BAT_IRQHandler>

200000c6 <SetSysClock>:
SetSysClock():
E:\Project\tp78_v2\mounriver_project\RF_CH582M\obj/../StdPeriphDriver/CH58x_sys.c:26
 */
__HIGH_CODE
void SetSysClock(SYS_CLKTypeDef sc)
{
    uint32_t i;
    R8_SAFE_ACCESS_SIG = SAFE_ACCESS_SIG1;
200000c6:	400017b7          	lui	a5,0x40001
200000ca:	05700693          	li	a3,87
200000ce:	04d78023          	sb	a3,64(a5) # 40001040 <_eusrstack+0x1fff9040>
E:\Project\tp78_v2\mounriver_project\RF_CH582M\obj/../StdPeriphDriver/CH58x_sys.c:27
    R8_SAFE_ACCESS_SIG = SAFE_ACCESS_SIG2;
200000d2:	fa800713          	li	a4,-88
200000d6:	04e78023          	sb	a4,64(a5)
E:\Project\tp78_v2\mounriver_project\RF_CH582M\obj/../StdPeriphDriver/CH58x_sys.c:28
    SAFEOPERATE;
200000da:	0001                	nop
200000dc:	0001                	nop
E:\Project\tp78_v2\mounriver_project\RF_CH582M\obj/../StdPeriphDriver/CH58x_sys.c:29
    R8_PLL_CONFIG &= ~(1 << 5); //
200000de:	04b7c603          	lbu	a2,75(a5)
200000e2:	0df67613          	andi	a2,a2,223
200000e6:	04c785a3          	sb	a2,75(a5)
E:\Project\tp78_v2\mounriver_project\RF_CH582M\obj/../StdPeriphDriver/CH58x_sys.c:30
    R8_SAFE_ACCESS_SIG = 0;
200000ea:	04078023          	sb	zero,64(a5)
E:\Project\tp78_v2\mounriver_project\RF_CH582M\obj/../StdPeriphDriver/CH58x_sys.c:31
    if(sc & 0x20)
200000ee:	02057613          	andi	a2,a0,32
200000f2:	ce59                	beqz	a2,20000190 <SetSysClock+0xca>
E:\Project\tp78_v2\mounriver_project\RF_CH582M\obj/../StdPeriphDriver/CH58x_sys.c:33
    { // HSE div
        if(!(R8_HFCK_PWR_CTRL & RB_CLK_XT32M_PON))
200000f4:	00a7c603          	lbu	a2,10(a5)
200000f8:	8a11                	andi	a2,a2,4
200000fa:	e21d                	bnez	a2,20000120 <SetSysClock+0x5a>
E:\Project\tp78_v2\mounriver_project\RF_CH582M\obj/../StdPeriphDriver/CH58x_sys.c:35
        {
            R8_SAFE_ACCESS_SIG = SAFE_ACCESS_SIG1;
200000fc:	04d78023          	sb	a3,64(a5)
E:\Project\tp78_v2\mounriver_project\RF_CH582M\obj/../StdPeriphDriver/CH58x_sys.c:36
            R8_SAFE_ACCESS_SIG = SAFE_ACCESS_SIG2;
20000100:	04e78023          	sb	a4,64(a5)
E:\Project\tp78_v2\mounriver_project\RF_CH582M\obj/../StdPeriphDriver/CH58x_sys.c:37
            SAFEOPERATE;
20000104:	0001                	nop
20000106:	0001                	nop
E:\Project\tp78_v2\mounriver_project\RF_CH582M\obj/../StdPeriphDriver/CH58x_sys.c:38
            R8_HFCK_PWR_CTRL |= RB_CLK_XT32M_PON; // HSE power on
20000108:	00a7c703          	lbu	a4,10(a5)
2000010c:	00476713          	ori	a4,a4,4
20000110:	00e78523          	sb	a4,10(a5)
20000114:	4b000793          	li	a5,1200
E:\Project\tp78_v2\mounriver_project\RF_CH582M\obj/../StdPeriphDriver/CH58x_sys.c:41 (discriminator 3)
            for(i = 0; i < 1200; i++)
            {
                __nop();
20000118:	0001                	nop
E:\Project\tp78_v2\mounriver_project\RF_CH582M\obj/../StdPeriphDriver/CH58x_sys.c:42 (discriminator 3)
                __nop();
2000011a:	0001                	nop
2000011c:	17fd                	addi	a5,a5,-1
E:\Project\tp78_v2\mounriver_project\RF_CH582M\obj/../StdPeriphDriver/CH58x_sys.c:39 (discriminator 3)
            for(i = 0; i < 1200; i++)
2000011e:	ffed                	bnez	a5,20000118 <SetSysClock+0x52>
E:\Project\tp78_v2\mounriver_project\RF_CH582M\obj/../StdPeriphDriver/CH58x_sys.c:46
            }
        }

        R8_SAFE_ACCESS_SIG = SAFE_ACCESS_SIG1;
20000120:	400017b7          	lui	a5,0x40001
20000124:	05700693          	li	a3,87
20000128:	04d78023          	sb	a3,64(a5) # 40001040 <_eusrstack+0x1fff9040>
E:\Project\tp78_v2\mounriver_project\RF_CH582M\obj/../StdPeriphDriver/CH58x_sys.c:47
        R8_SAFE_ACCESS_SIG = SAFE_ACCESS_SIG2;
2000012c:	fa800713          	li	a4,-88
20000130:	04e78023          	sb	a4,64(a5)
E:\Project\tp78_v2\mounriver_project\RF_CH582M\obj/../StdPeriphDriver/CH58x_sys.c:48
        SAFEOPERATE;
20000134:	0001                	nop
20000136:	0001                	nop
E:\Project\tp78_v2\mounriver_project\RF_CH582M\obj/../StdPeriphDriver/CH58x_sys.c:49
        R16_CLK_SYS_CFG = (0 << 6) | (sc & 0x1f);
20000138:	897d                	andi	a0,a0,31
2000013a:	00a79423          	sh	a0,8(a5)
E:\Project\tp78_v2\mounriver_project\RF_CH582M\obj/../StdPeriphDriver/CH58x_sys.c:50
        __nop();
2000013e:	0001                	nop
E:\Project\tp78_v2\mounriver_project\RF_CH582M\obj/../StdPeriphDriver/CH58x_sys.c:51
        __nop();
20000140:	0001                	nop
E:\Project\tp78_v2\mounriver_project\RF_CH582M\obj/../StdPeriphDriver/CH58x_sys.c:52
        __nop();
20000142:	0001                	nop
E:\Project\tp78_v2\mounriver_project\RF_CH582M\obj/../StdPeriphDriver/CH58x_sys.c:53
        __nop();
20000144:	0001                	nop
E:\Project\tp78_v2\mounriver_project\RF_CH582M\obj/../StdPeriphDriver/CH58x_sys.c:54
        R8_SAFE_ACCESS_SIG = 0;
20000146:	04078023          	sb	zero,64(a5)
E:\Project\tp78_v2\mounriver_project\RF_CH582M\obj/../StdPeriphDriver/CH58x_sys.c:55
        R8_SAFE_ACCESS_SIG = SAFE_ACCESS_SIG1;
2000014a:	04d78023          	sb	a3,64(a5)
E:\Project\tp78_v2\mounriver_project\RF_CH582M\obj/../StdPeriphDriver/CH58x_sys.c:56
        R8_SAFE_ACCESS_SIG = SAFE_ACCESS_SIG2;
2000014e:	04e78023          	sb	a4,64(a5)
E:\Project\tp78_v2\mounriver_project\RF_CH582M\obj/../StdPeriphDriver/CH58x_sys.c:57
        SAFEOPERATE;
20000152:	0001                	nop
20000154:	0001                	nop
E:\Project\tp78_v2\mounriver_project\RF_CH582M\obj/../StdPeriphDriver/CH58x_sys.c:58
        R8_FLASH_CFG = 0X51;
20000156:	40002737          	lui	a4,0x40002
2000015a:	05100693          	li	a3,81
E:\Project\tp78_v2\mounriver_project\RF_CH582M\obj/../StdPeriphDriver/CH58x_sys.c:90
        if(sc == CLK_SOURCE_PLL_80MHz)
        {
            R8_SAFE_ACCESS_SIG = SAFE_ACCESS_SIG1;
            R8_SAFE_ACCESS_SIG = SAFE_ACCESS_SIG2;
            SAFEOPERATE;
            R8_FLASH_CFG = 0X02;
2000015e:	80d703a3          	sb	a3,-2041(a4) # 40001807 <_eusrstack+0x1fff9807>
E:\Project\tp78_v2\mounriver_project\RF_CH582M\obj/../StdPeriphDriver/CH58x_sys.c:91
            R8_SAFE_ACCESS_SIG = 0;
20000162:	04078023          	sb	zero,64(a5)
E:\Project\tp78_v2\mounriver_project\RF_CH582M\obj/../StdPeriphDriver/CH58x_sys.c:110
        R8_SAFE_ACCESS_SIG = SAFE_ACCESS_SIG2;
        SAFEOPERATE;
        R16_CLK_SYS_CFG |= RB_CLK_SYS_MOD;
    }
    //更改FLASH clk的驱动能力
    R8_SAFE_ACCESS_SIG = SAFE_ACCESS_SIG1;
20000166:	400017b7          	lui	a5,0x40001
2000016a:	05700713          	li	a4,87
2000016e:	04e78023          	sb	a4,64(a5) # 40001040 <_eusrstack+0x1fff9040>
E:\Project\tp78_v2\mounriver_project\RF_CH582M\obj/../StdPeriphDriver/CH58x_sys.c:111
    R8_SAFE_ACCESS_SIG = SAFE_ACCESS_SIG2;
20000172:	fa800713          	li	a4,-88
20000176:	04e78023          	sb	a4,64(a5)
E:\Project\tp78_v2\mounriver_project\RF_CH582M\obj/../StdPeriphDriver/CH58x_sys.c:112
    SAFEOPERATE;
2000017a:	0001                	nop
2000017c:	0001                	nop
E:\Project\tp78_v2\mounriver_project\RF_CH582M\obj/../StdPeriphDriver/CH58x_sys.c:113
    R8_PLL_CONFIG |= 1 << 7;
2000017e:	04b7c703          	lbu	a4,75(a5)
20000182:	08076713          	ori	a4,a4,128
20000186:	04e785a3          	sb	a4,75(a5)
E:\Project\tp78_v2\mounriver_project\RF_CH582M\obj/../StdPeriphDriver/CH58x_sys.c:114
    R8_SAFE_ACCESS_SIG = 0;
2000018a:	04078023          	sb	zero,64(a5)
E:\Project\tp78_v2\mounriver_project\RF_CH582M\obj/../StdPeriphDriver/CH58x_sys.c:115
}
2000018e:	8082                	ret
E:\Project\tp78_v2\mounriver_project\RF_CH582M\obj/../StdPeriphDriver/CH58x_sys.c:62
    else if(sc & 0x40)
20000190:	04057613          	andi	a2,a0,64
20000194:	c641                	beqz	a2,2000021c <SetSysClock+0x156>
E:\Project\tp78_v2\mounriver_project\RF_CH582M\obj/../StdPeriphDriver/CH58x_sys.c:64
        if(!(R8_HFCK_PWR_CTRL & RB_CLK_PLL_PON))
20000196:	00a7c603          	lbu	a2,10(a5)
2000019a:	8a41                	andi	a2,a2,16
2000019c:	e21d                	bnez	a2,200001c2 <SetSysClock+0xfc>
E:\Project\tp78_v2\mounriver_project\RF_CH582M\obj/../StdPeriphDriver/CH58x_sys.c:66
            R8_SAFE_ACCESS_SIG = SAFE_ACCESS_SIG1;
2000019e:	04d78023          	sb	a3,64(a5)
E:\Project\tp78_v2\mounriver_project\RF_CH582M\obj/../StdPeriphDriver/CH58x_sys.c:67
            R8_SAFE_ACCESS_SIG = SAFE_ACCESS_SIG2;
200001a2:	04e78023          	sb	a4,64(a5)
E:\Project\tp78_v2\mounriver_project\RF_CH582M\obj/../StdPeriphDriver/CH58x_sys.c:68
            SAFEOPERATE;
200001a6:	0001                	nop
200001a8:	0001                	nop
E:\Project\tp78_v2\mounriver_project\RF_CH582M\obj/../StdPeriphDriver/CH58x_sys.c:69
            R8_HFCK_PWR_CTRL |= RB_CLK_PLL_PON; // PLL power on
200001aa:	00a7c703          	lbu	a4,10(a5)
200001ae:	01076713          	ori	a4,a4,16
200001b2:	00e78523          	sb	a4,10(a5)
200001b6:	7d000793          	li	a5,2000
E:\Project\tp78_v2\mounriver_project\RF_CH582M\obj/../StdPeriphDriver/CH58x_sys.c:72 (discriminator 3)
                __nop();
200001ba:	0001                	nop
E:\Project\tp78_v2\mounriver_project\RF_CH582M\obj/../StdPeriphDriver/CH58x_sys.c:73 (discriminator 3)
                __nop();
200001bc:	0001                	nop
200001be:	17fd                	addi	a5,a5,-1
E:\Project\tp78_v2\mounriver_project\RF_CH582M\obj/../StdPeriphDriver/CH58x_sys.c:70 (discriminator 3)
            for(i = 0; i < 2000; i++)
200001c0:	ffed                	bnez	a5,200001ba <SetSysClock+0xf4>
E:\Project\tp78_v2\mounriver_project\RF_CH582M\obj/../StdPeriphDriver/CH58x_sys.c:76
        R8_SAFE_ACCESS_SIG = SAFE_ACCESS_SIG1;
200001c2:	400017b7          	lui	a5,0x40001
200001c6:	05700693          	li	a3,87
200001ca:	04d78023          	sb	a3,64(a5) # 40001040 <_eusrstack+0x1fff9040>
E:\Project\tp78_v2\mounriver_project\RF_CH582M\obj/../StdPeriphDriver/CH58x_sys.c:77
        R8_SAFE_ACCESS_SIG = SAFE_ACCESS_SIG2;
200001ce:	fa800713          	li	a4,-88
200001d2:	04e78023          	sb	a4,64(a5)
E:\Project\tp78_v2\mounriver_project\RF_CH582M\obj/../StdPeriphDriver/CH58x_sys.c:78
        SAFEOPERATE;
200001d6:	0001                	nop
200001d8:	0001                	nop
E:\Project\tp78_v2\mounriver_project\RF_CH582M\obj/../StdPeriphDriver/CH58x_sys.c:79
        R16_CLK_SYS_CFG = (1 << 6) | (sc & 0x1f);
200001da:	01f57613          	andi	a2,a0,31
200001de:	04066613          	ori	a2,a2,64
200001e2:	00c79423          	sh	a2,8(a5)
E:\Project\tp78_v2\mounriver_project\RF_CH582M\obj/../StdPeriphDriver/CH58x_sys.c:80
        __nop();
200001e6:	0001                	nop
E:\Project\tp78_v2\mounriver_project\RF_CH582M\obj/../StdPeriphDriver/CH58x_sys.c:81
        __nop();
200001e8:	0001                	nop
E:\Project\tp78_v2\mounriver_project\RF_CH582M\obj/../StdPeriphDriver/CH58x_sys.c:82
        __nop();
200001ea:	0001                	nop
E:\Project\tp78_v2\mounriver_project\RF_CH582M\obj/../StdPeriphDriver/CH58x_sys.c:83
        __nop();
200001ec:	0001                	nop
E:\Project\tp78_v2\mounriver_project\RF_CH582M\obj/../StdPeriphDriver/CH58x_sys.c:84
        R8_SAFE_ACCESS_SIG = 0;
200001ee:	04078023          	sb	zero,64(a5)
E:\Project\tp78_v2\mounriver_project\RF_CH582M\obj/../StdPeriphDriver/CH58x_sys.c:87
            R8_SAFE_ACCESS_SIG = SAFE_ACCESS_SIG1;
200001f2:	04d78023          	sb	a3,64(a5)
E:\Project\tp78_v2\mounriver_project\RF_CH582M\obj/../StdPeriphDriver/CH58x_sys.c:85
        if(sc == CLK_SOURCE_PLL_80MHz)
200001f6:	04600613          	li	a2,70
E:\Project\tp78_v2\mounriver_project\RF_CH582M\obj/../StdPeriphDriver/CH58x_sys.c:88
            R8_SAFE_ACCESS_SIG = SAFE_ACCESS_SIG2;
200001fa:	04e78023          	sb	a4,64(a5)
E:\Project\tp78_v2\mounriver_project\RF_CH582M\obj/../StdPeriphDriver/CH58x_sys.c:85
        if(sc == CLK_SOURCE_PLL_80MHz)
200001fe:	00c51863          	bne	a0,a2,2000020e <SetSysClock+0x148>
E:\Project\tp78_v2\mounriver_project\RF_CH582M\obj/../StdPeriphDriver/CH58x_sys.c:89
            SAFEOPERATE;
20000202:	0001                	nop
20000204:	0001                	nop
E:\Project\tp78_v2\mounriver_project\RF_CH582M\obj/../StdPeriphDriver/CH58x_sys.c:90
            R8_FLASH_CFG = 0X02;
20000206:	40002737          	lui	a4,0x40002
2000020a:	4689                	li	a3,2
2000020c:	bf89                	j	2000015e <SetSysClock+0x98>
E:\Project\tp78_v2\mounriver_project\RF_CH582M\obj/../StdPeriphDriver/CH58x_sys.c:97
            SAFEOPERATE;
2000020e:	0001                	nop
20000210:	0001                	nop
E:\Project\tp78_v2\mounriver_project\RF_CH582M\obj/../StdPeriphDriver/CH58x_sys.c:98
            R8_FLASH_CFG = 0X52;
20000212:	40002737          	lui	a4,0x40002
20000216:	05200693          	li	a3,82
2000021a:	b791                	j	2000015e <SetSysClock+0x98>
E:\Project\tp78_v2\mounriver_project\RF_CH582M\obj/../StdPeriphDriver/CH58x_sys.c:104
        R8_SAFE_ACCESS_SIG = SAFE_ACCESS_SIG1;
2000021c:	04d78023          	sb	a3,64(a5)
E:\Project\tp78_v2\mounriver_project\RF_CH582M\obj/../StdPeriphDriver/CH58x_sys.c:105
        R8_SAFE_ACCESS_SIG = SAFE_ACCESS_SIG2;
20000220:	04e78023          	sb	a4,64(a5)
E:\Project\tp78_v2\mounriver_project\RF_CH582M\obj/../StdPeriphDriver/CH58x_sys.c:106
        SAFEOPERATE;
20000224:	0001                	nop
20000226:	0001                	nop
E:\Project\tp78_v2\mounriver_project\RF_CH582M\obj/../StdPeriphDriver/CH58x_sys.c:107
        R16_CLK_SYS_CFG |= RB_CLK_SYS_MOD;
20000228:	0087d703          	lhu	a4,8(a5)
2000022c:	0c076713          	ori	a4,a4,192
20000230:	00e79423          	sh	a4,8(a5)
20000234:	bf0d                	j	20000166 <SetSysClock+0xa0>

20000236 <SYS_ResetExecute>:
SYS_ResetExecute():
E:\Project\tp78_v2\mounriver_project\RF_CH582M\obj/../StdPeriphDriver/CH58x_sys.c:177
 *
 * @return  none
 */
__HIGH_CODE
void SYS_ResetExecute(void)
{
20000236:	1141                	addi	sp,sp,-16
E:\Project\tp78_v2\mounriver_project\RF_CH582M\obj/../StdPeriphDriver/CH58x_sys.c:178
    FLASH_ROM_SW_RESET();
20000238:	4681                	li	a3,0
2000023a:	4601                	li	a2,0
2000023c:	4581                	li	a1,0
2000023e:	4511                	li	a0,4
E:\Project\tp78_v2\mounriver_project\RF_CH582M\obj/../StdPeriphDriver/CH58x_sys.c:177
{
20000240:	c606                	sw	ra,12(sp)
E:\Project\tp78_v2\mounriver_project\RF_CH582M\obj/../StdPeriphDriver/CH58x_sys.c:178
    FLASH_ROM_SW_RESET();
20000242:	24d9                	jal	20000508 <FLASH_EEPROM_CMD>
E:\Project\tp78_v2\mounriver_project\RF_CH582M\obj/../StdPeriphDriver/CH58x_sys.c:179
    R8_SAFE_ACCESS_SIG = SAFE_ACCESS_SIG1;
20000244:	400017b7          	lui	a5,0x40001
20000248:	05700713          	li	a4,87
2000024c:	04e78023          	sb	a4,64(a5) # 40001040 <_eusrstack+0x1fff9040>
E:\Project\tp78_v2\mounriver_project\RF_CH582M\obj/../StdPeriphDriver/CH58x_sys.c:180
    R8_SAFE_ACCESS_SIG = SAFE_ACCESS_SIG2;
20000250:	fa800713          	li	a4,-88
20000254:	04e78023          	sb	a4,64(a5)
E:\Project\tp78_v2\mounriver_project\RF_CH582M\obj/../StdPeriphDriver/CH58x_sys.c:181
    SAFEOPERATE;
20000258:	0001                	nop
2000025a:	0001                	nop
E:\Project\tp78_v2\mounriver_project\RF_CH582M\obj/../StdPeriphDriver/CH58x_sys.c:182
    R8_RST_WDOG_CTRL |= RB_SOFTWARE_RESET;
2000025c:	0467c703          	lbu	a4,70(a5)
20000260:	00176713          	ori	a4,a4,1
20000264:	04e78323          	sb	a4,70(a5)
E:\Project\tp78_v2\mounriver_project\RF_CH582M\obj/../StdPeriphDriver/CH58x_sys.c:183
    R8_SAFE_ACCESS_SIG = 0;
20000268:	04078023          	sb	zero,64(a5)
E:\Project\tp78_v2\mounriver_project\RF_CH582M\obj/../StdPeriphDriver/CH58x_sys.c:184
}
2000026c:	40b2                	lw	ra,12(sp)
2000026e:	0141                	addi	sp,sp,16
20000270:	8082                	ret

20000272 <HardFault_Handler>:
HardFault_Handler():
E:\Project\tp78_v2\mounriver_project\RF_CH582M\obj/../StdPeriphDriver/CH58x_sys.c:316
__INTERRUPT
__HIGH_CODE
__attribute__((weak))
void HardFault_Handler(void)
{
    FLASH_ROM_SW_RESET();
20000272:	4681                	li	a3,0
20000274:	4601                	li	a2,0
20000276:	4581                	li	a1,0
20000278:	4511                	li	a0,4
2000027a:	2479                	jal	20000508 <FLASH_EEPROM_CMD>
E:\Project\tp78_v2\mounriver_project\RF_CH582M\obj/../StdPeriphDriver/CH58x_sys.c:317
    R8_SAFE_ACCESS_SIG = SAFE_ACCESS_SIG1;
2000027c:	400017b7          	lui	a5,0x40001
20000280:	05700713          	li	a4,87
20000284:	04e78023          	sb	a4,64(a5) # 40001040 <_eusrstack+0x1fff9040>
E:\Project\tp78_v2\mounriver_project\RF_CH582M\obj/../StdPeriphDriver/CH58x_sys.c:318
    R8_SAFE_ACCESS_SIG = SAFE_ACCESS_SIG2;
20000288:	fa800713          	li	a4,-88
2000028c:	04e78023          	sb	a4,64(a5)
E:\Project\tp78_v2\mounriver_project\RF_CH582M\obj/../StdPeriphDriver/CH58x_sys.c:319
    SAFEOPERATE;
20000290:	0001                	nop
20000292:	0001                	nop
E:\Project\tp78_v2\mounriver_project\RF_CH582M\obj/../StdPeriphDriver/CH58x_sys.c:320
    R16_INT32K_TUNE = 0xFFFF;
20000294:	577d                	li	a4,-1
20000296:	02e79623          	sh	a4,44(a5)
E:\Project\tp78_v2\mounriver_project\RF_CH582M\obj/../StdPeriphDriver/CH58x_sys.c:321
    R8_RST_WDOG_CTRL |= RB_SOFTWARE_RESET;
2000029a:	0467c703          	lbu	a4,70(a5)
2000029e:	00176713          	ori	a4,a4,1
200002a2:	04e78323          	sb	a4,70(a5)
E:\Project\tp78_v2\mounriver_project\RF_CH582M\obj/../StdPeriphDriver/CH58x_sys.c:322
    R8_SAFE_ACCESS_SIG = 0;
200002a6:	04078023          	sb	zero,64(a5)
E:\Project\tp78_v2\mounriver_project\RF_CH582M\obj/../StdPeriphDriver/CH58x_sys.c:323 (discriminator 1)
    while(1);
200002aa:	a001                	j	200002aa <HardFault_Handler+0x38>

200002ac <mDelayuS>:
mDelayuS():
E:\Project\tp78_v2\mounriver_project\RF_CH582M\obj/../StdPeriphDriver/CH58x_sys.c:340
__HIGH_CODE
void mDelayuS(uint16_t t)
{
    uint32_t i;
#if(FREQ_SYS == 60000000)
    i = t * 15;
200002ac:	47bd                	li	a5,15
200002ae:	02f50533          	mul	a0,a0,a5
E:\Project\tp78_v2\mounriver_project\RF_CH582M\obj/../StdPeriphDriver/CH58x_sys.c:362 (discriminator 1)
#elif(FREQ_SYS == 1000000)
    i = t >> 2;
#endif
    do
    {
        __nop();
200002b2:	0001                	nop
E:\Project\tp78_v2\mounriver_project\RF_CH582M\obj/../StdPeriphDriver/CH58x_sys.c:363 (discriminator 1)
    } while(--i);
200002b4:	157d                	addi	a0,a0,-1
200002b6:	fd75                	bnez	a0,200002b2 <mDelayuS+0x6>
E:\Project\tp78_v2\mounriver_project\RF_CH582M\obj/../StdPeriphDriver/CH58x_sys.c:364
}
200002b8:	8082                	ret

200002ba <mDelaymS>:
mDelaymS():
E:\Project\tp78_v2\mounriver_project\RF_CH582M\obj/../StdPeriphDriver/CH58x_sys.c:377
 *
 * @return  none
 */
__HIGH_CODE
void mDelaymS(uint16_t t)
{
200002ba:	1141                	addi	sp,sp,-16
200002bc:	c422                	sw	s0,8(sp)
200002be:	c226                	sw	s1,4(sp)
200002c0:	c606                	sw	ra,12(sp)
200002c2:	84aa                	mv	s1,a0
E:\Project\tp78_v2\mounriver_project\RF_CH582M\obj/../StdPeriphDriver/CH58x_sys.c:380
    uint16_t i;

    for(i = 0; i < t; i++)
200002c4:	4401                	li	s0,0
E:\Project\tp78_v2\mounriver_project\RF_CH582M\obj/../StdPeriphDriver/CH58x_sys.c:380 (discriminator 1)
200002c6:	00941763          	bne	s0,s1,200002d4 <mDelaymS+0x1a>
E:\Project\tp78_v2\mounriver_project\RF_CH582M\obj/../StdPeriphDriver/CH58x_sys.c:384
    {
        mDelayuS(1000);
    }
}
200002ca:	40b2                	lw	ra,12(sp)
200002cc:	4422                	lw	s0,8(sp)
200002ce:	4492                	lw	s1,4(sp)
200002d0:	0141                	addi	sp,sp,16
200002d2:	8082                	ret
E:\Project\tp78_v2\mounriver_project\RF_CH582M\obj/../StdPeriphDriver/CH58x_sys.c:380 (discriminator 3)
    for(i = 0; i < t; i++)
200002d4:	0405                	addi	s0,s0,1
E:\Project\tp78_v2\mounriver_project\RF_CH582M\obj/../StdPeriphDriver/CH58x_sys.c:382 (discriminator 3)
        mDelayuS(1000);
200002d6:	3e800513          	li	a0,1000
E:\Project\tp78_v2\mounriver_project\RF_CH582M\obj/../StdPeriphDriver/CH58x_sys.c:380 (discriminator 3)
    for(i = 0; i < t; i++)
200002da:	0442                	slli	s0,s0,0x10
E:\Project\tp78_v2\mounriver_project\RF_CH582M\obj/../StdPeriphDriver/CH58x_sys.c:382 (discriminator 3)
        mDelayuS(1000);
200002dc:	3fc1                	jal	200002ac <mDelayuS>
E:\Project\tp78_v2\mounriver_project\RF_CH582M\obj/../StdPeriphDriver/CH58x_sys.c:380 (discriminator 3)
    for(i = 0; i < t; i++)
200002de:	8041                	srli	s0,s0,0x10
200002e0:	b7dd                	j	200002c6 <mDelaymS+0xc>

200002e2 <APPJumpBoot>:
APPJumpBoot():
E:\Project\tp78_v2_develop\mounriver_project\RF_CH582M\obj/../HAL/ISP.c:16
#include "HAL.h"
#include "CONFIG.h"

__HIGH_CODE
void APPJumpBoot(void)   //此段代码必须运行在RAM中
{
200002e2:	1141                	addi	sp,sp,-16
200002e4:	c606                	sw	ra,12(sp)
E:\Project\tp78_v2_develop\mounriver_project\RF_CH582M\obj/../HAL/ISP.c:17 (discriminator 1)
  while(FLASH_ROM_ERASE(0, EEPROM_BLOCK_SIZE))
200002e6:	6685                	lui	a3,0x1
200002e8:	4601                	li	a2,0
200002ea:	4581                	li	a1,0
200002ec:	4505                	li	a0,1
200002ee:	2c29                	jal	20000508 <FLASH_EEPROM_CMD>
200002f0:	f97d                	bnez	a0,200002e6 <APPJumpBoot+0x4>
E:\Project\tp78_v2_develop\mounriver_project\RF_CH582M\obj/../HAL/ISP.c:21
  {
    ;//ROM 擦4K1个单位，擦0地址起始
  }
  FLASH_ROM_SW_RESET();
200002f2:	4681                	li	a3,0
200002f4:	4601                	li	a2,0
200002f6:	4581                	li	a1,0
200002f8:	4511                	li	a0,4
200002fa:	2439                	jal	20000508 <FLASH_EEPROM_CMD>
E:\Project\tp78_v2_develop\mounriver_project\RF_CH582M\obj/../HAL/ISP.c:22
  R8_SAFE_ACCESS_SIG = SAFE_ACCESS_SIG1;
200002fc:	400017b7          	lui	a5,0x40001
20000300:	05700713          	li	a4,87
20000304:	04e78023          	sb	a4,64(a5) # 40001040 <_eusrstack+0x1fff9040>
E:\Project\tp78_v2_develop\mounriver_project\RF_CH582M\obj/../HAL/ISP.c:23
  R8_SAFE_ACCESS_SIG = SAFE_ACCESS_SIG2;  //安全访问模式
20000308:	fa800713          	li	a4,-88
2000030c:	04e78023          	sb	a4,64(a5)
E:\Project\tp78_v2_develop\mounriver_project\RF_CH582M\obj/../HAL/ISP.c:24
  SAFEOPERATE;
20000310:	0001                	nop
20000312:	0001                	nop
E:\Project\tp78_v2_develop\mounriver_project\RF_CH582M\obj/../HAL/ISP.c:25
  R16_INT32K_TUNE = 0xFFFF;
20000314:	577d                	li	a4,-1
20000316:	02e79623          	sh	a4,44(a5)
E:\Project\tp78_v2_develop\mounriver_project\RF_CH582M\obj/../HAL/ISP.c:26
  R8_RST_WDOG_CTRL |= RB_SOFTWARE_RESET;
2000031a:	0467c703          	lbu	a4,70(a5)
2000031e:	00176713          	ori	a4,a4,1
20000322:	04e78323          	sb	a4,70(a5)
E:\Project\tp78_v2_develop\mounriver_project\RF_CH582M\obj/../HAL/ISP.c:27
  R8_SAFE_ACCESS_SIG = 0;//进入后执行复位，复位类型为上电复位
20000326:	04078023          	sb	zero,64(a5)
E:\Project\tp78_v2_develop\mounriver_project\RF_CH582M\obj/../HAL/ISP.c:28 (discriminator 1)
  while(1);//营造空片的现象，启动时就会停在BOOT，等烧写，超时时间10s
2000032a:	a001                	j	2000032a <APPJumpBoot+0x48>

2000032c <SoftReset>:
SoftReset():
E:\Project\tp78_v2_develop\mounriver_project\RF_CH582M\obj/../HAL/ISP.c:34
}

__HIGH_CODE
void SoftReset(void)   //软件复位
{
  R8_SAFE_ACCESS_SIG = SAFE_ACCESS_SIG1;
2000032c:	400017b7          	lui	a5,0x40001
20000330:	05700713          	li	a4,87
20000334:	04e78023          	sb	a4,64(a5) # 40001040 <_eusrstack+0x1fff9040>
E:\Project\tp78_v2_develop\mounriver_project\RF_CH582M\obj/../HAL/ISP.c:35
  R8_SAFE_ACCESS_SIG = SAFE_ACCESS_SIG2;  //安全访问模式
20000338:	fa800713          	li	a4,-88
2000033c:	04e78023          	sb	a4,64(a5)
E:\Project\tp78_v2_develop\mounriver_project\RF_CH582M\obj/../HAL/ISP.c:36
  SAFEOPERATE;
20000340:	0001                	nop
20000342:	0001                	nop
E:\Project\tp78_v2_develop\mounriver_project\RF_CH582M\obj/../HAL/ISP.c:37
  R16_INT32K_TUNE = 0xFFFF;
20000344:	577d                	li	a4,-1
20000346:	02e79623          	sh	a4,44(a5)
E:\Project\tp78_v2_develop\mounriver_project\RF_CH582M\obj/../HAL/ISP.c:38
  R8_RST_WDOG_CTRL |= RB_SOFTWARE_RESET;
2000034a:	0467c703          	lbu	a4,70(a5)
2000034e:	00176713          	ori	a4,a4,1
20000352:	04e78323          	sb	a4,70(a5)
E:\Project\tp78_v2_develop\mounriver_project\RF_CH582M\obj/../HAL/ISP.c:39
  R8_SAFE_ACCESS_SIG = 0;
20000356:	04078023          	sb	zero,64(a5)
E:\Project\tp78_v2_develop\mounriver_project\RF_CH582M\obj/../HAL/ISP.c:40 (discriminator 1)
  while(1);
2000035a:	a001                	j	2000035a <SoftReset+0x2e>

2000035c <RTC_IRQHandler>:
RTC_IRQHandler():
E:\Project\tp78_v2_develop\mounriver_project\RF_CH582M\obj/../HAL/RTC.c:58
 */
__INTERRUPT
__HIGH_CODE
void RTC_IRQHandler(void)
{
    R8_RTC_FLAG_CTRL = (RB_RTC_TMR_CLR | RB_RTC_TRIG_CLR);
2000035c:	400017b7          	lui	a5,0x40001
20000360:	03000713          	li	a4,48
20000364:	02e78823          	sb	a4,48(a5) # 40001030 <_eusrstack+0x1fff9030>
E:\Project\tp78_v2_develop\mounriver_project\RF_CH582M\obj/../HAL/RTC.c:59
    RTCTigFlag = 1;
20000368:	4785                	li	a5,1
2000036a:	86f1a223          	sw	a5,-1948(gp) # 2000187c <RTCTigFlag>
E:\Project\tp78_v2_develop\mounriver_project\RF_CH582M\obj/../HAL/RTC.c:60
}
2000036e:	30200073          	mret

20000372 <USB_IRQHandler>:
USB_IRQHandler():
E:\Project\tp78_v2_develop\mounriver_project\RF_CH582M\obj/../HAL/USB.c:595

__INTERRUPT
__HIGH_CODE
void USB_IRQHandler( void )     //USB中断服务程序,使用寄存器组1
{
    USB_DevTransProcess();
20000372:	e0002097          	auipc	ra,0xe0002
20000376:	3b2080e7          	jalr	946(ra) # 2724 <USB_DevTransProcess>
E:\Project\tp78_v2_develop\mounriver_project\RF_CH582M\obj/../HAL/USB.c:596
}
2000037a:	30200073          	mret

2000037e <TMR0_IRQHandler>:
TMR0_IRQHandler():
E:\Project\tp78_v2_develop\mounriver_project\RF_CH582M\obj/../APP/RF_PHY.c:246
__INTERRUPT
__HIGH_CODE
void TMR0_IRQHandler(void)
{
  /*!< Timer 0 IRQ */
  if (TMR0_GetITFlag(TMR0_3_IT_CYC_END)) {
2000037e:	40002737          	lui	a4,0x40002
20000382:	00674783          	lbu	a5,6(a4) # 40002006 <_eusrstack+0x1fffa006>
20000386:	8b85                	andi	a5,a5,1
20000388:	cbc5                	beqz	a5,20000438 <TMR0_IRQHandler+0xba>
E:\Project\tp78_v2_develop\mounriver_project\RF_CH582M\obj/../APP/RF_PHY.c:248
    /*!< Clear Pending flag */
    TMR0_ClearITFlag(TMR0_3_IT_CYC_END);
2000038a:	4785                	li	a5,1
2000038c:	00f70323          	sb	a5,6(a4)
E:\Project\tp78_v2_develop\mounriver_project\RF_CH582M\obj/../APP/RF_PHY.c:251

    /*!< Updata the ms count */
    if (heartbeat_cnt >= HEARTBEAT_CNT_MAX) {
20000390:	81018793          	addi	a5,gp,-2032 # 20001828 <heartbeat_cnt>
20000394:	439c                	lw	a5,0(a5)
20000396:	474d                	li	a4,19
20000398:	0af77263          	bgeu	a4,a5,2000043c <TMR0_IRQHandler+0xbe>
E:\Project\tp78_v2_develop\mounriver_project\RF_CH582M\obj/../APP/RF_PHY.c:253
        heartbeat_cnt = 0;
        tmos_memset(&HID_dat, 0, sizeof(HID_dat));
2000039c:	4625                	li	a2,9
2000039e:	4581                	li	a1,0
200003a0:	9b418513          	addi	a0,gp,-1612 # 200019cc <HID_dat>
E:\Project\tp78_v2_develop\mounriver_project\RF_CH582M\obj/../APP/RF_PHY.c:252
        heartbeat_cnt = 0;
200003a4:	8001a823          	sw	zero,-2032(gp) # 20001828 <heartbeat_cnt>
E:\Project\tp78_v2_develop\mounriver_project\RF_CH582M\obj/../APP/RF_PHY.c:253
        tmos_memset(&HID_dat, 0, sizeof(HID_dat));
200003a8:	2309                	jal	200008aa <tmos_memset>
E:\Project\tp78_v2_develop\mounriver_project\RF_CH582M\obj/../APP/RF_PHY.c:254
        if (lastevent[0] == TRUE) {
200003aa:	8141c703          	lbu	a4,-2028(gp) # 2000182c <lastevent>
200003ae:	4785                	li	a5,1
200003b0:	00f71d63          	bne	a4,a5,200003ca <TMR0_IRQHandler+0x4c>
E:\Project\tp78_v2_develop\mounriver_project\RF_CH582M\obj/../APP/RF_PHY.c:256
            lastevent[0] = FALSE;
            tmos_set_event(usbTaskID, USB_MOUSE_EVENT);
200003b4:	4589                	li	a1,2
200003b6:	00001517          	auipc	a0,0x1
200003ba:	46254503          	lbu	a0,1122(a0) # 20001818 <usbTaskID>
E:\Project\tp78_v2_develop\mounriver_project\RF_CH582M\obj/../APP/RF_PHY.c:255
            lastevent[0] = FALSE;
200003be:	80018a23          	sb	zero,-2028(gp) # 2000182c <lastevent>
E:\Project\tp78_v2_develop\mounriver_project\RF_CH582M\obj/../APP/RF_PHY.c:256
            tmos_set_event(usbTaskID, USB_MOUSE_EVENT);
200003c2:	e0003097          	auipc	ra,0xe0003
200003c6:	d46080e7          	jalr	-698(ra) # 3108 <tmos_set_event>
E:\Project\tp78_v2_develop\mounriver_project\RF_CH582M\obj/../APP/RF_PHY.c:258
        }
        if (lastevent[1] == TRUE) {
200003ca:	8151c703          	lbu	a4,-2027(gp) # 2000182d <lastevent+0x1>
200003ce:	4785                	li	a5,1
200003d0:	00f71d63          	bne	a4,a5,200003ea <TMR0_IRQHandler+0x6c>
E:\Project\tp78_v2_develop\mounriver_project\RF_CH582M\obj/../APP/RF_PHY.c:260
            lastevent[1] = FALSE;
            tmos_set_event(usbTaskID, USB_KEYBOARD_EVENT);
200003d4:	4585                	li	a1,1
200003d6:	00001517          	auipc	a0,0x1
200003da:	44254503          	lbu	a0,1090(a0) # 20001818 <usbTaskID>
E:\Project\tp78_v2_develop\mounriver_project\RF_CH582M\obj/../APP/RF_PHY.c:259
            lastevent[1] = FALSE;
200003de:	80018aa3          	sb	zero,-2027(gp) # 2000182d <lastevent+0x1>
E:\Project\tp78_v2_develop\mounriver_project\RF_CH582M\obj/../APP/RF_PHY.c:260
            tmos_set_event(usbTaskID, USB_KEYBOARD_EVENT);
200003e2:	e0003097          	auipc	ra,0xe0003
200003e6:	d26080e7          	jalr	-730(ra) # 3108 <tmos_set_event>
E:\Project\tp78_v2_develop\mounriver_project\RF_CH582M\obj/../APP/RF_PHY.c:262
        }
        if (lastevent[2] == TRUE) {
200003ea:	8161c703          	lbu	a4,-2026(gp) # 2000182e <lastevent+0x2>
200003ee:	4785                	li	a5,1
200003f0:	00f71d63          	bne	a4,a5,2000040a <TMR0_IRQHandler+0x8c>
E:\Project\tp78_v2_develop\mounriver_project\RF_CH582M\obj/../APP/RF_PHY.c:264
            lastevent[2] = FALSE;
            tmos_set_event(usbTaskID, USB_VOL_EVENT);
200003f4:	4591                	li	a1,4
200003f6:	00001517          	auipc	a0,0x1
200003fa:	42254503          	lbu	a0,1058(a0) # 20001818 <usbTaskID>
E:\Project\tp78_v2_develop\mounriver_project\RF_CH582M\obj/../APP/RF_PHY.c:263
            lastevent[2] = FALSE;
200003fe:	80018b23          	sb	zero,-2026(gp) # 2000182e <lastevent+0x2>
E:\Project\tp78_v2_develop\mounriver_project\RF_CH582M\obj/../APP/RF_PHY.c:264
            tmos_set_event(usbTaskID, USB_VOL_EVENT);
20000402:	e0003097          	auipc	ra,0xe0003
20000406:	d06080e7          	jalr	-762(ra) # 3108 <tmos_set_event>
E:\Project\tp78_v2_develop\mounriver_project\RF_CH582M\obj/../APP/RF_PHY.c:268
        }
    } else heartbeat_cnt++;
    /*!< Set timing time 1ms */
    R32_TMR0_CNT_END = GetSysClock() / 1000;
2000040a:	e0002097          	auipc	ra,0xe0002
2000040e:	9be080e7          	jalr	-1602(ra) # 1dc8 <GetSysClock>
20000412:	3e800793          	li	a5,1000
20000416:	02f55533          	divu	a0,a0,a5
2000041a:	400027b7          	lui	a5,0x40002
E:\Project\tp78_v2_develop\mounriver_project\RF_CH582M\obj/../APP/RF_PHY.c:269
    R8_TMR0_CTRL_MOD = RB_TMR_ALL_CLEAR;
2000041e:	4709                	li	a4,2
E:\Project\tp78_v2_develop\mounriver_project\RF_CH582M\obj/../APP/RF_PHY.c:268
    R32_TMR0_CNT_END = GetSysClock() / 1000;
20000420:	c7c8                	sw	a0,12(a5)
E:\Project\tp78_v2_develop\mounriver_project\RF_CH582M\obj/../APP/RF_PHY.c:269
    R8_TMR0_CTRL_MOD = RB_TMR_ALL_CLEAR;
20000422:	00e78023          	sb	a4,0(a5) # 40002000 <_eusrstack+0x1fffa000>
E:\Project\tp78_v2_develop\mounriver_project\RF_CH582M\obj/../APP/RF_PHY.c:270
    R8_TMR0_CTRL_MOD = RB_TMR_COUNT_EN;
20000426:	4711                	li	a4,4
20000428:	00e78023          	sb	a4,0(a5)
E:\Project\tp78_v2_develop\mounriver_project\RF_CH582M\obj/../APP/RF_PHY.c:273

    /*!< Enable interrupt */
    TMR0_ITCfg(ENABLE, TMR0_3_IT_CYC_END);
2000042c:	0027c703          	lbu	a4,2(a5)
20000430:	00176713          	ori	a4,a4,1
20000434:	00e78123          	sb	a4,2(a5)
E:\Project\tp78_v2_develop\mounriver_project\RF_CH582M\obj/../APP/RF_PHY.c:275
  }
}
20000438:	30200073          	mret
E:\Project\tp78_v2_develop\mounriver_project\RF_CH582M\obj/../APP/RF_PHY.c:266
    } else heartbeat_cnt++;
2000043c:	0785                	addi	a5,a5,1
2000043e:	80f1a823          	sw	a5,-2032(gp) # 20001828 <heartbeat_cnt>
20000442:	b7e1                	j	2000040a <TMR0_IRQHandler+0x8c>

20000444 <Main_Circulation>:
Main_Circulation():
E:\Project\tp78_v2_develop\mounriver_project\RF_CH582M\obj/../APP/RF_main.c:41
 * @return  none
 */
__HIGH_CODE
__attribute__((noinline))
void Main_Circulation()
{
20000444:	1141                	addi	sp,sp,-16
20000446:	c606                	sw	ra,12(sp)
E:\Project\tp78_v2_develop\mounriver_project\RF_CH582M\obj/../APP/RF_main.c:44 (discriminator 1)
    while(1)
    {
        TMOS_SystemProcess();
20000448:	2d85                	jal	20000ab8 <TMOS_SystemProcess>
2000044a:	bffd                	j	20000448 <Main_Circulation+0x4>

2000044c <FLASH_ROM_BEG>:
FLASH_ROM_BEG():
2000044c:	80040323          	sb	zero,-2042(s0)
20000450:	4715                	li	a4,5
20000452:	80e40323          	sb	a4,-2042(s0)
20000456:	0001                	nop
20000458:	80a40223          	sb	a0,-2044(s0)
2000045c:	8082                	ret

2000045e <FLASH_ROM_END>:
FLASH_ROM_END():
2000045e:	80640783          	lb	a5,-2042(s0)
20000462:	fe07cee3          	bltz	a5,2000045e <FLASH_ROM_END>
20000466:	80040323          	sb	zero,-2042(s0)
2000046a:	8082                	ret

2000046c <FLASH_ROM_IN>:
FLASH_ROM_IN():
2000046c:	80640783          	lb	a5,-2042(s0)
20000470:	fe07cee3          	bltz	a5,2000046c <FLASH_ROM_IN>
20000474:	80444503          	lbu	a0,-2044(s0)
20000478:	8082                	ret

2000047a <FLASH_ROM_OUT>:
FLASH_ROM_OUT():
2000047a:	80640783          	lb	a5,-2042(s0)
2000047e:	fe07cee3          	bltz	a5,2000047a <FLASH_ROM_OUT>
20000482:	80a40223          	sb	a0,-2044(s0)
20000486:	8082                	ret

20000488 <FLASH_ROM_ADDR>:
FLASH_ROM_ADDR():
20000488:	1141                	addi	sp,sp,-16
2000048a:	c426                	sw	s1,8(sp)
2000048c:	c24a                	sw	s2,4(sp)
2000048e:	c04e                	sw	s3,0(sp)
20000490:	c606                	sw	ra,12(sp)
20000492:	0bf57713          	andi	a4,a0,191
20000496:	47ad                	li	a5,11
20000498:	89aa                	mv	s3,a0
2000049a:	892e                	mv	s2,a1
2000049c:	4495                	li	s1,5
2000049e:	00f70663          	beq	a4,a5,200004aa <FLASH_ROM_ADDR+0x22>
200004a2:	4519                	li	a0,6
200004a4:	3765                	jal	2000044c <FLASH_ROM_BEG>
200004a6:	3f65                	jal	2000045e <FLASH_ROM_END>
200004a8:	448d                	li	s1,3
200004aa:	854e                	mv	a0,s3
200004ac:	3745                	jal	2000044c <FLASH_ROM_BEG>
200004ae:	59fd                	li	s3,-1
200004b0:	14fd                	addi	s1,s1,-1
200004b2:	01349863          	bne	s1,s3,200004c2 <FLASH_ROM_ADDR+0x3a>
200004b6:	40b2                	lw	ra,12(sp)
200004b8:	44a2                	lw	s1,8(sp)
200004ba:	4912                	lw	s2,4(sp)
200004bc:	4982                	lw	s3,0(sp)
200004be:	0141                	addi	sp,sp,16
200004c0:	8082                	ret
200004c2:	01095513          	srli	a0,s2,0x10
200004c6:	0ff57513          	andi	a0,a0,255
200004ca:	3f45                	jal	2000047a <FLASH_ROM_OUT>
200004cc:	0922                	slli	s2,s2,0x8
200004ce:	b7cd                	j	200004b0 <FLASH_ROM_ADDR+0x28>

200004d0 <FLASH_ROM_WAIT>:
FLASH_ROM_WAIT():
200004d0:	1101                	addi	sp,sp,-32
200004d2:	cc26                	sw	s1,24(sp)
200004d4:	ce06                	sw	ra,28(sp)
200004d6:	000804b7          	lui	s1,0x80
200004da:	3751                	jal	2000045e <FLASH_ROM_END>
200004dc:	4515                	li	a0,5
200004de:	37bd                	jal	2000044c <FLASH_ROM_BEG>
200004e0:	3771                	jal	2000046c <FLASH_ROM_IN>
200004e2:	3769                	jal	2000046c <FLASH_ROM_IN>
200004e4:	c62a                	sw	a0,12(sp)
200004e6:	3fa5                	jal	2000045e <FLASH_ROM_END>
200004e8:	4532                	lw	a0,12(sp)
200004ea:	00157793          	andi	a5,a0,1
200004ee:	eb89                	bnez	a5,20000500 <FLASH_ROM_WAIT+0x30>
200004f0:	00156513          	ori	a0,a0,1
200004f4:	0ff57513          	andi	a0,a0,255
200004f8:	40f2                	lw	ra,28(sp)
200004fa:	44e2                	lw	s1,24(sp)
200004fc:	6105                	addi	sp,sp,32
200004fe:	8082                	ret
20000500:	14fd                	addi	s1,s1,-1
20000502:	fce9                	bnez	s1,200004dc <FLASH_ROM_WAIT+0xc>
20000504:	4501                	li	a0,0
20000506:	bfcd                	j	200004f8 <FLASH_ROM_WAIT+0x28>

20000508 <FLASH_EEPROM_CMD>:
FLASH_EEPROM_CMD():
20000508:	7139                	addi	sp,sp,-64
2000050a:	dc26                	sw	s1,56(sp)
2000050c:	da4a                	sw	s2,52(sp)
2000050e:	d84e                	sw	s3,48(sp)
20000510:	d652                	sw	s4,44(sp)
20000512:	d456                	sw	s5,40(sp)
20000514:	d25a                	sw	s6,36(sp)
20000516:	d05e                	sw	s7,32(sp)
20000518:	de06                	sw	ra,60(sp)
2000051a:	ce62                	sw	s8,28(sp)
2000051c:	cc66                	sw	s9,24(sp)
2000051e:	e000e7b7          	lui	a5,0xe000e
20000522:	577d                	li	a4,-1
20000524:	0007aa83          	lw	s5,0(a5) # e000e000 <_eusrstack+0xc0006000>
20000528:	c622                	sw	s0,12(sp)
2000052a:	0047aa03          	lw	s4,4(a5)
2000052e:	18e7a023          	sw	a4,384(a5)
20000532:	18e7a223          	sw	a4,388(a5)
20000536:	400017b7          	lui	a5,0x40001
2000053a:	05700713          	li	a4,87
2000053e:	04e78023          	sb	a4,64(a5) # 40001040 <_eusrstack+0x1fff9040>
20000542:	fa800713          	li	a4,-88
20000546:	04e78023          	sb	a4,64(a5)
2000054a:	0447c783          	lbu	a5,68(a5)
2000054e:	ff750b93          	addi	s7,a0,-9
20000552:	84b6                	mv	s1,a3
20000554:	07e2                	slli	a5,a5,0x18
20000556:	0ffbfb93          	andi	s7,s7,255
2000055a:	4685                	li	a3,1
2000055c:	89aa                	mv	s3,a0
2000055e:	8b2e                	mv	s6,a1
20000560:	8932                	mv	s2,a2
20000562:	40002437          	lui	s0,0x40002
20000566:	87e1                	srai	a5,a5,0x18
20000568:	5701                	li	a4,-32
2000056a:	0176fa63          	bgeu	a3,s7,2000057e <FLASH_EEPROM_CMD+0x76>
2000056e:	00d50863          	beq	a0,a3,2000057e <FLASH_EEPROM_CMD+0x76>
20000572:	4689                	li	a3,2
20000574:	02000713          	li	a4,32
20000578:	00d51363          	bne	a0,a3,2000057e <FLASH_EEPROM_CMD+0x76>
2000057c:	5701                	li	a4,-32
2000057e:	8fd9                	or	a5,a5,a4
20000580:	0ff7f793          	andi	a5,a5,255
20000584:	40001cb7          	lui	s9,0x40001
20000588:	04fc8223          	sb	a5,68(s9) # 40001044 <_eusrstack+0x1fff9044>
2000058c:	4711                	li	a4,4
2000058e:	80e40323          	sb	a4,-2042(s0) # 40001806 <_eusrstack+0x1fff9806>
20000592:	0ff00513          	li	a0,255
20000596:	3d5d                	jal	2000044c <FLASH_ROM_BEG>
20000598:	4c09                	li	s8,2
2000059a:	35d1                	jal	2000045e <FLASH_ROM_END>
2000059c:	117c6d63          	bltu	s8,s7,200006b6 <FLASH_EEPROM_CMD+0x1ae>
200005a0:	000705b7          	lui	a1,0x70
200005a4:	95da                	add	a1,a1,s6
200005a6:	00078737          	lui	a4,0x78
200005aa:	5579                	li	a0,-2
200005ac:	04e5f263          	bgeu	a1,a4,200005f0 <FLASH_EEPROM_CMD+0xe8>
200005b0:	009587b3          	add	a5,a1,s1
200005b4:	02f76e63          	bltu	a4,a5,200005f0 <FLASH_EEPROM_CMD+0xe8>
200005b8:	00080b37          	lui	s6,0x80
200005bc:	47a9                	li	a5,10
200005be:	0165eb33          	or	s6,a1,s6
200005c2:	06f99963          	bne	s3,a5,20000634 <FLASH_EEPROM_CMD+0x12c>
200005c6:	e489                	bnez	s1,200005d0 <FLASH_EEPROM_CMD+0xc8>
200005c8:	4481                	li	s1,0
200005ca:	3d51                	jal	2000045e <FLASH_ROM_END>
200005cc:	8526                	mv	a0,s1
200005ce:	a00d                	j	200005f0 <FLASH_EEPROM_CMD+0xe8>
200005d0:	85da                	mv	a1,s6
200005d2:	4509                	li	a0,2
200005d4:	3d55                	jal	20000488 <FLASH_ROM_ADDR>
200005d6:	0905                	addi	s2,s2,1
200005d8:	fff94503          	lbu	a0,-1(s2)
200005dc:	14fd                	addi	s1,s1,-1
200005de:	0b05                	addi	s6,s6,1
200005e0:	3d69                	jal	2000047a <FLASH_ROM_OUT>
200005e2:	c481                	beqz	s1,200005ea <FLASH_EEPROM_CMD+0xe2>
200005e4:	0ffb7793          	andi	a5,s6,255
200005e8:	f7fd                	bnez	a5,200005d6 <FLASH_EEPROM_CMD+0xce>
200005ea:	35dd                	jal	200004d0 <FLASH_ROM_WAIT>
200005ec:	fd69                	bnez	a0,200005c6 <FLASH_EEPROM_CMD+0xbe>
200005ee:	557d                	li	a0,-1
200005f0:	400017b7          	lui	a5,0x40001
200005f4:	05700713          	li	a4,87
200005f8:	04e78023          	sb	a4,64(a5) # 40001040 <_eusrstack+0x1fff9040>
200005fc:	fa800713          	li	a4,-88
20000600:	04e78023          	sb	a4,64(a5)
20000604:	0447c703          	lbu	a4,68(a5)
20000608:	8b41                	andi	a4,a4,16
2000060a:	04e78223          	sb	a4,68(a5)
2000060e:	50f2                	lw	ra,60(sp)
20000610:	e000e7b7          	lui	a5,0xe000e
20000614:	1157a023          	sw	s5,256(a5) # e000e100 <_eusrstack+0xc0006100>
20000618:	1147a223          	sw	s4,260(a5)
2000061c:	54e2                	lw	s1,56(sp)
2000061e:	4432                	lw	s0,12(sp)
20000620:	5952                	lw	s2,52(sp)
20000622:	59c2                	lw	s3,48(sp)
20000624:	5a32                	lw	s4,44(sp)
20000626:	5aa2                	lw	s5,40(sp)
20000628:	5b12                	lw	s6,36(sp)
2000062a:	5b82                	lw	s7,32(sp)
2000062c:	4c72                	lw	s8,28(sp)
2000062e:	4ce2                	lw	s9,24(sp)
20000630:	6121                	addi	sp,sp,64
20000632:	8082                	ret
20000634:	47a5                	li	a5,9
20000636:	06f99563          	bne	s3,a5,200006a0 <FLASH_EEPROM_CMD+0x198>
2000063a:	6985                	lui	s3,0x1
2000063c:	0ff00913          	li	s2,255
20000640:	009906b3          	add	a3,s2,s1
20000644:	012b74b3          	and	s1,s6,s2
20000648:	94b6                	add	s1,s1,a3
2000064a:	fff94913          	not	s2,s2
2000064e:	009974b3          	and	s1,s2,s1
20000652:	6b85                	lui	s7,0x1
20000654:	01697933          	and	s2,s2,s6
20000658:	6b41                	lui	s6,0x10
2000065a:	fff98793          	addi	a5,s3,-1 # fff <_einit+0xffb>
2000065e:	0127f7b3          	and	a5,a5,s2
20000662:	e399                	bnez	a5,20000668 <FLASH_EEPROM_CMD+0x160>
20000664:	0134fc63          	bgeu	s1,s3,2000067c <FLASH_EEPROM_CMD+0x174>
20000668:	0049d993          	srli	s3,s3,0x4
2000066c:	47c1                	li	a5,16
2000066e:	ff37e6e3          	bltu	a5,s3,2000065a <FLASH_EEPROM_CMD+0x152>
20000672:	bf99                	j	200005c8 <FLASH_EEPROM_CMD+0xc0>
20000674:	6905                	lui	s2,0x1
20000676:	69c1                	lui	s3,0x10
20000678:	197d                	addi	s2,s2,-1
2000067a:	b7d9                	j	20000640 <FLASH_EEPROM_CMD+0x138>
2000067c:	0d800513          	li	a0,216
20000680:	01698863          	beq	s3,s6,20000690 <FLASH_EEPROM_CMD+0x188>
20000684:	02000513          	li	a0,32
20000688:	01798463          	beq	s3,s7,20000690 <FLASH_EEPROM_CMD+0x188>
2000068c:	08100513          	li	a0,129
20000690:	85ca                	mv	a1,s2
20000692:	3bdd                	jal	20000488 <FLASH_ROM_ADDR>
20000694:	3d35                	jal	200004d0 <FLASH_ROM_WAIT>
20000696:	dd21                	beqz	a0,200005ee <FLASH_EEPROM_CMD+0xe6>
20000698:	994e                	add	s2,s2,s3
2000069a:	413484b3          	sub	s1,s1,s3
2000069e:	b7d9                	j	20000664 <FLASH_EEPROM_CMD+0x15c>
200006a0:	85da                	mv	a1,s6
200006a2:	452d                	li	a0,11
200006a4:	33d5                	jal	20000488 <FLASH_ROM_ADDR>
200006a6:	94ca                	add	s1,s1,s2
200006a8:	f29900e3          	beq	s2,s1,200005c8 <FLASH_EEPROM_CMD+0xc0>
200006ac:	0905                	addi	s2,s2,1
200006ae:	3b7d                	jal	2000046c <FLASH_ROM_IN>
200006b0:	fea90fa3          	sb	a0,-1(s2) # fff <_einit+0xffb>
200006b4:	bfd5                	j	200006a8 <FLASH_EEPROM_CMD+0x1a0>
200006b6:	fff98793          	addi	a5,s3,-1 # ffff <_data_lma+0x996f>
200006ba:	0ff7f793          	andi	a5,a5,255
200006be:	0cfc6163          	bltu	s8,a5,20000780 <.loop402+0x7a>
200006c2:	041cc783          	lbu	a5,65(s9)
200006c6:	08300713          	li	a4,131
200006ca:	04f71f63          	bne	a4,a5,20000728 <.loop402+0x22>
200006ce:	00080737          	lui	a4,0x80
200006d2:	04eb6b63          	bltu	s6,a4,20000728 <.loop402+0x22>
200006d6:	009b07b3          	add	a5,s6,s1
200006da:	001006b7          	lui	a3,0x100
200006de:	04d7f563          	bgeu	a5,a3,20000728 <.loop402+0x22>
200006e2:	00eb4b33          	xor	s6,s6,a4
200006e6:	4789                	li	a5,2
200006e8:	06f99363          	bne	s3,a5,2000074e <.loop402+0x48>
200006ec:	8089                	srli	s1,s1,0x2
200006ee:	49d5                	li	s3,21
200006f0:	ec048ce3          	beqz	s1,200005c8 <FLASH_EEPROM_CMD+0xc0>
200006f4:	85da                	mv	a1,s6
200006f6:	4509                	li	a0,2
200006f8:	3b41                	jal	20000488 <FLASH_ROM_ADDR>
200006fa:	0911                	addi	s2,s2,4
200006fc:	ffc92703          	lw	a4,-4(s2)
20000700:	4791                	li	a5,4
20000702:	80e42023          	sw	a4,-2048(s0)

20000706 <.loop402>:
20000706:	80640703          	lb	a4,-2042(s0)
2000070a:	fe074ee3          	bltz	a4,20000706 <.loop402>
2000070e:	81340323          	sb	s3,-2042(s0)
20000712:	17fd                	addi	a5,a5,-1
20000714:	fbed                	bnez	a5,20000706 <.loop402>
20000716:	14fd                	addi	s1,s1,-1
20000718:	0b11                	addi	s6,s6,4
2000071a:	c481                	beqz	s1,20000722 <.loop402+0x1c>
2000071c:	0ffb7793          	andi	a5,s6,255
20000720:	ffe9                	bnez	a5,200006fa <FLASH_EEPROM_CMD+0x1f2>
20000722:	337d                	jal	200004d0 <FLASH_ROM_WAIT>
20000724:	f571                	bnez	a0,200006f0 <FLASH_EEPROM_CMD+0x1e8>
20000726:	b5e1                	j	200005ee <FLASH_EEPROM_CMD+0xe6>
20000728:	400017b7          	lui	a5,0x40001
2000072c:	0457c703          	lbu	a4,69(a5) # 40001045 <_eusrstack+0x1fff9045>
20000730:	000807b7          	lui	a5,0x80
20000734:	02077713          	andi	a4,a4,32
20000738:	e319                	bnez	a4,2000073e <.loop402+0x38>
2000073a:	000787b7          	lui	a5,0x78
2000073e:	5579                	li	a0,-2
20000740:	eafb78e3          	bgeu	s6,a5,200005f0 <FLASH_EEPROM_CMD+0xe8>
20000744:	009b0733          	add	a4,s6,s1
20000748:	f8e7ffe3          	bgeu	a5,a4,200006e6 <FLASH_EEPROM_CMD+0x1de>
2000074c:	b555                	j	200005f0 <FLASH_EEPROM_CMD+0xe8>
2000074e:	4785                	li	a5,1
20000750:	f2f982e3          	beq	s3,a5,20000674 <FLASH_EEPROM_CMD+0x16c>
20000754:	85da                	mv	a1,s6
20000756:	452d                	li	a0,11
20000758:	3b05                	jal	20000488 <FLASH_ROM_ADDR>
2000075a:	fff48993          	addi	s3,s1,-1 # 7ffff <_data_lma+0x7996f>
2000075e:	e60485e3          	beqz	s1,200005c8 <FLASH_EEPROM_CMD+0xc0>
20000762:	3329                	jal	2000046c <FLASH_ROM_IN>
20000764:	0039f793          	andi	a5,s3,3
20000768:	eb91                	bnez	a5,2000077c <.loop402+0x76>
2000076a:	80042683          	lw	a3,-2048(s0)
2000076e:	00092703          	lw	a4,0(s2)
20000772:	00490793          	addi	a5,s2,4
20000776:	e4e69ae3          	bne	a3,a4,200005ca <FLASH_EEPROM_CMD+0xc2>
2000077a:	893e                	mv	s2,a5
2000077c:	84ce                	mv	s1,s3
2000077e:	bff1                	j	2000075a <.loop402+0x54>
20000780:	47b5                	li	a5,13
20000782:	00f99663          	bne	s3,a5,2000078e <.loop402+0x88>
20000786:	0b900513          	li	a0,185
2000078a:	31c9                	jal	2000044c <FLASH_ROM_BEG>
2000078c:	bd35                	j	200005c8 <FLASH_EEPROM_CMD+0xc0>
2000078e:	47b1                	li	a5,12
20000790:	0ab00513          	li	a0,171
20000794:	fef98be3          	beq	s3,a5,2000078a <.loop402+0x84>
20000798:	4799                	li	a5,6
2000079a:	04f99163          	bne	s3,a5,200007dc <.loop402+0xd6>
2000079e:	000805b7          	lui	a1,0x80
200007a2:	00bb65b3          	or	a1,s6,a1
200007a6:	452d                	li	a0,11
200007a8:	31c5                	jal	20000488 <FLASH_ROM_ADDR>
200007aa:	4481                	li	s1,0
200007ac:	4b8d                	li	s7,3
200007ae:	49a1                	li	s3,8
200007b0:	3975                	jal	2000046c <FLASH_ROM_IN>
200007b2:	01749663          	bne	s1,s7,200007be <.loop402+0xb8>
200007b6:	80042783          	lw	a5,-2048(s0)
200007ba:	00f92023          	sw	a5,0(s2)
200007be:	0485                	addi	s1,s1,1
200007c0:	ff3498e3          	bne	s1,s3,200007b0 <.loop402+0xaa>
200007c4:	80042783          	lw	a5,-2048(s0)
200007c8:	012b1713          	slli	a4,s6,0x12
200007cc:	00075563          	bgez	a4,200007d6 <.loop402+0xd0>
200007d0:	00f91223          	sh	a5,4(s2)
200007d4:	bbd5                	j	200005c8 <FLASH_EEPROM_CMD+0xc0>
200007d6:	00f92223          	sw	a5,4(s2)
200007da:	b3fd                	j	200005c8 <FLASH_EEPROM_CMD+0xc0>
200007dc:	479d                	li	a5,7
200007de:	02f99963          	bne	s3,a5,20000810 <.loop402+0x10a>
200007e2:	4581                	li	a1,0
200007e4:	04b00513          	li	a0,75
200007e8:	3145                	jal	20000488 <FLASH_ROM_ADDR>
200007ea:	44bd                	li	s1,15
200007ec:	00092023          	sw	zero,0(s2)
200007f0:	00092223          	sw	zero,4(s2)
200007f4:	59fd                	li	s3,-1
200007f6:	399d                	jal	2000046c <FLASH_ROM_IN>
200007f8:	0074f793          	andi	a5,s1,7
200007fc:	97ca                	add	a5,a5,s2
200007fe:	0007c703          	lbu	a4,0(a5) # 78000 <_data_lma+0x71970>
20000802:	14fd                	addi	s1,s1,-1
20000804:	8d39                	xor	a0,a0,a4
20000806:	00a78023          	sb	a0,0(a5)
2000080a:	ff3496e3          	bne	s1,s3,200007f6 <.loop402+0xf0>
2000080e:	bb6d                	j	200005c8 <FLASH_EEPROM_CMD+0xc0>
20000810:	47a1                	li	a5,8
20000812:	04f99263          	bne	s3,a5,20000856 <.loop402+0x150>
20000816:	396d                	jal	200004d0 <FLASH_ROM_WAIT>
20000818:	4481                	li	s1,0
2000081a:	000b0d63          	beqz	s6,20000834 <.loop402+0x12e>
2000081e:	478d                	li	a5,3
20000820:	03c00493          	li	s1,60
20000824:	00fb0863          	beq	s6,a5,20000834 <.loop402+0x12e>
20000828:	05000493          	li	s1,80
2000082c:	018b0463          	beq	s6,s8,20000834 <.loop402+0x12e>
20000830:	04400493          	li	s1,68
20000834:	07c57513          	andi	a0,a0,124
20000838:	d89508e3          	beq	a0,s1,200005c8 <FLASH_EEPROM_CMD+0xc0>
2000083c:	4519                	li	a0,6
2000083e:	3139                	jal	2000044c <FLASH_ROM_BEG>
20000840:	3939                	jal	2000045e <FLASH_ROM_END>
20000842:	4505                	li	a0,1
20000844:	3121                	jal	2000044c <FLASH_ROM_BEG>
20000846:	8526                	mv	a0,s1
20000848:	390d                	jal	2000047a <FLASH_ROM_OUT>
2000084a:	4509                	li	a0,2
2000084c:	313d                	jal	2000047a <FLASH_ROM_OUT>
2000084e:	3149                	jal	200004d0 <FLASH_ROM_WAIT>
20000850:	d6051ce3          	bnez	a0,200005c8 <FLASH_EEPROM_CMD+0xc0>
20000854:	bb69                	j	200005ee <FLASH_EEPROM_CMD+0xe6>
20000856:	4791                	li	a5,4
20000858:	00f99963          	bne	s3,a5,2000086a <.loop402+0x164>
2000085c:	06600513          	li	a0,102
20000860:	36f5                	jal	2000044c <FLASH_ROM_BEG>
20000862:	3ef5                	jal	2000045e <FLASH_ROM_END>
20000864:	09900513          	li	a0,153
20000868:	b70d                	j	2000078a <.loop402+0x84>
2000086a:	d4098fe3          	beqz	s3,200005c8 <FLASH_EEPROM_CMD+0xc0>
2000086e:	54f1                	li	s1,-4
20000870:	bba9                	j	200005ca <FLASH_EEPROM_CMD+0xc2>

20000872 <tmos_memcpy>:
tmos_memcpy():
20000872:	cd19                	beqz	a0,20000890 <tmos_memcpy+0x1e>
20000874:	cd91                	beqz	a1,20000890 <tmos_memcpy+0x1e>
20000876:	ce09                	beqz	a2,20000890 <tmos_memcpy+0x1e>
20000878:	4781                	li	a5,0
2000087a:	00f58733          	add	a4,a1,a5
2000087e:	00074683          	lbu	a3,0(a4) # 80000 <_data_lma+0x79970>
20000882:	00f50733          	add	a4,a0,a5
20000886:	0785                	addi	a5,a5,1
20000888:	00d70023          	sb	a3,0(a4)
2000088c:	fec797e3          	bne	a5,a2,2000087a <tmos_memcpy+0x8>
20000890:	8082                	ret

20000892 <tmos_memcpy_word>:
tmos_memcpy_word():
20000892:	c919                	beqz	a0,200008a8 <tmos_memcpy_word+0x16>
20000894:	c991                	beqz	a1,200008a8 <tmos_memcpy_word+0x16>
20000896:	ca09                	beqz	a2,200008a8 <tmos_memcpy_word+0x16>
20000898:	0591                	addi	a1,a1,4
2000089a:	ffc5a783          	lw	a5,-4(a1) # 7fffc <_data_lma+0x7996c>
2000089e:	0511                	addi	a0,a0,4
200008a0:	167d                	addi	a2,a2,-1
200008a2:	fef52e23          	sw	a5,-4(a0)
200008a6:	bfc5                	j	20000896 <tmos_memcpy_word+0x4>
200008a8:	8082                	ret

200008aa <tmos_memset>:
tmos_memset():
200008aa:	c901                	beqz	a0,200008ba <tmos_memset+0x10>
200008ac:	c619                	beqz	a2,200008ba <tmos_memset+0x10>
200008ae:	962a                	add	a2,a2,a0
200008b0:	0505                	addi	a0,a0,1
200008b2:	feb50fa3          	sb	a1,-1(a0)
200008b6:	fea61de3          	bne	a2,a0,200008b0 <tmos_memset+0x6>
200008ba:	8082                	ret

200008bc <tmos_strlen>:
tmos_strlen():
200008bc:	4781                	li	a5,0
200008be:	00f50733          	add	a4,a0,a5
200008c2:	00070703          	lb	a4,0(a4)
200008c6:	e319                	bnez	a4,200008cc <tmos_strlen+0x10>
200008c8:	853e                	mv	a0,a5
200008ca:	8082                	ret
200008cc:	0785                	addi	a5,a5,1
200008ce:	bfc5                	j	200008be <tmos_strlen+0x2>

200008d0 <tmos_memdup>:
tmos_memdup():
200008d0:	1101                	addi	sp,sp,-32
200008d2:	862e                	mv	a2,a1
200008d4:	ca26                	sw	s1,20(sp)
200008d6:	84aa                	mv	s1,a0
200008d8:	01061513          	slli	a0,a2,0x10
200008dc:	04f00593          	li	a1,79
200008e0:	8141                	srli	a0,a0,0x10
200008e2:	cc22                	sw	s0,24(sp)
200008e4:	ce06                	sw	ra,28(sp)
200008e6:	c632                	sw	a2,12(sp)
200008e8:	571000ef          	jal	ra,20001658 <tmos_memory_allocate>
200008ec:	842a                	mv	s0,a0
200008ee:	c501                	beqz	a0,200008f6 <tmos_memdup+0x26>
200008f0:	4632                	lw	a2,12(sp)
200008f2:	85a6                	mv	a1,s1
200008f4:	3fbd                	jal	20000872 <tmos_memcpy>
200008f6:	8522                	mv	a0,s0
200008f8:	40f2                	lw	ra,28(sp)
200008fa:	4462                	lw	s0,24(sp)
200008fc:	44d2                	lw	s1,20(sp)
200008fe:	6105                	addi	sp,sp,32
20000900:	8082                	ret

20000902 <tmos_memcmp>:
tmos_memcmp():
20000902:	4785                	li	a5,1
20000904:	c115                	beqz	a0,20000928 <tmos_memcmp+0x26>
20000906:	c18d                	beqz	a1,20000928 <tmos_memcmp+0x26>
20000908:	c205                	beqz	a2,20000928 <tmos_memcmp+0x26>
2000090a:	4781                	li	a5,0
2000090c:	00f506b3          	add	a3,a0,a5
20000910:	00f58733          	add	a4,a1,a5
20000914:	0006c683          	lbu	a3,0(a3) # 100000 <_data_lma+0xf9970>
20000918:	00074703          	lbu	a4,0(a4)
2000091c:	00e69863          	bne	a3,a4,2000092c <tmos_memcmp+0x2a>
20000920:	0785                	addi	a5,a5,1
20000922:	fef615e3          	bne	a2,a5,2000090c <tmos_memcmp+0xa>
20000926:	4785                	li	a5,1
20000928:	853e                	mv	a0,a5
2000092a:	8082                	ret
2000092c:	4781                	li	a5,0
2000092e:	bfed                	j	20000928 <tmos_memcmp+0x26>

20000930 <tmos_revmemcpy>:
tmos_revmemcpy():
20000930:	fff60793          	addi	a5,a2,-1
20000934:	95be                	add	a1,a1,a5
20000936:	962a                	add	a2,a2,a0
20000938:	00c51363          	bne	a0,a2,2000093e <tmos_revmemcpy+0xe>
2000093c:	8082                	ret
2000093e:	15fd                	addi	a1,a1,-1
20000940:	0015c783          	lbu	a5,1(a1)
20000944:	0505                	addi	a0,a0,1
20000946:	fef50fa3          	sb	a5,-1(a0)
2000094a:	b7fd                	j	20000938 <tmos_revmemcpy+0x8>

2000094c <tmos_isbufset>:
tmos_isbufset():
2000094c:	87aa                	mv	a5,a0
2000094e:	4501                	li	a0,0
20000950:	cf81                	beqz	a5,20000968 <tmos_isbufset+0x1c>
20000952:	ce09                	beqz	a2,2000096c <tmos_isbufset+0x20>
20000954:	963e                	add	a2,a2,a5
20000956:	0785                	addi	a5,a5,1
20000958:	fff7c703          	lbu	a4,-1(a5)
2000095c:	00b71763          	bne	a4,a1,2000096a <tmos_isbufset+0x1e>
20000960:	fef61be3          	bne	a2,a5,20000956 <tmos_isbufset+0xa>
20000964:	4505                	li	a0,1
20000966:	8082                	ret
20000968:	8082                	ret
2000096a:	4501                	li	a0,0
2000096c:	8082                	ret

2000096e <tmos_proces_system_time>:
tmos_proces_system_time():
2000096e:	7179                	addi	sp,sp,-48
20000970:	00003797          	auipc	a5,0x3
20000974:	9c478793          	addi	a5,a5,-1596 # 20003334 <taskHead>
20000978:	d422                	sw	s0,40(sp)
2000097a:	4380                	lw	s0,0(a5)
2000097c:	d606                	sw	ra,44(sp)
2000097e:	d226                	sw	s1,36(sp)
20000980:	d04a                	sw	s2,32(sp)
20000982:	ce4e                	sw	s3,28(sp)
20000984:	cc52                	sw	s4,24(sp)
20000986:	ca56                	sw	s5,20(sp)
20000988:	c85a                	sw	s6,16(sp)
2000098a:	c65e                	sw	s7,12(sp)
2000098c:	c462                	sw	s8,8(sp)
2000098e:	cc5d                	beqz	s0,20000a4c <tmos_proces_system_time+0xde>
20000990:	01c9c937          	lui	s2,0x1c9c
20000994:	4b81                	li	s7,0
20000996:	00003a17          	auipc	s4,0x3
2000099a:	9e6a0a13          	addi	s4,s4,-1562 # 2000337c <fnGetClockCBs>
2000099e:	00003497          	auipc	s1,0x3
200009a2:	99a48493          	addi	s1,s1,-1638 # 20003338 <ble>
200009a6:	37f90913          	addi	s2,s2,895 # 1c9c37f <_data_lma+0x1c95cef>
200009aa:	00003a97          	auipc	s5,0x3
200009ae:	936a8a93          	addi	s5,s5,-1738 # 200032e0 <gTmosPara>
200009b2:	a8c009b7          	lui	s3,0xa8c00
200009b6:	57400b37          	lui	s6,0x57400
200009ba:	00245783          	lhu	a5,2(s0)
200009be:	e395                	bnez	a5,200009e2 <tmos_proces_system_time+0x74>
200009c0:	445c                	lw	a5,12(s0)
200009c2:	000b9d63          	bnez	s7,200009dc <tmos_proces_system_time+0x6e>
200009c6:	00003717          	auipc	a4,0x3
200009ca:	96f72723          	sw	a5,-1682(a4) # 20003334 <taskHead>
200009ce:	00c42c03          	lw	s8,12(s0)
200009d2:	8522                	mv	a0,s0
200009d4:	557000ef          	jal	ra,2000172a <tmos_memory_free>
200009d8:	8462                	mv	s0,s8
200009da:	a899                	j	20000a30 <tmos_proces_system_time+0xc2>
200009dc:	00fba623          	sw	a5,12(s7) # 100c <_einit+0x1008>
200009e0:	b7fd                	j	200009ce <tmos_proces_system_time+0x60>
200009e2:	000a2783          	lw	a5,0(s4)
200009e6:	9782                	jalr	a5
200009e8:	01648683          	lb	a3,22(s1)
200009ec:	441c                	lw	a5,8(s0)
200009ee:	0606db63          	bgez	a3,20000a64 <tmos_proces_system_time+0xf6>
200009f2:	40f50733          	sub	a4,a0,a5
200009f6:	08e96763          	bltu	s2,a4,20000a84 <tmos_proces_system_time+0x116>
200009fa:	00003797          	auipc	a5,0x3
200009fe:	8e07ab23          	sw	zero,-1802(a5) # 200032f0 <gTmosPara+0x10>
20000a02:	00245583          	lhu	a1,2(s0)
20000a06:	00044503          	lbu	a0,0(s0)
20000a0a:	e0002097          	auipc	ra,0xe0002
20000a0e:	6fe080e7          	jalr	1790(ra) # 3108 <tmos_set_event>
20000a12:	405c                	lw	a5,4(s0)
20000a14:	4458                	lw	a4,12(s0)
20000a16:	cfa9                	beqz	a5,20000a70 <tmos_proces_system_time+0x102>
20000a18:	4414                	lw	a3,8(s0)
20000a1a:	97b6                	add	a5,a5,a3
20000a1c:	01648683          	lb	a3,22(s1)
20000a20:	0006c563          	bltz	a3,20000a2a <tmos_proces_system_time+0xbc>
20000a24:	0137e363          	bltu	a5,s3,20000a2a <tmos_proces_system_time+0xbc>
20000a28:	97da                	add	a5,a5,s6
20000a2a:	c41c                	sw	a5,8(s0)
20000a2c:	8ba2                	mv	s7,s0
20000a2e:	843a                	mv	s0,a4
20000a30:	f449                	bnez	s0,200009ba <tmos_proces_system_time+0x4c>
20000a32:	00003797          	auipc	a5,0x3
20000a36:	8ae78793          	addi	a5,a5,-1874 # 200032e0 <gTmosPara>
20000a3a:	4b9c                	lw	a5,16(a5)
20000a3c:	4709                	li	a4,2
20000a3e:	06f77863          	bgeu	a4,a5,20000aae <tmos_proces_system_time+0x140>
20000a42:	17f9                	addi	a5,a5,-2
20000a44:	00003717          	auipc	a4,0x3
20000a48:	8af72623          	sw	a5,-1876(a4) # 200032f0 <gTmosPara+0x10>
20000a4c:	50b2                	lw	ra,44(sp)
20000a4e:	5422                	lw	s0,40(sp)
20000a50:	5492                	lw	s1,36(sp)
20000a52:	5902                	lw	s2,32(sp)
20000a54:	49f2                	lw	s3,28(sp)
20000a56:	4a62                	lw	s4,24(sp)
20000a58:	4ad2                	lw	s5,20(sp)
20000a5a:	4b42                	lw	s6,16(sp)
20000a5c:	4bb2                	lw	s7,12(sp)
20000a5e:	4c22                	lw	s8,8(sp)
20000a60:	6145                	addi	sp,sp,48
20000a62:	8082                	ret
20000a64:	f8f577e3          	bgeu	a0,a5,200009f2 <tmos_proces_system_time+0x84>
20000a68:	40f98733          	sub	a4,s3,a5
20000a6c:	972a                	add	a4,a4,a0
20000a6e:	b761                	j	200009f6 <tmos_proces_system_time+0x88>
20000a70:	000b9763          	bnez	s7,20000a7e <tmos_proces_system_time+0x110>
20000a74:	00003797          	auipc	a5,0x3
20000a78:	8ce7a023          	sw	a4,-1856(a5) # 20003334 <taskHead>
20000a7c:	bf89                	j	200009ce <tmos_proces_system_time+0x60>
20000a7e:	00eba623          	sw	a4,12(s7)
20000a82:	b7b1                	j	200009ce <tmos_proces_system_time+0x60>
20000a84:	50d8                	lw	a4,36(s1)
20000a86:	cf09                	beqz	a4,20000aa0 <tmos_proces_system_time+0x132>
20000a88:	0006df63          	bgez	a3,20000aa6 <tmos_proces_system_time+0x138>
20000a8c:	40a78533          	sub	a0,a5,a0
20000a90:	010aa783          	lw	a5,16(s5)
20000a94:	00f57663          	bgeu	a0,a5,20000aa0 <tmos_proces_system_time+0x132>
20000a98:	00003797          	auipc	a5,0x3
20000a9c:	84a7ac23          	sw	a0,-1960(a5) # 200032f0 <gTmosPara+0x10>
20000aa0:	8ba2                	mv	s7,s0
20000aa2:	4440                	lw	s0,12(s0)
20000aa4:	b771                	j	20000a30 <tmos_proces_system_time+0xc2>
20000aa6:	fea7f3e3          	bgeu	a5,a0,20000a8c <tmos_proces_system_time+0x11e>
20000aaa:	97ce                	add	a5,a5,s3
20000aac:	b7c5                	j	20000a8c <tmos_proces_system_time+0x11e>
20000aae:	00003797          	auipc	a5,0x3
20000ab2:	8407a123          	sw	zero,-1982(a5) # 200032f0 <gTmosPara+0x10>
20000ab6:	bf59                	j	20000a4c <tmos_proces_system_time+0xde>

20000ab8 <TMOS_SystemProcess>:
TMOS_SystemProcess():
20000ab8:	1141                	addi	sp,sp,-16
20000aba:	c422                	sw	s0,8(sp)
20000abc:	00003417          	auipc	s0,0x3
20000ac0:	85440413          	addi	s0,s0,-1964 # 20003310 <pfnProcessCBs>
20000ac4:	401c                	lw	a5,0(s0)
20000ac6:	c606                	sw	ra,12(sp)
20000ac8:	c226                	sw	s1,4(sp)
20000aca:	c04a                	sw	s2,0(sp)
20000acc:	c791                	beqz	a5,20000ad8 <TMOS_SystemProcess+0x20>
20000ace:	9782                	jalr	a5
20000ad0:	00003797          	auipc	a5,0x3
20000ad4:	8407a023          	sw	zero,-1984(a5) # 20003310 <pfnProcessCBs>
20000ad8:	405c                	lw	a5,4(s0)
20000ada:	c391                	beqz	a5,20000ade <TMOS_SystemProcess+0x26>
20000adc:	9782                	jalr	a5
20000ade:	401c                	lw	a5,0(s0)
20000ae0:	1c079063          	bnez	a5,20000ca0 <TMOS_SystemProcess+0x1e8>
20000ae4:	00003797          	auipc	a5,0x3
20000ae8:	8ad7c783          	lbu	a5,-1875(a5) # 20003391 <gBleIPPara+0x5>
20000aec:	8b85                	andi	a5,a5,1
20000aee:	c795                	beqz	a5,20000b1a <TMOS_SystemProcess+0x62>
20000af0:	00003797          	auipc	a5,0x3
20000af4:	8a0780a3          	sb	zero,-1887(a5) # 20003391 <gBleIPPara+0x5>
20000af8:	00003717          	auipc	a4,0x3
20000afc:	89b74703          	lbu	a4,-1893(a4) # 20003393 <gBleIPPara+0x7>
20000b00:	4791                	li	a5,4
20000b02:	00e7fc63          	bgeu	a5,a4,20000b1a <TMOS_SystemProcess+0x62>
20000b06:	2e81                	jal	20000e56 <ll_rx_wait_finish>
20000b08:	00003797          	auipc	a5,0x3
20000b0c:	88b7c783          	lbu	a5,-1909(a5) # 20003393 <gBleIPPara+0x7>
20000b10:	17f9                	addi	a5,a5,-2
20000b12:	078a                	slli	a5,a5,0x2
20000b14:	97a2                	add	a5,a5,s0
20000b16:	439c                	lw	a5,0(a5)
20000b18:	9782                	jalr	a5
20000b1a:	00003917          	auipc	s2,0x3
20000b1e:	8b290913          	addi	s2,s2,-1870 # 200033cc <rfInfo>
20000b22:	00c94783          	lbu	a5,12(s2)
20000b26:	8b91                	andi	a5,a5,4
20000b28:	c399                	beqz	a5,20000b2e <TMOS_SystemProcess+0x76>
20000b2a:	265000ef          	jal	ra,2000158e <RF_FrequencyHoppingChange>
20000b2e:	441c                	lw	a5,8(s0)
20000b30:	c391                	beqz	a5,20000b34 <TMOS_SystemProcess+0x7c>
20000b32:	9782                	jalr	a5
20000b34:	00002497          	auipc	s1,0x2
20000b38:	7fc48493          	addi	s1,s1,2044 # 20003330 <EventsArr>
20000b3c:	4098                	lw	a4,0(s1)
20000b3e:	00002617          	auipc	a2,0x2
20000b42:	7a364603          	lbu	a2,1955(a2) # 200032e1 <gTmosPara+0x1>
20000b46:	00002797          	auipc	a5,0x2
20000b4a:	79a7c783          	lbu	a5,1946(a5) # 200032e0 <gTmosPara>
20000b4e:	00179693          	slli	a3,a5,0x1
20000b52:	96ba                	add	a3,a3,a4
20000b54:	0006d683          	lhu	a3,0(a3)
20000b58:	cad5                	beqz	a3,20000c0c <TMOS_SystemProcess+0x154>
20000b5a:	00002797          	auipc	a5,0x2
20000b5e:	7867c783          	lbu	a5,1926(a5) # 200032e0 <gTmosPara>
20000b62:	0ac7ef63          	bltu	a5,a2,20000c20 <TMOS_SystemProcess+0x168>
20000b66:	00002797          	auipc	a5,0x2
20000b6a:	76078d23          	sb	zero,1914(a5) # 200032e0 <gTmosPara>
20000b6e:	401c                	lw	a5,0(s0)
20000b70:	12079863          	bnez	a5,20000ca0 <TMOS_SystemProcess+0x1e8>
20000b74:	00003797          	auipc	a5,0x3
20000b78:	8217c783          	lbu	a5,-2015(a5) # 20003395 <gBleIPPara+0x9>
20000b7c:	cf91                	beqz	a5,20000b98 <TMOS_SystemProcess+0xe0>
20000b7e:	00003797          	auipc	a5,0x3
20000b82:	8157c783          	lbu	a5,-2027(a5) # 20003393 <gBleIPPara+0x7>
20000b86:	eb89                	bnez	a5,20000b98 <TMOS_SystemProcess+0xe0>
20000b88:	00003797          	auipc	a5,0x3
20000b8c:	800786a3          	sb	zero,-2035(a5) # 20003395 <gBleIPPara+0x9>
20000b90:	e0003097          	auipc	ra,0xe0003
20000b94:	224080e7          	jalr	548(ra) # 3db4 <ll_multi_states_process>
20000b98:	00002797          	auipc	a5,0x2
20000b9c:	7e478793          	addi	a5,a5,2020 # 2000337c <fnGetClockCBs>
20000ba0:	439c                	lw	a5,0(a5)
20000ba2:	0e078f63          	beqz	a5,20000ca0 <TMOS_SystemProcess+0x1e8>
20000ba6:	a8c007b7          	lui	a5,0xa8c00
20000baa:	00002717          	auipc	a4,0x2
20000bae:	74f72323          	sw	a5,1862(a4) # 200032f0 <gTmosPara+0x10>
20000bb2:	3b75                	jal	2000096e <tmos_proces_system_time>
20000bb4:	00002797          	auipc	a5,0x2
20000bb8:	78478793          	addi	a5,a5,1924 # 20003338 <ble>
20000bbc:	53dc                	lw	a5,36(a5)
20000bbe:	c3ed                	beqz	a5,20000ca0 <TMOS_SystemProcess+0x1e8>
20000bc0:	00002717          	auipc	a4,0x2
20000bc4:	72070713          	addi	a4,a4,1824 # 200032e0 <gTmosPara>
20000bc8:	4b18                	lw	a4,16(a4)
20000bca:	00002797          	auipc	a5,0x2
20000bce:	7837c783          	lbu	a5,1923(a5) # 2000334d <ble+0x15>
20000bd2:	0cf76763          	bltu	a4,a5,20000ca0 <TMOS_SystemProcess+0x1e8>
20000bd6:	00002717          	auipc	a4,0x2
20000bda:	7bd74703          	lbu	a4,1981(a4) # 20003393 <gBleIPPara+0x7>
20000bde:	4791                	li	a5,4
20000be0:	0ce7e063          	bltu	a5,a4,20000ca0 <TMOS_SystemProcess+0x1e8>
20000be4:	00c94783          	lbu	a5,12(s2)
20000be8:	8b91                	andi	a5,a5,4
20000bea:	ebdd                	bnez	a5,20000ca0 <TMOS_SystemProcess+0x1e8>
20000bec:	4090                	lw	a2,0(s1)
20000bee:	00002697          	auipc	a3,0x2
20000bf2:	6f36c683          	lbu	a3,1779(a3) # 200032e1 <gTmosPara+0x1>
20000bf6:	0ad7cb63          	blt	a5,a3,20000cac <TMOS_SystemProcess+0x1f4>
20000bfa:	4422                	lw	s0,8(sp)
20000bfc:	40b2                	lw	ra,12(sp)
20000bfe:	4492                	lw	s1,4(sp)
20000c00:	4902                	lw	s2,0(sp)
20000c02:	0141                	addi	sp,sp,16
20000c04:	e0002317          	auipc	t1,0xe0002
20000c08:	3a030067          	jr	928(t1) # 2fa4 <tmos_proces_sleep>
20000c0c:	0785                	addi	a5,a5,1
20000c0e:	0ff7f793          	andi	a5,a5,255
20000c12:	00002697          	auipc	a3,0x2
20000c16:	6cf68723          	sb	a5,1742(a3) # 200032e0 <gTmosPara>
20000c1a:	f2c7e6e3          	bltu	a5,a2,20000b46 <TMOS_SystemProcess+0x8e>
20000c1e:	bf35                	j	20000b5a <TMOS_SystemProcess+0xa2>
20000c20:	0786                	slli	a5,a5,0x1
20000c22:	973e                	add	a4,a4,a5
20000c24:	00075583          	lhu	a1,0(a4)
20000c28:	00071023          	sh	zero,0(a4)
20000c2c:	00002797          	auipc	a5,0x2
20000c30:	70079023          	sh	zero,1792(a5) # 2000332c <eventsClear>
20000c34:	00002797          	auipc	a5,0x2
20000c38:	6d878793          	addi	a5,a5,1752 # 2000330c <tasksArr>
20000c3c:	439c                	lw	a5,0(a5)
20000c3e:	00002517          	auipc	a0,0x2
20000c42:	6a254503          	lbu	a0,1698(a0) # 200032e0 <gTmosPara>
20000c46:	00251713          	slli	a4,a0,0x2
20000c4a:	97ba                	add	a5,a5,a4
20000c4c:	439c                	lw	a5,0(a5)
20000c4e:	9782                	jalr	a5
20000c50:	00002797          	auipc	a5,0x2
20000c54:	6dc7d783          	lhu	a5,1756(a5) # 2000332c <eventsClear>
20000c58:	00002717          	auipc	a4,0x2
20000c5c:	68874703          	lbu	a4,1672(a4) # 200032e0 <gTmosPara>
20000c60:	fff7c793          	not	a5,a5
20000c64:	8d7d                	and	a0,a0,a5
20000c66:	00171793          	slli	a5,a4,0x1
20000c6a:	4098                	lw	a4,0(s1)
20000c6c:	973e                	add	a4,a4,a5
20000c6e:	00075783          	lhu	a5,0(a4)
20000c72:	8d5d                	or	a0,a0,a5
20000c74:	00a71023          	sh	a0,0(a4)
20000c78:	00002797          	auipc	a5,0x2
20000c7c:	6687c783          	lbu	a5,1640(a5) # 200032e0 <gTmosPara>
20000c80:	c791                	beqz	a5,20000c8c <TMOS_SystemProcess+0x1d4>
20000c82:	0785                	addi	a5,a5,1
20000c84:	00002717          	auipc	a4,0x2
20000c88:	64f70e23          	sb	a5,1628(a4) # 200032e0 <gTmosPara>
20000c8c:	00002717          	auipc	a4,0x2
20000c90:	65474703          	lbu	a4,1620(a4) # 200032e0 <gTmosPara>
20000c94:	00002797          	auipc	a5,0x2
20000c98:	64d7c783          	lbu	a5,1613(a5) # 200032e1 <gTmosPara+0x1>
20000c9c:	ecf775e3          	bgeu	a4,a5,20000b66 <TMOS_SystemProcess+0xae>
20000ca0:	40b2                	lw	ra,12(sp)
20000ca2:	4422                	lw	s0,8(sp)
20000ca4:	4492                	lw	s1,4(sp)
20000ca6:	4902                	lw	s2,0(sp)
20000ca8:	0141                	addi	sp,sp,16
20000caa:	8082                	ret
20000cac:	00179713          	slli	a4,a5,0x1
20000cb0:	9732                	add	a4,a4,a2
20000cb2:	00075703          	lhu	a4,0(a4)
20000cb6:	f76d                	bnez	a4,20000ca0 <TMOS_SystemProcess+0x1e8>
20000cb8:	0785                	addi	a5,a5,1
20000cba:	bf35                	j	20000bf6 <TMOS_SystemProcess+0x13e>

20000cbc <clockGetHSEValue>:
clockGetHSEValue():
20000cbc:	67ad                	lui	a5,0xb
20000cbe:	4000c737          	lui	a4,0x4000c
20000cc2:	07bd                	addi	a5,a5,15
20000cc4:	20f72623          	sw	a5,524(a4) # 4000c20c <_eusrstack+0x2000420c>
20000cc8:	0000100f          	fence.i
20000ccc:	00002797          	auipc	a5,0x2
20000cd0:	61478793          	addi	a5,a5,1556 # 200032e0 <gTmosPara>
20000cd4:	4fc8                	lw	a0,28(a5)
20000cd6:	26872783          	lw	a5,616(a4)
20000cda:	66bd                	lui	a3,0xf
20000cdc:	06bd                	addi	a3,a3,15
20000cde:	fff7c793          	not	a5,a5
20000ce2:	8399                	srli	a5,a5,0x6
20000ce4:	056a                	slli	a0,a0,0x1a
20000ce6:	20d72623          	sw	a3,524(a4)
20000cea:	8d5d                	or	a0,a0,a5
20000cec:	8082                	ret

20000cee <clockGetLSEValue>:
clockGetLSEValue():
20000cee:	1141                	addi	sp,sp,-16
20000cf0:	400017b7          	lui	a5,0x40001
20000cf4:	5f98                	lw	a4,56(a5)
20000cf6:	c63a                	sw	a4,12(sp)
20000cf8:	5f94                	lw	a3,56(a5)
20000cfa:	4732                	lw	a4,12(sp)
20000cfc:	fee69ce3          	bne	a3,a4,20000cf4 <clockGetLSEValue+0x6>
20000d00:	4532                	lw	a0,12(sp)
20000d02:	0141                	addi	sp,sp,16
20000d04:	8082                	ret

20000d06 <TMOS_TimerIRQHandler>:
TMOS_TimerIRQHandler():
20000d06:	8082                	ret

20000d08 <BB_IRQLibHandler>:
BB_IRQLibHandler():
20000d08:	715d                	addi	sp,sp,-80
20000d0a:	d23a                	sw	a4,36(sp)
20000d0c:	00002717          	auipc	a4,0x2
20000d10:	67870713          	addi	a4,a4,1656 # 20003384 <gptrBBReg>
20000d14:	d436                	sw	a3,40(sp)
20000d16:	4314                	lw	a3,0(a4)
20000d18:	d03e                	sw	a5,32(sp)
20000d1a:	de22                	sw	s0,60(sp)
20000d1c:	5e9c                	lw	a5,56(a3)
20000d1e:	ca4a                	sw	s2,20(sp)
20000d20:	c686                	sw	ra,76(sp)
20000d22:	8399                	srli	a5,a5,0x6
20000d24:	c496                	sw	t0,72(sp)
20000d26:	c29a                	sw	t1,68(sp)
20000d28:	c09e                	sw	t2,64(sp)
20000d2a:	dc26                	sw	s1,56(sp)
20000d2c:	da2a                	sw	a0,52(sp)
20000d2e:	d82e                	sw	a1,48(sp)
20000d30:	d632                	sw	a2,44(sp)
20000d32:	ce42                	sw	a6,28(sp)
20000d34:	cc46                	sw	a7,24(sp)
20000d36:	c872                	sw	t3,16(sp)
20000d38:	c676                	sw	t4,12(sp)
20000d3a:	c47a                	sw	t5,8(sp)
20000d3c:	c27e                	sw	t6,4(sp)
20000d3e:	8b85                	andi	a5,a5,1
20000d40:	843a                	mv	s0,a4
20000d42:	00002917          	auipc	s2,0x2
20000d46:	63e90913          	addi	s2,s2,1598 # 20003380 <gptrAESReg>
20000d4a:	cbd1                	beqz	a5,20000dde <BB_IRQLibHandler+0xd6>
20000d4c:	5e9c                	lw	a5,56(a3)
20000d4e:	00002497          	auipc	s1,0x2
20000d52:	63e48493          	addi	s1,s1,1598 # 2000338c <gBleIPPara>
20000d56:	f9f7f793          	andi	a5,a5,-97
20000d5a:	de9c                	sw	a5,56(a3)
20000d5c:	00002717          	auipc	a4,0x2
20000d60:	63674703          	lbu	a4,1590(a4) # 20003392 <gBleIPPara+0x6>
20000d64:	08000793          	li	a5,128
20000d68:	00f71b63          	bne	a4,a5,20000d7e <BB_IRQLibHandler+0x76>
20000d6c:	00092783          	lw	a5,0(s2)
20000d70:	439c                	lw	a5,0(a5)
20000d72:	0407f793          	andi	a5,a5,64
20000d76:	00002717          	auipc	a4,0x2
20000d7a:	60f70e23          	sb	a5,1564(a4) # 20003392 <gBleIPPara+0x6>
20000d7e:	0004c783          	lbu	a5,0(s1)
20000d82:	0407f793          	andi	a5,a5,64
20000d86:	c39d                	beqz	a5,20000dac <BB_IRQLibHandler+0xa4>
20000d88:	00002797          	auipc	a5,0x2
20000d8c:	5f478793          	addi	a5,a5,1524 # 2000337c <fnGetClockCBs>
20000d90:	439c                	lw	a5,0(a5)
20000d92:	9782                	jalr	a5
20000d94:	00002797          	auipc	a5,0x2
20000d98:	60a7a423          	sw	a0,1544(a5) # 2000339c <gBleIPPara+0x10>
20000d9c:	0004c783          	lbu	a5,0(s1)
20000da0:	0bf7f793          	andi	a5,a5,191
20000da4:	00002717          	auipc	a4,0x2
20000da8:	5ef70423          	sb	a5,1512(a4) # 2000338c <gBleIPPara>
20000dac:	0044c783          	lbu	a5,4(s1)
20000db0:	0407f793          	andi	a5,a5,64
20000db4:	e78d                	bnez	a5,20000dde <BB_IRQLibHandler+0xd6>
20000db6:	4785                	li	a5,1
20000db8:	00002717          	auipc	a4,0x2
20000dbc:	5cf70ca3          	sb	a5,1497(a4) # 20003391 <gBleIPPara+0x5>
20000dc0:	00002797          	auipc	a5,0x2
20000dc4:	5e878793          	addi	a5,a5,1512 # 200033a8 <gptrLLEReg>
20000dc8:	439c                	lw	a5,0(a5)
20000dca:	6709                	lui	a4,0x2
20000dcc:	c798                	sw	a4,8(a5)
20000dce:	fc000713          	li	a4,-64
20000dd2:	00002697          	auipc	a3,0x2
20000dd6:	5ae68f23          	sb	a4,1470(a3) # 20003390 <gBleIPPara+0x4>
20000dda:	44d8                	lw	a4,12(s1)
20000ddc:	d3f8                	sw	a4,100(a5)
20000dde:	401c                	lw	a5,0(s0)
20000de0:	5f98                	lw	a4,56(a5)
20000de2:	8311                	srli	a4,a4,0x4
20000de4:	8b05                	andi	a4,a4,1
20000de6:	cb09                	beqz	a4,20000df8 <BB_IRQLibHandler+0xf0>
20000de8:	5f98                	lw	a4,56(a5)
20000dea:	9b3d                	andi	a4,a4,-17
20000dec:	df98                	sw	a4,56(a5)
20000dee:	4705                	li	a4,1
20000df0:	00002697          	auipc	a3,0x2
20000df4:	5ae68023          	sb	a4,1440(a3) # 20003390 <gBleIPPara+0x4>
20000df8:	5f98                	lw	a4,56(a5)
20000dfa:	831d                	srli	a4,a4,0x7
20000dfc:	8b05                	andi	a4,a4,1
20000dfe:	cb11                	beqz	a4,20000e12 <BB_IRQLibHandler+0x10a>
20000e00:	5f98                	lw	a4,56(a5)
20000e02:	f7f77713          	andi	a4,a4,-129
20000e06:	df98                	sw	a4,56(a5)
20000e08:	4785                	li	a5,1
20000e0a:	00002717          	auipc	a4,0x2
20000e0e:	58f70323          	sb	a5,1414(a4) # 20003390 <gBleIPPara+0x4>
20000e12:	00092783          	lw	a5,0(s2)
20000e16:	43d8                	lw	a4,4(a5)
20000e18:	8305                	srli	a4,a4,0x1
20000e1a:	8b05                	andi	a4,a4,1
20000e1c:	c719                	beqz	a4,20000e2a <BB_IRQLibHandler+0x122>
20000e1e:	43d8                	lw	a4,4(a5)
20000e20:	9b75                	andi	a4,a4,-3
20000e22:	c3d8                	sw	a4,4(a5)
20000e24:	43d8                	lw	a4,4(a5)
20000e26:	9b79                	andi	a4,a4,-2
20000e28:	c3d8                	sw	a4,4(a5)
20000e2a:	5472                	lw	s0,60(sp)
20000e2c:	40b6                	lw	ra,76(sp)
20000e2e:	42a6                	lw	t0,72(sp)
20000e30:	4316                	lw	t1,68(sp)
20000e32:	4386                	lw	t2,64(sp)
20000e34:	54e2                	lw	s1,56(sp)
20000e36:	5552                	lw	a0,52(sp)
20000e38:	55c2                	lw	a1,48(sp)
20000e3a:	5632                	lw	a2,44(sp)
20000e3c:	56a2                	lw	a3,40(sp)
20000e3e:	5712                	lw	a4,36(sp)
20000e40:	5782                	lw	a5,32(sp)
20000e42:	4872                	lw	a6,28(sp)
20000e44:	48e2                	lw	a7,24(sp)
20000e46:	4952                	lw	s2,20(sp)
20000e48:	4e42                	lw	t3,16(sp)
20000e4a:	4eb2                	lw	t4,12(sp)
20000e4c:	4f22                	lw	t5,8(sp)
20000e4e:	4f92                	lw	t6,4(sp)
20000e50:	6161                	addi	sp,sp,80
20000e52:	30200073          	mret

20000e56 <ll_rx_wait_finish>:
ll_rx_wait_finish():
20000e56:	00002797          	auipc	a5,0x2
20000e5a:	55278793          	addi	a5,a5,1362 # 200033a8 <gptrLLEReg>
20000e5e:	4394                	lw	a3,0(a5)
20000e60:	00002797          	auipc	a5,0x2
20000e64:	52c78793          	addi	a5,a5,1324 # 2000338c <gBleIPPara>
20000e68:	0007c703          	lbu	a4,0(a5)
20000e6c:	8b05                	andi	a4,a4,1
20000e6e:	cb11                	beqz	a4,20000e82 <ll_rx_wait_finish+0x2c>
20000e70:	00002797          	auipc	a5,0x2
20000e74:	52078023          	sb	zero,1312(a5) # 20003390 <gBleIPPara+0x4>
20000e78:	00002797          	auipc	a5,0x2
20000e7c:	50078ca3          	sb	zero,1305(a5) # 20003391 <gBleIPPara+0x5>
20000e80:	8082                	ret
20000e82:	0017c703          	lbu	a4,1(a5)
20000e86:	8b05                	andi	a4,a4,1
20000e88:	f765                	bnez	a4,20000e70 <ll_rx_wait_finish+0x1a>
20000e8a:	52f8                	lw	a4,100(a3)
20000e8c:	ff71                	bnez	a4,20000e68 <ll_rx_wait_finish+0x12>
20000e8e:	0057c783          	lbu	a5,5(a5)
20000e92:	b7dd                	j	20000e78 <ll_rx_wait_finish+0x22>

20000e94 <ble_ll_chkcrc>:
ble_ll_chkcrc():
20000e94:	00002817          	auipc	a6,0x2
20000e98:	4f080813          	addi	a6,a6,1264 # 20003384 <gptrBBReg>
20000e9c:	00082703          	lw	a4,0(a6)
20000ea0:	5f1c                	lw	a5,56(a4)
20000ea2:	8395                	srli	a5,a5,0x5
20000ea4:	8b85                	andi	a5,a5,1
20000ea6:	ebd5                	bnez	a5,20000f5a <ble_ll_chkcrc+0xc6>
20000ea8:	c61d                	beqz	a2,20000ed6 <ble_ll_chkcrc+0x42>
20000eaa:	00002797          	auipc	a5,0x2
20000eae:	55678793          	addi	a5,a5,1366 # 20003400 <gBleLlPara>
20000eb2:	04679883          	lh	a7,70(a5)
20000eb6:	00060303          	lb	t1,0(a2)
20000eba:	5b1c                	lw	a5,48(a4)
20000ebc:	83bd                	srli	a5,a5,0xf
20000ebe:	08030b63          	beqz	t1,20000f54 <ble_ll_chkcrc+0xc0>
20000ec2:	1ff7f793          	andi	a5,a5,511
20000ec6:	411787b3          	sub	a5,a5,a7
20000eca:	979a                	add	a5,a5,t1
20000ecc:	4709                	li	a4,2
20000ece:	02e7c7b3          	div	a5,a5,a4
20000ed2:	00f60023          	sb	a5,0(a2)
20000ed6:	ca85                	beqz	a3,20000f06 <ble_ll_chkcrc+0x72>
20000ed8:	00082783          	lw	a5,0(a6)
20000edc:	5b98                	lw	a4,48(a5)
20000ede:	0746                	slli	a4,a4,0x11
20000ee0:	01675793          	srli	a5,a4,0x16
20000ee4:	00075663          	bgez	a4,20000ef0 <ble_ll_chkcrc+0x5c>
20000ee8:	c007e793          	ori	a5,a5,-1024
20000eec:	07c2                	slli	a5,a5,0x10
20000eee:	83c1                	srli	a5,a5,0x10
20000ef0:	00069703          	lh	a4,0(a3)
20000ef4:	07c2                	slli	a5,a5,0x10
20000ef6:	87c1                	srai	a5,a5,0x10
20000ef8:	c709                	beqz	a4,20000f02 <ble_ll_chkcrc+0x6e>
20000efa:	97ba                	add	a5,a5,a4
20000efc:	4709                	li	a4,2
20000efe:	02e7c7b3          	div	a5,a5,a4
20000f02:	00f69023          	sh	a5,0(a3)
20000f06:	c99d                	beqz	a1,20000f3c <ble_ll_chkcrc+0xa8>
20000f08:	00154783          	lbu	a5,1(a0)
20000f0c:	cb85                	beqz	a5,20000f3c <ble_ll_chkcrc+0xa8>
20000f0e:	00002697          	auipc	a3,0x2
20000f12:	4846c683          	lbu	a3,1156(a3) # 20003392 <gBleIPPara+0x6>
20000f16:	0406f693          	andi	a3,a3,64
20000f1a:	00978713          	addi	a4,a5,9
20000f1e:	4791                	li	a5,4
20000f20:	ca85                	beqz	a3,20000f50 <ble_ll_chkcrc+0xbc>
20000f22:	953a                	add	a0,a0,a4
20000f24:	00054703          	lbu	a4,0(a0)
20000f28:	4685                	li	a3,1
20000f2a:	06f77613          	andi	a2,a4,111
20000f2e:	02d61163          	bne	a2,a3,20000f50 <ble_ll_chkcrc+0xbc>
20000f32:	0762                	slli	a4,a4,0x18
20000f34:	8761                	srai	a4,a4,0x18
20000f36:	47b1                	li	a5,12
20000f38:	00074c63          	bltz	a4,20000f50 <ble_ll_chkcrc+0xbc>
20000f3c:	00082783          	lw	a5,0(a6)
20000f40:	5f9c                	lw	a5,56(a5)
20000f42:	83ed                	srli	a5,a5,0x1b
20000f44:	8b8d                	andi	a5,a5,3
20000f46:	00002717          	auipc	a4,0x2
20000f4a:	44f708a3          	sb	a5,1105(a4) # 20003397 <gBleIPPara+0xb>
20000f4e:	4781                	li	a5,0
20000f50:	853e                	mv	a0,a5
20000f52:	8082                	ret
20000f54:	411787b3          	sub	a5,a5,a7
20000f58:	bfad                	j	20000ed2 <ble_ll_chkcrc+0x3e>
20000f5a:	4789                	li	a5,2
20000f5c:	bfd5                	j	20000f50 <ble_ll_chkcrc+0xbc>

20000f5e <ll_tx_wait_finish>:
ll_tx_wait_finish():
20000f5e:	1141                	addi	sp,sp,-16
20000f60:	c422                	sw	s0,8(sp)
20000f62:	c606                	sw	ra,12(sp)
20000f64:	00002417          	auipc	s0,0x2
20000f68:	44440413          	addi	s0,s0,1092 # 200033a8 <gptrLLEReg>
20000f6c:	4018                	lw	a4,0(s0)
20000f6e:	e949                	bnez	a0,20001000 <ll_tx_wait_finish+0xa2>
20000f70:	87ae                	mv	a5,a1
20000f72:	5374                	lw	a3,100(a4)
20000f74:	fefd                	bnez	a3,20000f72 <ll_tx_wait_finish+0x14>
20000f76:	853e                	mv	a0,a5
20000f78:	85b2                	mv	a1,a2
20000f7a:	00002797          	auipc	a5,0x2
20000f7e:	40078a23          	sb	zero,1044(a5) # 2000338e <gBleIPPara+0x2>
20000f82:	e0003097          	auipc	ra,0xe0003
20000f86:	bd2080e7          	jalr	-1070(ra) # 3b54 <BLE_SetPHYTxMode>
20000f8a:	00002797          	auipc	a5,0x2
20000f8e:	3fa78793          	addi	a5,a5,1018 # 20003384 <gptrBBReg>
20000f92:	439c                	lw	a5,0(a5)
20000f94:	008006b7          	lui	a3,0x800
20000f98:	4398                	lw	a4,0(a5)
20000f9a:	8f55                	or	a4,a4,a3
20000f9c:	c398                	sw	a4,0(a5)
20000f9e:	57d8                	lw	a4,44(a5)
20000fa0:	9b71                	andi	a4,a4,-4
20000fa2:	d7d8                	sw	a4,44(a5)
20000fa4:	00002797          	auipc	a5,0x2
20000fa8:	3e0786a3          	sb	zero,1005(a5) # 20003391 <gBleIPPara+0x5>
20000fac:	00002797          	auipc	a5,0x2
20000fb0:	3e0780a3          	sb	zero,993(a5) # 2000338d <gBleIPPara+0x1>
20000fb4:	401c                	lw	a5,0(s0)
20000fb6:	4709                	li	a4,2
20000fb8:	c398                	sw	a4,0(a5)
20000fba:	e000f7b7          	lui	a5,0xe000f
20000fbe:	d107a703          	lw	a4,-752(a5) # e000ed10 <_eusrstack+0xc0006d10>
20000fc2:	9b6d                	andi	a4,a4,-5
20000fc4:	d0e7a823          	sw	a4,-752(a5)
20000fc8:	d107a703          	lw	a4,-752(a5)
20000fcc:	9b5d                	andi	a4,a4,-9
20000fce:	d0e7a823          	sw	a4,-752(a5)
20000fd2:	10500073          	wfi
20000fd6:	4014                	lw	a3,0(s0)
20000fd8:	00002717          	auipc	a4,0x2
20000fdc:	3b470713          	addi	a4,a4,948 # 2000338c <gBleIPPara>
20000fe0:	00274783          	lbu	a5,2(a4)
20000fe4:	8b85                	andi	a5,a5,1
20000fe6:	eb89                	bnez	a5,20000ff8 <ll_tx_wait_finish+0x9a>
20000fe8:	00374783          	lbu	a5,3(a4)
20000fec:	8b85                	andi	a5,a5,1
20000fee:	c7d9                	beqz	a5,2000107c <ll_tx_wait_finish+0x11e>
20000ff0:	00002797          	auipc	a5,0x2
20000ff4:	3a078023          	sb	zero,928(a5) # 20003390 <gBleIPPara+0x4>
20000ff8:	40b2                	lw	ra,12(sp)
20000ffa:	4422                	lw	s0,8(sp)
20000ffc:	0141                	addi	sp,sp,16
20000ffe:	8082                	ret
20001000:	478d                	li	a5,3
20001002:	02f51063          	bne	a0,a5,20001022 <ll_tx_wait_finish+0xc4>
20001006:	00002797          	auipc	a5,0x2
2000100a:	37e78793          	addi	a5,a5,894 # 20003384 <gptrBBReg>
2000100e:	439c                	lw	a5,0(a5)
20001010:	008006b7          	lui	a3,0x800
20001014:	4398                	lw	a4,0(a5)
20001016:	8f55                	or	a4,a4,a3
20001018:	c398                	sw	a4,0(a5)
2000101a:	57d8                	lw	a4,44(a5)
2000101c:	9b71                	andi	a4,a4,-4
2000101e:	d7d8                	sw	a4,44(a5)
20001020:	bf5d                	j	20000fd6 <ll_tx_wait_finish+0x78>
20001022:	4785                	li	a5,1
20001024:	faf519e3          	bne	a0,a5,20000fd6 <ll_tx_wait_finish+0x78>
20001028:	67b5                	lui	a5,0xd
2000102a:	07bd                	addi	a5,a5,15
2000102c:	c75c                	sw	a5,12(a4)
2000102e:	0000100f          	fence.i
20001032:	401c                	lw	a5,0(s0)
20001034:	6709                	lui	a4,0x2
20001036:	4609                	li	a2,2
20001038:	c798                	sw	a4,8(a5)
2000103a:	f8000713          	li	a4,-128
2000103e:	00002697          	auipc	a3,0x2
20001042:	34e68923          	sb	a4,850(a3) # 20003390 <gBleIPPara+0x4>
20001046:	00002717          	auipc	a4,0x2
2000104a:	33e70713          	addi	a4,a4,830 # 20003384 <gptrBBReg>
2000104e:	4314                	lw	a3,0(a4)
20001050:	4298                	lw	a4,0(a3)
20001052:	8331                	srli	a4,a4,0xc
20001054:	8b0d                	andi	a4,a4,3
20001056:	00c71963          	bne	a4,a2,20001068 <ll_tx_wait_finish+0x10a>
2000105a:	43e00713          	li	a4,1086
2000105e:	d3f8                	sw	a4,100(a5)
20001060:	673d                	lui	a4,0xf
20001062:	073d                	addi	a4,a4,15
20001064:	c7d8                	sw	a4,12(a5)
20001066:	bf85                	j	20000fd6 <ll_tx_wait_finish+0x78>
20001068:	4298                	lw	a4,0(a3)
2000106a:	8331                	srli	a4,a4,0xc
2000106c:	8b0d                	andi	a4,a4,3
2000106e:	e701                	bnez	a4,20001076 <ll_tx_wait_finish+0x118>
20001070:	19600713          	li	a4,406
20001074:	b7ed                	j	2000105e <ll_tx_wait_finish+0x100>
20001076:	1be00713          	li	a4,446
2000107a:	b7d5                	j	2000105e <ll_tx_wait_finish+0x100>
2000107c:	52fc                	lw	a5,100(a3)
2000107e:	f3ad                	bnez	a5,20000fe0 <ll_tx_wait_finish+0x82>
20001080:	bfa5                	j	20000ff8 <ll_tx_wait_finish+0x9a>

20001082 <BLE_CheckHoppingMap>:
BLE_CheckHoppingMap():
20001082:	715d                	addi	sp,sp,-80
20001084:	de4e                	sw	s3,60(sp)
20001086:	00002997          	auipc	s3,0x2
2000108a:	2fe98993          	addi	s3,s3,766 # 20003384 <gptrBBReg>
2000108e:	0009a703          	lw	a4,0(s3)
20001092:	c686                	sw	ra,76(sp)
20001094:	c4a2                	sw	s0,72(sp)
20001096:	c2a6                	sw	s1,68(sp)
20001098:	c0ca                	sw	s2,64(sp)
2000109a:	dc52                	sw	s4,56(sp)
2000109c:	431c                	lw	a5,0(a4)
2000109e:	00002917          	auipc	s2,0x2
200010a2:	34e90913          	addi	s2,s2,846 # 200033ec <gptrRFENDReg>
200010a6:	00002a17          	auipc	s4,0x2
200010aa:	302a0a13          	addi	s4,s4,770 # 200033a8 <gptrLLEReg>
200010ae:	e7f7f793          	andi	a5,a5,-385
200010b2:	0807e793          	ori	a5,a5,128
200010b6:	c31c                	sw	a5,0(a4)
200010b8:	00092683          	lw	a3,0(s2)
200010bc:	ffce0737          	lui	a4,0xffce0
200010c0:	177d                	addi	a4,a4,-1
200010c2:	469c                	lw	a5,8(a3)
200010c4:	02800613          	li	a2,40
200010c8:	842a                	mv	s0,a0
200010ca:	8ff9                	and	a5,a5,a4
200010cc:	c69c                	sw	a5,8(a3)
200010ce:	000a2783          	lw	a5,0(s4)
200010d2:	08000713          	li	a4,128
200010d6:	0028                	addi	a0,sp,8
200010d8:	cbb8                	sw	a4,80(a5)
200010da:	84ae                	mv	s1,a1
200010dc:	08100593          	li	a1,129
200010e0:	fcaff0ef          	jal	ra,200008aa <tmos_memset>
200010e4:	e0003097          	auipc	ra,0xe0003
200010e8:	c9c080e7          	jalr	-868(ra) # 3d80 <ll_multi_states_check>
200010ec:	e0003097          	auipc	ra,0xe0003
200010f0:	d6c080e7          	jalr	-660(ra) # 3e58 <ble_ll_hw_api_shut>
200010f4:	0009a783          	lw	a5,0(s3)
200010f8:	1ff47693          	andi	a3,s0,511
200010fc:	fffc0eb7          	lui	t4,0xfffc0
20001100:	0007a423          	sw	zero,8(a5) # d008 <_data_lma+0x6978>
20001104:	4b98                	lw	a4,16(a5)
20001106:	f8100513          	li	a0,-127
2000110a:	85ce                	mv	a1,s3
2000110c:	03f76713          	ori	a4,a4,63
20001110:	cb98                	sw	a4,16(a5)
20001112:	4ff8                	lw	a4,92(a5)
20001114:	884a                	mv	a6,s2
20001116:	00040fb7          	lui	t6,0x40
2000111a:	e0077713          	andi	a4,a4,-512
2000111e:	8f55                	or	a4,a4,a3
20001120:	cff8                	sw	a4,92(a5)
20001122:	4398                	lw	a4,0(a5)
20001124:	76f5                	lui	a3,0xffffd
20001126:	16fd                	addi	a3,a3,-1
20001128:	8f75                	and	a4,a4,a3
2000112a:	c398                	sw	a4,0(a5)
2000112c:	4398                	lw	a4,0(a5)
2000112e:	003306b7          	lui	a3,0x330
20001132:	4291                	li	t0,4
20001134:	e7f77713          	andi	a4,a4,-385
20001138:	c398                	sw	a4,0(a5)
2000113a:	4398                	lw	a4,0(a5)
2000113c:	1efd                	addi	t4,t4,-1
2000113e:	4385                	li	t2,1
20001140:	e7f77713          	andi	a4,a4,-385
20001144:	10076713          	ori	a4,a4,256
20001148:	c398                	sw	a4,0(a5)
2000114a:	00092703          	lw	a4,0(s2)
2000114e:	02800f13          	li	t5,40
20001152:	471c                	lw	a5,8(a4)
20001154:	8fd5                	or	a5,a5,a3
20001156:	c71c                	sw	a5,8(a4)
20001158:	000a2783          	lw	a5,0(s4)
2000115c:	0d900713          	li	a4,217
20001160:	0034                	addi	a3,sp,8
20001162:	cbb8                	sw	a4,80(a5)
20001164:	4701                	li	a4,0
20001166:	00375893          	srli	a7,a4,0x3
2000116a:	98a6                	add	a7,a7,s1
2000116c:	0008c783          	lbu	a5,0(a7)
20001170:	00777613          	andi	a2,a4,7
20001174:	40c7d7b3          	sra	a5,a5,a2
20001178:	8b85                	andi	a5,a5,1
2000117a:	c7dd                	beqz	a5,20001228 <BLE_CheckHoppingMap+0x1a6>
2000117c:	419c                	lw	a5,0(a1)
2000117e:	00082e03          	lw	t3,0(a6)
20001182:	04079c23          	sh	zero,88(a5)
20001186:	06079023          	sh	zero,96(a5)
2000118a:	02ce2303          	lw	t1,44(t3)
2000118e:	ffd37313          	andi	t1,t1,-3
20001192:	026e2623          	sw	t1,44(t3)
20001196:	0007ae03          	lw	t3,0(a5)
2000119a:	07f77313          	andi	t1,a4,127
2000119e:	f80e7e13          	andi	t3,t3,-128
200011a2:	006e6333          	or	t1,t3,t1
200011a6:	0067a023          	sw	t1,0(a5)
200011aa:	0247a303          	lw	t1,36(a5)
200011ae:	01f36333          	or	t1,t1,t6
200011b2:	0267a223          	sw	t1,36(a5)
200011b6:	4301                	li	t1,0
200011b8:	0607de03          	lhu	t3,96(a5)
200011bc:	03c30763          	beq	t1,t3,200011ea <BLE_CheckHoppingMap+0x168>
200011c0:	0307a303          	lw	t1,48(a5)
200011c4:	00068e03          	lb	t3,0(a3) # 330000 <_data_lma+0x329970>
200011c8:	00f35313          	srli	t1,t1,0xf
200011cc:	0362                	slli	t1,t1,0x18
200011ce:	41835313          	srai	t1,t1,0x18
200011d2:	006e5863          	bge	t3,t1,200011e2 <BLE_CheckHoppingMap+0x160>
200011d6:	0307a303          	lw	t1,48(a5)
200011da:	00f35313          	srli	t1,t1,0xf
200011de:	00668023          	sb	t1,0(a3)
200011e2:	0607d303          	lhu	t1,96(a5)
200011e6:	0ff37313          	andi	t1,t1,255
200011ea:	0587de03          	lhu	t3,88(a5)
200011ee:	fdc2f5e3          	bgeu	t0,t3,200011b8 <BLE_CheckHoppingMap+0x136>
200011f2:	0247a303          	lw	t1,36(a5)
200011f6:	01d37333          	and	t1,t1,t4
200011fa:	0267a223          	sw	t1,36(a5)
200011fe:	00068783          	lb	a5,0(a3)
20001202:	00f45c63          	bge	s0,a5,2000121a <BLE_CheckHoppingMap+0x198>
20001206:	0008c303          	lbu	t1,0(a7)
2000120a:	00c39633          	sll	a2,t2,a2
2000120e:	fff64613          	not	a2,a2
20001212:	00667633          	and	a2,a2,t1
20001216:	00c88023          	sb	a2,0(a7)
2000121a:	863e                	mv	a2,a5
2000121c:	00a7d363          	bge	a5,a0,20001222 <BLE_CheckHoppingMap+0x1a0>
20001220:	862a                	mv	a2,a0
20001222:	01861513          	slli	a0,a2,0x18
20001226:	8561                	srai	a0,a0,0x18
20001228:	0705                	addi	a4,a4,1
2000122a:	0ff77713          	andi	a4,a4,255
2000122e:	0685                	addi	a3,a3,1
20001230:	f3e71be3          	bne	a4,t5,20001166 <BLE_CheckHoppingMap+0xe4>
20001234:	40b6                	lw	ra,76(sp)
20001236:	4426                	lw	s0,72(sp)
20001238:	4496                	lw	s1,68(sp)
2000123a:	4906                	lw	s2,64(sp)
2000123c:	59f2                	lw	s3,60(sp)
2000123e:	5a62                	lw	s4,56(sp)
20001240:	6161                	addi	sp,sp,80
20001242:	8082                	ret

20001244 <LLE_IRQLibHandler>:
LLE_IRQLibHandler():
20001244:	1101                	addi	sp,sp,-32
20001246:	c836                	sw	a3,16(sp)
20001248:	00002697          	auipc	a3,0x2
2000124c:	16068693          	addi	a3,a3,352 # 200033a8 <gptrLLEReg>
20001250:	c43e                	sw	a5,8(sp)
20001252:	429c                	lw	a5,0(a3)
20001254:	c63a                	sw	a4,12(sp)
20001256:	ca32                	sw	a2,20(sp)
20001258:	47d8                	lw	a4,12(a5)
2000125a:	ce2a                	sw	a0,28(sp)
2000125c:	cc2e                	sw	a1,24(sp)
2000125e:	01171613          	slli	a2,a4,0x11
20001262:	02065563          	bgez	a2,2000128c <LLE_IRQLibHandler+0x48>
20001266:	4798                	lw	a4,8(a5)
20001268:	01171613          	slli	a2,a4,0x11
2000126c:	02065063          	bgez	a2,2000128c <LLE_IRQLibHandler+0x48>
20001270:	577d                	li	a4,-1
20001272:	d7b8                	sw	a4,104(a5)
20001274:	00002717          	auipc	a4,0x2
20001278:	06c70713          	addi	a4,a4,108 # 200032e0 <gTmosPara>
2000127c:	4f58                	lw	a4,28(a4)
2000127e:	0705                	addi	a4,a4,1
20001280:	00002617          	auipc	a2,0x2
20001284:	06e62e23          	sw	a4,124(a2) # 200032fc <gTmosPara+0x1c>
20001288:	6711                	lui	a4,0x4
2000128a:	c798                	sw	a4,8(a5)
2000128c:	4798                	lw	a4,8(a5)
2000128e:	830d                	srli	a4,a4,0x3
20001290:	8b05                	andi	a4,a4,1
20001292:	c31d                	beqz	a4,200012b8 <LLE_IRQLibHandler+0x74>
20001294:	00002717          	auipc	a4,0x2
20001298:	0fa74703          	lbu	a4,250(a4) # 2000338e <gBleIPPara+0x2>
2000129c:	00176713          	ori	a4,a4,1
200012a0:	00002617          	auipc	a2,0x2
200012a4:	0ee60723          	sb	a4,238(a2) # 2000338e <gBleIPPara+0x2>
200012a8:	f8000713          	li	a4,-128
200012ac:	00002617          	auipc	a2,0x2
200012b0:	0ee60223          	sb	a4,228(a2) # 20003390 <gBleIPPara+0x4>
200012b4:	4721                	li	a4,8
200012b6:	c798                	sw	a4,8(a5)
200012b8:	4798                	lw	a4,8(a5)
200012ba:	8b05                	andi	a4,a4,1
200012bc:	cf09                	beqz	a4,200012d6 <LLE_IRQLibHandler+0x92>
200012be:	00002717          	auipc	a4,0x2
200012c2:	0cf74703          	lbu	a4,207(a4) # 2000338d <gBleIPPara+0x1>
200012c6:	00176713          	ori	a4,a4,1
200012ca:	00002617          	auipc	a2,0x2
200012ce:	0ce601a3          	sb	a4,195(a2) # 2000338d <gBleIPPara+0x1>
200012d2:	4705                	li	a4,1
200012d4:	c798                	sw	a4,8(a5)
200012d6:	4798                	lw	a4,8(a5)
200012d8:	8309                	srli	a4,a4,0x2
200012da:	8b05                	andi	a4,a4,1
200012dc:	e709                	bnez	a4,200012e6 <LLE_IRQLibHandler+0xa2>
200012de:	4798                	lw	a4,8(a5)
200012e0:	8305                	srli	a4,a4,0x1
200012e2:	8b05                	andi	a4,a4,1
200012e4:	cf39                	beqz	a4,20001342 <LLE_IRQLibHandler+0xfe>
200012e6:	4798                	lw	a4,8(a5)
200012e8:	00002617          	auipc	a2,0x2
200012ec:	0a460613          	addi	a2,a2,164 # 2000338c <gBleIPPara>
200012f0:	00002517          	auipc	a0,0x2
200012f4:	09450513          	addi	a0,a0,148 # 20003384 <gptrBBReg>
200012f8:	8309                	srli	a4,a4,0x2
200012fa:	8b05                	andi	a4,a4,1
200012fc:	10070c63          	beqz	a4,20001414 <LLE_IRQLibHandler+0x1d0>
20001300:	4118                	lw	a4,0(a0)
20001302:	4318                	lw	a4,0(a4)
20001304:	8331                	srli	a4,a4,0xc
20001306:	8b0d                	andi	a4,a4,3
20001308:	10071363          	bnez	a4,2000140e <LLE_IRQLibHandler+0x1ca>
2000130c:	4bac                	lw	a1,80(a5)
2000130e:	4e18                	lw	a4,24(a2)
20001310:	0205f593          	andi	a1,a1,32
20001314:	00174703          	lbu	a4,1(a4)
20001318:	c5e9                	beqz	a1,200013e2 <LLE_IRQLibHandler+0x19e>
2000131a:	e77d                	bnez	a4,20001408 <LLE_IRQLibHandler+0x1c4>
2000131c:	06700713          	li	a4,103
20001320:	cfd8                	sw	a4,28(a5)
20001322:	00064703          	lbu	a4,0(a2)
20001326:	00176713          	ori	a4,a4,1
2000132a:	00002617          	auipc	a2,0x2
2000132e:	06e60123          	sb	a4,98(a2) # 2000338c <gBleIPPara>
20001332:	4711                	li	a4,4
20001334:	c798                	sw	a4,8(a5)
20001336:	4118                	lw	a4,0(a0)
20001338:	575c                	lw	a5,44(a4)
2000133a:	9bf1                	andi	a5,a5,-4
2000133c:	0017e793          	ori	a5,a5,1
20001340:	d75c                	sw	a5,44(a4)
20001342:	429c                	lw	a5,0(a3)
20001344:	4798                	lw	a4,8(a5)
20001346:	01371693          	slli	a3,a4,0x13
2000134a:	0206d663          	bgez	a3,20001376 <LLE_IRQLibHandler+0x132>
2000134e:	00002697          	auipc	a3,0x2
20001352:	1226c683          	lbu	a3,290(a3) # 20003470 <gBleLlPara+0x70>
20001356:	8ac1                	andi	a3,a3,16
20001358:	00002717          	auipc	a4,0x2
2000135c:	0a870713          	addi	a4,a4,168 # 20003400 <gBleLlPara>
20001360:	c6e1                	beqz	a3,20001428 <LLE_IRQLibHandler+0x1e4>
20001362:	07074703          	lbu	a4,112(a4)
20001366:	02076713          	ori	a4,a4,32
2000136a:	00002697          	auipc	a3,0x2
2000136e:	10e68323          	sb	a4,262(a3) # 20003470 <gBleLlPara+0x70>
20001372:	6705                	lui	a4,0x1
20001374:	c798                	sw	a4,8(a5)
20001376:	4798                	lw	a4,8(a5)
20001378:	01271693          	slli	a3,a4,0x12
2000137c:	0206d163          	bgez	a3,2000139e <LLE_IRQLibHandler+0x15a>
20001380:	00002717          	auipc	a4,0x2
20001384:	01074703          	lbu	a4,16(a4) # 20003390 <gBleIPPara+0x4>
20001388:	0762                	slli	a4,a4,0x18
2000138a:	8761                	srai	a4,a4,0x18
2000138c:	00075763          	bgez	a4,2000139a <LLE_IRQLibHandler+0x156>
20001390:	4705                	li	a4,1
20001392:	00002697          	auipc	a3,0x2
20001396:	fee68f23          	sb	a4,-2(a3) # 20003390 <gBleIPPara+0x4>
2000139a:	6709                	lui	a4,0x2
2000139c:	c798                	sw	a4,8(a5)
2000139e:	4798                	lw	a4,8(a5)
200013a0:	01071693          	slli	a3,a4,0x10
200013a4:	0206d663          	bgez	a3,200013d0 <LLE_IRQLibHandler+0x18c>
200013a8:	00002697          	auipc	a3,0x2
200013ac:	0c96c683          	lbu	a3,201(a3) # 20003471 <gBleLlPara+0x71>
200013b0:	8a85                	andi	a3,a3,1
200013b2:	00002717          	auipc	a4,0x2
200013b6:	04e70713          	addi	a4,a4,78 # 20003400 <gBleLlPara>
200013ba:	c6c9                	beqz	a3,20001444 <LLE_IRQLibHandler+0x200>
200013bc:	07174703          	lbu	a4,113(a4)
200013c0:	00276713          	ori	a4,a4,2
200013c4:	00002697          	auipc	a3,0x2
200013c8:	0ae686a3          	sb	a4,173(a3) # 20003471 <gBleLlPara+0x71>
200013cc:	6721                	lui	a4,0x8
200013ce:	c798                	sw	a4,8(a5)
200013d0:	4572                	lw	a0,28(sp)
200013d2:	45e2                	lw	a1,24(sp)
200013d4:	4652                	lw	a2,20(sp)
200013d6:	46c2                	lw	a3,16(sp)
200013d8:	4732                	lw	a4,12(sp)
200013da:	47a2                	lw	a5,8(sp)
200013dc:	6105                	addi	sp,sp,32
200013de:	30200073          	mret
200013e2:	df0d                	beqz	a4,2000131c <LLE_IRQLibHandler+0xd8>
200013e4:	4585                	li	a1,1
200013e6:	00b71563          	bne	a4,a1,200013f0 <LLE_IRQLibHandler+0x1ac>
200013ea:	06b00713          	li	a4,107
200013ee:	bf0d                	j	20001320 <LLE_IRQLibHandler+0xdc>
200013f0:	4589                	li	a1,2
200013f2:	00b71563          	bne	a4,a1,200013fc <LLE_IRQLibHandler+0x1b8>
200013f6:	06f00713          	li	a4,111
200013fa:	b71d                	j	20001320 <LLE_IRQLibHandler+0xdc>
200013fc:	458d                	li	a1,3
200013fe:	00b71563          	bne	a4,a1,20001408 <LLE_IRQLibHandler+0x1c4>
20001402:	07300713          	li	a4,115
20001406:	bf29                	j	20001320 <LLE_IRQLibHandler+0xdc>
20001408:	07500713          	li	a4,117
2000140c:	bf11                	j	20001320 <LLE_IRQLibHandler+0xdc>
2000140e:	07600713          	li	a4,118
20001412:	b739                	j	20001320 <LLE_IRQLibHandler+0xdc>
20001414:	00364703          	lbu	a4,3(a2)
20001418:	00176713          	ori	a4,a4,1
2000141c:	00002617          	auipc	a2,0x2
20001420:	f6e609a3          	sb	a4,-141(a2) # 2000338f <gBleIPPara+0x3>
20001424:	4709                	li	a4,2
20001426:	b739                	j	20001334 <LLE_IRQLibHandler+0xf0>
20001428:	07074683          	lbu	a3,112(a4) # 8070 <_data_lma+0x19e0>
2000142c:	4609                	li	a2,2
2000142e:	8abd                	andi	a3,a3,15
20001430:	00c68863          	beq	a3,a2,20001440 <LLE_IRQLibHandler+0x1fc>
20001434:	07074703          	lbu	a4,112(a4)
20001438:	468d                	li	a3,3
2000143a:	8b3d                	andi	a4,a4,15
2000143c:	f2d71be3          	bne	a4,a3,20001372 <LLE_IRQLibHandler+0x12e>
20001440:	4711                	li	a4,4
20001442:	b725                	j	2000136a <LLE_IRQLibHandler+0x126>
20001444:	07174683          	lbu	a3,113(a4)
20001448:	8a91                	andi	a3,a3,4
2000144a:	d2c9                	beqz	a3,200013cc <LLE_IRQLibHandler+0x188>
2000144c:	07174703          	lbu	a4,113(a4)
20001450:	00876713          	ori	a4,a4,8
20001454:	bf85                	j	200013c4 <LLE_IRQLibHandler+0x180>

20001456 <RF_HopGetChannel>:
RF_HopGetChannel():
20001456:	00002717          	auipc	a4,0x2
2000145a:	f5670713          	addi	a4,a4,-170 # 200033ac <rfConfig>
2000145e:	01b74683          	lbu	a3,27(a4)
20001462:	00002797          	auipc	a5,0x2
20001466:	f777c783          	lbu	a5,-137(a5) # 200033d9 <rfInfo+0xd>
2000146a:	97b6                	add	a5,a5,a3
2000146c:	0ff7f793          	andi	a5,a5,255
20001470:	46fd                	li	a3,31
20001472:	04f6ea63          	bltu	a3,a5,200014c6 <RF_HopGetChannel+0x70>
20001476:	4b4c                	lw	a1,20(a4)
20001478:	00002697          	auipc	a3,0x2
2000147c:	f2f68aa3          	sb	a5,-203(a3) # 200033ad <rfConfig+0x1>
20001480:	00002797          	auipc	a5,0x2
20001484:	f2d7c783          	lbu	a5,-211(a5) # 200033ad <rfConfig+0x1>
20001488:	4705                	li	a4,1
2000148a:	00f71733          	sll	a4,a4,a5
2000148e:	00002697          	auipc	a3,0x2
20001492:	f4f685a3          	sb	a5,-181(a3) # 200033d9 <rfInfo+0xd>
20001496:	8f6d                	and	a4,a4,a1
20001498:	ef1d                	bnez	a4,200014d6 <RF_HopGetChannel+0x80>
2000149a:	00002697          	auipc	a3,0x2
2000149e:	f436c683          	lbu	a3,-189(a3) # 200033dd <rfInfo+0x11>
200014a2:	02d7f6b3          	remu	a3,a5,a3
200014a6:	02000513          	li	a0,32
200014aa:	4781                	li	a5,0
200014ac:	00f5d633          	srl	a2,a1,a5
200014b0:	8a05                	andi	a2,a2,1
200014b2:	0ff7f813          	andi	a6,a5,255
200014b6:	ce09                	beqz	a2,200014d0 <RF_HopGetChannel+0x7a>
200014b8:	00e69963          	bne	a3,a4,200014ca <RF_HopGetChannel+0x74>
200014bc:	00002797          	auipc	a5,0x2
200014c0:	ef0788a3          	sb	a6,-271(a5) # 200033ad <rfConfig+0x1>
200014c4:	8082                	ret
200014c6:	1781                	addi	a5,a5,-32
200014c8:	b77d                	j	20001476 <RF_HopGetChannel+0x20>
200014ca:	0705                	addi	a4,a4,1
200014cc:	0ff77713          	andi	a4,a4,255
200014d0:	0785                	addi	a5,a5,1
200014d2:	fca79de3          	bne	a5,a0,200014ac <RF_HopGetChannel+0x56>
200014d6:	8082                	ret

200014d8 <RF_FrequencyHoppingGet>:
RF_FrequencyHoppingGet():
200014d8:	00002797          	auipc	a5,0x2
200014dc:	ea478793          	addi	a5,a5,-348 # 2000337c <fnGetClockCBs>
200014e0:	439c                	lw	a5,0(a5)
200014e2:	1101                	addi	sp,sp,-32
200014e4:	cc22                	sw	s0,24(sp)
200014e6:	c64e                	sw	s3,12(sp)
200014e8:	ce06                	sw	ra,28(sp)
200014ea:	ca26                	sw	s1,20(sp)
200014ec:	c84a                	sw	s2,16(sp)
200014ee:	c452                	sw	s4,8(sp)
200014f0:	c256                	sw	s5,4(sp)
200014f2:	9782                	jalr	a5
200014f4:	00002797          	auipc	a5,0x2
200014f8:	ed878793          	addi	a5,a5,-296 # 200033cc <rfInfo>
200014fc:	4780                	lw	s0,8(a5)
200014fe:	4981                	li	s3,0
20001500:	06a40563          	beq	s0,a0,2000156a <RF_FrequencyHoppingGet+0x92>
20001504:	84be                	mv	s1,a5
20001506:	00002797          	auipc	a5,0x2
2000150a:	e3278793          	addi	a5,a5,-462 # 20003338 <ble>
2000150e:	01678703          	lb	a4,22(a5)
20001512:	893e                	mv	s2,a5
20001514:	06075563          	bgez	a4,2000157e <RF_FrequencyHoppingGet+0xa6>
20001518:	8d01                	sub	a0,a0,s0
2000151a:	00555413          	srli	s0,a0,0x5
2000151e:	00002797          	auipc	a5,0x2
20001522:	ea87c783          	lbu	a5,-344(a5) # 200033c6 <rfConfig+0x1a>
20001526:	01f57993          	andi	s3,a0,31
2000152a:	02f46d63          	bltu	s0,a5,20001564 <RF_FrequencyHoppingGet+0x8c>
2000152e:	a8c00a37          	lui	s4,0xa8c00
20001532:	57400ab7          	lui	s5,0x57400
20001536:	3705                	jal	20001456 <RF_HopGetChannel>
20001538:	449c                	lw	a5,8(s1)
2000153a:	00002697          	auipc	a3,0x2
2000153e:	e8c6c683          	lbu	a3,-372(a3) # 200033c6 <rfConfig+0x1a>
20001542:	00569713          	slli	a4,a3,0x5
20001546:	973e                	add	a4,a4,a5
20001548:	01690783          	lb	a5,22(s2)
2000154c:	8c15                	sub	s0,s0,a3
2000154e:	0007c563          	bltz	a5,20001558 <RF_FrequencyHoppingGet+0x80>
20001552:	01476363          	bltu	a4,s4,20001558 <RF_FrequencyHoppingGet+0x80>
20001556:	9756                	add	a4,a4,s5
20001558:	00002797          	auipc	a5,0x2
2000155c:	e6e7ae23          	sw	a4,-388(a5) # 200033d4 <rfInfo+0x8>
20001560:	fcd47be3          	bgeu	s0,a3,20001536 <RF_FrequencyHoppingGet+0x5e>
20001564:	0416                	slli	s0,s0,0x5
20001566:	013469b3          	or	s3,s0,s3
2000156a:	40f2                	lw	ra,28(sp)
2000156c:	4462                	lw	s0,24(sp)
2000156e:	854e                	mv	a0,s3
20001570:	44d2                	lw	s1,20(sp)
20001572:	4942                	lw	s2,16(sp)
20001574:	49b2                	lw	s3,12(sp)
20001576:	4a22                	lw	s4,8(sp)
20001578:	4a92                	lw	s5,4(sp)
2000157a:	6105                	addi	sp,sp,32
2000157c:	8082                	ret
2000157e:	f8857de3          	bgeu	a0,s0,20001518 <RF_FrequencyHoppingGet+0x40>
20001582:	a8c007b7          	lui	a5,0xa8c00
20001586:	40878433          	sub	s0,a5,s0
2000158a:	9522                	add	a0,a0,s0
2000158c:	b779                	j	2000151a <RF_FrequencyHoppingGet+0x42>

2000158e <RF_FrequencyHoppingChange>:
RF_FrequencyHoppingChange():
2000158e:	00002797          	auipc	a5,0x2
20001592:	dee78793          	addi	a5,a5,-530 # 2000337c <fnGetClockCBs>
20001596:	439c                	lw	a5,0(a5)
20001598:	1141                	addi	sp,sp,-16
2000159a:	c422                	sw	s0,8(sp)
2000159c:	c606                	sw	ra,12(sp)
2000159e:	c226                	sw	s1,4(sp)
200015a0:	9782                	jalr	a5
200015a2:	00002797          	auipc	a5,0x2
200015a6:	e2a78793          	addi	a5,a5,-470 # 200033cc <rfInfo>
200015aa:	4780                	lw	s0,8(a5)
200015ac:	06a40963          	beq	s0,a0,2000161e <RF_FrequencyHoppingChange+0x90>
200015b0:	84be                	mv	s1,a5
200015b2:	00002797          	auipc	a5,0x2
200015b6:	d8678793          	addi	a5,a5,-634 # 20003338 <ble>
200015ba:	01678783          	lb	a5,22(a5)
200015be:	0407d863          	bgez	a5,2000160e <RF_FrequencyHoppingChange+0x80>
200015c2:	8d01                	sub	a0,a0,s0
200015c4:	00555413          	srli	s0,a0,0x5
200015c8:	00002797          	auipc	a5,0x2
200015cc:	dfe7c783          	lbu	a5,-514(a5) # 200033c6 <rfConfig+0x1a>
200015d0:	04f46763          	bltu	s0,a5,2000161e <RF_FrequencyHoppingChange+0x90>
200015d4:	3549                	jal	20001456 <RF_HopGetChannel>
200015d6:	4498                	lw	a4,8(s1)
200015d8:	00002797          	auipc	a5,0x2
200015dc:	dee7c783          	lbu	a5,-530(a5) # 200033c6 <rfConfig+0x1a>
200015e0:	00579693          	slli	a3,a5,0x5
200015e4:	9736                	add	a4,a4,a3
200015e6:	8c1d                	sub	s0,s0,a5
200015e8:	00002697          	auipc	a3,0x2
200015ec:	dee6a623          	sw	a4,-532(a3) # 200033d4 <rfInfo+0x8>
200015f0:	fef472e3          	bgeu	s0,a5,200015d4 <RF_FrequencyHoppingChange+0x46>
200015f4:	4422                	lw	s0,8(sp)
200015f6:	40b2                	lw	ra,12(sp)
200015f8:	4492                	lw	s1,4(sp)
200015fa:	00002517          	auipc	a0,0x2
200015fe:	db354503          	lbu	a0,-589(a0) # 200033ad <rfConfig+0x1>
20001602:	4581                	li	a1,0
20001604:	0141                	addi	sp,sp,16
20001606:	e0003317          	auipc	t1,0xe0003
2000160a:	a6c30067          	jr	-1428(t1) # 4072 <RF_DevSetChannel>
2000160e:	fa857ae3          	bgeu	a0,s0,200015c2 <RF_FrequencyHoppingChange+0x34>
20001612:	a8c007b7          	lui	a5,0xa8c00
20001616:	40878433          	sub	s0,a5,s0
2000161a:	9522                	add	a0,a0,s0
2000161c:	b765                	j	200015c4 <RF_FrequencyHoppingChange+0x36>
2000161e:	40b2                	lw	ra,12(sp)
20001620:	4422                	lw	s0,8(sp)
20001622:	4492                	lw	s1,4(sp)
20001624:	0141                	addi	sp,sp,16
20001626:	8082                	ret

20001628 <RFEND_WaitTune>:
RFEND_WaitTune():
20001628:	00002797          	auipc	a5,0x2
2000162c:	dc478793          	addi	a5,a5,-572 # 200033ec <gptrRFENDReg>
20001630:	4398                	lw	a4,0(a5)
20001632:	000257b7          	lui	a5,0x25
20001636:	9f078793          	addi	a5,a5,-1552 # 249f0 <_data_lma+0x1e360>
2000163a:	09072683          	lw	a3,144(a4)
2000163e:	00569613          	slli	a2,a3,0x5
20001642:	00065863          	bgez	a2,20001652 <RFEND_WaitTune+0x2a>
20001646:	09072683          	lw	a3,144(a4)
2000164a:	00669613          	slli	a2,a3,0x6
2000164e:	00064463          	bltz	a2,20001656 <RFEND_WaitTune+0x2e>
20001652:	17fd                	addi	a5,a5,-1
20001654:	f3fd                	bnez	a5,2000163a <RFEND_WaitTune+0x12>
20001656:	8082                	ret

20001658 <tmos_memory_allocate>:
tmos_memory_allocate():
20001658:	c571                	beqz	a0,20001724 <tmos_memory_allocate+0xcc>
2000165a:	87aa                	mv	a5,a0
2000165c:	4501                	li	a0,0
2000165e:	c5e9                	beqz	a1,20001728 <tmos_memory_allocate+0xd0>
20001660:	078d                	addi	a5,a5,3
20001662:	07c2                	slli	a5,a5,0x10
20001664:	83c1                	srli	a5,a5,0x10
20001666:	9bf1                	andi	a5,a5,-4
20001668:	07c2                	slli	a5,a5,0x10
2000166a:	83c1                	srli	a5,a5,0x10
2000166c:	03400713          	li	a4,52
20001670:	02f76f63          	bltu	a4,a5,200016ae <tmos_memory_allocate+0x56>
20001674:	00002717          	auipc	a4,0x2
20001678:	d8870713          	addi	a4,a4,-632 # 200033fc <MemCtlStart>
2000167c:	4308                	lw	a0,0(a4)
2000167e:	00002717          	auipc	a4,0x2
20001682:	d7670713          	addi	a4,a4,-650 # 200033f4 <MemCtlEnd>
20001686:	4314                	lw	a3,0(a4)
20001688:	02a69863          	bne	a3,a0,200016b8 <tmos_memory_allocate+0x60>
2000168c:	00002717          	auipc	a4,0x2
20001690:	cac70713          	addi	a4,a4,-852 # 20003338 <ble>
20001694:	5b18                	lw	a4,48(a4)
20001696:	4501                	li	a0,0
20001698:	cb41                	beqz	a4,20001728 <tmos_memory_allocate+0xd0>
2000169a:	1141                	addi	sp,sp,-16
2000169c:	07c2                	slli	a5,a5,0x10
2000169e:	c606                	sw	ra,12(sp)
200016a0:	4505                	li	a0,1
200016a2:	8ddd                	or	a1,a1,a5
200016a4:	9702                	jalr	a4
200016a6:	40b2                	lw	ra,12(sp)
200016a8:	4501                	li	a0,0
200016aa:	0141                	addi	sp,sp,16
200016ac:	8082                	ret
200016ae:	00002717          	auipc	a4,0x2
200016b2:	d4a70713          	addi	a4,a4,-694 # 200033f8 <MemCtlPartition>
200016b6:	b7d9                	j	2000167c <tmos_memory_allocate+0x24>
200016b8:	00655703          	lhu	a4,6(a0)
200016bc:	e335                	bnez	a4,20001720 <tmos_memory_allocate+0xc8>
200016be:	00455703          	lhu	a4,4(a0)
200016c2:	04f76f63          	bltu	a4,a5,20001720 <tmos_memory_allocate+0xc8>
200016c6:	40f706b3          	sub	a3,a4,a5
200016ca:	4621                	li	a2,8
200016cc:	02d67c63          	bgeu	a2,a3,20001704 <tmos_memory_allocate+0xac>
200016d0:	00052803          	lw	a6,0(a0)
200016d4:	00878693          	addi	a3,a5,8
200016d8:	8f1d                	sub	a4,a4,a5
200016da:	96aa                	add	a3,a3,a0
200016dc:	1761                	addi	a4,a4,-8
200016de:	00002617          	auipc	a2,0x2
200016e2:	c0865603          	lhu	a2,-1016(a2) # 200032e6 <gTmosPara+0x6>
200016e6:	00e69223          	sh	a4,4(a3)
200016ea:	0106a023          	sw	a6,0(a3)
200016ee:	00069323          	sh	zero,6(a3)
200016f2:	c114                	sw	a3,0(a0)
200016f4:	00f51223          	sh	a5,4(a0)
200016f8:	ff860713          	addi	a4,a2,-8
200016fc:	00002697          	auipc	a3,0x2
20001700:	bee69523          	sh	a4,-1046(a3) # 200032e6 <gTmosPara+0x6>
20001704:	00b51323          	sh	a1,6(a0)
20001708:	00002597          	auipc	a1,0x2
2000170c:	bde5d583          	lhu	a1,-1058(a1) # 200032e6 <gTmosPara+0x6>
20001710:	40f587b3          	sub	a5,a1,a5
20001714:	00002717          	auipc	a4,0x2
20001718:	bcf71923          	sh	a5,-1070(a4) # 200032e6 <gTmosPara+0x6>
2000171c:	0521                	addi	a0,a0,8
2000171e:	8082                	ret
20001720:	4108                	lw	a0,0(a0)
20001722:	b79d                	j	20001688 <tmos_memory_allocate+0x30>
20001724:	4501                	li	a0,0
20001726:	8082                	ret
20001728:	8082                	ret

2000172a <tmos_memory_free>:
tmos_memory_free():
2000172a:	c10d                	beqz	a0,2000174c <tmos_memory_free+0x22>
2000172c:	00002797          	auipc	a5,0x2
20001730:	cd078793          	addi	a5,a5,-816 # 200033fc <MemCtlStart>
20001734:	0007a303          	lw	t1,0(a5)
20001738:	00002797          	auipc	a5,0x2
2000173c:	cbc78793          	addi	a5,a5,-836 # 200033f4 <MemCtlEnd>
20001740:	0007a883          	lw	a7,0(a5)
20001744:	4681                	li	a3,0
20001746:	879a                	mv	a5,t1
20001748:	0117e363          	bltu	a5,a7,2000174e <tmos_memory_free+0x24>
2000174c:	8082                	ret
2000174e:	0007a803          	lw	a6,0(a5)
20001752:	0af56d63          	bltu	a0,a5,2000180c <tmos_memory_free+0xe2>
20001756:	0aa86b63          	bltu	a6,a0,2000180c <tmos_memory_free+0xe2>
2000175a:	00878713          	addi	a4,a5,8
2000175e:	fee567e3          	bltu	a0,a4,2000174c <tmos_memory_free+0x22>
20001762:	0067d603          	lhu	a2,6(a5)
20001766:	6721                	lui	a4,0x8
20001768:	0705                	addi	a4,a4,1
2000176a:	00e61763          	bne	a2,a4,20001778 <tmos_memory_free+0x4e>
2000176e:	8191c703          	lbu	a4,-2023(gp) # 20001831 <l2capNumRecvDataPkts>
20001772:	0705                	addi	a4,a4,1
20001774:	80e18ca3          	sb	a4,-2023(gp) # 20001831 <l2capNumRecvDataPkts>
20001778:	00002597          	auipc	a1,0x2
2000177c:	b6858593          	addi	a1,a1,-1176 # 200032e0 <gTmosPara>
20001780:	0047d603          	lhu	a2,4(a5)
20001784:	0065d703          	lhu	a4,6(a1)
20001788:	00079323          	sh	zero,6(a5)
2000178c:	9732                	add	a4,a4,a2
2000178e:	0742                	slli	a4,a4,0x10
20001790:	8341                	srli	a4,a4,0x10
20001792:	00002517          	auipc	a0,0x2
20001796:	b4e51a23          	sh	a4,-1196(a0) # 200032e6 <gTmosPara+0x6>
2000179a:	02678a63          	beq	a5,t1,200017ce <tmos_memory_free+0xa4>
2000179e:	00002517          	auipc	a0,0x2
200017a2:	c5a50513          	addi	a0,a0,-934 # 200033f8 <MemCtlPartition>
200017a6:	4108                	lw	a0,0(a0)
200017a8:	02f50363          	beq	a0,a5,200017ce <tmos_memory_free+0xa4>
200017ac:	0066d503          	lhu	a0,6(a3)
200017b0:	ed19                	bnez	a0,200017ce <tmos_memory_free+0xa4>
200017b2:	0046d783          	lhu	a5,4(a3)
200017b6:	0106a023          	sw	a6,0(a3)
200017ba:	0721                	addi	a4,a4,8
200017bc:	963e                	add	a2,a2,a5
200017be:	0621                	addi	a2,a2,8
200017c0:	00c69223          	sh	a2,4(a3)
200017c4:	00002797          	auipc	a5,0x2
200017c8:	b2e79123          	sh	a4,-1246(a5) # 200032e6 <gTmosPara+0x6>
200017cc:	87b6                	mv	a5,a3
200017ce:	4398                	lw	a4,0(a5)
200017d0:	f7170ee3          	beq	a4,a7,2000174c <tmos_memory_free+0x22>
200017d4:	00002697          	auipc	a3,0x2
200017d8:	c2468693          	addi	a3,a3,-988 # 200033f8 <MemCtlPartition>
200017dc:	4294                	lw	a3,0(a3)
200017de:	f6d707e3          	beq	a4,a3,2000174c <tmos_memory_free+0x22>
200017e2:	00675683          	lhu	a3,6(a4) # 8006 <_data_lma+0x1976>
200017e6:	f2bd                	bnez	a3,2000174c <tmos_memory_free+0x22>
200017e8:	0047d683          	lhu	a3,4(a5)
200017ec:	00475603          	lhu	a2,4(a4)
200017f0:	4318                	lw	a4,0(a4)
200017f2:	06a1                	addi	a3,a3,8
200017f4:	96b2                	add	a3,a3,a2
200017f6:	00d79223          	sh	a3,4(a5)
200017fa:	c398                	sw	a4,0(a5)
200017fc:	0065d783          	lhu	a5,6(a1)
20001800:	07a1                	addi	a5,a5,8
20001802:	00002717          	auipc	a4,0x2
20001806:	aef71223          	sh	a5,-1308(a4) # 200032e6 <gTmosPara+0x6>
2000180a:	8082                	ret
2000180c:	86be                	mv	a3,a5
2000180e:	87c2                	mv	a5,a6
20001810:	bf25                	j	20001748 <tmos_memory_free+0x1e>
	...

Disassembly of section .text:

00001818 <handle_reset>:
handle_reset():
E:\Project\tp78_v2\mounriver_project\RF_CH582M\obj/../Startup/startup_CH583.S:125
	.weak	handle_reset
	.align	1
handle_reset:
.option push 
.option	norelax 
	la gp, __global_pointer$
    1818:	20001197          	auipc	gp,0x20001
    181c:	80018193          	addi	gp,gp,-2048 # 20002018 <__global_pointer$>
E:\Project\tp78_v2\mounriver_project\RF_CH582M\obj/../Startup/startup_CH583.S:128
.option	pop 
1:
	la sp, _eusrstack 
    1820:	20006117          	auipc	sp,0x20006
    1824:	7e010113          	addi	sp,sp,2016 # 20008000 <_eusrstack>
E:\Project\tp78_v2\mounriver_project\RF_CH582M\obj/../Startup/startup_CH583.S:132

/* Load highcode code  section from flash to RAM */
2:
    la a0, _highcode_lma
    1828:	00400513          	li	a0,4
E:\Project\tp78_v2\mounriver_project\RF_CH582M\obj/../Startup/startup_CH583.S:133
    la a1, _highcode_vma_start
    182c:	1fffe597          	auipc	a1,0x1fffe
    1830:	7d458593          	addi	a1,a1,2004 # 20000000 <_highcode_vma_start>
E:\Project\tp78_v2\mounriver_project\RF_CH582M\obj/../Startup/startup_CH583.S:134
    la a2, _highcode_vma_end
    1834:	20000617          	auipc	a2,0x20000
    1838:	fe060613          	addi	a2,a2,-32 # 20001814 <_highcode_vma_end>
E:\Project\tp78_v2\mounriver_project\RF_CH582M\obj/../Startup/startup_CH583.S:135
    bgeu a1, a2, 2f
    183c:	00c5fa63          	bgeu	a1,a2,1850 <handle_reset+0x38>
E:\Project\tp78_v2\mounriver_project\RF_CH582M\obj/../Startup/startup_CH583.S:137
1:
    lw t0, (a0)
    1840:	00052283          	lw	t0,0(a0)
E:\Project\tp78_v2\mounriver_project\RF_CH582M\obj/../Startup/startup_CH583.S:138
    sw t0, (a1)
    1844:	0055a023          	sw	t0,0(a1)
E:\Project\tp78_v2\mounriver_project\RF_CH582M\obj/../Startup/startup_CH583.S:139
    addi a0, a0, 4
    1848:	0511                	addi	a0,a0,4
E:\Project\tp78_v2\mounriver_project\RF_CH582M\obj/../Startup/startup_CH583.S:140
    addi a1, a1, 4
    184a:	0591                	addi	a1,a1,4
E:\Project\tp78_v2\mounriver_project\RF_CH582M\obj/../Startup/startup_CH583.S:141
    bltu a1, a2, 1b
    184c:	fec5eae3          	bltu	a1,a2,1840 <handle_reset+0x28>
E:\Project\tp78_v2\mounriver_project\RF_CH582M\obj/../Startup/startup_CH583.S:145

/* Load data section from flash to RAM */
2:
	la a0, _data_lma
    1850:	00005517          	auipc	a0,0x5
    1854:	e4050513          	addi	a0,a0,-448 # 6690 <_data_lma>
E:\Project\tp78_v2\mounriver_project\RF_CH582M\obj/../Startup/startup_CH583.S:146
	la a1, _data_vma
    1858:	20000597          	auipc	a1,0x20000
    185c:	fbc58593          	addi	a1,a1,-68 # 20001814 <_highcode_vma_end>
E:\Project\tp78_v2\mounriver_project\RF_CH582M\obj/../Startup/startup_CH583.S:147
	la a2, _edata
    1860:	80818613          	addi	a2,gp,-2040 # 20001820 <_edata>
E:\Project\tp78_v2\mounriver_project\RF_CH582M\obj/../Startup/startup_CH583.S:148
	bgeu a1, a2, 2f
    1864:	00c5fa63          	bgeu	a1,a2,1878 <handle_reset+0x60>
E:\Project\tp78_v2\mounriver_project\RF_CH582M\obj/../Startup/startup_CH583.S:150
1:
	lw t0, (a0)
    1868:	00052283          	lw	t0,0(a0)
E:\Project\tp78_v2\mounriver_project\RF_CH582M\obj/../Startup/startup_CH583.S:151
	sw t0, (a1)
    186c:	0055a023          	sw	t0,0(a1)
E:\Project\tp78_v2\mounriver_project\RF_CH582M\obj/../Startup/startup_CH583.S:152
	addi a0, a0, 4
    1870:	0511                	addi	a0,a0,4
E:\Project\tp78_v2\mounriver_project\RF_CH582M\obj/../Startup/startup_CH583.S:153
	addi a1, a1, 4
    1872:	0591                	addi	a1,a1,4
E:\Project\tp78_v2\mounriver_project\RF_CH582M\obj/../Startup/startup_CH583.S:154
	bltu a1, a2, 1b
    1874:	fec5eae3          	bltu	a1,a2,1868 <handle_reset+0x50>
E:\Project\tp78_v2\mounriver_project\RF_CH582M\obj/../Startup/startup_CH583.S:157
2:
	/* clear bss section */
	la a0, _sbss
    1878:	80818513          	addi	a0,gp,-2040 # 20001820 <_edata>
E:\Project\tp78_v2\mounriver_project\RF_CH582M\obj/../Startup/startup_CH583.S:158
	la a1, _ebss
    187c:	20002597          	auipc	a1,0x20002
    1880:	c9c58593          	addi	a1,a1,-868 # 20003518 <_ebss>
E:\Project\tp78_v2\mounriver_project\RF_CH582M\obj/../Startup/startup_CH583.S:159
	bgeu a0, a1, 2f
    1884:	00b57763          	bgeu	a0,a1,1892 <handle_reset+0x7a>
E:\Project\tp78_v2\mounriver_project\RF_CH582M\obj/../Startup/startup_CH583.S:161
1:
	sw zero, (a0)
    1888:	00052023          	sw	zero,0(a0)
E:\Project\tp78_v2\mounriver_project\RF_CH582M\obj/../Startup/startup_CH583.S:162
	addi a0, a0, 4
    188c:	0511                	addi	a0,a0,4
E:\Project\tp78_v2\mounriver_project\RF_CH582M\obj/../Startup/startup_CH583.S:163
	bltu a0, a1, 1b
    188e:	feb56de3          	bltu	a0,a1,1888 <handle_reset+0x70>
E:\Project\tp78_v2\mounriver_project\RF_CH582M\obj/../Startup/startup_CH583.S:166
2:
	/* 流水线控制位 & 动态预测控制位 */
	li t0, 0x1f
    1892:	42fd                	li	t0,31
E:\Project\tp78_v2\mounriver_project\RF_CH582M\obj/../Startup/startup_CH583.S:167
	csrw 0xbc0, t0
    1894:	bc029073          	csrw	0xbc0,t0
E:\Project\tp78_v2\mounriver_project\RF_CH582M\obj/../Startup/startup_CH583.S:169
	/* 打开嵌套中断、硬件压栈功能 */
	li t0, 0x3
    1898:	428d                	li	t0,3
E:\Project\tp78_v2\mounriver_project\RF_CH582M\obj/../Startup/startup_CH583.S:170
	csrw 0x804, t0
    189a:	80429073          	csrw	0x804,t0
E:\Project\tp78_v2\mounriver_project\RF_CH582M\obj/../Startup/startup_CH583.S:172
	
    li t0, 0x88
    189e:	08800293          	li	t0,136
E:\Project\tp78_v2\mounriver_project\RF_CH582M\obj/../Startup/startup_CH583.S:173
    csrs mstatus, t0
    18a2:	3002a073          	csrs	mstatus,t0
E:\Project\tp78_v2\mounriver_project\RF_CH582M\obj/../Startup/startup_CH583.S:174
	la t0, _vector_base
    18a6:	1fffe297          	auipc	t0,0x1fffe
    18aa:	75a28293          	addi	t0,t0,1882 # 20000000 <_highcode_vma_start>
E:\Project\tp78_v2\mounriver_project\RF_CH582M\obj/../Startup/startup_CH583.S:177

	/* 配置向量表模式为绝对地址模式 */
    ori t0, t0, 3
    18ae:	0032e293          	ori	t0,t0,3
E:\Project\tp78_v2\mounriver_project\RF_CH582M\obj/../Startup/startup_CH583.S:178
	csrw mtvec, t0
    18b2:	30529073          	csrw	mtvec,t0
E:\Project\tp78_v2\mounriver_project\RF_CH582M\obj/../Startup/startup_CH583.S:180

	la t0, main
    18b6:	00001297          	auipc	t0,0x1
    18ba:	4f428293          	addi	t0,t0,1268 # 2daa <main>
E:\Project\tp78_v2\mounriver_project\RF_CH582M\obj/../Startup/startup_CH583.S:181
	csrw mepc, t0
    18be:	34129073          	csrw	mepc,t0
E:\Project\tp78_v2\mounriver_project\RF_CH582M\obj/../Startup/startup_CH583.S:184
	
	
	mret
    18c2:	30200073          	mret

000018c6 <ADC_InterTSSampInit>:
ADC_InterTSSampInit():
E:\Project\tp78_v2\mounriver_project\RF_CH582M\obj/../StdPeriphDriver/CH58x_adc.c:94
 *
 * @return  none
 */
void ADC_InterTSSampInit(void)
{
    R8_TKEY_CFG &= ~RB_TKEY_PWR_ON;
    18c6:	400017b7          	lui	a5,0x40001
    18ca:	0577c703          	lbu	a4,87(a5) # 40001057 <_eusrstack+0x1fff9057>
    18ce:	0fe77713          	andi	a4,a4,254
    18d2:	04e78ba3          	sb	a4,87(a5)
E:\Project\tp78_v2\mounriver_project\RF_CH582M\obj/../StdPeriphDriver/CH58x_adc.c:95
    R8_TEM_SENSOR = RB_TEM_SEN_PWR_ON;
    18d6:	f8000713          	li	a4,-128
    18da:	04e78da3          	sb	a4,91(a5)
E:\Project\tp78_v2\mounriver_project\RF_CH582M\obj/../StdPeriphDriver/CH58x_adc.c:96
    R8_ADC_CHANNEL = CH_INTE_VTEMP;
    18de:	473d                	li	a4,15
    18e0:	04e78c23          	sb	a4,88(a5)
E:\Project\tp78_v2\mounriver_project\RF_CH582M\obj/../StdPeriphDriver/CH58x_adc.c:97
    R8_ADC_CFG = RB_ADC_POWER_ON | RB_ADC_DIFF_EN | (3 << 4);
    18e4:	03500713          	li	a4,53
    18e8:	04e78ca3          	sb	a4,89(a5)
E:\Project\tp78_v2\mounriver_project\RF_CH582M\obj/../StdPeriphDriver/CH58x_adc.c:98
}
    18ec:	8082                	ret

000018ee <Calibration_LSI>:
Calibration_LSI():
E:\Project\tp78_v2\mounriver_project\RF_CH582M\obj/../StdPeriphDriver/CH58x_clk.c:142
 *                              Level_128 -   用时 4.2ms 600ppm  (32M 主频)  800ppm  (60M 主频)
 *
 * @return  none
 */
void Calibration_LSI(Cali_LevelTypeDef cali_Lv)
{
    18ee:	1141                	addi	sp,sp,-16
    18f0:	c422                	sw	s0,8(sp)
    18f2:	c606                	sw	ra,12(sp)
    18f4:	842a                	mv	s0,a0
E:\Project\tp78_v2\mounriver_project\RF_CH582M\obj/../StdPeriphDriver/CH58x_clk.c:148
    UINT32 i;
    INT32  cnt_offset;
    UINT8  retry = 0;
    INT32  freq_sys;

    freq_sys = GetSysClock();
    18f6:	29c9                	jal	1dc8 <GetSysClock>
E:\Project\tp78_v2\mounriver_project\RF_CH582M\obj/../StdPeriphDriver/CH58x_clk.c:149
    R8_SAFE_ACCESS_SIG = SAFE_ACCESS_SIG1;
    18f8:	40001737          	lui	a4,0x40001
    18fc:	05700693          	li	a3,87
    1900:	04d70023          	sb	a3,64(a4) # 40001040 <_eusrstack+0x1fff9040>
E:\Project\tp78_v2\mounriver_project\RF_CH582M\obj/../StdPeriphDriver/CH58x_clk.c:150
    R8_SAFE_ACCESS_SIG = SAFE_ACCESS_SIG2;
    1904:	fa800793          	li	a5,-88
    1908:	04f70023          	sb	a5,64(a4)
E:\Project\tp78_v2\mounriver_project\RF_CH582M\obj/../StdPeriphDriver/CH58x_clk.c:151
    SAFEOPERATE;
    190c:	0001                	nop
    190e:	0001                	nop
E:\Project\tp78_v2\mounriver_project\RF_CH582M\obj/../StdPeriphDriver/CH58x_clk.c:152
    R8_CK32K_CONFIG |= RB_CLK_OSC32K_FILT;
    1910:	02f74603          	lbu	a2,47(a4)
    1914:	00866613          	ori	a2,a2,8
    1918:	02c707a3          	sb	a2,47(a4)
E:\Project\tp78_v2\mounriver_project\RF_CH582M\obj/../StdPeriphDriver/CH58x_clk.c:153
    R8_CK32K_CONFIG &= ~RB_CLK_OSC32K_FILT;
    191c:	02f74603          	lbu	a2,47(a4)
    1920:	0f767613          	andi	a2,a2,247
    1924:	02c707a3          	sb	a2,47(a4)
E:\Project\tp78_v2\mounriver_project\RF_CH582M\obj/../StdPeriphDriver/CH58x_clk.c:154
    R8_XT32K_TUNE &= ~3;
    1928:	02e74603          	lbu	a2,46(a4)
    192c:	0fc67613          	andi	a2,a2,252
    1930:	02c70723          	sb	a2,46(a4)
E:\Project\tp78_v2\mounriver_project\RF_CH582M\obj/../StdPeriphDriver/CH58x_clk.c:155
    R8_XT32K_TUNE |= 1;
    1934:	02e74603          	lbu	a2,46(a4)
    1938:	00166613          	ori	a2,a2,1
    193c:	02c70723          	sb	a2,46(a4)
E:\Project\tp78_v2\mounriver_project\RF_CH582M\obj/../StdPeriphDriver/CH58x_clk.c:158

    // 粗调
    R8_SAFE_ACCESS_SIG = SAFE_ACCESS_SIG1;
    1940:	04d70023          	sb	a3,64(a4)
E:\Project\tp78_v2\mounriver_project\RF_CH582M\obj/../StdPeriphDriver/CH58x_clk.c:159
    R8_SAFE_ACCESS_SIG = SAFE_ACCESS_SIG2;
    1944:	04f70023          	sb	a5,64(a4)
E:\Project\tp78_v2\mounriver_project\RF_CH582M\obj/../StdPeriphDriver/CH58x_clk.c:160
    SAFEOPERATE;
    1948:	0001                	nop
    194a:	0001                	nop
E:\Project\tp78_v2\mounriver_project\RF_CH582M\obj/../StdPeriphDriver/CH58x_clk.c:161
    R8_OSC_CAL_CTRL &= ~RB_OSC_CNT_TOTAL;
    194c:	05374603          	lbu	a2,83(a4)
    1950:	0f867613          	andi	a2,a2,248
    1954:	04c709a3          	sb	a2,83(a4)
E:\Project\tp78_v2\mounriver_project\RF_CH582M\obj/../StdPeriphDriver/CH58x_clk.c:162
    R8_OSC_CAL_CTRL |= 1;
    1958:	05374603          	lbu	a2,83(a4)
    195c:	00166613          	ori	a2,a2,1
    1960:	04c709a3          	sb	a2,83(a4)
E:\Project\tp78_v2\mounriver_project\RF_CH582M\obj/../StdPeriphDriver/CH58x_clk.c:163
    R8_SAFE_ACCESS_SIG = SAFE_ACCESS_SIG1;
    1964:	04d70023          	sb	a3,64(a4)
E:\Project\tp78_v2\mounriver_project\RF_CH582M\obj/../StdPeriphDriver/CH58x_clk.c:164
    R8_SAFE_ACCESS_SIG = SAFE_ACCESS_SIG2;
    1968:	04f70023          	sb	a5,64(a4)
E:\Project\tp78_v2\mounriver_project\RF_CH582M\obj/../StdPeriphDriver/CH58x_clk.c:165
    SAFEOPERATE;
    196c:	0001                	nop
    196e:	0001                	nop
E:\Project\tp78_v2\mounriver_project\RF_CH582M\obj/../StdPeriphDriver/CH58x_clk.c:166
    R8_OSC_CAL_CTRL |= RB_OSC_CNT_EN;
    1970:	05374783          	lbu	a5,83(a4)
E:\Project\tp78_v2\mounriver_project\RF_CH582M\obj/../StdPeriphDriver/CH58x_clk.c:167
    R16_OSC_CAL_CNT |= RB_OSC_CAL_OV_CLR;
    1974:	6691                	lui	a3,0x4
E:\Project\tp78_v2\mounriver_project\RF_CH582M\obj/../StdPeriphDriver/CH58x_clk.c:171
    while( (R8_OSC_CAL_CTRL&RB_OSC_CNT_EN)!= RB_OSC_CNT_EN )
    {
        R8_SAFE_ACCESS_SIG = SAFE_ACCESS_SIG1;
        R8_SAFE_ACCESS_SIG = SAFE_ACCESS_SIG2;
    1976:	fa800613          	li	a2,-88
E:\Project\tp78_v2\mounriver_project\RF_CH582M\obj/../StdPeriphDriver/CH58x_clk.c:166
    R8_OSC_CAL_CTRL |= RB_OSC_CNT_EN;
    197a:	0207e793          	ori	a5,a5,32
    197e:	04f709a3          	sb	a5,83(a4)
E:\Project\tp78_v2\mounriver_project\RF_CH582M\obj/../StdPeriphDriver/CH58x_clk.c:167
    R16_OSC_CAL_CNT |= RB_OSC_CAL_OV_CLR;
    1982:	05075783          	lhu	a5,80(a4)
    1986:	8fd5                	or	a5,a5,a3
    1988:	04f71823          	sh	a5,80(a4)
E:\Project\tp78_v2\mounriver_project\RF_CH582M\obj/../StdPeriphDriver/CH58x_clk.c:170
        R8_SAFE_ACCESS_SIG = SAFE_ACCESS_SIG1;
    198c:	05700693          	li	a3,87
E:\Project\tp78_v2\mounriver_project\RF_CH582M\obj/../StdPeriphDriver/CH58x_clk.c:168
    while( (R8_OSC_CAL_CTRL&RB_OSC_CNT_EN)!= RB_OSC_CNT_EN )
    1990:	400017b7          	lui	a5,0x40001
    1994:	0537c703          	lbu	a4,83(a5) # 40001053 <_eusrstack+0x1fff9053>
    1998:	02077713          	andi	a4,a4,32
    199c:	c761                	beqz	a4,1a64 <Calibration_LSI+0x176>
E:\Project\tp78_v2\mounriver_project\RF_CH582M\obj/../StdPeriphDriver/CH58x_clk.c:184
        while(R8_OSC_CAL_CTRL & RB_OSC_CNT_HALT);
        R16_OSC_CAL_CNT |= RB_OSC_CAL_OV_CLR;
        while(!(R8_OSC_CAL_CTRL & RB_OSC_CNT_HALT));
        i = R16_OSC_CAL_CNT; // 实时校准后采样值
        cnt_offset = (i & 0x3FFF) + R8_OSC_CAL_OV_CNT * 0x3FFF - 2000 * (freq_sys / 1000) / CAB_LSIFQ;
        if(((cnt_offset > -37 * (freq_sys / 1000) / CAB_LSIFQ) && (cnt_offset < 37 * (freq_sys / 1000) / CAB_LSIFQ)) || retry > 2)
    199e:	c1800813          	li	a6,-1000
    19a2:	3e800593          	li	a1,1000
    19a6:	03054833          	div	a6,a0,a6
    19aa:	02500793          	li	a5,37
E:\Project\tp78_v2\mounriver_project\RF_CH582M\obj/../StdPeriphDriver/CH58x_clk.c:183
        cnt_offset = (i & 0x3FFF) + R8_OSC_CAL_OV_CNT * 0x3FFF - 2000 * (freq_sys / 1000) / CAB_LSIFQ;
    19ae:	6891                	lui	a7,0x4
E:\Project\tp78_v2\mounriver_project\RF_CH582M\obj/../StdPeriphDriver/CH58x_clk.c:184
        if(((cnt_offset > -37 * (freq_sys / 1000) / CAB_LSIFQ) && (cnt_offset < 37 * (freq_sys / 1000) / CAB_LSIFQ)) || retry > 2)
    19b0:	6721                	lui	a4,0x8
E:\Project\tp78_v2\mounriver_project\RF_CH582M\obj/../StdPeriphDriver/CH58x_clk.c:183
        cnt_offset = (i & 0x3FFF) + R8_OSC_CAL_OV_CNT * 0x3FFF - 2000 * (freq_sys / 1000) / CAB_LSIFQ;
    19b2:	e8088e13          	addi	t3,a7,-384 # 3e80 <ble_ll_hw_api_shut+0x28>
E:\Project\tp78_v2\mounriver_project\RF_CH582M\obj/../StdPeriphDriver/CH58x_clk.c:184
        if(((cnt_offset > -37 * (freq_sys / 1000) / CAB_LSIFQ) && (cnt_offset < 37 * (freq_sys / 1000) / CAB_LSIFQ)) || retry > 2)
    19b6:	d0070713          	addi	a4,a4,-768 # 7d00 <_data_lma+0x1670>
    19ba:	4311                	li	t1,4
E:\Project\tp78_v2\mounriver_project\RF_CH582M\obj/../StdPeriphDriver/CH58x_clk.c:177
        while(!(R8_OSC_CAL_CTRL & RB_OSC_CNT_HALT));
    19bc:	400016b7          	lui	a3,0x40001
E:\Project\tp78_v2\mounriver_project\RF_CH582M\obj/../StdPeriphDriver/CH58x_clk.c:180
        R16_OSC_CAL_CNT |= RB_OSC_CAL_OV_CLR;
    19c0:	6291                	lui	t0,0x4
E:\Project\tp78_v2\mounriver_project\RF_CH582M\obj/../StdPeriphDriver/CH58x_clk.c:183
        cnt_offset = (i & 0x3FFF) + R8_OSC_CAL_OV_CNT * 0x3FFF - 2000 * (freq_sys / 1000) / CAB_LSIFQ;
    19c2:	18fd                	addi	a7,a7,-1
E:\Project\tp78_v2\mounriver_project\RF_CH582M\obj/../StdPeriphDriver/CH58x_clk.c:187
            break;
        retry++;
        cnt_offset = (cnt_offset > 0) ? (((cnt_offset * 2) / (37 * (freq_sys / 1000) / CAB_LSIFQ)) + 1) / 2 : (((cnt_offset * 2) / (37 * (freq_sys / 1000) / CAB_LSIFQ)) - 1) / 2;
    19c4:	4e89                	li	t4,2
E:\Project\tp78_v2\mounriver_project\RF_CH582M\obj/../StdPeriphDriver/CH58x_clk.c:188
        R8_SAFE_ACCESS_SIG = SAFE_ACCESS_SIG1;
    19c6:	05700f93          	li	t6,87
E:\Project\tp78_v2\mounriver_project\RF_CH582M\obj/../StdPeriphDriver/CH58x_clk.c:189
        R8_SAFE_ACCESS_SIG = SAFE_ACCESS_SIG2;
    19ca:	fa800f13          	li	t5,-88
E:\Project\tp78_v2\mounriver_project\RF_CH582M\obj/../StdPeriphDriver/CH58x_clk.c:184
        if(((cnt_offset > -37 * (freq_sys / 1000) / CAB_LSIFQ) && (cnt_offset < 37 * (freq_sys / 1000) / CAB_LSIFQ)) || retry > 2)
    19ce:	02b545b3          	div	a1,a0,a1
    19d2:	02f80833          	mul	a6,a6,a5
    19d6:	02f587b3          	mul	a5,a1,a5
E:\Project\tp78_v2\mounriver_project\RF_CH582M\obj/../StdPeriphDriver/CH58x_clk.c:183
        cnt_offset = (i & 0x3FFF) + R8_OSC_CAL_OV_CNT * 0x3FFF - 2000 * (freq_sys / 1000) / CAB_LSIFQ;
    19da:	03c54e33          	div	t3,a0,t3
E:\Project\tp78_v2\mounriver_project\RF_CH582M\obj/../StdPeriphDriver/CH58x_clk.c:184
        if(((cnt_offset > -37 * (freq_sys / 1000) / CAB_LSIFQ) && (cnt_offset < 37 * (freq_sys / 1000) / CAB_LSIFQ)) || retry > 2)
    19de:	02e84833          	div	a6,a6,a4
    19e2:	02e7c7b3          	div	a5,a5,a4
E:\Project\tp78_v2\mounriver_project\RF_CH582M\obj/../StdPeriphDriver/CH58x_clk.c:177 (discriminator 1)
        while(!(R8_OSC_CAL_CTRL & RB_OSC_CNT_HALT));
    19e6:	0536c703          	lbu	a4,83(a3) # 40001053 <_eusrstack+0x1fff9053>
    19ea:	8b21                	andi	a4,a4,8
    19ec:	df6d                	beqz	a4,19e6 <Calibration_LSI+0xf8>
E:\Project\tp78_v2\mounriver_project\RF_CH582M\obj/../StdPeriphDriver/CH58x_clk.c:178
        i = R16_OSC_CAL_CNT; // 用于丢弃
    19ee:	0506d703          	lhu	a4,80(a3)
E:\Project\tp78_v2\mounriver_project\RF_CH582M\obj/../StdPeriphDriver/CH58x_clk.c:179 (discriminator 1)
        while(R8_OSC_CAL_CTRL & RB_OSC_CNT_HALT);
    19f2:	0536c703          	lbu	a4,83(a3)
    19f6:	8b21                	andi	a4,a4,8
    19f8:	ff6d                	bnez	a4,19f2 <Calibration_LSI+0x104>
E:\Project\tp78_v2\mounriver_project\RF_CH582M\obj/../StdPeriphDriver/CH58x_clk.c:180
        R16_OSC_CAL_CNT |= RB_OSC_CAL_OV_CLR;
    19fa:	0506d703          	lhu	a4,80(a3)
    19fe:	00576733          	or	a4,a4,t0
    1a02:	04e69823          	sh	a4,80(a3)
E:\Project\tp78_v2\mounriver_project\RF_CH582M\obj/../StdPeriphDriver/CH58x_clk.c:181 (discriminator 1)
        while(!(R8_OSC_CAL_CTRL & RB_OSC_CNT_HALT));
    1a06:	0536c703          	lbu	a4,83(a3)
    1a0a:	8b21                	andi	a4,a4,8
    1a0c:	df6d                	beqz	a4,1a06 <Calibration_LSI+0x118>
E:\Project\tp78_v2\mounriver_project\RF_CH582M\obj/../StdPeriphDriver/CH58x_clk.c:182
        i = R16_OSC_CAL_CNT; // 实时校准后采样值
    1a0e:	0506d603          	lhu	a2,80(a3)
E:\Project\tp78_v2\mounriver_project\RF_CH582M\obj/../StdPeriphDriver/CH58x_clk.c:183
        cnt_offset = (i & 0x3FFF) + R8_OSC_CAL_OV_CNT * 0x3FFF - 2000 * (freq_sys / 1000) / CAB_LSIFQ;
    1a12:	0526c703          	lbu	a4,82(a3)
    1a16:	00c8f633          	and	a2,a7,a2
    1a1a:	02e88733          	mul	a4,a7,a4
    1a1e:	963a                	add	a2,a2,a4
    1a20:	41c60633          	sub	a2,a2,t3
E:\Project\tp78_v2\mounriver_project\RF_CH582M\obj/../StdPeriphDriver/CH58x_clk.c:184
        if(((cnt_offset > -37 * (freq_sys / 1000) / CAB_LSIFQ) && (cnt_offset < 37 * (freq_sys / 1000) / CAB_LSIFQ)) || retry > 2)
    1a24:	00c85463          	bge	a6,a2,1a2c <Calibration_LSI+0x13e>
E:\Project\tp78_v2\mounriver_project\RF_CH582M\obj/../StdPeriphDriver/CH58x_clk.c:184 (discriminator 1)
    1a28:	04f64d63          	blt	a2,a5,1a82 <Calibration_LSI+0x194>
    1a2c:	137d                	addi	t1,t1,-1
    1a2e:	0ff37313          	andi	t1,t1,255
E:\Project\tp78_v2\mounriver_project\RF_CH582M\obj/../StdPeriphDriver/CH58x_clk.c:184 (discriminator 3)
    1a32:	04030863          	beqz	t1,1a82 <Calibration_LSI+0x194>
E:\Project\tp78_v2\mounriver_project\RF_CH582M\obj/../StdPeriphDriver/CH58x_clk.c:187
        cnt_offset = (cnt_offset > 0) ? (((cnt_offset * 2) / (37 * (freq_sys / 1000) / CAB_LSIFQ)) + 1) / 2 : (((cnt_offset * 2) / (37 * (freq_sys / 1000) / CAB_LSIFQ)) - 1) / 2;
    1a36:	00161713          	slli	a4,a2,0x1
    1a3a:	02f74733          	div	a4,a4,a5
    1a3e:	04c05063          	blez	a2,1a7e <Calibration_LSI+0x190>
E:\Project\tp78_v2\mounriver_project\RF_CH582M\obj/../StdPeriphDriver/CH58x_clk.c:187 (discriminator 1)
    1a42:	0705                	addi	a4,a4,1
E:\Project\tp78_v2\mounriver_project\RF_CH582M\obj/../StdPeriphDriver/CH58x_clk.c:188 (discriminator 2)
        R8_SAFE_ACCESS_SIG = SAFE_ACCESS_SIG1;
    1a44:	05f68023          	sb	t6,64(a3)
E:\Project\tp78_v2\mounriver_project\RF_CH582M\obj/../StdPeriphDriver/CH58x_clk.c:189 (discriminator 2)
        R8_SAFE_ACCESS_SIG = SAFE_ACCESS_SIG2;
    1a48:	05e68023          	sb	t5,64(a3)
E:\Project\tp78_v2\mounriver_project\RF_CH582M\obj/../StdPeriphDriver/CH58x_clk.c:187 (discriminator 2)
        cnt_offset = (cnt_offset > 0) ? (((cnt_offset * 2) / (37 * (freq_sys / 1000) / CAB_LSIFQ)) + 1) / 2 : (((cnt_offset * 2) / (37 * (freq_sys / 1000) / CAB_LSIFQ)) - 1) / 2;
    1a4c:	03d74733          	div	a4,a4,t4
E:\Project\tp78_v2\mounriver_project\RF_CH582M\obj/../StdPeriphDriver/CH58x_clk.c:190 (discriminator 2)
        SAFEOPERATE;
    1a50:	0001                	nop
    1a52:	0001                	nop
E:\Project\tp78_v2\mounriver_project\RF_CH582M\obj/../StdPeriphDriver/CH58x_clk.c:191 (discriminator 2)
        R16_INT32K_TUNE += cnt_offset;
    1a54:	02c6d603          	lhu	a2,44(a3)
    1a58:	9732                	add	a4,a4,a2
    1a5a:	0742                	slli	a4,a4,0x10
    1a5c:	8341                	srli	a4,a4,0x10
    1a5e:	02e69623          	sh	a4,44(a3)
E:\Project\tp78_v2\mounriver_project\RF_CH582M\obj/../StdPeriphDriver/CH58x_clk.c:177 (discriminator 2)
        while(!(R8_OSC_CAL_CTRL & RB_OSC_CNT_HALT));
    1a62:	b751                	j	19e6 <Calibration_LSI+0xf8>
E:\Project\tp78_v2\mounriver_project\RF_CH582M\obj/../StdPeriphDriver/CH58x_clk.c:170
        R8_SAFE_ACCESS_SIG = SAFE_ACCESS_SIG1;
    1a64:	04d78023          	sb	a3,64(a5)
E:\Project\tp78_v2\mounriver_project\RF_CH582M\obj/../StdPeriphDriver/CH58x_clk.c:171
        R8_SAFE_ACCESS_SIG = SAFE_ACCESS_SIG2;
    1a68:	04c78023          	sb	a2,64(a5)
E:\Project\tp78_v2\mounriver_project\RF_CH582M\obj/../StdPeriphDriver/CH58x_clk.c:172
        SAFEOPERATE;
    1a6c:	0001                	nop
    1a6e:	0001                	nop
E:\Project\tp78_v2\mounriver_project\RF_CH582M\obj/../StdPeriphDriver/CH58x_clk.c:173
        R8_OSC_CAL_CTRL |= RB_OSC_CNT_EN;
    1a70:	0537c703          	lbu	a4,83(a5)
    1a74:	02076713          	ori	a4,a4,32
    1a78:	04e789a3          	sb	a4,83(a5)
    1a7c:	bf21                	j	1994 <Calibration_LSI+0xa6>
E:\Project\tp78_v2\mounriver_project\RF_CH582M\obj/../StdPeriphDriver/CH58x_clk.c:187 (discriminator 2)
        cnt_offset = (cnt_offset > 0) ? (((cnt_offset * 2) / (37 * (freq_sys / 1000) / CAB_LSIFQ)) + 1) / 2 : (((cnt_offset * 2) / (37 * (freq_sys / 1000) / CAB_LSIFQ)) - 1) / 2;
    1a7e:	177d                	addi	a4,a4,-1
    1a80:	b7d1                	j	1a44 <Calibration_LSI+0x156>
E:\Project\tp78_v2\mounriver_project\RF_CH582M\obj/../StdPeriphDriver/CH58x_clk.c:196 (discriminator 1)
    }

    // 细调
    // 配置细调参数后，丢弃2次捕获值（软件行为）上判断已有一次，这里只留一次
    while(!(R8_OSC_CAL_CTRL & RB_OSC_CNT_HALT));
    1a82:	400017b7          	lui	a5,0x40001
    1a86:	0537c683          	lbu	a3,83(a5) # 40001053 <_eusrstack+0x1fff9053>
    1a8a:	05378713          	addi	a4,a5,83
    1a8e:	8aa1                	andi	a3,a3,8
    1a90:	dafd                	beqz	a3,1a86 <Calibration_LSI+0x198>
E:\Project\tp78_v2\mounriver_project\RF_CH582M\obj/../StdPeriphDriver/CH58x_clk.c:197
    i = R16_OSC_CAL_CNT; // 用于丢弃
    1a92:	0507d683          	lhu	a3,80(a5)
E:\Project\tp78_v2\mounriver_project\RF_CH582M\obj/../StdPeriphDriver/CH58x_clk.c:198
    R16_OSC_CAL_CNT |= RB_OSC_CAL_OV_CLR;
    1a96:	0507d683          	lhu	a3,80(a5)
    1a9a:	6611                	lui	a2,0x4
    1a9c:	8ed1                	or	a3,a3,a2
    1a9e:	04d79823          	sh	a3,80(a5)
E:\Project\tp78_v2\mounriver_project\RF_CH582M\obj/../StdPeriphDriver/CH58x_clk.c:199
    R8_SAFE_ACCESS_SIG = SAFE_ACCESS_SIG1;
    1aa2:	05700693          	li	a3,87
    1aa6:	04d78023          	sb	a3,64(a5)
E:\Project\tp78_v2\mounriver_project\RF_CH582M\obj/../StdPeriphDriver/CH58x_clk.c:200
    R8_SAFE_ACCESS_SIG = SAFE_ACCESS_SIG2;
    1aaa:	fa800693          	li	a3,-88
    1aae:	04d78023          	sb	a3,64(a5)
E:\Project\tp78_v2\mounriver_project\RF_CH582M\obj/../StdPeriphDriver/CH58x_clk.c:201
    SAFEOPERATE;
    1ab2:	0001                	nop
    1ab4:	0001                	nop
E:\Project\tp78_v2\mounriver_project\RF_CH582M\obj/../StdPeriphDriver/CH58x_clk.c:202
    R8_OSC_CAL_CTRL &= ~RB_OSC_CNT_TOTAL;
    1ab6:	00074783          	lbu	a5,0(a4)
    1aba:	0f87f793          	andi	a5,a5,248
    1abe:	00f70023          	sb	a5,0(a4)
E:\Project\tp78_v2\mounriver_project\RF_CH582M\obj/../StdPeriphDriver/CH58x_clk.c:203
    R8_OSC_CAL_CTRL |= cali_Lv;
    1ac2:	00074783          	lbu	a5,0(a4)
    1ac6:	8fc1                	or	a5,a5,s0
    1ac8:	0ff7f793          	andi	a5,a5,255
    1acc:	00f70023          	sb	a5,0(a4)
E:\Project\tp78_v2\mounriver_project\RF_CH582M\obj/../StdPeriphDriver/CH58x_clk.c:204
    while(R8_OSC_CAL_CTRL & RB_OSC_CNT_HALT);
    1ad0:	40001737          	lui	a4,0x40001
E:\Project\tp78_v2\mounriver_project\RF_CH582M\obj/../StdPeriphDriver/CH58x_clk.c:204 (discriminator 1)
    1ad4:	05374783          	lbu	a5,83(a4) # 40001053 <_eusrstack+0x1fff9053>
    1ad8:	8ba1                	andi	a5,a5,8
    1ada:	ffed                	bnez	a5,1ad4 <Calibration_LSI+0x1e6>
E:\Project\tp78_v2\mounriver_project\RF_CH582M\obj/../StdPeriphDriver/CH58x_clk.c:205
    while(!(R8_OSC_CAL_CTRL & RB_OSC_CNT_HALT));
    1adc:	400017b7          	lui	a5,0x40001
E:\Project\tp78_v2\mounriver_project\RF_CH582M\obj/../StdPeriphDriver/CH58x_clk.c:205 (discriminator 1)
    1ae0:	0537c703          	lbu	a4,83(a5) # 40001053 <_eusrstack+0x1fff9053>
    1ae4:	8b21                	andi	a4,a4,8
    1ae6:	df6d                	beqz	a4,1ae0 <Calibration_LSI+0x1f2>
E:\Project\tp78_v2\mounriver_project\RF_CH582M\obj/../StdPeriphDriver/CH58x_clk.c:207
    i = R16_OSC_CAL_CNT; // 实时校准后采样值
    cnt_offset = (i & 0x3FFF) + R8_OSC_CAL_OV_CNT * 0x3FFF - 4000 * (1 << cali_Lv) * (freq_sys / 1000000) / CAB_LSIFQ * 1000;
    1ae8:	000f4637          	lui	a2,0xf4
    1aec:	24060613          	addi	a2,a2,576 # f4240 <_data_lma+0xedbb0>
    1af0:	02c54533          	div	a0,a0,a2
E:\Project\tp78_v2\mounriver_project\RF_CH582M\obj/../StdPeriphDriver/CH58x_clk.c:206
    i = R16_OSC_CAL_CNT; // 实时校准后采样值
    1af4:	0507d683          	lhu	a3,80(a5)
E:\Project\tp78_v2\mounriver_project\RF_CH582M\obj/../StdPeriphDriver/CH58x_clk.c:207
    cnt_offset = (i & 0x3FFF) + R8_OSC_CAL_OV_CNT * 0x3FFF - 4000 * (1 << cali_Lv) * (freq_sys / 1000000) / CAB_LSIFQ * 1000;
    1af8:	0527c783          	lbu	a5,82(a5)
    1afc:	6711                	lui	a4,0x4
    1afe:	177d                	addi	a4,a4,-1
    1b00:	8ef9                	and	a3,a3,a4
    1b02:	6621                	lui	a2,0x8
    1b04:	d0060613          	addi	a2,a2,-768 # 7d00 <_data_lma+0x1670>
    1b08:	02f70733          	mul	a4,a4,a5
    1b0c:	6785                	lui	a5,0x1
    1b0e:	96ba                	add	a3,a3,a4
    1b10:	fa078713          	addi	a4,a5,-96 # fa0 <_einit+0xf9c>
    1b14:	00871733          	sll	a4,a4,s0
    1b18:	02a70733          	mul	a4,a4,a0
    1b1c:	3e800513          	li	a0,1000
    1b20:	c8078793          	addi	a5,a5,-896
    1b24:	4087d7b3          	sra	a5,a5,s0
    1b28:	02c74733          	div	a4,a4,a2
    1b2c:	02a70733          	mul	a4,a4,a0
    1b30:	40e68733          	sub	a4,a3,a4
E:\Project\tp78_v2\mounriver_project\RF_CH582M\obj/../StdPeriphDriver/CH58x_clk.c:208
    cnt_offset = (cnt_offset > 0) ? ((((cnt_offset * (3200 / (1 << cali_Lv))) / (1366 * (freq_sys / 1000) / CAB_LSIFQ)) + 1) / 2) << 5 : ((((cnt_offset * (3200 / (1 << cali_Lv))) / (1366 * (freq_sys / 1000) / CAB_LSIFQ)) - 1) / 2) << 5;
    1b34:	55600693          	li	a3,1366
    1b38:	02d585b3          	mul	a1,a1,a3
    1b3c:	02c5c5b3          	div	a1,a1,a2
    1b40:	02e787b3          	mul	a5,a5,a4
    1b44:	02b7c7b3          	div	a5,a5,a1
    1b48:	04e05463          	blez	a4,1b90 <Calibration_LSI+0x2a2>
E:\Project\tp78_v2\mounriver_project\RF_CH582M\obj/../StdPeriphDriver/CH58x_clk.c:208 (discriminator 1)
    1b4c:	0785                	addi	a5,a5,1
E:\Project\tp78_v2\mounriver_project\RF_CH582M\obj/../StdPeriphDriver/CH58x_clk.c:208 (discriminator 2)
    1b4e:	4709                	li	a4,2
E:\Project\tp78_v2\mounriver_project\RF_CH582M\obj/../StdPeriphDriver/CH58x_clk.c:209 (discriminator 2)
    R8_SAFE_ACCESS_SIG = SAFE_ACCESS_SIG1;
    1b50:	05700693          	li	a3,87
E:\Project\tp78_v2\mounriver_project\RF_CH582M\obj/../StdPeriphDriver/CH58x_clk.c:208 (discriminator 2)
    cnt_offset = (cnt_offset > 0) ? ((((cnt_offset * (3200 / (1 << cali_Lv))) / (1366 * (freq_sys / 1000) / CAB_LSIFQ)) + 1) / 2) << 5 : ((((cnt_offset * (3200 / (1 << cali_Lv))) / (1366 * (freq_sys / 1000) / CAB_LSIFQ)) - 1) / 2) << 5;
    1b54:	02e7c7b3          	div	a5,a5,a4
E:\Project\tp78_v2\mounriver_project\RF_CH582M\obj/../StdPeriphDriver/CH58x_clk.c:209 (discriminator 2)
    R8_SAFE_ACCESS_SIG = SAFE_ACCESS_SIG1;
    1b58:	40001737          	lui	a4,0x40001
    1b5c:	04d70023          	sb	a3,64(a4) # 40001040 <_eusrstack+0x1fff9040>
E:\Project\tp78_v2\mounriver_project\RF_CH582M\obj/../StdPeriphDriver/CH58x_clk.c:210 (discriminator 2)
    R8_SAFE_ACCESS_SIG = SAFE_ACCESS_SIG2;
    1b60:	fa800693          	li	a3,-88
    1b64:	04d70023          	sb	a3,64(a4)
E:\Project\tp78_v2\mounriver_project\RF_CH582M\obj/../StdPeriphDriver/CH58x_clk.c:208 (discriminator 2)
    cnt_offset = (cnt_offset > 0) ? ((((cnt_offset * (3200 / (1 << cali_Lv))) / (1366 * (freq_sys / 1000) / CAB_LSIFQ)) + 1) / 2) << 5 : ((((cnt_offset * (3200 / (1 << cali_Lv))) / (1366 * (freq_sys / 1000) / CAB_LSIFQ)) - 1) / 2) << 5;
    1b68:	0796                	slli	a5,a5,0x5
E:\Project\tp78_v2\mounriver_project\RF_CH582M\obj/../StdPeriphDriver/CH58x_clk.c:211 (discriminator 2)
    SAFEOPERATE;
    1b6a:	0001                	nop
    1b6c:	0001                	nop
E:\Project\tp78_v2\mounriver_project\RF_CH582M\obj/../StdPeriphDriver/CH58x_clk.c:212 (discriminator 2)
    R16_INT32K_TUNE += cnt_offset;
    1b6e:	02c75683          	lhu	a3,44(a4)
    1b72:	97b6                	add	a5,a5,a3
    1b74:	07c2                	slli	a5,a5,0x10
    1b76:	83c1                	srli	a5,a5,0x10
    1b78:	02f71623          	sh	a5,44(a4)
E:\Project\tp78_v2\mounriver_project\RF_CH582M\obj/../StdPeriphDriver/CH58x_clk.c:213 (discriminator 2)
    R8_OSC_CAL_CTRL &= ~RB_OSC_CNT_EN;
    1b7c:	05374783          	lbu	a5,83(a4)
    1b80:	0df7f793          	andi	a5,a5,223
    1b84:	04f709a3          	sb	a5,83(a4)
E:\Project\tp78_v2\mounriver_project\RF_CH582M\obj/../StdPeriphDriver/CH58x_clk.c:214 (discriminator 2)
}
    1b88:	40b2                	lw	ra,12(sp)
    1b8a:	4422                	lw	s0,8(sp)
    1b8c:	0141                	addi	sp,sp,16
    1b8e:	8082                	ret
E:\Project\tp78_v2\mounriver_project\RF_CH582M\obj/../StdPeriphDriver/CH58x_clk.c:208 (discriminator 2)
    cnt_offset = (cnt_offset > 0) ? ((((cnt_offset * (3200 / (1 << cali_Lv))) / (1366 * (freq_sys / 1000) / CAB_LSIFQ)) + 1) / 2) << 5 : ((((cnt_offset * (3200 / (1 << cali_Lv))) / (1366 * (freq_sys / 1000) / CAB_LSIFQ)) - 1) / 2) << 5;
    1b90:	17fd                	addi	a5,a5,-1
    1b92:	bf75                	j	1b4e <Calibration_LSI+0x260>

00001b94 <RTC_InitTime>:
RTC_InitTime():
E:\Project\tp78_v2\mounriver_project\RF_CH582M\obj/../StdPeriphDriver/CH58x_clk.c:231
 * @param   s       - 配置秒，MAX_S = 59
 *
 * @return  none
 */
void RTC_InitTime(uint16_t y, uint16_t mon, uint16_t d, uint16_t h, uint16_t m, uint16_t s)
{
    1b94:	1141                	addi	sp,sp,-16
    1b96:	832a                	mv	t1,a0
E:\Project\tp78_v2\mounriver_project\RF_CH582M\obj/../StdPeriphDriver/CH58x_clk.c:238
    uint16_t         year, month, day, sec2, t32k;
    volatile uint8_t clk_pin;

    year = y;
    month = mon;
    day = 0;
    1b98:	4e01                	li	t3,0
E:\Project\tp78_v2\mounriver_project\RF_CH582M\obj/../StdPeriphDriver/CH58x_clk.c:239
    while(year > BEGYEAR)
    1b9a:	7e400e93          	li	t4,2020
E:\Project\tp78_v2\mounriver_project\RF_CH582M\obj/../StdPeriphDriver/CH58x_clk.c:241
    {
        day += YearLength(year - 1);
    1b9e:	19000f13          	li	t5,400
    1ba2:	06400f93          	li	t6,100
E:\Project\tp78_v2\mounriver_project\RF_CH582M\obj/../StdPeriphDriver/CH58x_clk.c:239
    while(year > BEGYEAR)
    1ba6:	0e6ee463          	bltu	t4,t1,1c8e <RTC_InitTime+0xfa>
E:\Project\tp78_v2\mounriver_project\RF_CH582M\obj/../StdPeriphDriver/CH58x_clk.c:246
        year--;
    }
    while(month > 1)
    {
        day += monthLength(IsLeapYear(y), month - 2);
    1baa:	19000893          	li	a7,400
    1bae:	06400313          	li	t1,100
    1bb2:	031578b3          	remu	a7,a0,a7
E:\Project\tp78_v2\mounriver_project\RF_CH582M\obj/../StdPeriphDriver/CH58x_clk.c:244
    while(month > 1)
    1bb6:	4e85                	li	t4,1
E:\Project\tp78_v2\mounriver_project\RF_CH582M\obj/../StdPeriphDriver/CH58x_clk.c:246
        day += monthLength(IsLeapYear(y), month - 2);
    1bb8:	4f0d                	li	t5,3
    1bba:	4fa1                	li	t6,8
    1bbc:	02657333          	remu	t1,a0,t1
    1bc0:	890d                	andi	a0,a0,3
    1bc2:	00153513          	seqz	a0,a0
E:\Project\tp78_v2\mounriver_project\RF_CH582M\obj/../StdPeriphDriver/CH58x_clk.c:244
    while(month > 1)
    1bc6:	0ebeee63          	bltu	t4,a1,1cc2 <RTC_InitTime+0x12e>
E:\Project\tp78_v2\mounriver_project\RF_CH582M\obj/../StdPeriphDriver/CH58x_clk.c:250
        month--;
    }

    day += d - 1;
    1bca:	fff60813          	addi	a6,a2,-1
E:\Project\tp78_v2\mounriver_project\RF_CH582M\obj/../StdPeriphDriver/CH58x_clk.c:251
    sec2 = (h % 24) * 1800 + m * 30 + s / 2;
    1bce:	4679                	li	a2,30
E:\Project\tp78_v2\mounriver_project\RF_CH582M\obj/../StdPeriphDriver/CH58x_clk.c:250
    day += d - 1;
    1bd0:	9872                	add	a6,a6,t3
    1bd2:	0842                	slli	a6,a6,0x10
    1bd4:	01085813          	srli	a6,a6,0x10
E:\Project\tp78_v2\mounriver_project\RF_CH582M\obj/../StdPeriphDriver/CH58x_clk.c:251
    sec2 = (h % 24) * 1800 + m * 30 + s / 2;
    1bd8:	02c70733          	mul	a4,a4,a2
    1bdc:	0017d613          	srli	a2,a5,0x1
E:\Project\tp78_v2\mounriver_project\RF_CH582M\obj/../StdPeriphDriver/CH58x_clk.c:252
    t32k = (s & 1) ? (0x8000) : (0);
    1be0:	07be                	slli	a5,a5,0xf
E:\Project\tp78_v2\mounriver_project\RF_CH582M\obj/../StdPeriphDriver/CH58x_clk.c:251
    sec2 = (h % 24) * 1800 + m * 30 + s / 2;
    1be2:	9732                	add	a4,a4,a2
    1be4:	4661                	li	a2,24
    1be6:	02c6f6b3          	remu	a3,a3,a2
    1bea:	70800613          	li	a2,1800
    1bee:	02c686b3          	mul	a3,a3,a2
    1bf2:	9736                	add	a4,a4,a3
E:\Project\tp78_v2\mounriver_project\RF_CH582M\obj/../StdPeriphDriver/CH58x_clk.c:254
    t = sec2;
    t = t << 16 | t32k;
    1bf4:	66a1                	lui	a3,0x8
    1bf6:	8ff5                	and	a5,a5,a3
    1bf8:	0742                	slli	a4,a4,0x10
    1bfa:	8f5d                	or	a4,a4,a5
E:\Project\tp78_v2\mounriver_project\RF_CH582M\obj/../StdPeriphDriver/CH58x_clk.c:258

    do
    {
        clk_pin = (R8_CK32K_CONFIG & RB_32K_CLK_PIN);
    1bfc:	400016b7          	lui	a3,0x40001
E:\Project\tp78_v2\mounriver_project\RF_CH582M\obj/../StdPeriphDriver/CH58x_clk.c:258 (discriminator 1)
    1c00:	02f6c783          	lbu	a5,47(a3) # 4000102f <_eusrstack+0x1fff902f>
    1c04:	0807f793          	andi	a5,a5,128
    1c08:	00f107a3          	sb	a5,15(sp)
E:\Project\tp78_v2\mounriver_project\RF_CH582M\obj/../StdPeriphDriver/CH58x_clk.c:259 (discriminator 1)
    } while(clk_pin != (R8_CK32K_CONFIG & RB_32K_CLK_PIN));
    1c0c:	00f14603          	lbu	a2,15(sp)
    1c10:	02f6c783          	lbu	a5,47(a3)
    1c14:	0807f793          	andi	a5,a5,128
    1c18:	fec794e3          	bne	a5,a2,1c00 <RTC_InitTime+0x6c>
E:\Project\tp78_v2\mounriver_project\RF_CH582M\obj/../StdPeriphDriver/CH58x_clk.c:260
    if(!clk_pin)
    1c1c:	00f14783          	lbu	a5,15(sp)
E:\Project\tp78_v2\mounriver_project\RF_CH582M\obj/../StdPeriphDriver/CH58x_clk.c:266
    {
        while(!clk_pin)
        {
            do
            {
                clk_pin = (R8_CK32K_CONFIG & RB_32K_CLK_PIN);
    1c20:	400016b7          	lui	a3,0x40001
E:\Project\tp78_v2\mounriver_project\RF_CH582M\obj/../StdPeriphDriver/CH58x_clk.c:260
    if(!clk_pin)
    1c24:	0ff7f793          	andi	a5,a5,255
    1c28:	c7fd                	beqz	a5,1d16 <RTC_InitTime+0x182>
E:\Project\tp78_v2\mounriver_project\RF_CH582M\obj/../StdPeriphDriver/CH58x_clk.c:271
            } while(clk_pin != (R8_CK32K_CONFIG & RB_32K_CLK_PIN));
        }
    }

    R8_SAFE_ACCESS_SIG = SAFE_ACCESS_SIG1;
    1c2a:	400017b7          	lui	a5,0x40001
    1c2e:	05700693          	li	a3,87
    1c32:	04d78023          	sb	a3,64(a5) # 40001040 <_eusrstack+0x1fff9040>
E:\Project\tp78_v2\mounriver_project\RF_CH582M\obj/../StdPeriphDriver/CH58x_clk.c:272
    R8_SAFE_ACCESS_SIG = SAFE_ACCESS_SIG2;
    1c36:	fa800693          	li	a3,-88
    1c3a:	04d78023          	sb	a3,64(a5)
E:\Project\tp78_v2\mounriver_project\RF_CH582M\obj/../StdPeriphDriver/CH58x_clk.c:273
    SAFEOPERATE;
    1c3e:	0001                	nop
    1c40:	0001                	nop
E:\Project\tp78_v2\mounriver_project\RF_CH582M\obj/../StdPeriphDriver/CH58x_clk.c:274
    R32_RTC_TRIG = day;
    1c42:	0307aa23          	sw	a6,52(a5)
E:\Project\tp78_v2\mounriver_project\RF_CH582M\obj/../StdPeriphDriver/CH58x_clk.c:275
    R8_RTC_MODE_CTRL |= RB_RTC_LOAD_HI;
    1c46:	0317c683          	lbu	a3,49(a5)
E:\Project\tp78_v2\mounriver_project\RF_CH582M\obj/../StdPeriphDriver/CH58x_clk.c:276
    while((R32_RTC_TRIG & 0x3FFF) != (R32_RTC_CNT_DAY & 0x3FFF));
    1c4a:	6611                	lui	a2,0x4
    1c4c:	167d                	addi	a2,a2,-1
E:\Project\tp78_v2\mounriver_project\RF_CH582M\obj/../StdPeriphDriver/CH58x_clk.c:275
    R8_RTC_MODE_CTRL |= RB_RTC_LOAD_HI;
    1c4e:	0806e693          	ori	a3,a3,128
    1c52:	02d788a3          	sb	a3,49(a5)
E:\Project\tp78_v2\mounriver_project\RF_CH582M\obj/../StdPeriphDriver/CH58x_clk.c:276 (discriminator 1)
    while((R32_RTC_TRIG & 0x3FFF) != (R32_RTC_CNT_DAY & 0x3FFF));
    1c56:	5bd4                	lw	a3,52(a5)
    1c58:	5fc8                	lw	a0,60(a5)
    1c5a:	03478593          	addi	a1,a5,52
    1c5e:	8ea9                	xor	a3,a3,a0
    1c60:	8ef1                	and	a3,a3,a2
    1c62:	faf5                	bnez	a3,1c56 <RTC_InitTime+0xc2>
E:\Project\tp78_v2\mounriver_project\RF_CH582M\obj/../StdPeriphDriver/CH58x_clk.c:277
    R8_SAFE_ACCESS_SIG = SAFE_ACCESS_SIG1;
    1c64:	05700693          	li	a3,87
    1c68:	04d78023          	sb	a3,64(a5)
E:\Project\tp78_v2\mounriver_project\RF_CH582M\obj/../StdPeriphDriver/CH58x_clk.c:278
    R8_SAFE_ACCESS_SIG = SAFE_ACCESS_SIG2;
    1c6c:	fa800693          	li	a3,-88
    1c70:	04d78023          	sb	a3,64(a5)
E:\Project\tp78_v2\mounriver_project\RF_CH582M\obj/../StdPeriphDriver/CH58x_clk.c:279
    SAFEOPERATE;
    1c74:	0001                	nop
    1c76:	0001                	nop
E:\Project\tp78_v2\mounriver_project\RF_CH582M\obj/../StdPeriphDriver/CH58x_clk.c:280
    R32_RTC_TRIG = t;
    1c78:	c198                	sw	a4,0(a1)
E:\Project\tp78_v2\mounriver_project\RF_CH582M\obj/../StdPeriphDriver/CH58x_clk.c:281
    R8_RTC_MODE_CTRL |= RB_RTC_LOAD_LO;
    1c7a:	0317c703          	lbu	a4,49(a5)
    1c7e:	04076713          	ori	a4,a4,64
    1c82:	02e788a3          	sb	a4,49(a5)
E:\Project\tp78_v2\mounriver_project\RF_CH582M\obj/../StdPeriphDriver/CH58x_clk.c:282
    R8_SAFE_ACCESS_SIG = 0;
    1c86:	04078023          	sb	zero,64(a5)
E:\Project\tp78_v2\mounriver_project\RF_CH582M\obj/../StdPeriphDriver/CH58x_clk.c:283
}
    1c8a:	0141                	addi	sp,sp,16
    1c8c:	8082                	ret
E:\Project\tp78_v2\mounriver_project\RF_CH582M\obj/../StdPeriphDriver/CH58x_clk.c:241
        day += YearLength(year - 1);
    1c8e:	137d                	addi	t1,t1,-1
    1c90:	03e36833          	rem	a6,t1,t5
    1c94:	16e00893          	li	a7,366
    1c98:	00080e63          	beqz	a6,1cb4 <RTC_InitTime+0x120>
E:\Project\tp78_v2\mounriver_project\RF_CH582M\obj/../StdPeriphDriver/CH58x_clk.c:241 (discriminator 2)
    1c9c:	03f36833          	rem	a6,t1,t6
    1ca0:	16d00893          	li	a7,365
    1ca4:	00080863          	beqz	a6,1cb4 <RTC_InitTime+0x120>
E:\Project\tp78_v2\mounriver_project\RF_CH582M\obj/../StdPeriphDriver/CH58x_clk.c:241 (discriminator 3)
    1ca8:	00337893          	andi	a7,t1,3
    1cac:	0018b893          	seqz	a7,a7
    1cb0:	16d88893          	addi	a7,a7,365
E:\Project\tp78_v2\mounriver_project\RF_CH582M\obj/../StdPeriphDriver/CH58x_clk.c:241 (discriminator 8)
    1cb4:	011e0833          	add	a6,t3,a7
    1cb8:	01081e13          	slli	t3,a6,0x10
    1cbc:	010e5e13          	srli	t3,t3,0x10
E:\Project\tp78_v2\mounriver_project\RF_CH582M\obj/../StdPeriphDriver/CH58x_clk.c:242 (discriminator 8)
        year--;
    1cc0:	b5dd                	j	1ba6 <RTC_InitTime+0x12>
E:\Project\tp78_v2\mounriver_project\RF_CH582M\obj/../StdPeriphDriver/CH58x_clk.c:246
        day += monthLength(IsLeapYear(y), month - 2);
    1cc2:	03e59363          	bne	a1,t5,1ce8 <RTC_InitTime+0x154>
E:\Project\tp78_v2\mounriver_project\RF_CH582M\obj/../StdPeriphDriver/CH58x_clk.c:246 (discriminator 1)
    1cc6:	4805                	li	a6,1
    1cc8:	00088663          	beqz	a7,1cd4 <RTC_InitTime+0x140>
E:\Project\tp78_v2\mounriver_project\RF_CH582M\obj/../StdPeriphDriver/CH58x_clk.c:246 (discriminator 4)
    1ccc:	4801                	li	a6,0
    1cce:	00030363          	beqz	t1,1cd4 <RTC_InitTime+0x140>
E:\Project\tp78_v2\mounriver_project\RF_CH582M\obj/../StdPeriphDriver/CH58x_clk.c:246 (discriminator 5)
    1cd2:	882a                	mv	a6,a0
E:\Project\tp78_v2\mounriver_project\RF_CH582M\obj/../StdPeriphDriver/CH58x_clk.c:246 (discriminator 10)
    1cd4:	0871                	addi	a6,a6,28
E:\Project\tp78_v2\mounriver_project\RF_CH582M\obj/../StdPeriphDriver/CH58x_clk.c:246 (discriminator 24)
    1cd6:	9872                	add	a6,a6,t3
E:\Project\tp78_v2\mounriver_project\RF_CH582M\obj/../StdPeriphDriver/CH58x_clk.c:247 (discriminator 24)
        month--;
    1cd8:	15fd                	addi	a1,a1,-1
E:\Project\tp78_v2\mounriver_project\RF_CH582M\obj/../StdPeriphDriver/CH58x_clk.c:246 (discriminator 24)
        day += monthLength(IsLeapYear(y), month - 2);
    1cda:	01081e13          	slli	t3,a6,0x10
E:\Project\tp78_v2\mounriver_project\RF_CH582M\obj/../StdPeriphDriver/CH58x_clk.c:247 (discriminator 24)
        month--;
    1cde:	05c2                	slli	a1,a1,0x10
E:\Project\tp78_v2\mounriver_project\RF_CH582M\obj/../StdPeriphDriver/CH58x_clk.c:246 (discriminator 24)
        day += monthLength(IsLeapYear(y), month - 2);
    1ce0:	010e5e13          	srli	t3,t3,0x10
E:\Project\tp78_v2\mounriver_project\RF_CH582M\obj/../StdPeriphDriver/CH58x_clk.c:247 (discriminator 24)
        month--;
    1ce4:	81c1                	srli	a1,a1,0x10
    1ce6:	b5c5                	j	1bc6 <RTC_InitTime+0x32>
    1ce8:	0015f813          	andi	a6,a1,1
E:\Project\tp78_v2\mounriver_project\RF_CH582M\obj/../StdPeriphDriver/CH58x_clk.c:246 (discriminator 2)
        day += monthLength(IsLeapYear(y), month - 2);
    1cec:	00bff463          	bgeu	t6,a1,1cf4 <RTC_InitTime+0x160>
E:\Project\tp78_v2\mounriver_project\RF_CH582M\obj/../StdPeriphDriver/CH58x_clk.c:246 (discriminator 13)
    1cf0:	0879                	addi	a6,a6,30
    1cf2:	b7d5                	j	1cd6 <RTC_InitTime+0x142>
    1cf4:	00183813          	seqz	a6,a6
    1cf8:	bfe5                	j	1cf0 <RTC_InitTime+0x15c>
E:\Project\tp78_v2\mounriver_project\RF_CH582M\obj/../StdPeriphDriver/CH58x_clk.c:266 (discriminator 1)
                clk_pin = (R8_CK32K_CONFIG & RB_32K_CLK_PIN);
    1cfa:	02f6c783          	lbu	a5,47(a3) # 4000102f <_eusrstack+0x1fff902f>
    1cfe:	0807f793          	andi	a5,a5,128
    1d02:	00f107a3          	sb	a5,15(sp)
E:\Project\tp78_v2\mounriver_project\RF_CH582M\obj/../StdPeriphDriver/CH58x_clk.c:267 (discriminator 1)
            } while(clk_pin != (R8_CK32K_CONFIG & RB_32K_CLK_PIN));
    1d06:	00f14603          	lbu	a2,15(sp)
    1d0a:	02f6c783          	lbu	a5,47(a3)
    1d0e:	0807f793          	andi	a5,a5,128
    1d12:	fec794e3          	bne	a5,a2,1cfa <RTC_InitTime+0x166>
E:\Project\tp78_v2\mounriver_project\RF_CH582M\obj/../StdPeriphDriver/CH58x_clk.c:262
        while(!clk_pin)
    1d16:	00f14783          	lbu	a5,15(sp)
    1d1a:	0ff7f793          	andi	a5,a5,255
    1d1e:	dff1                	beqz	a5,1cfa <RTC_InitTime+0x166>
    1d20:	b729                	j	1c2a <RTC_InitTime+0x96>

00001d22 <GPIOB_ModeCfg>:
GPIOB_ModeCfg():
E:\Project\tp78_v2\mounriver_project\RF_CH582M\obj/../StdPeriphDriver/CH58x_gpio.c:72
 *
 * @return  none
 */
void GPIOB_ModeCfg(uint32_t pin, GPIOModeTypeDef mode)
{
    switch(mode)
    1d22:	4791                	li	a5,4
    1d24:	02b7ee63          	bltu	a5,a1,1d60 <GPIOB_ModeCfg+0x3e>
    1d28:	00004717          	auipc	a4,0x4
    1d2c:	79470713          	addi	a4,a4,1940 # 64bc <memcpy+0xb6>
    1d30:	058a                	slli	a1,a1,0x2
    1d32:	95ba                	add	a1,a1,a4
    1d34:	419c                	lw	a5,0(a1)
    1d36:	97ba                	add	a5,a5,a4
    1d38:	8782                	jr	a5
E:\Project\tp78_v2\mounriver_project\RF_CH582M\obj/../StdPeriphDriver/CH58x_gpio.c:75
    {
        case GPIO_ModeIN_Floating:
            R32_PB_PD_DRV &= ~pin;
    1d3a:	400017b7          	lui	a5,0x40001
    1d3e:	0d47a703          	lw	a4,212(a5) # 400010d4 <_eusrstack+0x1fff90d4>
    1d42:	fff54513          	not	a0,a0
    1d46:	8f69                	and	a4,a4,a0
    1d48:	0ce7aa23          	sw	a4,212(a5)
E:\Project\tp78_v2\mounriver_project\RF_CH582M\obj/../StdPeriphDriver/CH58x_gpio.c:76
            R32_PB_PU &= ~pin;
    1d4c:	0d07a703          	lw	a4,208(a5)
E:\Project\tp78_v2\mounriver_project\RF_CH582M\obj/../StdPeriphDriver/CH58x_gpio.c:88
            R32_PB_DIR &= ~pin;
            break;

        case GPIO_ModeIN_PD:
            R32_PB_PD_DRV |= pin;
            R32_PB_PU &= ~pin;
    1d50:	8f69                	and	a4,a4,a0
    1d52:	0ce7a823          	sw	a4,208(a5)
E:\Project\tp78_v2\mounriver_project\RF_CH582M\obj/../StdPeriphDriver/CH58x_gpio.c:89
            R32_PB_DIR &= ~pin;
    1d56:	0c07a703          	lw	a4,192(a5)
    1d5a:	8d79                	and	a0,a0,a4
E:\Project\tp78_v2\mounriver_project\RF_CH582M\obj/../StdPeriphDriver/CH58x_gpio.c:99
            R32_PB_DIR |= pin;
            break;

        case GPIO_ModeOut_PP_20mA:
            R32_PB_PD_DRV |= pin;
            R32_PB_DIR |= pin;
    1d5c:	0ca7a023          	sw	a0,192(a5)
E:\Project\tp78_v2\mounriver_project\RF_CH582M\obj/../StdPeriphDriver/CH58x_gpio.c:105
            break;

        default:
            break;
    }
}
    1d60:	8082                	ret
E:\Project\tp78_v2\mounriver_project\RF_CH582M\obj/../StdPeriphDriver/CH58x_gpio.c:81
            R32_PB_PD_DRV &= ~pin;
    1d62:	400017b7          	lui	a5,0x40001
    1d66:	0d47a683          	lw	a3,212(a5) # 400010d4 <_eusrstack+0x1fff90d4>
    1d6a:	fff54713          	not	a4,a0
    1d6e:	8ef9                	and	a3,a3,a4
    1d70:	0cd7aa23          	sw	a3,212(a5)
E:\Project\tp78_v2\mounriver_project\RF_CH582M\obj/../StdPeriphDriver/CH58x_gpio.c:82
            R32_PB_PU |= pin;
    1d74:	0d07a683          	lw	a3,208(a5)
    1d78:	8d55                	or	a0,a0,a3
    1d7a:	0ca7a823          	sw	a0,208(a5)
E:\Project\tp78_v2\mounriver_project\RF_CH582M\obj/../StdPeriphDriver/CH58x_gpio.c:83
            R32_PB_DIR &= ~pin;
    1d7e:	0c07a683          	lw	a3,192(a5)
    1d82:	8f75                	and	a4,a4,a3
    1d84:	0ce7a023          	sw	a4,192(a5)
E:\Project\tp78_v2\mounriver_project\RF_CH582M\obj/../StdPeriphDriver/CH58x_gpio.c:84
            break;
    1d88:	8082                	ret
E:\Project\tp78_v2\mounriver_project\RF_CH582M\obj/../StdPeriphDriver/CH58x_gpio.c:87
            R32_PB_PD_DRV |= pin;
    1d8a:	400017b7          	lui	a5,0x40001
    1d8e:	0d47a703          	lw	a4,212(a5) # 400010d4 <_eusrstack+0x1fff90d4>
    1d92:	8f49                	or	a4,a4,a0
    1d94:	0ce7aa23          	sw	a4,212(a5)
E:\Project\tp78_v2\mounriver_project\RF_CH582M\obj/../StdPeriphDriver/CH58x_gpio.c:88
            R32_PB_PU &= ~pin;
    1d98:	0d07a703          	lw	a4,208(a5)
    1d9c:	fff54513          	not	a0,a0
    1da0:	bf45                	j	1d50 <GPIOB_ModeCfg+0x2e>
E:\Project\tp78_v2\mounriver_project\RF_CH582M\obj/../StdPeriphDriver/CH58x_gpio.c:93
            R32_PB_PD_DRV &= ~pin;
    1da2:	400017b7          	lui	a5,0x40001
    1da6:	0d47a683          	lw	a3,212(a5) # 400010d4 <_eusrstack+0x1fff90d4>
    1daa:	fff54713          	not	a4,a0
    1dae:	8f75                	and	a4,a4,a3
E:\Project\tp78_v2\mounriver_project\RF_CH582M\obj/../StdPeriphDriver/CH58x_gpio.c:98
            R32_PB_PD_DRV |= pin;
    1db0:	0ce7aa23          	sw	a4,212(a5)
E:\Project\tp78_v2\mounriver_project\RF_CH582M\obj/../StdPeriphDriver/CH58x_gpio.c:99
            R32_PB_DIR |= pin;
    1db4:	0c07a703          	lw	a4,192(a5)
    1db8:	8d59                	or	a0,a0,a4
    1dba:	b74d                	j	1d5c <GPIOB_ModeCfg+0x3a>
E:\Project\tp78_v2\mounriver_project\RF_CH582M\obj/../StdPeriphDriver/CH58x_gpio.c:98
            R32_PB_PD_DRV |= pin;
    1dbc:	400017b7          	lui	a5,0x40001
    1dc0:	0d47a703          	lw	a4,212(a5) # 400010d4 <_eusrstack+0x1fff90d4>
    1dc4:	8f49                	or	a4,a4,a0
    1dc6:	b7ed                	j	1db0 <GPIOB_ModeCfg+0x8e>

00001dc8 <GetSysClock>:
GetSysClock():
E:\Project\tp78_v2\mounriver_project\RF_CH582M\obj/../StdPeriphDriver/CH58x_sys.c:130
    rev = R16_CLK_SYS_CFG & 0xff;
    1dc8:	400017b7          	lui	a5,0x40001
    1dcc:	0087d503          	lhu	a0,8(a5) # 40001008 <_eusrstack+0x1fff9008>
    1dd0:	0542                	slli	a0,a0,0x10
    1dd2:	8141                	srli	a0,a0,0x10
E:\Project\tp78_v2\mounriver_project\RF_CH582M\obj/../StdPeriphDriver/CH58x_sys.c:131
    if((rev & 0x40) == (0 << 6))
    1dd4:	04057793          	andi	a5,a0,64
    1dd8:	eb91                	bnez	a5,1dec <GetSysClock+0x24>
E:\Project\tp78_v2\mounriver_project\RF_CH582M\obj/../StdPeriphDriver/CH58x_sys.c:133
        return (32000000 / (rev & 0x1f));
    1dda:	01f57793          	andi	a5,a0,31
    1dde:	01e85537          	lui	a0,0x1e85
E:\Project\tp78_v2\mounriver_project\RF_CH582M\obj/../StdPeriphDriver/CH58x_sys.c:137
        return (480000000 / (rev & 0x1f));
    1de2:	80050513          	addi	a0,a0,-2048 # 1e84800 <_data_lma+0x1e7e170>
    1de6:	02f54533          	div	a0,a0,a5
    1dea:	8082                	ret
E:\Project\tp78_v2\mounriver_project\RF_CH582M\obj/../StdPeriphDriver/CH58x_sys.c:135
    else if((rev & RB_CLK_SYS_MOD) == (1 << 6))
    1dec:	0c057793          	andi	a5,a0,192
    1df0:	04000713          	li	a4,64
    1df4:	00e79763          	bne	a5,a4,1e02 <GetSysClock+0x3a>
E:\Project\tp78_v2\mounriver_project\RF_CH582M\obj/../StdPeriphDriver/CH58x_sys.c:137
        return (480000000 / (rev & 0x1f));
    1df8:	01f57793          	andi	a5,a0,31
    1dfc:	1c9c4537          	lui	a0,0x1c9c4
    1e00:	b7cd                	j	1de2 <GetSysClock+0x1a>
E:\Project\tp78_v2\mounriver_project\RF_CH582M\obj/../StdPeriphDriver/CH58x_sys.c:141
        return (32000);
    1e02:	6521                	lui	a0,0x8
    1e04:	d0050513          	addi	a0,a0,-768 # 7d00 <_data_lma+0x1670>
E:\Project\tp78_v2\mounriver_project\RF_CH582M\obj/../StdPeriphDriver/CH58x_sys.c:143
}
    1e08:	8082                	ret

00001e0a <SYS_GetSysTickCnt>:
SYS_GetSysTickCnt():
E:\Project\tp78_v2\mounriver_project\RF_CH582M\obj/../StdPeriphDriver/CH58x_sys.c:230
    val = SysTick->CNT;
    1e0a:	e000f7b7          	lui	a5,0xe000f
    1e0e:	4788                	lw	a0,8(a5)
    1e10:	47cc                	lw	a1,12(a5)
E:\Project\tp78_v2\mounriver_project\RF_CH582M\obj/../StdPeriphDriver/CH58x_sys.c:232
}
    1e12:	8082                	ret

00001e14 <TMR0_TimerInit>:
TMR0_TimerInit():
E:\Project\tp78_v2\mounriver_project\RF_CH582M\obj/../StdPeriphDriver/CH58x_timer0.c:24
 *
 * @return  none
 */
void TMR0_TimerInit(uint32_t t)
{
    R32_TMR0_CNT_END = t;
    1e14:	400027b7          	lui	a5,0x40002
    1e18:	c7c8                	sw	a0,12(a5)
E:\Project\tp78_v2\mounriver_project\RF_CH582M\obj/../StdPeriphDriver/CH58x_timer0.c:25
    R8_TMR0_CTRL_MOD = RB_TMR_ALL_CLEAR;
    1e1a:	4709                	li	a4,2
    1e1c:	00e78023          	sb	a4,0(a5) # 40002000 <_eusrstack+0x1fffa000>
E:\Project\tp78_v2\mounriver_project\RF_CH582M\obj/../StdPeriphDriver/CH58x_timer0.c:26
    R8_TMR0_CTRL_MOD = RB_TMR_COUNT_EN;
    1e20:	4711                	li	a4,4
    1e22:	00e78023          	sb	a4,0(a5)
E:\Project\tp78_v2\mounriver_project\RF_CH582M\obj/../StdPeriphDriver/CH58x_timer0.c:27
}
    1e26:	8082                	ret

00001e28 <USB_DeviceInit>:
USB_DeviceInit():
E:\Project\tp78\mounriver_project\RF_CH582M\obj/../StdPeriphDriver/CH58x_usbdev.c:29
 *
 * @return  none
 */
void USB_DeviceInit(void)
{
    R8_USB_CTRL = 0x00; // 先设定模式,取消 RB_UC_CLR_ALL
    1e28:	400087b7          	lui	a5,0x40008
    1e2c:	00078023          	sb	zero,0(a5) # 40008000 <_eusrstack+0x20000000>
E:\Project\tp78\mounriver_project\RF_CH582M\obj/../StdPeriphDriver/CH58x_usbdev.c:31

    R8_UEP4_1_MOD = RB_UEP4_RX_EN | RB_UEP4_TX_EN | RB_UEP1_RX_EN | RB_UEP1_TX_EN; // 端点4 OUT+IN,端点1 OUT+IN
    1e30:	fcc00713          	li	a4,-52
    1e34:	00e78623          	sb	a4,12(a5)
E:\Project\tp78\mounriver_project\RF_CH582M\obj/../StdPeriphDriver/CH58x_usbdev.c:32
    R8_UEP2_3_MOD = RB_UEP2_RX_EN | RB_UEP2_TX_EN | RB_UEP3_RX_EN | RB_UEP3_TX_EN; // 端点2 OUT+IN,端点3 OUT+IN
    1e38:	00e786a3          	sb	a4,13(a5)
E:\Project\tp78\mounriver_project\RF_CH582M\obj/../StdPeriphDriver/CH58x_usbdev.c:34

    R16_UEP0_DMA = (uint16_t)(uint32_t)pEP0_RAM_Addr;
    1e3c:	8581d703          	lhu	a4,-1960(gp) # 20001870 <pEP0_RAM_Addr>
    1e40:	00e79823          	sh	a4,16(a5)
E:\Project\tp78\mounriver_project\RF_CH582M\obj/../StdPeriphDriver/CH58x_usbdev.c:35
    R16_UEP1_DMA = (uint16_t)(uint32_t)pEP1_RAM_Addr;
    1e44:	85c1d703          	lhu	a4,-1956(gp) # 20001874 <pEP1_RAM_Addr>
    1e48:	00e79a23          	sh	a4,20(a5)
E:\Project\tp78\mounriver_project\RF_CH582M\obj/../StdPeriphDriver/CH58x_usbdev.c:36
    R16_UEP2_DMA = (uint16_t)(uint32_t)pEP2_RAM_Addr;
    1e4c:	8501d703          	lhu	a4,-1968(gp) # 20001868 <pEP2_RAM_Addr>
    1e50:	00e79c23          	sh	a4,24(a5)
E:\Project\tp78\mounriver_project\RF_CH582M\obj/../StdPeriphDriver/CH58x_usbdev.c:37
    R16_UEP3_DMA = (uint16_t)(uint32_t)pEP3_RAM_Addr;
    1e54:	8541d703          	lhu	a4,-1964(gp) # 2000186c <pEP3_RAM_Addr>
    1e58:	00e79e23          	sh	a4,28(a5)
E:\Project\tp78\mounriver_project\RF_CH582M\obj/../StdPeriphDriver/CH58x_usbdev.c:39

    R8_UEP0_CTRL = UEP_R_RES_ACK | UEP_T_RES_NAK;
    1e5c:	4689                	li	a3,2
    1e5e:	02d78123          	sb	a3,34(a5)
E:\Project\tp78\mounriver_project\RF_CH582M\obj/../StdPeriphDriver/CH58x_usbdev.c:40
    R8_UEP1_CTRL = UEP_R_RES_ACK | UEP_T_RES_NAK | RB_UEP_AUTO_TOG;
    1e62:	4749                	li	a4,18
    1e64:	02e78323          	sb	a4,38(a5)
E:\Project\tp78\mounriver_project\RF_CH582M\obj/../StdPeriphDriver/CH58x_usbdev.c:41
    R8_UEP2_CTRL = UEP_R_RES_ACK | UEP_T_RES_NAK | RB_UEP_AUTO_TOG;
    1e68:	02e78523          	sb	a4,42(a5)
E:\Project\tp78\mounriver_project\RF_CH582M\obj/../StdPeriphDriver/CH58x_usbdev.c:42
    R8_UEP3_CTRL = UEP_R_RES_ACK | UEP_T_RES_NAK | RB_UEP_AUTO_TOG;
    1e6c:	02e78723          	sb	a4,46(a5)
E:\Project\tp78\mounriver_project\RF_CH582M\obj/../StdPeriphDriver/CH58x_usbdev.c:43
    R8_UEP4_CTRL = UEP_R_RES_ACK | UEP_T_RES_NAK;
    1e70:	02d78923          	sb	a3,50(a5)
E:\Project\tp78\mounriver_project\RF_CH582M\obj/../StdPeriphDriver/CH58x_usbdev.c:45

    R8_USB_DEV_AD = 0x00;
    1e74:	000781a3          	sb	zero,3(a5)
E:\Project\tp78\mounriver_project\RF_CH582M\obj/../StdPeriphDriver/CH58x_usbdev.c:46
    R8_USB_CTRL = RB_UC_DEV_PU_EN | RB_UC_INT_BUSY | RB_UC_DMA_EN; // 启动USB设备及DMA，在中断期间中断标志未清除前自动返回NAK
    1e78:	02900713          	li	a4,41
    1e7c:	00e78023          	sb	a4,0(a5)
E:\Project\tp78\mounriver_project\RF_CH582M\obj/../StdPeriphDriver/CH58x_usbdev.c:47
    R16_PIN_ANALOG_IE |= RB_PIN_USB_IE | RB_PIN_USB_DP_PU;         // 防止USB端口浮空及上拉电阻
    1e80:	400016b7          	lui	a3,0x40001
    1e84:	01a6d703          	lhu	a4,26(a3) # 4000101a <_eusrstack+0x1fff901a>
    1e88:	0c076713          	ori	a4,a4,192
    1e8c:	00e69d23          	sh	a4,26(a3)
E:\Project\tp78\mounriver_project\RF_CH582M\obj/../StdPeriphDriver/CH58x_usbdev.c:48
    R8_USB_INT_FG = 0xFF;                                          // 清中断标志
    1e90:	577d                	li	a4,-1
    1e92:	00e78323          	sb	a4,6(a5)
E:\Project\tp78\mounriver_project\RF_CH582M\obj/../StdPeriphDriver/CH58x_usbdev.c:49
    R8_UDEV_CTRL = RB_UD_PD_DIS | RB_UD_PORT_EN;                   // 允许USB端口
    1e96:	f8100713          	li	a4,-127
    1e9a:	00e780a3          	sb	a4,1(a5)
E:\Project\tp78\mounriver_project\RF_CH582M\obj/../StdPeriphDriver/CH58x_usbdev.c:50
    R8_USB_INT_EN = RB_UIE_SUSPEND | RB_UIE_BUS_RST | RB_UIE_TRANSFER;
    1e9e:	471d                	li	a4,7
    1ea0:	00e78123          	sb	a4,2(a5)
E:\Project\tp78\mounriver_project\RF_CH582M\obj/../StdPeriphDriver/CH58x_usbdev.c:51
}
    1ea4:	8082                	ret

00001ea6 <DevEP1_IN_Deal>:
DevEP1_IN_Deal():
E:\Project\tp78\mounriver_project\RF_CH582M\obj/../StdPeriphDriver/CH58x_usbdev.c:64
 *
 * @return  none
 */
void DevEP1_IN_Deal(uint8_t l)
{
    R8_UEP1_T_LEN = l;
    1ea6:	400087b7          	lui	a5,0x40008
    1eaa:	02a78223          	sb	a0,36(a5) # 40008024 <_eusrstack+0x20000024>
E:\Project\tp78\mounriver_project\RF_CH582M\obj/../StdPeriphDriver/CH58x_usbdev.c:65
    R8_UEP1_CTRL = (R8_UEP1_CTRL & ~MASK_UEP_T_RES) | UEP_T_RES_ACK;
    1eae:	0267c703          	lbu	a4,38(a5)
    1eb2:	0fc77713          	andi	a4,a4,252
    1eb6:	02e78323          	sb	a4,38(a5)
E:\Project\tp78\mounriver_project\RF_CH582M\obj/../StdPeriphDriver/CH58x_usbdev.c:66
}
    1eba:	8082                	ret

00001ebc <DevEP2_IN_Deal>:
DevEP2_IN_Deal():
E:\Project\tp78\mounriver_project\RF_CH582M\obj/../StdPeriphDriver/CH58x_usbdev.c:79
 *
 * @return  none
 */
void DevEP2_IN_Deal(uint8_t l)
{
    R8_UEP2_T_LEN = l;
    1ebc:	400087b7          	lui	a5,0x40008
    1ec0:	02a78423          	sb	a0,40(a5) # 40008028 <_eusrstack+0x20000028>
E:\Project\tp78\mounriver_project\RF_CH582M\obj/../StdPeriphDriver/CH58x_usbdev.c:80
    R8_UEP2_CTRL = (R8_UEP2_CTRL & ~MASK_UEP_T_RES) | UEP_T_RES_ACK;
    1ec4:	02a7c703          	lbu	a4,42(a5)
    1ec8:	0fc77713          	andi	a4,a4,252
    1ecc:	02e78523          	sb	a4,42(a5)
E:\Project\tp78\mounriver_project\RF_CH582M\obj/../StdPeriphDriver/CH58x_usbdev.c:81
}
    1ed0:	8082                	ret

00001ed2 <DevEP3_IN_Deal>:
DevEP3_IN_Deal():
E:\Project\tp78\mounriver_project\RF_CH582M\obj/../StdPeriphDriver/CH58x_usbdev.c:94
 *
 * @return  none
 */
void DevEP3_IN_Deal(uint8_t l)
{
    R8_UEP3_T_LEN = l;
    1ed2:	400087b7          	lui	a5,0x40008
    1ed6:	02a78623          	sb	a0,44(a5) # 4000802c <_eusrstack+0x2000002c>
E:\Project\tp78\mounriver_project\RF_CH582M\obj/../StdPeriphDriver/CH58x_usbdev.c:95
    R8_UEP3_CTRL = (R8_UEP3_CTRL & ~MASK_UEP_T_RES) | UEP_T_RES_ACK;
    1eda:	02e7c703          	lbu	a4,46(a5)
    1ede:	0fc77713          	andi	a4,a4,252
    1ee2:	02e78723          	sb	a4,46(a5)
E:\Project\tp78\mounriver_project\RF_CH582M\obj/../StdPeriphDriver/CH58x_usbdev.c:96
}
    1ee6:	8082                	ret

00001ee8 <DevEP4_IN_Deal>:
DevEP4_IN_Deal():
E:\Project\tp78\mounriver_project\RF_CH582M\obj/../StdPeriphDriver/CH58x_usbdev.c:109
 *
 * @return  none
 */
void DevEP4_IN_Deal(uint8_t l)
{
    R8_UEP4_T_LEN = l;
    1ee8:	400087b7          	lui	a5,0x40008
    1eec:	02a78823          	sb	a0,48(a5) # 40008030 <_eusrstack+0x20000030>
E:\Project\tp78\mounriver_project\RF_CH582M\obj/../StdPeriphDriver/CH58x_usbdev.c:110
    R8_UEP4_CTRL = (R8_UEP4_CTRL & ~MASK_UEP_T_RES) | UEP_T_RES_ACK;
    1ef0:	0327c703          	lbu	a4,50(a5)
    1ef4:	0fc77713          	andi	a4,a4,252
    1ef8:	02e78923          	sb	a4,50(a5)
E:\Project\tp78\mounriver_project\RF_CH582M\obj/../StdPeriphDriver/CH58x_usbdev.c:111
}
    1efc:	8082                	ret

00001efe <HalLedBlink.part.2>:
HalLedBlink():
E:\Project\tp78_v2_develop\mounriver_project\RF_CH582M\obj/../HAL/LED.c:146
 * @param   percent     - the percentage in each period where the led will be on
 * @param   period      - length of each cycle in milliseconds
 *
 * @return  none
 */
void HalLedBlink(uint8_t leds, uint8_t numBlinks, uint8_t percent, uint16_t period)
    1efe:	7179                	addi	sp,sp,-48
    1f00:	d422                	sw	s0,40(sp)
    1f02:	d226                	sw	s1,36(sp)
    1f04:	d04a                	sw	s2,32(sp)
    1f06:	ce4e                	sw	s3,28(sp)
    1f08:	cc52                	sw	s4,24(sp)
    1f0a:	ca56                	sw	s5,20(sp)
    1f0c:	d606                	sw	ra,44(sp)
E:\Project\tp78_v2_develop\mounriver_project\RF_CH582M\obj/../HAL/LED.c:156
    if(leds && percent && period)
    {
        if(percent < 100)
        {
            led = HAL_LED_1;
            leds &= HAL_LED_ALL;
    1f0e:	00f57913          	andi	s2,a0,15
E:\Project\tp78_v2_develop\mounriver_project\RF_CH582M\obj/../HAL/LED.c:157
            sts = HalLedStatusControl.HalLedControlTable;
    1f12:	81c18413          	addi	s0,gp,-2020 # 20001834 <HalLedStatusControl>
E:\Project\tp78_v2_develop\mounriver_project\RF_CH582M\obj/../HAL/LED.c:155
            led = HAL_LED_1;
    1f16:	4485                	li	s1,1
E:\Project\tp78_v2_develop\mounriver_project\RF_CH582M\obj/../HAL/LED.c:163
            while(leds)
            {
                if(leds & led)
                {
                    /* Store the current state of the led before going to blinking */
                    preBlinkState |= (led & HalLedState);
    1f18:	80918993          	addi	s3,gp,-2039 # 20001821 <preBlinkState>
    1f1c:	80818a13          	addi	s4,gp,-2040 # 20001820 <_edata>
E:\Project\tp78_v2_develop\mounriver_project\RF_CH582M\obj/../HAL/LED.c:170
                    sts->time = period;           /* Time for one on/off cycle */
                    sts->onPct = percent;         /* % of cycle LED is on */
                    sts->todo = numBlinks;        /* Number of blink cycles */
                    if(!numBlinks)
                    {
                        sts->mode |= HAL_LED_MODE_FLASH; /* Continuous */
    1f20:	4a91                	li	s5,4
E:\Project\tp78_v2_develop\mounriver_project\RF_CH582M\obj/../HAL/LED.c:158
            while(leds)
    1f22:	02091063          	bnez	s2,1f42 <HalLedBlink.part.2+0x44>
E:\Project\tp78_v2_develop\mounriver_project\RF_CH582M\obj/../HAL/LED.c:190
    }
    else
    {
        HalLedSet(leds, HAL_LED_MODE_OFF); /* No on time, turn off */
    }
}
    1f26:	5422                	lw	s0,40(sp)
    1f28:	50b2                	lw	ra,44(sp)
    1f2a:	5492                	lw	s1,36(sp)
    1f2c:	5902                	lw	s2,32(sp)
    1f2e:	49f2                	lw	s3,28(sp)
    1f30:	4a62                	lw	s4,24(sp)
    1f32:	4ad2                	lw	s5,20(sp)
E:\Project\tp78_v2_develop\mounriver_project\RF_CH582M\obj/../HAL/LED.c:179
            tmos_start_task(halTaskID, LED_BLINK_EVENT, 0);
    1f34:	8601c503          	lbu	a0,-1952(gp) # 20001878 <halTaskID>
    1f38:	4601                	li	a2,0
    1f3a:	4585                	li	a1,1
E:\Project\tp78_v2_develop\mounriver_project\RF_CH582M\obj/../HAL/LED.c:190
}
    1f3c:	6145                	addi	sp,sp,48
E:\Project\tp78_v2_develop\mounriver_project\RF_CH582M\obj/../HAL/LED.c:179
            tmos_start_task(halTaskID, LED_BLINK_EVENT, 0);
    1f3e:	22a0106f          	j	3168 <tmos_start_task>
E:\Project\tp78_v2_develop\mounriver_project\RF_CH582M\obj/../HAL/LED.c:160
                if(leds & led)
    1f42:	009977b3          	and	a5,s2,s1
    1f46:	c7a9                	beqz	a5,1f90 <HalLedBlink.part.2+0x92>
E:\Project\tp78_v2_develop\mounriver_project\RF_CH582M\obj/../HAL/LED.c:163
                    preBlinkState |= (led & HalLedState);
    1f48:	000a4783          	lbu	a5,0(s4) # a8c00000 <_eusrstack+0x88bf8000>
    1f4c:	0009c703          	lbu	a4,0(s3)
E:\Project\tp78_v2_develop\mounriver_project\RF_CH582M\obj/../HAL/LED.c:164
                    sts->mode = HAL_LED_MODE_OFF; /* Stop previous blink */
    1f50:	00040023          	sb	zero,0(s0)
E:\Project\tp78_v2_develop\mounriver_project\RF_CH582M\obj/../HAL/LED.c:163
                    preBlinkState |= (led & HalLedState);
    1f54:	8fe5                	and	a5,a5,s1
    1f56:	8fd9                	or	a5,a5,a4
    1f58:	80f184a3          	sb	a5,-2039(gp) # 20001821 <preBlinkState>
E:\Project\tp78_v2_develop\mounriver_project\RF_CH582M\obj/../HAL/LED.c:165
                    sts->time = period;           /* Time for one on/off cycle */
    1f5c:	00d41223          	sh	a3,4(s0)
E:\Project\tp78_v2_develop\mounriver_project\RF_CH582M\obj/../HAL/LED.c:166
                    sts->onPct = percent;         /* % of cycle LED is on */
    1f60:	00c40123          	sb	a2,2(s0)
E:\Project\tp78_v2_develop\mounriver_project\RF_CH582M\obj/../HAL/LED.c:167
                    sts->todo = numBlinks;        /* Number of blink cycles */
    1f64:	00b400a3          	sb	a1,1(s0)
E:\Project\tp78_v2_develop\mounriver_project\RF_CH582M\obj/../HAL/LED.c:168
                    if(!numBlinks)
    1f68:	e199                	bnez	a1,1f6e <HalLedBlink.part.2+0x70>
E:\Project\tp78_v2_develop\mounriver_project\RF_CH582M\obj/../HAL/LED.c:170
                        sts->mode |= HAL_LED_MODE_FLASH; /* Continuous */
    1f6a:	01540023          	sb	s5,0(s0)
    1f6e:	c636                	sw	a3,12(sp)
    1f70:	c432                	sw	a2,8(sp)
    1f72:	c22e                	sw	a1,4(sp)
E:\Project\tp78_v2_develop\mounriver_project\RF_CH582M\obj/../HAL/LED.c:172
                    sts->next = TMOS_GetSystemClock(); /* Start now */
    1f74:	162010ef          	jal	ra,30d6 <TMOS_GetSystemClock>
E:\Project\tp78_v2_develop\mounriver_project\RF_CH582M\obj/../HAL/LED.c:173
                    sts->mode |= HAL_LED_MODE_BLINK;   /* Enable blinking */
    1f78:	00044783          	lbu	a5,0(s0)
E:\Project\tp78_v2_develop\mounriver_project\RF_CH582M\obj/../HAL/LED.c:174
                    leds ^= led;
    1f7c:	46b2                	lw	a3,12(sp)
    1f7e:	4622                	lw	a2,8(sp)
    1f80:	4592                	lw	a1,4(sp)
E:\Project\tp78_v2_develop\mounriver_project\RF_CH582M\obj/../HAL/LED.c:173
                    sts->mode |= HAL_LED_MODE_BLINK;   /* Enable blinking */
    1f82:	0027e793          	ori	a5,a5,2
E:\Project\tp78_v2_develop\mounriver_project\RF_CH582M\obj/../HAL/LED.c:172
                    sts->next = TMOS_GetSystemClock(); /* Start now */
    1f86:	c408                	sw	a0,8(s0)
E:\Project\tp78_v2_develop\mounriver_project\RF_CH582M\obj/../HAL/LED.c:173
                    sts->mode |= HAL_LED_MODE_BLINK;   /* Enable blinking */
    1f88:	00f40023          	sb	a5,0(s0)
E:\Project\tp78_v2_develop\mounriver_project\RF_CH582M\obj/../HAL/LED.c:174
                    leds ^= led;
    1f8c:	00994933          	xor	s2,s2,s1
E:\Project\tp78_v2_develop\mounriver_project\RF_CH582M\obj/../HAL/LED.c:176
                led <<= 1;
    1f90:	0486                	slli	s1,s1,0x1
    1f92:	0ff4f493          	andi	s1,s1,255
E:\Project\tp78_v2_develop\mounriver_project\RF_CH582M\obj/../HAL/LED.c:177
                sts++;
    1f96:	0431                	addi	s0,s0,12
    1f98:	b769                	j	1f22 <HalLedBlink.part.2+0x24>

00001f9a <HalLedOnOff>:
HalLedOnOff():
E:\Project\tp78_v2_develop\mounriver_project\RF_CH582M\obj/../HAL/LED.c:294
 *
 * @return  none
 */
void HalLedOnOff(uint8_t leds, uint8_t mode)
{
    if(leds & HAL_LED_1)
    1f9a:	00157793          	andi	a5,a0,1
    1f9e:	80818693          	addi	a3,gp,-2040 # 20001820 <_edata>
    1fa2:	cb9d                	beqz	a5,1fd8 <HalLedOnOff+0x3e>
E:\Project\tp78_v2_develop\mounriver_project\RF_CH582M\obj/../HAL/LED.c:296
    {
        if(mode == HAL_LED_MODE_ON)
    1fa4:	4785                	li	a5,1
    1fa6:	02f59163          	bne	a1,a5,1fc8 <HalLedOnOff+0x2e>
E:\Project\tp78_v2_develop\mounriver_project\RF_CH582M\obj/../HAL/LED.c:298
        {
            HAL_TURN_ON_LED1();
    1faa:	40001637          	lui	a2,0x40001
    1fae:	0c862783          	lw	a5,200(a2) # 400010c8 <_eusrstack+0x1fff90c8>
    1fb2:	777d                	lui	a4,0xfffff
    1fb4:	177d                	addi	a4,a4,-1
    1fb6:	8ff9                	and	a5,a5,a4
    1fb8:	0cf62423          	sw	a5,200(a2)
E:\Project\tp78_v2_develop\mounriver_project\RF_CH582M\obj/../HAL/LED.c:341
        }
    }
    /* Remember current state */
    if(mode)
    {
        HalLedState |= leds;
    1fbc:	0006c783          	lbu	a5,0(a3)
    1fc0:	8d5d                	or	a0,a0,a5
    1fc2:	80a18423          	sb	a0,-2040(gp) # 20001820 <_edata>
E:\Project\tp78_v2_develop\mounriver_project\RF_CH582M\obj/../HAL/LED.c:347
    }
    else
    {
        HalLedState &= (leds ^ 0xFF);
    }
}
    1fc6:	8082                	ret
E:\Project\tp78_v2_develop\mounriver_project\RF_CH582M\obj/../HAL/LED.c:302
            HAL_TURN_OFF_LED1();
    1fc8:	40001737          	lui	a4,0x40001
    1fcc:	0c872783          	lw	a5,200(a4) # 400010c8 <_eusrstack+0x1fff90c8>
    1fd0:	6605                	lui	a2,0x1
    1fd2:	8fd1                	or	a5,a5,a2
    1fd4:	0cf72423          	sw	a5,200(a4)
E:\Project\tp78_v2_develop\mounriver_project\RF_CH582M\obj/../HAL/LED.c:339
    if(mode)
    1fd8:	f1f5                	bnez	a1,1fbc <HalLedOnOff+0x22>
E:\Project\tp78_v2_develop\mounriver_project\RF_CH582M\obj/../HAL/LED.c:345
        HalLedState &= (leds ^ 0xFF);
    1fda:	0006c783          	lbu	a5,0(a3)
    1fde:	fff54513          	not	a0,a0
    1fe2:	8d7d                	and	a0,a0,a5
    1fe4:	bff9                	j	1fc2 <HalLedOnOff+0x28>

00001fe6 <HalLedSet.part.1>:
HalLedSet():
E:\Project\tp78_v2_develop\mounriver_project\RF_CH582M\obj/../HAL/LED.c:79
uint8_t HalLedSet(uint8_t leds, uint8_t mode)
    1fe6:	1101                	addi	sp,sp,-32
    1fe8:	cc22                	sw	s0,24(sp)
    1fea:	ca26                	sw	s1,20(sp)
    1fec:	c84a                	sw	s2,16(sp)
    1fee:	c64e                	sw	s3,12(sp)
    1ff0:	c452                	sw	s4,8(sp)
    1ff2:	ce06                	sw	ra,28(sp)
    1ff4:	89ae                	mv	s3,a1
E:\Project\tp78_v2_develop\mounriver_project\RF_CH582M\obj/../HAL/LED.c:105
            leds &= HAL_LED_ALL;
    1ff6:	00f57493          	andi	s1,a0,15
E:\Project\tp78_v2_develop\mounriver_project\RF_CH582M\obj/../HAL/LED.c:106
            sts = HalLedStatusControl.HalLedControlTable;
    1ffa:	81c18913          	addi	s2,gp,-2020 # 20001834 <HalLedStatusControl>
E:\Project\tp78_v2_develop\mounriver_project\RF_CH582M\obj/../HAL/LED.c:104
            led = HAL_LED_1;
    1ffe:	4405                	li	s0,1
E:\Project\tp78_v2_develop\mounriver_project\RF_CH582M\obj/../HAL/LED.c:111
                    if(mode != HAL_LED_MODE_TOGGLE)
    2000:	4a21                	li	s4,8
E:\Project\tp78_v2_develop\mounriver_project\RF_CH582M\obj/../HAL/LED.c:107
            while(leds)
    2002:	e889                	bnez	s1,2014 <HalLedSet.part.1+0x2e>
E:\Project\tp78_v2_develop\mounriver_project\RF_CH582M\obj/../HAL/LED.c:132
}
    2004:	40f2                	lw	ra,28(sp)
    2006:	4462                	lw	s0,24(sp)
    2008:	44d2                	lw	s1,20(sp)
    200a:	4942                	lw	s2,16(sp)
    200c:	49b2                	lw	s3,12(sp)
    200e:	4a22                	lw	s4,8(sp)
    2010:	6105                	addi	sp,sp,32
    2012:	8082                	ret
E:\Project\tp78_v2_develop\mounriver_project\RF_CH582M\obj/../HAL/LED.c:109
                if(leds & led)
    2014:	0084f7b3          	and	a5,s1,s0
    2018:	cf89                	beqz	a5,2032 <HalLedSet.part.1+0x4c>
E:\Project\tp78_v2_develop\mounriver_project\RF_CH582M\obj/../HAL/LED.c:111
                    if(mode != HAL_LED_MODE_TOGGLE)
    201a:	85ce                	mv	a1,s3
    201c:	01499663          	bne	s3,s4,2028 <HalLedSet.part.1+0x42>
E:\Project\tp78_v2_develop\mounriver_project\RF_CH582M\obj/../HAL/LED.c:117
                        sts->mode ^= HAL_LED_MODE_ON; /* Toggle */
    2020:	00094583          	lbu	a1,0(s2)
    2024:	0015c593          	xori	a1,a1,1
E:\Project\tp78_v2_develop\mounriver_project\RF_CH582M\obj/../HAL/LED.c:119
                    HalLedOnOff(led, sts->mode);
    2028:	8522                	mv	a0,s0
    202a:	00b90023          	sb	a1,0(s2)
E:\Project\tp78_v2_develop\mounriver_project\RF_CH582M\obj/../HAL/LED.c:120
                    leds ^= led;
    202e:	8ca1                	xor	s1,s1,s0
E:\Project\tp78_v2_develop\mounriver_project\RF_CH582M\obj/../HAL/LED.c:119
                    HalLedOnOff(led, sts->mode);
    2030:	37ad                	jal	1f9a <HalLedOnOff>
E:\Project\tp78_v2_develop\mounriver_project\RF_CH582M\obj/../HAL/LED.c:122
                led <<= 1;
    2032:	0406                	slli	s0,s0,0x1
    2034:	0ff47413          	andi	s0,s0,255
E:\Project\tp78_v2_develop\mounriver_project\RF_CH582M\obj/../HAL/LED.c:123
                sts++;
    2038:	0931                	addi	s2,s2,12
    203a:	b7e1                	j	2002 <HalLedSet.part.1+0x1c>

0000203c <HalLedBlink>:
HalLedBlink():
E:\Project\tp78_v2_develop\mounriver_project\RF_CH582M\obj/../HAL/LED.c:147
{
    203c:	87aa                	mv	a5,a0
E:\Project\tp78_v2_develop\mounriver_project\RF_CH582M\obj/../HAL/LED.c:151
    if(leds && percent && period)
    203e:	c911                	beqz	a0,2052 <HalLedBlink+0x16>
E:\Project\tp78_v2_develop\mounriver_project\RF_CH582M\obj/../HAL/LED.c:151 (discriminator 1)
    2040:	ca09                	beqz	a2,2052 <HalLedBlink+0x16>
E:\Project\tp78_v2_develop\mounriver_project\RF_CH582M\obj/../HAL/LED.c:151 (discriminator 2)
    2042:	ca81                	beqz	a3,2052 <HalLedBlink+0x16>
E:\Project\tp78_v2_develop\mounriver_project\RF_CH582M\obj/../HAL/LED.c:153
        if(percent < 100)
    2044:	06300793          	li	a5,99
    2048:	00c7e363          	bltu	a5,a2,204e <HalLedBlink+0x12>
    204c:	bd4d                	j	1efe <HalLedBlink.part.2>
HalLedSet():
E:\Project\tp78_v2_develop\mounriver_project\RF_CH582M\obj/../HAL/LED.c:84
    switch(mode)
    204e:	4585                	li	a1,1
    2050:	bf59                	j	1fe6 <HalLedSet.part.1>
    2052:	4581                	li	a1,0
    2054:	853e                	mv	a0,a5
    2056:	bfed                	j	2050 <HalLedBlink+0x14>

00002058 <HalLedSet>:
    2058:	47a1                	li	a5,8
    205a:	02b7ef63          	bltu	a5,a1,2098 <HalLedSet+0x40>
    205e:	00004697          	auipc	a3,0x4
    2062:	47268693          	addi	a3,a3,1138 # 64d0 <memcpy+0xca>
    2066:	00259713          	slli	a4,a1,0x2
    206a:	9736                	add	a4,a4,a3
    206c:	431c                	lw	a5,0(a4)
E:\Project\tp78_v2_develop\mounriver_project\RF_CH582M\obj/../HAL/LED.c:80
{
    206e:	1141                	addi	sp,sp,-16
    2070:	c606                	sw	ra,12(sp)
E:\Project\tp78_v2_develop\mounriver_project\RF_CH582M\obj/../HAL/LED.c:84
    switch(mode)
    2072:	97b6                	add	a5,a5,a3
    2074:	8782                	jr	a5
E:\Project\tp78_v2_develop\mounriver_project\RF_CH582M\obj/../HAL/LED.c:89
            HalLedBlink(leds, 1, HAL_LED_DEFAULT_DUTY_CYCLE, HAL_LED_DEFAULT_FLASH_TIME);
    2076:	3e800693          	li	a3,1000
    207a:	4615                	li	a2,5
    207c:	4585                	li	a1,1
E:\Project\tp78_v2_develop\mounriver_project\RF_CH582M\obj/../HAL/LED.c:96
            HalLedBlink(leds, HAL_LED_DEFAULT_FLASH_COUNT, HAL_LED_DEFAULT_DUTY_CYCLE, HAL_LED_DEFAULT_FLASH_TIME);
    207e:	3f7d                	jal	203c <HalLedBlink>
E:\Project\tp78_v2_develop\mounriver_project\RF_CH582M\obj/../HAL/LED.c:132
}
    2080:	40b2                	lw	ra,12(sp)
    2082:	4501                	li	a0,0
    2084:	0141                	addi	sp,sp,16
    2086:	8082                	ret
E:\Project\tp78_v2_develop\mounriver_project\RF_CH582M\obj/../HAL/LED.c:96
            HalLedBlink(leds, HAL_LED_DEFAULT_FLASH_COUNT, HAL_LED_DEFAULT_DUTY_CYCLE, HAL_LED_DEFAULT_FLASH_TIME);
    2088:	3e800693          	li	a3,1000
    208c:	4615                	li	a2,5
    208e:	03200593          	li	a1,50
    2092:	b7f5                	j	207e <HalLedSet+0x26>
    2094:	3f89                	jal	1fe6 <HalLedSet.part.1>
    2096:	b7ed                	j	2080 <HalLedSet+0x28>
E:\Project\tp78_v2_develop\mounriver_project\RF_CH582M\obj/../HAL/LED.c:132
}
    2098:	4501                	li	a0,0
    209a:	8082                	ret

0000209c <HAL_LedInit>:
HAL_LedInit():
E:\Project\tp78_v2_develop\mounriver_project\RF_CH582M\obj/../HAL/LED.c:59
    GPIOB_SetBits(LED1_BV);
    209c:	40001737          	lui	a4,0x40001
    20a0:	0c872783          	lw	a5,200(a4) # 400010c8 <_eusrstack+0x1fff90c8>
E:\Project\tp78_v2_develop\mounriver_project\RF_CH582M\obj/../HAL/LED.c:57
{
    20a4:	1141                	addi	sp,sp,-16
E:\Project\tp78_v2_develop\mounriver_project\RF_CH582M\obj/../HAL/LED.c:59
    GPIOB_SetBits(LED1_BV);
    20a6:	6685                	lui	a3,0x1
E:\Project\tp78_v2_develop\mounriver_project\RF_CH582M\obj/../HAL/LED.c:57
{
    20a8:	c606                	sw	ra,12(sp)
E:\Project\tp78_v2_develop\mounriver_project\RF_CH582M\obj/../HAL/LED.c:59
    GPIOB_SetBits(LED1_BV);
    20aa:	8fd5                	or	a5,a5,a3
    20ac:	0cf72423          	sw	a5,200(a4)
E:\Project\tp78_v2_develop\mounriver_project\RF_CH582M\obj/../HAL/LED.c:60
    GPIOB_ModeCfg(LED1_BV, GPIO_ModeOut_PP_5mA);
    20b0:	458d                	li	a1,3
    20b2:	6505                	lui	a0,0x1
    20b4:	31bd                	jal	1d22 <GPIOB_ModeCfg>
HalLedSet():
E:\Project\tp78_v2_develop\mounriver_project\RF_CH582M\obj/../HAL/LED.c:84
    switch(mode)
    20b6:	4581                	li	a1,0
    20b8:	453d                	li	a0,15
    20ba:	3735                	jal	1fe6 <HalLedSet.part.1>
HalLedBlink():
E:\Project\tp78_v2_develop\mounriver_project\RF_CH582M\obj/../HAL/LED.c:153
        if(percent < 100)
    20bc:	2ee00693          	li	a3,750
    20c0:	4679                	li	a2,30
    20c2:	4595                	li	a1,5
    20c4:	4505                	li	a0,1
    20c6:	3d25                	jal	1efe <HalLedBlink.part.2>
HAL_LedInit():
E:\Project\tp78_v2_develop\mounriver_project\RF_CH582M\obj/../HAL/LED.c:67
}
    20c8:	40b2                	lw	ra,12(sp)
E:\Project\tp78_v2_develop\mounriver_project\RF_CH582M\obj/../HAL/LED.c:66
    HalLedStatusControl.sleepActive = FALSE;
    20ca:	84018623          	sb	zero,-1972(gp) # 20001864 <HalLedStatusControl+0x30>
E:\Project\tp78_v2_develop\mounriver_project\RF_CH582M\obj/../HAL/LED.c:67
}
    20ce:	0141                	addi	sp,sp,16
    20d0:	8082                	ret

000020d2 <HalLedUpdate>:
HalLedUpdate():
E:\Project\tp78_v2_develop\mounriver_project\RF_CH582M\obj/../HAL/LED.c:212
    if(!HalLedStatusControl.sleepActive)
    20d2:	84c1c783          	lbu	a5,-1972(gp) # 20001864 <HalLedStatusControl+0x30>
    20d6:	16079363          	bnez	a5,223c <HalLedUpdate+0x16a>
E:\Project\tp78_v2_develop\mounriver_project\RF_CH582M\obj/../HAL/LED.c:200
{
    20da:	7179                	addi	sp,sp,-48
    20dc:	ce4e                	sw	s3,28(sp)
E:\Project\tp78_v2_develop\mounriver_project\RF_CH582M\obj/../HAL/LED.c:249
                            sts->next = time + wait;
    20de:	69c1                	lui	s3,0x10
E:\Project\tp78_v2_develop\mounriver_project\RF_CH582M\obj/../HAL/LED.c:200
{
    20e0:	d422                	sw	s0,40(sp)
    20e2:	d226                	sw	s1,36(sp)
    20e4:	d04a                	sw	s2,32(sp)
    20e6:	cc52                	sw	s4,24(sp)
    20e8:	ca56                	sw	s5,20(sp)
    20ea:	c85a                	sw	s6,16(sp)
    20ec:	c65e                	sw	s7,12(sp)
    20ee:	c462                	sw	s8,8(sp)
    20f0:	d606                	sw	ra,44(sp)
    20f2:	c266                	sw	s9,4(sp)
    20f4:	c06a                	sw	s10,0(sp)
E:\Project\tp78_v2_develop\mounriver_project\RF_CH582M\obj/../HAL/LED.c:209
    sts = HalLedStatusControl.HalLedControlTable;
    20f6:	81c18413          	addi	s0,gp,-2020 # 20001834 <HalLedStatusControl>
E:\Project\tp78_v2_develop\mounriver_project\RF_CH582M\obj/../HAL/LED.c:206
    next = 0;
    20fa:	4c01                	li	s8,0
E:\Project\tp78_v2_develop\mounriver_project\RF_CH582M\obj/../HAL/LED.c:208
    leds = HAL_LED_ALL;
    20fc:	493d                	li	s2,15
E:\Project\tp78_v2_develop\mounriver_project\RF_CH582M\obj/../HAL/LED.c:207
    led = HAL_LED_1;
    20fe:	4485                	li	s1,1
E:\Project\tp78_v2_develop\mounriver_project\RF_CH582M\obj/../HAL/LED.c:256
                            HalLedSet(led, ((preBlinkState & led) != 0) ? HAL_LED_MODE_ON : HAL_LED_MODE_OFF);
    2100:	80918a13          	addi	s4,gp,-2039 # 20001821 <preBlinkState>
E:\Project\tp78_v2_develop\mounriver_project\RF_CH582M\obj/../HAL/LED.c:248
                            wait = (((uint32_t)pct * (uint32_t)sts->time) / 100);
    2104:	06400a93          	li	s5,100
E:\Project\tp78_v2_develop\mounriver_project\RF_CH582M\obj/../HAL/LED.c:249
                            sts->next = time + wait;
    2108:	19fd                	addi	s3,s3,-1
E:\Project\tp78_v2_develop\mounriver_project\RF_CH582M\obj/../HAL/LED.c:225
                            pct = 100 - sts->onPct;             /* Percentage of cycle for off */
    210a:	06400b13          	li	s6,100
E:\Project\tp78_v2_develop\mounriver_project\RF_CH582M\obj/../HAL/LED.c:230
                                if(sts->todo != 0xff)
    210e:	0ff00b93          	li	s7,255
E:\Project\tp78_v2_develop\mounriver_project\RF_CH582M\obj/../HAL/LED.c:216
            if(leds & led)
    2112:	0124f7b3          	and	a5,s1,s2
    2116:	c7e1                	beqz	a5,21de <HalLedUpdate+0x10c>
E:\Project\tp78_v2_develop\mounriver_project\RF_CH582M\obj/../HAL/LED.c:218
                if(sts->mode & HAL_LED_MODE_BLINK)
    2118:	00044783          	lbu	a5,0(s0)
    211c:	8b89                	andi	a5,a5,2
    211e:	cfd5                	beqz	a5,21da <HalLedUpdate+0x108>
E:\Project\tp78_v2_develop\mounriver_project\RF_CH582M\obj/../HAL/LED.c:220
                    time = TMOS_GetSystemClock();
    2120:	7b7000ef          	jal	ra,30d6 <TMOS_GetSystemClock>
E:\Project\tp78_v2_develop\mounriver_project\RF_CH582M\obj/../HAL/LED.c:221
                    if(time >= sts->next)
    2124:	441c                	lw	a5,8(s0)
E:\Project\tp78_v2_develop\mounriver_project\RF_CH582M\obj/../HAL/LED.c:220
                    time = TMOS_GetSystemClock();
    2126:	8d2a                	mv	s10,a0
E:\Project\tp78_v2_develop\mounriver_project\RF_CH582M\obj/../HAL/LED.c:221
                    if(time >= sts->next)
    2128:	0ef56663          	bltu	a0,a5,2214 <HalLedUpdate+0x142>
E:\Project\tp78_v2_develop\mounriver_project\RF_CH582M\obj/../HAL/LED.c:223
                        if(sts->mode & HAL_LED_MODE_ON)
    212c:	00044683          	lbu	a3,0(s0)
    2130:	00244c83          	lbu	s9,2(s0)
    2134:	0016f793          	andi	a5,a3,1
    2138:	cbbd                	beqz	a5,21ae <HalLedUpdate+0xdc>
E:\Project\tp78_v2_develop\mounriver_project\RF_CH582M\obj/../HAL/LED.c:225
                            pct = 100 - sts->onPct;             /* Percentage of cycle for off */
    213a:	419b0733          	sub	a4,s6,s9
E:\Project\tp78_v2_develop\mounriver_project\RF_CH582M\obj/../HAL/LED.c:226
                            sts->mode &= ~HAL_LED_MODE_ON;      /* Say it's not on */
    213e:	9af9                	andi	a3,a3,-2
E:\Project\tp78_v2_develop\mounriver_project\RF_CH582M\obj/../HAL/LED.c:227
                            HalLedOnOff(led, HAL_LED_MODE_OFF); /* Turn it off */
    2140:	4581                	li	a1,0
    2142:	8526                	mv	a0,s1
E:\Project\tp78_v2_develop\mounriver_project\RF_CH582M\obj/../HAL/LED.c:225
                            pct = 100 - sts->onPct;             /* Percentage of cycle for off */
    2144:	0ff77c93          	andi	s9,a4,255
E:\Project\tp78_v2_develop\mounriver_project\RF_CH582M\obj/../HAL/LED.c:226
                            sts->mode &= ~HAL_LED_MODE_ON;      /* Say it's not on */
    2148:	00d40023          	sb	a3,0(s0)
E:\Project\tp78_v2_develop\mounriver_project\RF_CH582M\obj/../HAL/LED.c:227
                            HalLedOnOff(led, HAL_LED_MODE_OFF); /* Turn it off */
    214c:	35b9                	jal	1f9a <HalLedOnOff>
E:\Project\tp78_v2_develop\mounriver_project\RF_CH582M\obj/../HAL/LED.c:228
                            if(!(sts->mode & HAL_LED_MODE_FLASH))
    214e:	00044603          	lbu	a2,0(s0)
    2152:	00467793          	andi	a5,a2,4
    2156:	ef99                	bnez	a5,2174 <HalLedUpdate+0xa2>
E:\Project\tp78_v2_develop\mounriver_project\RF_CH582M\obj/../HAL/LED.c:230
                                if(sts->todo != 0xff)
    2158:	00144683          	lbu	a3,1(s0)
    215c:	01768c63          	beq	a3,s7,2174 <HalLedUpdate+0xa2>
E:\Project\tp78_v2_develop\mounriver_project\RF_CH582M\obj/../HAL/LED.c:232
                                    sts->todo--; /* Not continuous, reduce count */
    2160:	16fd                	addi	a3,a3,-1
    2162:	0ff6f693          	andi	a3,a3,255
    2166:	00d400a3          	sb	a3,1(s0)
E:\Project\tp78_v2_develop\mounriver_project\RF_CH582M\obj/../HAL/LED.c:234
                                if(!sts->todo)
    216a:	e689                	bnez	a3,2174 <HalLedUpdate+0xa2>
E:\Project\tp78_v2_develop\mounriver_project\RF_CH582M\obj/../HAL/LED.c:236
                                    sts->mode ^= HAL_LED_MODE_BLINK; /* No more blinks */
    216c:	00264613          	xori	a2,a2,2
    2170:	00c40023          	sb	a2,0(s0)
E:\Project\tp78_v2_develop\mounriver_project\RF_CH582M\obj/../HAL/LED.c:246
                        if(sts->mode & HAL_LED_MODE_BLINK)
    2174:	00044783          	lbu	a5,0(s0)
    2178:	8b89                	andi	a5,a5,2
    217a:	c3b1                	beqz	a5,21be <HalLedUpdate+0xec>
E:\Project\tp78_v2_develop\mounriver_project\RF_CH582M\obj/../HAL/LED.c:248
                            wait = (((uint32_t)pct * (uint32_t)sts->time) / 100);
    217c:	00445703          	lhu	a4,4(s0)
    2180:	03970733          	mul	a4,a4,s9
    2184:	03575733          	divu	a4,a4,s5
    2188:	01071793          	slli	a5,a4,0x10
E:\Project\tp78_v2_develop\mounriver_project\RF_CH582M\obj/../HAL/LED.c:249
                            sts->next = time + wait;
    218c:	01377733          	and	a4,a4,s3
    2190:	976a                	add	a4,a4,s10
E:\Project\tp78_v2_develop\mounriver_project\RF_CH582M\obj/../HAL/LED.c:248
                            wait = (((uint32_t)pct * (uint32_t)sts->time) / 100);
    2192:	83c1                	srli	a5,a5,0x10
E:\Project\tp78_v2_develop\mounriver_project\RF_CH582M\obj/../HAL/LED.c:249
                            sts->next = time + wait;
    2194:	c418                	sw	a4,8(s0)
E:\Project\tp78_v2_develop\mounriver_project\RF_CH582M\obj/../HAL/LED.c:265
                    if(!next || (wait && (wait < next)))
    2196:	080c0363          	beqz	s8,221c <HalLedUpdate+0x14a>
E:\Project\tp78_v2_develop\mounriver_project\RF_CH582M\obj/../HAL/LED.c:265 (discriminator 1)
    219a:	c3a1                	beqz	a5,21da <HalLedUpdate+0x108>
    219c:	873e                	mv	a4,a5
    219e:	00fc7363          	bgeu	s8,a5,21a4 <HalLedUpdate+0xd2>
    21a2:	8762                	mv	a4,s8
    21a4:	01071c13          	slli	s8,a4,0x10
    21a8:	010c5c13          	srli	s8,s8,0x10
    21ac:	a03d                	j	21da <HalLedUpdate+0x108>
E:\Project\tp78_v2_develop\mounriver_project\RF_CH582M\obj/../HAL/LED.c:243
                            sts->mode |= HAL_LED_MODE_ON;      /* Say it's on */
    21ae:	0016e693          	ori	a3,a3,1
E:\Project\tp78_v2_develop\mounriver_project\RF_CH582M\obj/../HAL/LED.c:244
                            HalLedOnOff(led, HAL_LED_MODE_ON); /* Turn it on */
    21b2:	4585                	li	a1,1
    21b4:	8526                	mv	a0,s1
E:\Project\tp78_v2_develop\mounriver_project\RF_CH582M\obj/../HAL/LED.c:243
                            sts->mode |= HAL_LED_MODE_ON;      /* Say it's on */
    21b6:	00d40023          	sb	a3,0(s0)
E:\Project\tp78_v2_develop\mounriver_project\RF_CH582M\obj/../HAL/LED.c:244
                            HalLedOnOff(led, HAL_LED_MODE_ON); /* Turn it on */
    21ba:	33c5                	jal	1f9a <HalLedOnOff>
    21bc:	bf65                	j	2174 <HalLedUpdate+0xa2>
E:\Project\tp78_v2_develop\mounriver_project\RF_CH582M\obj/../HAL/LED.c:256
                            HalLedSet(led, ((preBlinkState & led) != 0) ? HAL_LED_MODE_ON : HAL_LED_MODE_OFF);
    21be:	000a4583          	lbu	a1,0(s4)
    21c2:	8526                	mv	a0,s1
    21c4:	8de5                	and	a1,a1,s1
    21c6:	00b035b3          	snez	a1,a1
    21ca:	3579                	jal	2058 <HalLedSet>
E:\Project\tp78_v2_develop\mounriver_project\RF_CH582M\obj/../HAL/LED.c:258
                            preBlinkState &= (led ^ 0xFF);
    21cc:	000a4703          	lbu	a4,0(s4)
    21d0:	fff4c793          	not	a5,s1
    21d4:	8ff9                	and	a5,a5,a4
    21d6:	80f184a3          	sb	a5,-2039(gp) # 20001821 <preBlinkState>
E:\Project\tp78_v2_develop\mounriver_project\RF_CH582M\obj/../HAL/LED.c:270
                leds ^= led;
    21da:	0124c933          	xor	s2,s1,s2
E:\Project\tp78_v2_develop\mounriver_project\RF_CH582M\obj/../HAL/LED.c:272
            led <<= 1;
    21de:	0486                	slli	s1,s1,0x1
    21e0:	0ff4f493          	andi	s1,s1,255
E:\Project\tp78_v2_develop\mounriver_project\RF_CH582M\obj/../HAL/LED.c:273
            sts++;
    21e4:	0431                	addi	s0,s0,12
E:\Project\tp78_v2_develop\mounriver_project\RF_CH582M\obj/../HAL/LED.c:214
        while(leds)
    21e6:	f20916e3          	bnez	s2,2112 <HalLedUpdate+0x40>
E:\Project\tp78_v2_develop\mounriver_project\RF_CH582M\obj/../HAL/LED.c:275
        if(next)
    21ea:	020c0b63          	beqz	s8,2220 <HalLedUpdate+0x14e>
E:\Project\tp78_v2_develop\mounriver_project\RF_CH582M\obj/../HAL/LED.c:280
}
    21ee:	5422                	lw	s0,40(sp)
    21f0:	50b2                	lw	ra,44(sp)
    21f2:	5492                	lw	s1,36(sp)
    21f4:	5902                	lw	s2,32(sp)
    21f6:	49f2                	lw	s3,28(sp)
    21f8:	4a62                	lw	s4,24(sp)
    21fa:	4ad2                	lw	s5,20(sp)
    21fc:	4b42                	lw	s6,16(sp)
    21fe:	4bb2                	lw	s7,12(sp)
    2200:	4c92                	lw	s9,4(sp)
    2202:	4d02                	lw	s10,0(sp)
E:\Project\tp78_v2_develop\mounriver_project\RF_CH582M\obj/../HAL/LED.c:277
            tmos_start_task(halTaskID, LED_BLINK_EVENT, next); /* Schedule event */
    2204:	8662                	mv	a2,s8
E:\Project\tp78_v2_develop\mounriver_project\RF_CH582M\obj/../HAL/LED.c:280
}
    2206:	4c22                	lw	s8,8(sp)
E:\Project\tp78_v2_develop\mounriver_project\RF_CH582M\obj/../HAL/LED.c:277
            tmos_start_task(halTaskID, LED_BLINK_EVENT, next); /* Schedule event */
    2208:	8601c503          	lbu	a0,-1952(gp) # 20001878 <halTaskID>
    220c:	4585                	li	a1,1
E:\Project\tp78_v2_develop\mounriver_project\RF_CH582M\obj/../HAL/LED.c:280
}
    220e:	6145                	addi	sp,sp,48
E:\Project\tp78_v2_develop\mounriver_project\RF_CH582M\obj/../HAL/LED.c:277
            tmos_start_task(halTaskID, LED_BLINK_EVENT, next); /* Schedule event */
    2210:	7590006f          	j	3168 <tmos_start_task>
E:\Project\tp78_v2_develop\mounriver_project\RF_CH582M\obj/../HAL/LED.c:263
                        wait = sts->next - time; /* Time left */
    2214:	8f89                	sub	a5,a5,a0
    2216:	07c2                	slli	a5,a5,0x10
    2218:	83c1                	srli	a5,a5,0x10
    221a:	bfb5                	j	2196 <HalLedUpdate+0xc4>
    221c:	8c3e                	mv	s8,a5
    221e:	bf75                	j	21da <HalLedUpdate+0x108>
E:\Project\tp78_v2_develop\mounriver_project\RF_CH582M\obj/../HAL/LED.c:280
}
    2220:	50b2                	lw	ra,44(sp)
    2222:	5422                	lw	s0,40(sp)
    2224:	5492                	lw	s1,36(sp)
    2226:	5902                	lw	s2,32(sp)
    2228:	49f2                	lw	s3,28(sp)
    222a:	4a62                	lw	s4,24(sp)
    222c:	4ad2                	lw	s5,20(sp)
    222e:	4b42                	lw	s6,16(sp)
    2230:	4bb2                	lw	s7,12(sp)
    2232:	4c22                	lw	s8,8(sp)
    2234:	4c92                	lw	s9,4(sp)
    2236:	4d02                	lw	s10,0(sp)
    2238:	6145                	addi	sp,sp,48
    223a:	8082                	ret
    223c:	8082                	ret

0000223e <Lib_Calibration_LSI>:
Lib_Calibration_LSI():
E:\Project\tp78_v2_develop\mounriver_project\RF_CH582M\obj/../HAL/MCU.c:28
 *
 * @return  None.
 */
void Lib_Calibration_LSI(void)
{
    Calibration_LSI(Level_64);
    223e:	4511                	li	a0,4
    2240:	eaeff06f          	j	18ee <Calibration_LSI>

00002244 <Lib_Read_Flash>:
Lib_Read_Flash():
E:\Project\tp78_v2_develop\mounriver_project\RF_CH582M\obj/../HAL/MCU.c:44
 * @param   pBuf - Buffer to store read data
 *
 * @return  None.
 */
uint32_t Lib_Read_Flash(uint32_t addr, uint32_t num, uint32_t *pBuf)
{
    2244:	1141                	addi	sp,sp,-16
E:\Project\tp78_v2_develop\mounriver_project\RF_CH582M\obj/../HAL/MCU.c:45
    EEPROM_READ(addr, pBuf, num * 4);
    2246:	00259693          	slli	a3,a1,0x2
    224a:	85aa                	mv	a1,a0
    224c:	452d                	li	a0,11
E:\Project\tp78_v2_develop\mounriver_project\RF_CH582M\obj/../HAL/MCU.c:44
{
    224e:	c606                	sw	ra,12(sp)
E:\Project\tp78_v2_develop\mounriver_project\RF_CH582M\obj/../HAL/MCU.c:45
    EEPROM_READ(addr, pBuf, num * 4);
    2250:	1fffe097          	auipc	ra,0x1fffe
    2254:	2b8080e7          	jalr	696(ra) # 20000508 <FLASH_EEPROM_CMD>
E:\Project\tp78_v2_develop\mounriver_project\RF_CH582M\obj/../HAL/MCU.c:47
    return 0;
}
    2258:	40b2                	lw	ra,12(sp)
    225a:	4501                	li	a0,0
    225c:	0141                	addi	sp,sp,16
    225e:	8082                	ret

00002260 <Lib_Write_Flash>:
Lib_Write_Flash():
E:\Project\tp78_v2_develop\mounriver_project\RF_CH582M\obj/../HAL/MCU.c:61
 * @param   pBuf - Buffer with data to be written
 *
 * @return  None.
 */
uint32_t Lib_Write_Flash(uint32_t addr, uint32_t num, uint32_t *pBuf)
{
    2260:	1141                	addi	sp,sp,-16
    2262:	c226                	sw	s1,4(sp)
E:\Project\tp78_v2_develop\mounriver_project\RF_CH582M\obj/../HAL/MCU.c:62
    EEPROM_ERASE(addr, num * 4);
    2264:	00259493          	slli	s1,a1,0x2
E:\Project\tp78_v2_develop\mounriver_project\RF_CH582M\obj/../HAL/MCU.c:61
{
    2268:	c422                	sw	s0,8(sp)
    226a:	c04a                	sw	s2,0(sp)
    226c:	842a                	mv	s0,a0
    226e:	8932                	mv	s2,a2
E:\Project\tp78_v2_develop\mounriver_project\RF_CH582M\obj/../HAL/MCU.c:62
    EEPROM_ERASE(addr, num * 4);
    2270:	86a6                	mv	a3,s1
    2272:	85aa                	mv	a1,a0
    2274:	4601                	li	a2,0
    2276:	4525                	li	a0,9
E:\Project\tp78_v2_develop\mounriver_project\RF_CH582M\obj/../HAL/MCU.c:61
{
    2278:	c606                	sw	ra,12(sp)
E:\Project\tp78_v2_develop\mounriver_project\RF_CH582M\obj/../HAL/MCU.c:62
    EEPROM_ERASE(addr, num * 4);
    227a:	1fffe097          	auipc	ra,0x1fffe
    227e:	28e080e7          	jalr	654(ra) # 20000508 <FLASH_EEPROM_CMD>
E:\Project\tp78_v2_develop\mounriver_project\RF_CH582M\obj/../HAL/MCU.c:63
    EEPROM_WRITE(addr, pBuf, num * 4);
    2282:	86a6                	mv	a3,s1
    2284:	864a                	mv	a2,s2
    2286:	85a2                	mv	a1,s0
    2288:	4529                	li	a0,10
    228a:	1fffe097          	auipc	ra,0x1fffe
    228e:	27e080e7          	jalr	638(ra) # 20000508 <FLASH_EEPROM_CMD>
E:\Project\tp78_v2_develop\mounriver_project\RF_CH582M\obj/../HAL/MCU.c:65
    return 0;
}
    2292:	40b2                	lw	ra,12(sp)
    2294:	4422                	lw	s0,8(sp)
    2296:	4492                	lw	s1,4(sp)
    2298:	4902                	lw	s2,0(sp)
    229a:	4501                	li	a0,0
    229c:	0141                	addi	sp,sp,16
    229e:	8082                	ret

000022a0 <HAL_GetInterTempValue>:
HAL_GetInterTempValue():
E:\Project\tp78_v2_develop\mounriver_project\RF_CH582M\obj/../HAL/MCU.c:239
 * @brief   获取内部温感采样值，如果使用了ADC中断采样，需在此函数中暂时屏蔽中断.
 *
 * @return  内部温感采样值.
 */
uint16_t HAL_GetInterTempValue(void)
{
    22a0:	1101                	addi	sp,sp,-32
    22a2:	cc22                	sw	s0,24(sp)
    22a4:	ce06                	sw	ra,28(sp)
E:\Project\tp78_v2_develop\mounriver_project\RF_CH582M\obj/../HAL/MCU.c:243
    uint8_t  sensor, channel, config, tkey_cfg;
    uint16_t adc_data;

    tkey_cfg = R8_TKEY_CFG;
    22a6:	40001437          	lui	s0,0x40001
E:\Project\tp78_v2_develop\mounriver_project\RF_CH582M\obj/../HAL/MCU.c:239
{
    22aa:	ca26                	sw	s1,20(sp)
    22ac:	c84a                	sw	s2,16(sp)
    22ae:	c64e                	sw	s3,12(sp)
    22b0:	c452                	sw	s4,8(sp)
E:\Project\tp78_v2_develop\mounriver_project\RF_CH582M\obj/../HAL/MCU.c:243
    tkey_cfg = R8_TKEY_CFG;
    22b2:	05744483          	lbu	s1,87(s0) # 40001057 <_eusrstack+0x1fff9057>
E:\Project\tp78_v2_develop\mounriver_project\RF_CH582M\obj/../HAL/MCU.c:244
    sensor = R8_TEM_SENSOR;
    22b6:	05b44a03          	lbu	s4,91(s0)
E:\Project\tp78_v2_develop\mounriver_project\RF_CH582M\obj/../HAL/MCU.c:245
    channel = R8_ADC_CHANNEL;
    22ba:	05844983          	lbu	s3,88(s0)
E:\Project\tp78_v2_develop\mounriver_project\RF_CH582M\obj/../HAL/MCU.c:246
    config = R8_ADC_CFG;
    22be:	05944903          	lbu	s2,89(s0)
E:\Project\tp78_v2_develop\mounriver_project\RF_CH582M\obj/../HAL/MCU.c:247
    ADC_InterTSSampInit();
    22c2:	e04ff0ef          	jal	ra,18c6 <ADC_InterTSSampInit>
E:\Project\tp78_v2_develop\mounriver_project\RF_CH582M\obj/../HAL/MCU.c:248
    R8_ADC_CONVERT |= RB_ADC_START;
    22c6:	05a44783          	lbu	a5,90(s0)
E:\Project\tp78_v2_develop\mounriver_project\RF_CH582M\obj/../HAL/MCU.c:243
    tkey_cfg = R8_TKEY_CFG;
    22ca:	0ff4f493          	andi	s1,s1,255
E:\Project\tp78_v2_develop\mounriver_project\RF_CH582M\obj/../HAL/MCU.c:244
    sensor = R8_TEM_SENSOR;
    22ce:	0ffa7a13          	andi	s4,s4,255
E:\Project\tp78_v2_develop\mounriver_project\RF_CH582M\obj/../HAL/MCU.c:248
    R8_ADC_CONVERT |= RB_ADC_START;
    22d2:	0017e793          	ori	a5,a5,1
    22d6:	04f40d23          	sb	a5,90(s0)
E:\Project\tp78_v2_develop\mounriver_project\RF_CH582M\obj/../HAL/MCU.c:245
    channel = R8_ADC_CHANNEL;
    22da:	0ff9f993          	andi	s3,s3,255
E:\Project\tp78_v2_develop\mounriver_project\RF_CH582M\obj/../HAL/MCU.c:246
    config = R8_ADC_CFG;
    22de:	0ff97913          	andi	s2,s2,255
E:\Project\tp78_v2_develop\mounriver_project\RF_CH582M\obj/../HAL/MCU.c:249
    while(R8_ADC_CONVERT & RB_ADC_START);
    22e2:	400017b7          	lui	a5,0x40001
E:\Project\tp78_v2_develop\mounriver_project\RF_CH582M\obj/../HAL/MCU.c:249 (discriminator 1)
    22e6:	05a7c703          	lbu	a4,90(a5) # 4000105a <_eusrstack+0x1fff905a>
    22ea:	8b05                	andi	a4,a4,1
    22ec:	ff6d                	bnez	a4,22e6 <HAL_GetInterTempValue+0x46>
E:\Project\tp78_v2_develop\mounriver_project\RF_CH582M\obj/../HAL/MCU.c:250
    adc_data = R16_ADC_DATA;
    22ee:	05c7d503          	lhu	a0,92(a5)
E:\Project\tp78_v2_develop\mounriver_project\RF_CH582M\obj/../HAL/MCU.c:251
    R8_TEM_SENSOR = sensor;
    22f2:	05478da3          	sb	s4,91(a5)
E:\Project\tp78_v2_develop\mounriver_project\RF_CH582M\obj/../HAL/MCU.c:252
    R8_ADC_CHANNEL = channel;
    22f6:	05378c23          	sb	s3,88(a5)
E:\Project\tp78_v2_develop\mounriver_project\RF_CH582M\obj/../HAL/MCU.c:253
    R8_ADC_CFG = config;
    22fa:	05278ca3          	sb	s2,89(a5)
E:\Project\tp78_v2_develop\mounriver_project\RF_CH582M\obj/../HAL/MCU.c:254
    R8_TKEY_CFG = tkey_cfg;
    22fe:	04978ba3          	sb	s1,87(a5)
E:\Project\tp78_v2_develop\mounriver_project\RF_CH582M\obj/../HAL/MCU.c:256
    return (adc_data);
}
    2302:	40f2                	lw	ra,28(sp)
    2304:	4462                	lw	s0,24(sp)
    2306:	44d2                	lw	s1,20(sp)
    2308:	4942                	lw	s2,16(sp)
    230a:	49b2                	lw	s3,12(sp)
    230c:	4a22                	lw	s4,8(sp)
    230e:	6105                	addi	sp,sp,32
    2310:	8082                	ret

00002312 <HAL_ProcessEvent>:
HAL_ProcessEvent():
E:\Project\tp78_v2_develop\mounriver_project\RF_CH582M\obj/../HAL/MCU.c:155
{
    2312:	1141                	addi	sp,sp,-16
E:\Project\tp78_v2_develop\mounriver_project\RF_CH582M\obj/../HAL/MCU.c:158
    if(events & SYS_EVENT_MSG)
    2314:	01059793          	slli	a5,a1,0x10
E:\Project\tp78_v2_develop\mounriver_project\RF_CH582M\obj/../HAL/MCU.c:155
{
    2318:	c422                	sw	s0,8(sp)
    231a:	c606                	sw	ra,12(sp)
E:\Project\tp78_v2_develop\mounriver_project\RF_CH582M\obj/../HAL/MCU.c:158
    if(events & SYS_EVENT_MSG)
    231c:	87c1                	srai	a5,a5,0x10
E:\Project\tp78_v2_develop\mounriver_project\RF_CH582M\obj/../HAL/MCU.c:155
{
    231e:	842e                	mv	s0,a1
E:\Project\tp78_v2_develop\mounriver_project\RF_CH582M\obj/../HAL/MCU.c:158
    if(events & SYS_EVENT_MSG)
    2320:	0007da63          	bgez	a5,2334 <HAL_ProcessEvent+0x22>
E:\Project\tp78_v2_develop\mounriver_project\RF_CH582M\obj/../HAL/MCU.c:160
        msgPtr = tmos_msg_receive(task_id);
    2324:	2dd000ef          	jal	ra,2e00 <tmos_msg_receive>
E:\Project\tp78_v2_develop\mounriver_project\RF_CH582M\obj/../HAL/MCU.c:161
        if(msgPtr)
    2328:	c119                	beqz	a0,232e <HAL_ProcessEvent+0x1c>
E:\Project\tp78_v2_develop\mounriver_project\RF_CH582M\obj/../HAL/MCU.c:164
            tmos_msg_deallocate(msgPtr);
    232a:	2ab000ef          	jal	ra,2dd4 <tmos_msg_deallocate>
E:\Project\tp78_v2_develop\mounriver_project\RF_CH582M\obj/../HAL/MCU.c:166
        return events ^ SYS_EVENT_MSG;
    232e:	6521                	lui	a0,0x8
E:\Project\tp78_v2_develop\mounriver_project\RF_CH582M\obj/../HAL/MCU.c:198
        return events ^ HAL_TEST_EVENT;
    2330:	8d21                	xor	a0,a0,s0
    2332:	a039                	j	2340 <HAL_ProcessEvent+0x2e>
E:\Project\tp78_v2_develop\mounriver_project\RF_CH582M\obj/../HAL/MCU.c:168
    if(events & LED_BLINK_EVENT)
    2334:	0015f793          	andi	a5,a1,1
    2338:	cb81                	beqz	a5,2348 <HAL_ProcessEvent+0x36>
E:\Project\tp78_v2_develop\mounriver_project\RF_CH582M\obj/../HAL/MCU.c:171
        HalLedUpdate();
    233a:	3b61                	jal	20d2 <HalLedUpdate>
E:\Project\tp78_v2_develop\mounriver_project\RF_CH582M\obj/../HAL/MCU.c:173
        return events ^ LED_BLINK_EVENT;
    233c:	00144513          	xori	a0,s0,1
E:\Project\tp78_v2_develop\mounriver_project\RF_CH582M\obj/../HAL/MCU.c:201
}
    2340:	40b2                	lw	ra,12(sp)
    2342:	4422                	lw	s0,8(sp)
    2344:	0141                	addi	sp,sp,16
    2346:	8082                	ret
E:\Project\tp78_v2_develop\mounriver_project\RF_CH582M\obj/../HAL/MCU.c:183
    if(events & HAL_REG_INIT_EVENT)
    2348:	01259793          	slli	a5,a1,0x12
    234c:	0207d063          	bgez	a5,236c <HAL_ProcessEvent+0x5a>
E:\Project\tp78_v2_develop\mounriver_project\RF_CH582M\obj/../HAL/MCU.c:186
        BLE_RegInit();                                                  // 校准RF
    2350:	395010ef          	jal	ra,3ee4 <BLE_RegInit>
E:\Project\tp78_v2_develop\mounriver_project\RF_CH582M\obj/../HAL/MCU.c:188
        Lib_Calibration_LSI(); // 校准内部RC
    2354:	35ed                	jal	223e <Lib_Calibration_LSI>
E:\Project\tp78_v2_develop\mounriver_project\RF_CH582M\obj/../HAL/MCU.c:190
        tmos_start_task(halTaskID, HAL_REG_INIT_EVENT, MS1_TO_SYSTEM_TIME(BLE_CALIBRATION_PERIOD));
    2356:	0002f637          	lui	a2,0x2f
    235a:	e0060613          	addi	a2,a2,-512 # 2ee00 <_data_lma+0x28770>
    235e:	6589                	lui	a1,0x2
    2360:	8601c503          	lbu	a0,-1952(gp) # 20001878 <halTaskID>
    2364:	605000ef          	jal	ra,3168 <tmos_start_task>
E:\Project\tp78_v2_develop\mounriver_project\RF_CH582M\obj/../HAL/MCU.c:191
        return events ^ HAL_REG_INIT_EVENT;
    2368:	6509                	lui	a0,0x2
    236a:	b7d9                	j	2330 <HAL_ProcessEvent+0x1e>
E:\Project\tp78_v2_develop\mounriver_project\RF_CH582M\obj/../HAL/MCU.c:194
    if(events & HAL_TEST_EVENT)
    236c:	01159793          	slli	a5,a1,0x11
E:\Project\tp78_v2_develop\mounriver_project\RF_CH582M\obj/../HAL/MCU.c:200
    return 0;
    2370:	4501                	li	a0,0
E:\Project\tp78_v2_develop\mounriver_project\RF_CH582M\obj/../HAL/MCU.c:194
    if(events & HAL_TEST_EVENT)
    2372:	fc07d7e3          	bgez	a5,2340 <HAL_ProcessEvent+0x2e>
E:\Project\tp78_v2_develop\mounriver_project\RF_CH582M\obj/../HAL/MCU.c:197
        tmos_start_task(halTaskID, HAL_TEST_EVENT, MS1_TO_SYSTEM_TIME(1000));
    2376:	64000613          	li	a2,1600
    237a:	6591                	lui	a1,0x4
    237c:	8601c503          	lbu	a0,-1952(gp) # 20001878 <halTaskID>
    2380:	5e9000ef          	jal	ra,3168 <tmos_start_task>
E:\Project\tp78_v2_develop\mounriver_project\RF_CH582M\obj/../HAL/MCU.c:198
        return events ^ HAL_TEST_EVENT;
    2384:	6511                	lui	a0,0x4
    2386:	b76d                	j	2330 <HAL_ProcessEvent+0x1e>

00002388 <CH58X_BLEInit>:
CH58X_BLEInit():
E:\Project\tp78_v2_develop\mounriver_project\RF_CH582M\obj/../HAL/MCU.c:78
{
    2388:	711d                	addi	sp,sp,-96
E:\Project\tp78_v2_develop\mounriver_project\RF_CH582M\obj/../HAL/MCU.c:81
    if(tmos_memcmp(VER_LIB, VER_FILE, strlen(VER_FILE)) == FALSE)
    238a:	4649                	li	a2,18
    238c:	00004597          	auipc	a1,0x4
    2390:	16858593          	addi	a1,a1,360 # 64f4 <memcpy+0xee>
    2394:	00004517          	auipc	a0,0x4
    2398:	2e450513          	addi	a0,a0,740 # 6678 <VER_LIB>
E:\Project\tp78_v2_develop\mounriver_project\RF_CH582M\obj/../HAL/MCU.c:78
{
    239c:	ce86                	sw	ra,92(sp)
E:\Project\tp78_v2_develop\mounriver_project\RF_CH582M\obj/../HAL/MCU.c:81
    if(tmos_memcmp(VER_LIB, VER_FILE, strlen(VER_FILE)) == FALSE)
    239e:	1fffe097          	auipc	ra,0x1fffe
    23a2:	564080e7          	jalr	1380(ra) # 20000902 <tmos_memcmp>
    23a6:	e111                	bnez	a0,23aa <CH58X_BLEInit+0x22>
E:\Project\tp78_v2_develop\mounriver_project\RF_CH582M\obj/../HAL/MCU.c:84 (discriminator 1)
        while(1);
    23a8:	a001                	j	23a8 <CH58X_BLEInit+0x20>
SysTick_Config():
E:\Project\tp78_v2_develop\mounriver_project\RF_CH582M\RVMSIS/core_riscv.h:365
RV_STATIC_INLINE uint32_t SysTick_Config(uint64_t ticks)
{
    if((ticks - 1) > SysTick_LOAD_RELOAD_Msk)
        return (1); /* Reload value impossible */

    SysTick->CMP = ticks - 1; /* set reload register */
    23aa:	e000f6b7          	lui	a3,0xe000f
    23ae:	5779                	li	a4,-2
    23b0:	ca98                	sw	a4,16(a3)
    23b2:	57fd                	li	a5,-1
    23b4:	cadc                	sw	a5,20(a3)
PFIC_EnableIRQ():
E:\Project\tp78_v2_develop\mounriver_project\RF_CH582M\RVMSIS/core_riscv.h:110
    PFIC->IENR[((uint32_t)(IRQn) >> 5)] = (1 << ((uint32_t)(IRQn)&0x1F));
    23b6:	6705                	lui	a4,0x1
    23b8:	e000e7b7          	lui	a5,0xe000e
    23bc:	10e7a023          	sw	a4,256(a5) # e000e100 <_eusrstack+0xc0006100>
SysTick_Config():
E:\Project\tp78_v2_develop\mounriver_project\RF_CH582M\RVMSIS/core_riscv.h:367
    PFIC_EnableIRQ(SysTick_IRQn);
    SysTick->CTLR = SysTick_CTLR_INIT |
    23c0:	02f00613          	li	a2,47
    23c4:	c290                	sw	a2,0(a3)
PFIC_DisableIRQ():
E:\Project\tp78_v2_develop\mounriver_project\RF_CH582M\RVMSIS/core_riscv.h:122
    PFIC->IRER[((uint32_t)(IRQn) >> 5)] = (1 << ((uint32_t)(IRQn)&0x1F));
    23c6:	18e7a023          	sw	a4,384(a5)
E:\Project\tp78_v2_develop\mounriver_project\RF_CH582M\RVMSIS/core_riscv.h:123
    __nop();
    23ca:	0001                	nop
E:\Project\tp78_v2_develop\mounriver_project\RF_CH582M\RVMSIS/core_riscv.h:124
    __nop();
    23cc:	0001                	nop
CH58X_BLEInit():
E:\Project\tp78_v2_develop\mounriver_project\RF_CH582M\obj/../HAL/MCU.c:89
    tmos_memset(&cfg, 0, sizeof(bleConfig_t));
    23ce:	03c00613          	li	a2,60
    23d2:	4581                	li	a1,0
    23d4:	0848                	addi	a0,sp,20
    23d6:	1fffe097          	auipc	ra,0x1fffe
    23da:	4d4080e7          	jalr	1236(ra) # 200008aa <tmos_memset>
E:\Project\tp78_v2_develop\mounriver_project\RF_CH582M\obj/../HAL/MCU.c:90
    cfg.MEMAddr = (uint32_t)MEM_BUF;
    23de:	1ffff797          	auipc	a5,0x1ffff
    23e2:	6fe78793          	addi	a5,a5,1790 # 20001adc <MEM_BUF>
    23e6:	ca3e                	sw	a5,20(sp)
E:\Project\tp78_v2_develop\mounriver_project\RF_CH582M\obj/../HAL/MCU.c:91
    cfg.MEMLen = (uint32_t)BLE_MEMHEAP_SIZE;
    23e8:	6789                	lui	a5,0x2
    23ea:	80078793          	addi	a5,a5,-2048 # 1800 <_einit+0x17fc>
    23ee:	00f11c23          	sh	a5,24(sp)
E:\Project\tp78_v2_develop\mounriver_project\RF_CH582M\obj/../HAL/MCU.c:92
    cfg.BufMaxLen = (uint32_t)BLE_BUFF_MAX_LEN;
    23f2:	47ed                	li	a5,27
    23f4:	02f11223          	sh	a5,36(sp)
E:\Project\tp78_v2_develop\mounriver_project\RF_CH582M\obj/../HAL/MCU.c:93
    cfg.BufNumber = (uint32_t)BLE_BUFF_NUM;
    23f8:	4795                	li	a5,5
    23fa:	02f101a3          	sb	a5,35(sp)
E:\Project\tp78_v2_develop\mounriver_project\RF_CH582M\obj/../HAL/MCU.c:94
    cfg.TxNumEvent = (uint32_t)BLE_TX_NUM_EVENT;
    23fe:	4785                	li	a5,1
    2400:	02f10323          	sb	a5,38(sp)
E:\Project\tp78_v2_develop\mounriver_project\RF_CH582M\obj/../HAL/MCU.c:95
    cfg.TxPower = (uint32_t)BLE_TX_POWER;
    2404:	47b5                	li	a5,13
    2406:	02f10423          	sb	a5,40(sp)
E:\Project\tp78_v2_develop\mounriver_project\RF_CH582M\obj/../HAL/MCU.c:97
    cfg.SNVAddr = (uint32_t)BLE_SNV_ADDR;
    240a:	67a1                	lui	a5,0x8
    240c:	e0078793          	addi	a5,a5,-512 # 7e00 <_data_lma+0x1770>
    2410:	ce3e                	sw	a5,28(sp)
E:\Project\tp78_v2_develop\mounriver_project\RF_CH582M\obj/../HAL/MCU.c:98
    cfg.readFlashCB = Lib_Read_Flash;
    2412:	00000797          	auipc	a5,0x0
    2416:	e3278793          	addi	a5,a5,-462 # 2244 <Lib_Read_Flash>
    241a:	c4be                	sw	a5,72(sp)
E:\Project\tp78_v2_develop\mounriver_project\RF_CH582M\obj/../HAL/MCU.c:99
    cfg.writeFlashCB = Lib_Write_Flash;
    241c:	00000797          	auipc	a5,0x0
    2420:	e4478793          	addi	a5,a5,-444 # 2260 <Lib_Write_Flash>
    2424:	c6be                	sw	a5,76(sp)
E:\Project\tp78_v2_develop\mounriver_project\RF_CH582M\obj/../HAL/MCU.c:102
    cfg.SelRTCClock = (uint32_t)CLK_OSC32K;
    2426:	6785                	lui	a5,0x1
    2428:	d0178793          	addi	a5,a5,-767 # d01 <_einit+0xcfd>
    242c:	02f11523          	sh	a5,42(sp)
E:\Project\tp78_v2_develop\mounriver_project\RF_CH582M\obj/../HAL/MCU.c:105
    cfg.srandCB = SYS_GetSysTickCnt;
    2430:	00000797          	auipc	a5,0x0
    2434:	9da78793          	addi	a5,a5,-1574 # 1e0a <SYS_GetSysTickCnt>
    2438:	da3e                	sw	a5,52(sp)
E:\Project\tp78_v2_develop\mounriver_project\RF_CH582M\obj/../HAL/MCU.c:124
        GetMACAddress(MacAddr);
    243a:	0007f5b7          	lui	a1,0x7f
E:\Project\tp78_v2_develop\mounriver_project\RF_CH582M\obj/../HAL/MCU.c:107
    cfg.tsCB = HAL_GetInterTempValue; // 根据温度变化校准RF和内部RC( 大于7摄氏度 )
    243e:	00000797          	auipc	a5,0x0
    2442:	e6278793          	addi	a5,a5,-414 # 22a0 <HAL_GetInterTempValue>
    2446:	de3e                	sw	a5,60(sp)
E:\Project\tp78_v2_develop\mounriver_project\RF_CH582M\obj/../HAL/MCU.c:124
        GetMACAddress(MacAddr);
    2448:	4681                	li	a3,0
E:\Project\tp78_v2_develop\mounriver_project\RF_CH582M\obj/../HAL/MCU.c:109
    cfg.rcCB = Lib_Calibration_LSI; // 内部32K时钟校准
    244a:	00000797          	auipc	a5,0x0
    244e:	df478793          	addi	a5,a5,-524 # 223e <Lib_Calibration_LSI>
E:\Project\tp78_v2_develop\mounriver_project\RF_CH582M\obj/../HAL/MCU.c:124
        GetMACAddress(MacAddr);
    2452:	0070                	addi	a2,sp,12
    2454:	05e1                	addi	a1,a1,24
    2456:	4519                	li	a0,6
E:\Project\tp78_v2_develop\mounriver_project\RF_CH582M\obj/../HAL/MCU.c:109
    cfg.rcCB = Lib_Calibration_LSI; // 内部32K时钟校准
    2458:	c0be                	sw	a5,64(sp)
E:\Project\tp78_v2_develop\mounriver_project\RF_CH582M\obj/../HAL/MCU.c:124
        GetMACAddress(MacAddr);
    245a:	1fffe097          	auipc	ra,0x1fffe
    245e:	0ae080e7          	jalr	174(ra) # 20000508 <FLASH_EEPROM_CMD>
E:\Project\tp78_v2_develop\mounriver_project\RF_CH582M\obj/../HAL/MCU.c:125
        for(i = 0; i < 6; i++)
    2462:	0858                	addi	a4,sp,20
E:\Project\tp78_v2_develop\mounriver_project\RF_CH582M\obj/../HAL/MCU.c:124
        GetMACAddress(MacAddr);
    2464:	4781                	li	a5,0
E:\Project\tp78_v2_develop\mounriver_project\RF_CH582M\obj/../HAL/MCU.c:125
        for(i = 0; i < 6; i++)
    2466:	4699                	li	a3,6
E:\Project\tp78_v2_develop\mounriver_project\RF_CH582M\obj/../HAL/MCU.c:127 (discriminator 3)
            cfg.MacAddr[i] = MacAddr[i]; // 使用芯片mac地址
    2468:	0070                	addi	a2,sp,12
    246a:	963e                	add	a2,a2,a5
    246c:	00064603          	lbu	a2,0(a2)
    2470:	0785                	addi	a5,a5,1
    2472:	0705                	addi	a4,a4,1
    2474:	00c70ca3          	sb	a2,25(a4) # 1019 <_einit+0x1015>
E:\Project\tp78_v2_develop\mounriver_project\RF_CH582M\obj/../HAL/MCU.c:125 (discriminator 3)
        for(i = 0; i < 6; i++)
    2478:	fed798e3          	bne	a5,a3,2468 <CH58X_BLEInit+0xe0>
E:\Project\tp78_v2_develop\mounriver_project\RF_CH582M\obj/../HAL/MCU.c:131
    if(!cfg.MEMAddr || cfg.MEMLen < 4 * 1024)
    247c:	47d2                	lw	a5,20(sp)
    247e:	c791                	beqz	a5,248a <CH58X_BLEInit+0x102>
E:\Project\tp78_v2_develop\mounriver_project\RF_CH582M\obj/../HAL/MCU.c:131 (discriminator 1)
    2480:	01815703          	lhu	a4,24(sp)
    2484:	6785                	lui	a5,0x1
    2486:	00f77363          	bgeu	a4,a5,248c <CH58X_BLEInit+0x104>
E:\Project\tp78_v2_develop\mounriver_project\RF_CH582M\obj/../HAL/MCU.c:133 (discriminator 2)
        while(1);
    248a:	a001                	j	248a <CH58X_BLEInit+0x102>
E:\Project\tp78_v2_develop\mounriver_project\RF_CH582M\obj/../HAL/MCU.c:135
    i = BLE_LibInit(&cfg);
    248c:	0848                	addi	a0,sp,20
    248e:	76f000ef          	jal	ra,33fc <BLE_LibInit>
E:\Project\tp78_v2_develop\mounriver_project\RF_CH582M\obj/../HAL/MCU.c:136
    if(i)
    2492:	c111                	beqz	a0,2496 <CH58X_BLEInit+0x10e>
E:\Project\tp78_v2_develop\mounriver_project\RF_CH582M\obj/../HAL/MCU.c:139 (discriminator 3)
        while(1);
    2494:	a001                	j	2494 <CH58X_BLEInit+0x10c>
E:\Project\tp78_v2_develop\mounriver_project\RF_CH582M\obj/../HAL/MCU.c:141
}
    2496:	40f6                	lw	ra,92(sp)
    2498:	6125                	addi	sp,sp,96
    249a:	8082                	ret

0000249c <HAL_Init>:
HAL_Init():
E:\Project\tp78_v2_develop\mounriver_project\RF_CH582M\obj/../HAL/MCU.c:213
{
    249c:	1141                	addi	sp,sp,-16
E:\Project\tp78_v2_develop\mounriver_project\RF_CH582M\obj/../HAL/MCU.c:214
    halTaskID = TMOS_ProcessEventRegister(HAL_ProcessEvent);
    249e:	00000517          	auipc	a0,0x0
    24a2:	e7450513          	addi	a0,a0,-396 # 2312 <HAL_ProcessEvent>
E:\Project\tp78_v2_develop\mounriver_project\RF_CH582M\obj/../HAL/MCU.c:213
{
    24a6:	c606                	sw	ra,12(sp)
    24a8:	c422                	sw	s0,8(sp)
E:\Project\tp78_v2_develop\mounriver_project\RF_CH582M\obj/../HAL/MCU.c:214
    halTaskID = TMOS_ProcessEventRegister(HAL_ProcessEvent);
    24aa:	717000ef          	jal	ra,33c0 <TMOS_ProcessEventRegister>
    24ae:	86018413          	addi	s0,gp,-1952 # 20001878 <halTaskID>
    24b2:	00a40023          	sb	a0,0(s0)
E:\Project\tp78_v2_develop\mounriver_project\RF_CH582M\obj/../HAL/MCU.c:215
    HAL_TimeInit();
    24b6:	2831                	jal	24d2 <HAL_TimeInit>
E:\Project\tp78_v2_develop\mounriver_project\RF_CH582M\obj/../HAL/MCU.c:220
    HAL_LedInit();
    24b8:	36d5                	jal	209c <HAL_LedInit>
E:\Project\tp78_v2_develop\mounriver_project\RF_CH582M\obj/../HAL/MCU.c:226
    tmos_start_task(halTaskID, HAL_REG_INIT_EVENT, MS1_TO_SYSTEM_TIME(BLE_CALIBRATION_PERIOD)); // 添加校准任务，单次校准耗时小于10ms
    24ba:	00044503          	lbu	a0,0(s0)
E:\Project\tp78_v2_develop\mounriver_project\RF_CH582M\obj/../HAL/MCU.c:229
}
    24be:	4422                	lw	s0,8(sp)
    24c0:	40b2                	lw	ra,12(sp)
E:\Project\tp78_v2_develop\mounriver_project\RF_CH582M\obj/../HAL/MCU.c:226
    tmos_start_task(halTaskID, HAL_REG_INIT_EVENT, MS1_TO_SYSTEM_TIME(BLE_CALIBRATION_PERIOD)); // 添加校准任务，单次校准耗时小于10ms
    24c2:	0002f637          	lui	a2,0x2f
    24c6:	e0060613          	addi	a2,a2,-512 # 2ee00 <_data_lma+0x28770>
    24ca:	6589                	lui	a1,0x2
E:\Project\tp78_v2_develop\mounriver_project\RF_CH582M\obj/../HAL/MCU.c:229
}
    24cc:	0141                	addi	sp,sp,16
E:\Project\tp78_v2_develop\mounriver_project\RF_CH582M\obj/../HAL/MCU.c:226
    tmos_start_task(halTaskID, HAL_REG_INIT_EVENT, MS1_TO_SYSTEM_TIME(BLE_CALIBRATION_PERIOD)); // 添加校准任务，单次校准耗时小于10ms
    24ce:	49b0006f          	j	3168 <tmos_start_task>

000024d2 <HAL_TimeInit>:
HAL_TimeInit():
E:\Project\tp78_v2_develop\mounriver_project\RF_CH582M\obj/../HAL/RTC.c:72
 * @param   None.
 *
 * @return  None.
 */
void HAL_TimeInit(void)
{
    24d2:	1141                	addi	sp,sp,-16
    24d4:	c606                	sw	ra,12(sp)
E:\Project\tp78_v2_develop\mounriver_project\RF_CH582M\obj/../HAL/RTC.c:74
#if(CLK_OSC32K)
    R8_SAFE_ACCESS_SIG = SAFE_ACCESS_SIG1;
    24d6:	400017b7          	lui	a5,0x40001
    24da:	05700713          	li	a4,87
    24de:	04e78023          	sb	a4,64(a5) # 40001040 <_eusrstack+0x1fff9040>
E:\Project\tp78_v2_develop\mounriver_project\RF_CH582M\obj/../HAL/RTC.c:75
    R8_SAFE_ACCESS_SIG = SAFE_ACCESS_SIG2;
    24e2:	fa800713          	li	a4,-88
    24e6:	04e78023          	sb	a4,64(a5)
E:\Project\tp78_v2_develop\mounriver_project\RF_CH582M\obj/../HAL/RTC.c:76
    SAFEOPERATE;
    24ea:	0001                	nop
    24ec:	0001                	nop
E:\Project\tp78_v2_develop\mounriver_project\RF_CH582M\obj/../HAL/RTC.c:77
    R8_CK32K_CONFIG &= ~(RB_CLK_OSC32K_XT | RB_CLK_XT32K_PON);
    24ee:	02f7c703          	lbu	a4,47(a5)
    24f2:	0fa77713          	andi	a4,a4,250
    24f6:	02e787a3          	sb	a4,47(a5)
E:\Project\tp78_v2_develop\mounriver_project\RF_CH582M\obj/../HAL/RTC.c:78
    R8_CK32K_CONFIG |= RB_CLK_INT32K_PON;
    24fa:	02f7c703          	lbu	a4,47(a5)
    24fe:	00276713          	ori	a4,a4,2
    2502:	02e787a3          	sb	a4,47(a5)
E:\Project\tp78_v2_develop\mounriver_project\RF_CH582M\obj/../HAL/RTC.c:79
    R8_SAFE_ACCESS_SIG = 0;
    2506:	04078023          	sb	zero,64(a5)
E:\Project\tp78_v2_develop\mounriver_project\RF_CH582M\obj/../HAL/RTC.c:80
    Lib_Calibration_LSI();
    250a:	3b15                	jal	223e <Lib_Calibration_LSI>
E:\Project\tp78_v2_develop\mounriver_project\RF_CH582M\obj/../HAL/RTC.c:88
    R8_SAFE_ACCESS_SIG = SAFE_ACCESS_SIG2;
    SAFEOPERATE;
    R8_CK32K_CONFIG |= RB_CLK_OSC32K_XT | RB_CLK_INT32K_PON | RB_CLK_XT32K_PON;
    R8_SAFE_ACCESS_SIG = 0;
#endif
    RTC_InitTime(2020, 1, 1, 0, 0, 0); //RTC时钟初始化当前时间
    250c:	7e400513          	li	a0,2020
    2510:	4781                	li	a5,0
    2512:	4701                	li	a4,0
    2514:	4681                	li	a3,0
    2516:	4605                	li	a2,1
    2518:	4585                	li	a1,1
    251a:	e7aff0ef          	jal	ra,1b94 <RTC_InitTime>
E:\Project\tp78_v2_develop\mounriver_project\RF_CH582M\obj/../HAL/RTC.c:90
    TMOS_TimerInit(0);
}
    251e:	40b2                	lw	ra,12(sp)
E:\Project\tp78_v2_develop\mounriver_project\RF_CH582M\obj/../HAL/RTC.c:89
    TMOS_TimerInit(0);
    2520:	4501                	li	a0,0
E:\Project\tp78_v2_develop\mounriver_project\RF_CH582M\obj/../HAL/RTC.c:90
}
    2522:	0141                	addi	sp,sp,16
E:\Project\tp78_v2_develop\mounriver_project\RF_CH582M\obj/../HAL/RTC.c:89
    TMOS_TimerInit(0);
    2524:	1060106f          	j	362a <TMOS_TimerInit>

00002528 <USB_ProcessEvent>:
USB_ProcessEvent():
E:\Project\tp78_v2_develop\mounriver_project\RF_CH582M\obj/../HAL/USB.c:128
  if ( events & START_USB_EVENT )
    2528:	0105f793          	andi	a5,a1,16
    252c:	cb91                	beqz	a5,2540 <USB_ProcessEvent+0x18>
PFIC_EnableIRQ():
E:\Project\tp78_v2_develop\mounriver_project\RF_CH582M\RVMSIS/core_riscv.h:110
    PFIC->IENR[((uint32_t)(IRQn) >> 5)] = (1 << ((uint32_t)(IRQn)&0x1F));
    252e:	e000e7b7          	lui	a5,0xe000e
    2532:	00400737          	lui	a4,0x400
    2536:	10e7a023          	sw	a4,256(a5) # e000e100 <_eusrstack+0xc0006100>
USB_ProcessEvent():
E:\Project\tp78_v2_develop\mounriver_project\RF_CH582M\obj/../HAL/USB.c:131
    return events ^ START_USB_EVENT;
    253a:	0105c513          	xori	a0,a1,16
E:\Project\tp78_v2_develop\mounriver_project\RF_CH582M\obj/../HAL/USB.c:174
}
    253e:	8082                	ret
E:\Project\tp78_v2_develop\mounriver_project\RF_CH582M\obj/../HAL/USB.c:127
{
    2540:	1141                	addi	sp,sp,-16
    2542:	c422                	sw	s0,8(sp)
    2544:	c606                	sw	ra,12(sp)
E:\Project\tp78_v2_develop\mounriver_project\RF_CH582M\obj/../HAL/USB.c:134
  if ( events & USB_MOUSE_EVENT )
    2546:	0025f793          	andi	a5,a1,2
    254a:	842e                	mv	s0,a1
    254c:	c39d                	beqz	a5,2572 <USB_ProcessEvent+0x4a>
E:\Project\tp78_v2_develop\mounriver_project\RF_CH582M\obj/../HAL/USB.c:136
    memcpy(pEP1_IN_DataBuf, (uint8_t*)&HID_dat, 4+1);
    254e:	85c18793          	addi	a5,gp,-1956 # 20001874 <pEP1_RAM_Addr>
    2552:	4388                	lw	a0,0(a5)
    2554:	4615                	li	a2,5
    2556:	9b418593          	addi	a1,gp,-1612 # 200019cc <HID_dat>
    255a:	04050513          	addi	a0,a0,64
    255e:	6a9030ef          	jal	ra,6406 <memcpy>
E:\Project\tp78_v2_develop\mounriver_project\RF_CH582M\obj/../HAL/USB.c:137
    DevEP1_IN_Deal( 4+1 );
    2562:	4515                	li	a0,5
    2564:	3289                	jal	1ea6 <DevEP1_IN_Deal>
E:\Project\tp78_v2_develop\mounriver_project\RF_CH582M\obj/../HAL/USB.c:138
    return events ^ USB_MOUSE_EVENT;
    2566:	00244513          	xori	a0,s0,2
E:\Project\tp78_v2_develop\mounriver_project\RF_CH582M\obj/../HAL/USB.c:174
}
    256a:	40b2                	lw	ra,12(sp)
    256c:	4422                	lw	s0,8(sp)
    256e:	0141                	addi	sp,sp,16
    2570:	8082                	ret
E:\Project\tp78_v2_develop\mounriver_project\RF_CH582M\obj/../HAL/USB.c:141
  if ( events & USB_KEYBOARD_EVENT )
    2572:	0015f793          	andi	a5,a1,1
    2576:	c385                	beqz	a5,2596 <USB_ProcessEvent+0x6e>
E:\Project\tp78_v2_develop\mounriver_project\RF_CH582M\obj/../HAL/USB.c:143
    memcpy(pEP1_IN_DataBuf, (uint8_t*)&HID_dat, 8+1);
    2578:	85c18793          	addi	a5,gp,-1956 # 20001874 <pEP1_RAM_Addr>
    257c:	4388                	lw	a0,0(a5)
    257e:	4625                	li	a2,9
    2580:	9b418593          	addi	a1,gp,-1612 # 200019cc <HID_dat>
    2584:	04050513          	addi	a0,a0,64
    2588:	67f030ef          	jal	ra,6406 <memcpy>
E:\Project\tp78_v2_develop\mounriver_project\RF_CH582M\obj/../HAL/USB.c:144
    DevEP1_IN_Deal( 8+1 );
    258c:	4525                	li	a0,9
    258e:	3a21                	jal	1ea6 <DevEP1_IN_Deal>
E:\Project\tp78_v2_develop\mounriver_project\RF_CH582M\obj/../HAL/USB.c:145
    return events ^ USB_KEYBOARD_EVENT;
    2590:	00144513          	xori	a0,s0,1
    2594:	bfd9                	j	256a <USB_ProcessEvent+0x42>
E:\Project\tp78_v2_develop\mounriver_project\RF_CH582M\obj/../HAL/USB.c:148
  if ( events & USB_VOL_EVENT )
    2596:	0045f793          	andi	a5,a1,4
    259a:	c785                	beqz	a5,25c2 <USB_ProcessEvent+0x9a>
E:\Project\tp78_v2_develop\mounriver_project\RF_CH582M\obj/../HAL/USB.c:150
    memcpy(pEP1_IN_DataBuf, (uint8_t*)&HID_dat, 1+1);
    259c:	9b418713          	addi	a4,gp,-1612 # 200019cc <HID_dat>
    25a0:	85c18793          	addi	a5,gp,-1956 # 20001874 <pEP1_RAM_Addr>
    25a4:	00074683          	lbu	a3,0(a4) # 400000 <_data_lma+0x3f9970>
    25a8:	439c                	lw	a5,0(a5)
E:\Project\tp78_v2_develop\mounriver_project\RF_CH582M\obj/../HAL/USB.c:151
    DevEP1_IN_Deal( 1+1 );
    25aa:	4509                	li	a0,2
E:\Project\tp78_v2_develop\mounriver_project\RF_CH582M\obj/../HAL/USB.c:150
    memcpy(pEP1_IN_DataBuf, (uint8_t*)&HID_dat, 1+1);
    25ac:	04d78023          	sb	a3,64(a5)
    25b0:	00174703          	lbu	a4,1(a4)
    25b4:	04e780a3          	sb	a4,65(a5)
E:\Project\tp78_v2_develop\mounriver_project\RF_CH582M\obj/../HAL/USB.c:151
    DevEP1_IN_Deal( 1+1 );
    25b8:	8efff0ef          	jal	ra,1ea6 <DevEP1_IN_Deal>
E:\Project\tp78_v2_develop\mounriver_project\RF_CH582M\obj/../HAL/USB.c:152
    return events ^ USB_VOL_EVENT;
    25bc:	00444513          	xori	a0,s0,4
    25c0:	b76d                	j	256a <USB_ProcessEvent+0x42>
E:\Project\tp78_v2_develop\mounriver_project\RF_CH582M\obj/../HAL/USB.c:155
  if ( events & USB_DIAL_EVENT )
    25c2:	0085f793          	andi	a5,a1,8
    25c6:	c38d                	beqz	a5,25e8 <USB_ProcessEvent+0xc0>
E:\Project\tp78_v2_develop\mounriver_project\RF_CH582M\obj/../HAL/USB.c:157
    memcpy(pEP1_IN_DataBuf, (uint8_t*)&HID_dat, 2+1);
    25c8:	85c18793          	addi	a5,gp,-1956 # 20001874 <pEP1_RAM_Addr>
    25cc:	4388                	lw	a0,0(a5)
    25ce:	460d                	li	a2,3
    25d0:	9b418593          	addi	a1,gp,-1612 # 200019cc <HID_dat>
    25d4:	04050513          	addi	a0,a0,64
    25d8:	62f030ef          	jal	ra,6406 <memcpy>
E:\Project\tp78_v2_develop\mounriver_project\RF_CH582M\obj/../HAL/USB.c:158
    DevEP1_IN_Deal( 2+1 );
    25dc:	450d                	li	a0,3
    25de:	8c9ff0ef          	jal	ra,1ea6 <DevEP1_IN_Deal>
E:\Project\tp78_v2_develop\mounriver_project\RF_CH582M\obj/../HAL/USB.c:159
    return events ^ USB_DIAL_EVENT;
    25e2:	00844513          	xori	a0,s0,8
    25e6:	b751                	j	256a <USB_ProcessEvent+0x42>
E:\Project\tp78_v2_develop\mounriver_project\RF_CH582M\obj/../HAL/USB.c:162
  if ( events & USB_TEST_EVENT )
    25e8:	01359793          	slli	a5,a1,0x13
E:\Project\tp78_v2_develop\mounriver_project\RF_CH582M\obj/../HAL/USB.c:173
  return 0;
    25ec:	4501                	li	a0,0
E:\Project\tp78_v2_develop\mounriver_project\RF_CH582M\obj/../HAL/USB.c:162
  if ( events & USB_TEST_EVENT )
    25ee:	f607dee3          	bgez	a5,256a <USB_ProcessEvent+0x42>
E:\Project\tp78_v2_develop\mounriver_project\RF_CH582M\obj/../HAL/USB.c:164
    HID_dat.label = MOUSE_REPORT_ID;
    25f2:	4789                	li	a5,2
    25f4:	9af18a23          	sb	a5,-1612(gp) # 200019cc <HID_dat>
E:\Project\tp78_v2_develop\mounriver_project\RF_CH582M\obj/../HAL/USB.c:165
    HID_dat.Mouse[1] = 2;
    25f8:	9af18b23          	sb	a5,-1610(gp) # 200019ce <HID_dat+0x2>
E:\Project\tp78_v2_develop\mounriver_project\RF_CH582M\obj/../HAL/USB.c:166
    HID_dat.Mouse[2] = 2;
    25fc:	9af18ba3          	sb	a5,-1609(gp) # 200019cf <HID_dat+0x3>
E:\Project\tp78_v2_develop\mounriver_project\RF_CH582M\obj/../HAL/USB.c:167
    memcpy(pEP2_IN_DataBuf, &HID_dat, 4+1);
    2600:	85018793          	addi	a5,gp,-1968 # 20001868 <pEP2_RAM_Addr>
    2604:	4388                	lw	a0,0(a5)
    2606:	4615                	li	a2,5
    2608:	9b418593          	addi	a1,gp,-1612 # 200019cc <HID_dat>
    260c:	04050513          	addi	a0,a0,64
    2610:	5f7030ef          	jal	ra,6406 <memcpy>
E:\Project\tp78_v2_develop\mounriver_project\RF_CH582M\obj/../HAL/USB.c:168
    DevEP2_IN_Deal( 4+1 );
    2614:	4515                	li	a0,5
    2616:	8a7ff0ef          	jal	ra,1ebc <DevEP2_IN_Deal>
E:\Project\tp78_v2_develop\mounriver_project\RF_CH582M\obj/../HAL/USB.c:169
    tmos_start_task(usbTaskID, USB_TEST_EVENT, MS1_TO_SYSTEM_TIME(500));
    261a:	6585                	lui	a1,0x1
    261c:	32000613          	li	a2,800
    2620:	1ffff517          	auipc	a0,0x1ffff
    2624:	1f854503          	lbu	a0,504(a0) # 20001818 <usbTaskID>
    2628:	341000ef          	jal	ra,3168 <tmos_start_task>
E:\Project\tp78_v2_develop\mounriver_project\RF_CH582M\obj/../HAL/USB.c:170
    return events ^ USB_TEST_EVENT;
    262c:	6585                	lui	a1,0x1
    262e:	00b44533          	xor	a0,s0,a1
    2632:	bf25                	j	256a <USB_ProcessEvent+0x42>

00002634 <HAL_USBInit>:
HAL_USBInit():
E:\Project\tp78_v2_develop\mounriver_project\RF_CH582M\obj/../HAL/USB.c:183
{
    2634:	1141                	addi	sp,sp,-16
E:\Project\tp78_v2_develop\mounriver_project\RF_CH582M\obj/../HAL/USB.c:184
  usbTaskID = TMOS_ProcessEventRegister( USB_ProcessEvent );
    2636:	00000517          	auipc	a0,0x0
    263a:	ef250513          	addi	a0,a0,-270 # 2528 <USB_ProcessEvent>
E:\Project\tp78_v2_develop\mounriver_project\RF_CH582M\obj/../HAL/USB.c:183
{
    263e:	c606                	sw	ra,12(sp)
    2640:	c422                	sw	s0,8(sp)
E:\Project\tp78_v2_develop\mounriver_project\RF_CH582M\obj/../HAL/USB.c:184
  usbTaskID = TMOS_ProcessEventRegister( USB_ProcessEvent );
    2642:	57f000ef          	jal	ra,33c0 <TMOS_ProcessEventRegister>
E:\Project\tp78_v2_develop\mounriver_project\RF_CH582M\obj/../HAL/USB.c:185
  pEP0_RAM_Addr = EP0_Databuf;
    2646:	1ffff797          	auipc	a5,0x1ffff
    264a:	24678793          	addi	a5,a5,582 # 2000188c <EP0_Databuf>
    264e:	84f1ac23          	sw	a5,-1960(gp) # 20001870 <pEP0_RAM_Addr>
E:\Project\tp78_v2_develop\mounriver_project\RF_CH582M\obj/../HAL/USB.c:186
  pEP1_RAM_Addr = EP1_Databuf;
    2652:	93418793          	addi	a5,gp,-1740 # 2000194c <EP1_Databuf>
    2656:	84f1ae23          	sw	a5,-1956(gp) # 20001874 <pEP1_RAM_Addr>
E:\Project\tp78_v2_develop\mounriver_project\RF_CH582M\obj/../HAL/USB.c:187
  pEP2_RAM_Addr = EP2_Databuf;
    265a:	9c018793          	addi	a5,gp,-1600 # 200019d8 <EP2_Databuf>
E:\Project\tp78_v2_develop\mounriver_project\RF_CH582M\obj/../HAL/USB.c:184
  usbTaskID = TMOS_ProcessEventRegister( USB_ProcessEvent );
    265e:	1ffff417          	auipc	s0,0x1ffff
    2662:	1ba40413          	addi	s0,s0,442 # 20001818 <usbTaskID>
E:\Project\tp78_v2_develop\mounriver_project\RF_CH582M\obj/../HAL/USB.c:187
  pEP2_RAM_Addr = EP2_Databuf;
    2666:	84f1a823          	sw	a5,-1968(gp) # 20001868 <pEP2_RAM_Addr>
E:\Project\tp78_v2_develop\mounriver_project\RF_CH582M\obj/../HAL/USB.c:188
  pEP3_RAM_Addr = EP3_Databuf;
    266a:	a4018793          	addi	a5,gp,-1472 # 20001a58 <EP3_Databuf>
E:\Project\tp78_v2_develop\mounriver_project\RF_CH582M\obj/../HAL/USB.c:184
  usbTaskID = TMOS_ProcessEventRegister( USB_ProcessEvent );
    266e:	00a40023          	sb	a0,0(s0)
E:\Project\tp78_v2_develop\mounriver_project\RF_CH582M\obj/../HAL/USB.c:188
  pEP3_RAM_Addr = EP3_Databuf;
    2672:	84f1aa23          	sw	a5,-1964(gp) # 2000186c <pEP3_RAM_Addr>
E:\Project\tp78_v2_develop\mounriver_project\RF_CH582M\obj/../HAL/USB.c:189
  USB_DeviceInit();
    2676:	fb2ff0ef          	jal	ra,1e28 <USB_DeviceInit>
E:\Project\tp78_v2_develop\mounriver_project\RF_CH582M\obj/../HAL/USB.c:190
  tmos_start_task( usbTaskID, START_USB_EVENT, 0 );
    267a:	00044503          	lbu	a0,0(s0)
E:\Project\tp78_v2_develop\mounriver_project\RF_CH582M\obj/../HAL/USB.c:191
}
    267e:	4422                	lw	s0,8(sp)
    2680:	40b2                	lw	ra,12(sp)
E:\Project\tp78_v2_develop\mounriver_project\RF_CH582M\obj/../HAL/USB.c:190
  tmos_start_task( usbTaskID, START_USB_EVENT, 0 );
    2682:	4601                	li	a2,0
    2684:	45c1                	li	a1,16
E:\Project\tp78_v2_develop\mounriver_project\RF_CH582M\obj/../HAL/USB.c:191
}
    2686:	0141                	addi	sp,sp,16
E:\Project\tp78_v2_develop\mounriver_project\RF_CH582M\obj/../HAL/USB.c:190
  tmos_start_task( usbTaskID, START_USB_EVENT, 0 );
    2688:	2e10006f          	j	3168 <tmos_start_task>

0000268c <DevEP1_OUT_Deal>:
DevEP1_OUT_Deal():
E:\Project\tp78_v2_develop\mounriver_project\RF_CH582M\obj/../HAL/USB.c:533
  for ( i = 0; i < l; i++ )
    268c:	4781                	li	a5,0
E:\Project\tp78_v2_develop\mounriver_project\RF_CH582M\obj/../HAL/USB.c:535
    pEP1_IN_DataBuf[i] = ~pEP1_OUT_DataBuf[i];
    268e:	85c18613          	addi	a2,gp,-1956 # 20001874 <pEP1_RAM_Addr>
E:\Project\tp78_v2_develop\mounriver_project\RF_CH582M\obj/../HAL/USB.c:533 (discriminator 1)
  for ( i = 0; i < l; i++ )
    2692:	0ff7f713          	andi	a4,a5,255
    2696:	00a76463          	bltu	a4,a0,269e <DevEP1_OUT_Deal+0x12>
E:\Project\tp78_v2_develop\mounriver_project\RF_CH582M\obj/../HAL/USB.c:537
  DevEP1_IN_Deal( l );
    269a:	80dff06f          	j	1ea6 <DevEP1_IN_Deal>
E:\Project\tp78_v2_develop\mounriver_project\RF_CH582M\obj/../HAL/USB.c:535 (discriminator 3)
    pEP1_IN_DataBuf[i] = ~pEP1_OUT_DataBuf[i];
    269e:	4218                	lw	a4,0(a2)
    26a0:	973e                	add	a4,a4,a5
    26a2:	00074683          	lbu	a3,0(a4)
    26a6:	0785                	addi	a5,a5,1
    26a8:	fff6c693          	not	a3,a3
    26ac:	04d70023          	sb	a3,64(a4)
    26b0:	b7cd                	j	2692 <DevEP1_OUT_Deal+0x6>

000026b2 <DevEP2_OUT_Deal>:
DevEP2_OUT_Deal():
E:\Project\tp78_v2_develop\mounriver_project\RF_CH582M\obj/../HAL/USB.c:550
  for ( i = 0; i < l; i++ )
    26b2:	4781                	li	a5,0
E:\Project\tp78_v2_develop\mounriver_project\RF_CH582M\obj/../HAL/USB.c:552
    pEP2_IN_DataBuf[i] = ~pEP2_OUT_DataBuf[i];
    26b4:	85018613          	addi	a2,gp,-1968 # 20001868 <pEP2_RAM_Addr>
E:\Project\tp78_v2_develop\mounriver_project\RF_CH582M\obj/../HAL/USB.c:550 (discriminator 1)
  for ( i = 0; i < l; i++ )
    26b8:	0ff7f713          	andi	a4,a5,255
    26bc:	00a76463          	bltu	a4,a0,26c4 <DevEP2_OUT_Deal+0x12>
E:\Project\tp78_v2_develop\mounriver_project\RF_CH582M\obj/../HAL/USB.c:554
  DevEP2_IN_Deal( l );
    26c0:	ffcff06f          	j	1ebc <DevEP2_IN_Deal>
E:\Project\tp78_v2_develop\mounriver_project\RF_CH582M\obj/../HAL/USB.c:552 (discriminator 3)
    pEP2_IN_DataBuf[i] = ~pEP2_OUT_DataBuf[i];
    26c4:	4218                	lw	a4,0(a2)
    26c6:	973e                	add	a4,a4,a5
    26c8:	00074683          	lbu	a3,0(a4)
    26cc:	0785                	addi	a5,a5,1
    26ce:	fff6c693          	not	a3,a3
    26d2:	04d70023          	sb	a3,64(a4)
    26d6:	b7cd                	j	26b8 <DevEP2_OUT_Deal+0x6>

000026d8 <DevEP3_OUT_Deal>:
DevEP3_OUT_Deal():
E:\Project\tp78_v2_develop\mounriver_project\RF_CH582M\obj/../HAL/USB.c:567
  for ( i = 0; i < l; i++ )
    26d8:	4781                	li	a5,0
E:\Project\tp78_v2_develop\mounriver_project\RF_CH582M\obj/../HAL/USB.c:569
    pEP3_IN_DataBuf[i] = ~pEP3_OUT_DataBuf[i];
    26da:	85418613          	addi	a2,gp,-1964 # 2000186c <pEP3_RAM_Addr>
E:\Project\tp78_v2_develop\mounriver_project\RF_CH582M\obj/../HAL/USB.c:567 (discriminator 1)
  for ( i = 0; i < l; i++ )
    26de:	0ff7f713          	andi	a4,a5,255
    26e2:	00a76463          	bltu	a4,a0,26ea <DevEP3_OUT_Deal+0x12>
E:\Project\tp78_v2_develop\mounriver_project\RF_CH582M\obj/../HAL/USB.c:571
  DevEP3_IN_Deal( l );
    26e6:	fecff06f          	j	1ed2 <DevEP3_IN_Deal>
E:\Project\tp78_v2_develop\mounriver_project\RF_CH582M\obj/../HAL/USB.c:569 (discriminator 3)
    pEP3_IN_DataBuf[i] = ~pEP3_OUT_DataBuf[i];
    26ea:	4218                	lw	a4,0(a2)
    26ec:	973e                	add	a4,a4,a5
    26ee:	00074683          	lbu	a3,0(a4)
    26f2:	0785                	addi	a5,a5,1
    26f4:	fff6c693          	not	a3,a3
    26f8:	04d70023          	sb	a3,64(a4)
    26fc:	b7cd                	j	26de <DevEP3_OUT_Deal+0x6>

000026fe <DevEP4_OUT_Deal>:
DevEP4_OUT_Deal():
E:\Project\tp78_v2_develop\mounriver_project\RF_CH582M\obj/../HAL/USB.c:584
  for ( i = 0; i < l; i++ )
    26fe:	4781                	li	a5,0
E:\Project\tp78_v2_develop\mounriver_project\RF_CH582M\obj/../HAL/USB.c:586
    pEP4_IN_DataBuf[i] = ~pEP4_OUT_DataBuf[i];
    2700:	85818613          	addi	a2,gp,-1960 # 20001870 <pEP0_RAM_Addr>
E:\Project\tp78_v2_develop\mounriver_project\RF_CH582M\obj/../HAL/USB.c:584 (discriminator 1)
  for ( i = 0; i < l; i++ )
    2704:	0ff7f713          	andi	a4,a5,255
    2708:	00a76463          	bltu	a4,a0,2710 <DevEP4_OUT_Deal+0x12>
E:\Project\tp78_v2_develop\mounriver_project\RF_CH582M\obj/../HAL/USB.c:588
  DevEP4_IN_Deal( l );
    270c:	fdcff06f          	j	1ee8 <DevEP4_IN_Deal>
E:\Project\tp78_v2_develop\mounriver_project\RF_CH582M\obj/../HAL/USB.c:586 (discriminator 3)
    pEP4_IN_DataBuf[i] = ~pEP4_OUT_DataBuf[i];
    2710:	4218                	lw	a4,0(a2)
    2712:	973e                	add	a4,a4,a5
    2714:	04074683          	lbu	a3,64(a4)
    2718:	0785                	addi	a5,a5,1
    271a:	fff6c693          	not	a3,a3
    271e:	08d70023          	sb	a3,128(a4)
    2722:	b7cd                	j	2704 <DevEP4_OUT_Deal+0x6>

00002724 <USB_DevTransProcess>:
USB_DevTransProcess():
E:\Project\tp78_v2_develop\mounriver_project\RF_CH582M\obj/../HAL/USB.c:204
  intflag = R8_USB_INT_FG;
    2724:	400087b7          	lui	a5,0x40008
    2728:	0067c703          	lbu	a4,6(a5) # 40008006 <_eusrstack+0x20000006>
    272c:	0ff77713          	andi	a4,a4,255
E:\Project\tp78_v2_develop\mounriver_project\RF_CH582M\obj/../HAL/USB.c:205
  if ( intflag & RB_UIF_TRANSFER )
    2730:	00277693          	andi	a3,a4,2
    2734:	46068863          	beqz	a3,2ba4 <USB_DevTransProcess+0x480>
E:\Project\tp78_v2_develop\mounriver_project\RF_CH582M\obj/../HAL/USB.c:200
{
    2738:	1101                	addi	sp,sp,-32
    273a:	ce06                	sw	ra,28(sp)
    273c:	cc22                	sw	s0,24(sp)
    273e:	ca26                	sw	s1,20(sp)
    2740:	c84a                	sw	s2,16(sp)
    2742:	c64e                	sw	s3,12(sp)
E:\Project\tp78_v2_develop\mounriver_project\RF_CH582M\obj/../HAL/USB.c:207
    if ( ( R8_USB_INT_ST & MASK_UIS_TOKEN ) != MASK_UIS_TOKEN )    // 非空闲
    2744:	0077c703          	lbu	a4,7(a5)
    2748:	03000693          	li	a3,48
    274c:	03077713          	andi	a4,a4,48
    2750:	02d70b63          	beq	a4,a3,2786 <USB_DevTransProcess+0x62>
E:\Project\tp78_v2_develop\mounriver_project\RF_CH582M\obj/../HAL/USB.c:209
      switch ( R8_USB_INT_ST & ( MASK_UIS_TOKEN | MASK_UIS_ENDP ) )
    2754:	0077c703          	lbu	a4,7(a5)
    2758:	4691                	li	a3,4
    275a:	03f77713          	andi	a4,a4,63
    275e:	22d70363          	beq	a4,a3,2984 <USB_DevTransProcess+0x260>
    2762:	0ae6e463          	bltu	a3,a4,280a <USB_DevTransProcess+0xe6>
    2766:	4685                	li	a3,1
    2768:	1ad70e63          	beq	a4,a3,2924 <USB_DevTransProcess+0x200>
    276c:	18070163          	beqz	a4,28ee <USB_DevTransProcess+0x1ca>
    2770:	4689                	li	a3,2
    2772:	1cd70363          	beq	a4,a3,2938 <USB_DevTransProcess+0x214>
    2776:	468d                	li	a3,3
    2778:	1ed70363          	beq	a4,a3,295e <USB_DevTransProcess+0x23a>
E:\Project\tp78_v2_develop\mounriver_project\RF_CH582M\obj/../HAL/USB.c:319
      R8_USB_INT_FG = RB_UIF_TRANSFER;
    277c:	400087b7          	lui	a5,0x40008
    2780:	4709                	li	a4,2
    2782:	00e78323          	sb	a4,6(a5) # 40008006 <_eusrstack+0x20000006>
E:\Project\tp78_v2_develop\mounriver_project\RF_CH582M\obj/../HAL/USB.c:321
    if ( R8_USB_INT_ST & RB_UIS_SETUP_ACT )                  // Setup包处理
    2786:	40008737          	lui	a4,0x40008
    278a:	00774783          	lbu	a5,7(a4) # 40008007 <_eusrstack+0x20000007>
    278e:	07e2                	slli	a5,a5,0x18
    2790:	87e1                	srai	a5,a5,0x18
    2792:	2e07d463          	bgez	a5,2a7a <USB_DevTransProcess+0x356>
E:\Project\tp78_v2_develop\mounriver_project\RF_CH582M\obj/../HAL/USB.c:323
      R8_UEP0_CTRL = RB_UEP_R_TOG | RB_UEP_T_TOG | UEP_R_RES_ACK | UEP_T_RES_NAK;
    2796:	fc200793          	li	a5,-62
    279a:	02f70123          	sb	a5,34(a4)
E:\Project\tp78_v2_develop\mounriver_project\RF_CH582M\obj/../HAL/USB.c:324
      SetupReqLen = pSetupReqPak->wLength;
    279e:	85818693          	addi	a3,gp,-1960 # 20001870 <pEP0_RAM_Addr>
    27a2:	4288                	lw	a0,0(a3)
    27a4:	00754703          	lbu	a4,7(a0)
    27a8:	00654783          	lbu	a5,6(a0)
    27ac:	0722                	slli	a4,a4,0x8
    27ae:	8f5d                	or	a4,a4,a5
    27b0:	86e19523          	sh	a4,-1942(gp) # 20001882 <SetupReqLen>
E:\Project\tp78_v2_develop\mounriver_project\RF_CH582M\obj/../HAL/USB.c:325
      SetupReqCode = pSetupReqPak->bRequest;
    27b4:	00154783          	lbu	a5,1(a0)
    27b8:	86f18623          	sb	a5,-1940(gp) # 20001884 <SetupReqCode>
E:\Project\tp78_v2_develop\mounriver_project\RF_CH582M\obj/../HAL/USB.c:326
      chtype = pSetupReqPak->bRequestType;
    27bc:	00054903          	lbu	s2,0(a0)
E:\Project\tp78_v2_develop\mounriver_project\RF_CH582M\obj/../HAL/USB.c:330
      if ( ( pSetupReqPak->bRequestType & USB_REQ_TYP_MASK ) != USB_REQ_TYP_STANDARD )
    27c0:	06097613          	andi	a2,s2,96
    27c4:	1e060063          	beqz	a2,29a4 <USB_DevTransProcess+0x280>
E:\Project\tp78_v2_develop\mounriver_project\RF_CH582M\obj/../HAL/USB.c:332
        switch ( SetupReqCode )
    27c8:	17dd                	addi	a5,a5,-9
    27ca:	4705                	li	a4,1
    27cc:	28f76c63          	bltu	a4,a5,2a64 <USB_DevTransProcess+0x340>
E:\Project\tp78_v2_develop\mounriver_project\RF_CH582M\obj/../HAL/USB.c:481
        if ( chtype & 0x80 )     // 上传
    27d0:	0962                	slli	s2,s2,0x18
    27d2:	41895913          	srai	s2,s2,0x18
E:\Project\tp78_v2_develop\mounriver_project\RF_CH582M\obj/../HAL/USB.c:488
          len = 0;        // 下传
    27d6:	4681                	li	a3,0
E:\Project\tp78_v2_develop\mounriver_project\RF_CH582M\obj/../HAL/USB.c:481
        if ( chtype & 0x80 )     // 上传
    27d8:	02095263          	bgez	s2,27fc <USB_DevTransProcess+0xd8>
E:\Project\tp78_v2_develop\mounriver_project\RF_CH582M\obj/../HAL/USB.c:484
              DevEP0SIZE : SetupReqLen;
    27dc:	86a1d783          	lhu	a5,-1942(gp) # 20001882 <SetupReqLen>
    27e0:	04000693          	li	a3,64
    27e4:	873e                	mv	a4,a5
    27e6:	00f6f463          	bgeu	a3,a5,27ee <USB_DevTransProcess+0xca>
    27ea:	04000713          	li	a4,64
    27ee:	0742                	slli	a4,a4,0x10
    27f0:	8341                	srli	a4,a4,0x10
E:\Project\tp78_v2_develop\mounriver_project\RF_CH582M\obj/../HAL/USB.c:485
          SetupReqLen -= len;
    27f2:	8f99                	sub	a5,a5,a4
E:\Project\tp78_v2_develop\mounriver_project\RF_CH582M\obj/../HAL/USB.c:483
          len = ( SetupReqLen > DevEP0SIZE ) ?
    27f4:	0ff77693          	andi	a3,a4,255
E:\Project\tp78_v2_develop\mounriver_project\RF_CH582M\obj/../HAL/USB.c:485
          SetupReqLen -= len;
    27f8:	86f19523          	sh	a5,-1942(gp) # 20001882 <SetupReqLen>
E:\Project\tp78_v2_develop\mounriver_project\RF_CH582M\obj/../HAL/USB.c:489
        R8_UEP0_T_LEN = len;
    27fc:	400087b7          	lui	a5,0x40008
    2800:	02d78023          	sb	a3,32(a5) # 40008020 <_eusrstack+0x20000020>
E:\Project\tp78_v2_develop\mounriver_project\RF_CH582M\obj/../HAL/USB.c:490
        R8_UEP0_CTRL = RB_UEP_R_TOG | RB_UEP_T_TOG | UEP_R_RES_ACK | UEP_T_RES_ACK;    // 默认数据包是DATA1
    2804:	fc000713          	li	a4,-64
    2808:	a495                	j	2a6c <USB_DevTransProcess+0x348>
    280a:	02200693          	li	a3,34
    280e:	12d70f63          	beq	a4,a3,294c <USB_DevTransProcess+0x228>
    2812:	02e6e363          	bltu	a3,a4,2838 <USB_DevTransProcess+0x114>
    2816:	02000693          	li	a3,32
    281a:	04d70663          	beq	a4,a3,2866 <USB_DevTransProcess+0x142>
    281e:	02100693          	li	a3,33
    2822:	f4d71de3          	bne	a4,a3,277c <USB_DevTransProcess+0x58>
E:\Project\tp78_v2_develop\mounriver_project\RF_CH582M\obj/../HAL/USB.c:269
          R8_UEP1_CTRL = ( R8_UEP1_CTRL & ~MASK_UEP_T_RES ) | UEP_T_RES_NAK;
    2826:	0267c703          	lbu	a4,38(a5)
    282a:	0fc77713          	andi	a4,a4,252
    282e:	00276713          	ori	a4,a4,2
    2832:	02e78323          	sb	a4,38(a5)
E:\Project\tp78_v2_develop\mounriver_project\RF_CH582M\obj/../HAL/USB.c:270
          break;
    2836:	b799                	j	277c <USB_DevTransProcess+0x58>
    2838:	02300693          	li	a3,35
    283c:	12d70b63          	beq	a4,a3,2972 <USB_DevTransProcess+0x24e>
    2840:	02400693          	li	a3,36
    2844:	f2d71ce3          	bne	a4,a3,277c <USB_DevTransProcess+0x58>
E:\Project\tp78_v2_develop\mounriver_project\RF_CH582M\obj/../HAL/USB.c:312
          R8_UEP4_CTRL ^= RB_UEP_T_TOG;
    2848:	0327c703          	lbu	a4,50(a5)
    284c:	04074713          	xori	a4,a4,64
    2850:	02e78923          	sb	a4,50(a5)
E:\Project\tp78_v2_develop\mounriver_project\RF_CH582M\obj/../HAL/USB.c:313
          R8_UEP4_CTRL = ( R8_UEP4_CTRL & ~MASK_UEP_T_RES ) | UEP_T_RES_NAK;
    2854:	0327c703          	lbu	a4,50(a5)
    2858:	0fc77713          	andi	a4,a4,252
    285c:	00276713          	ori	a4,a4,2
    2860:	02e78923          	sb	a4,50(a5)
E:\Project\tp78_v2_develop\mounriver_project\RF_CH582M\obj/../HAL/USB.c:314
          break;
    2864:	bf21                	j	277c <USB_DevTransProcess+0x58>
E:\Project\tp78_v2_develop\mounriver_project\RF_CH582M\obj/../HAL/USB.c:214
          switch ( SetupReqCode )
    2866:	86c1c703          	lbu	a4,-1940(gp) # 20001884 <SetupReqCode>
    286a:	4695                	li	a3,5
    286c:	06d70363          	beq	a4,a3,28d2 <USB_DevTransProcess+0x1ae>
    2870:	4699                	li	a3,6
    2872:	06d71b63          	bne	a4,a3,28e8 <USB_DevTransProcess+0x1c4>
E:\Project\tp78_v2_develop\mounriver_project\RF_CH582M\obj/../HAL/USB.c:218
                  DevEP0SIZE : SetupReqLen;    // 本次传输长度
    2876:	86a18793          	addi	a5,gp,-1942 # 20001882 <SetupReqLen>
    287a:	0007d403          	lhu	s0,0(a5)
    287e:	04000713          	li	a4,64
    2882:	84be                	mv	s1,a5
    2884:	00877463          	bgeu	a4,s0,288c <USB_DevTransProcess+0x168>
    2888:	04000413          	li	s0,64
E:\Project\tp78_v2_develop\mounriver_project\RF_CH582M\obj/../HAL/USB.c:219
              memcpy( pEP0_DataBuf, pDescr, len ); /* 加载上传数据 */
    288c:	85818793          	addi	a5,gp,-1960 # 20001870 <pEP0_RAM_Addr>
    2890:	87018913          	addi	s2,gp,-1936 # 20001888 <pDescr>
    2894:	4388                	lw	a0,0(a5)
E:\Project\tp78_v2_develop\mounriver_project\RF_CH582M\obj/../HAL/USB.c:218
                  DevEP0SIZE : SetupReqLen;    // 本次传输长度
    2896:	0442                	slli	s0,s0,0x10
E:\Project\tp78_v2_develop\mounriver_project\RF_CH582M\obj/../HAL/USB.c:219
              memcpy( pEP0_DataBuf, pDescr, len ); /* 加载上传数据 */
    2898:	00092583          	lw	a1,0(s2)
E:\Project\tp78_v2_develop\mounriver_project\RF_CH582M\obj/../HAL/USB.c:218
                  DevEP0SIZE : SetupReqLen;    // 本次传输长度
    289c:	8041                	srli	s0,s0,0x10
E:\Project\tp78_v2_develop\mounriver_project\RF_CH582M\obj/../HAL/USB.c:219
              memcpy( pEP0_DataBuf, pDescr, len ); /* 加载上传数据 */
    289e:	8622                	mv	a2,s0
    28a0:	367030ef          	jal	ra,6406 <memcpy>
E:\Project\tp78_v2_develop\mounriver_project\RF_CH582M\obj/../HAL/USB.c:220
              SetupReqLen -= len;
    28a4:	0004d783          	lhu	a5,0(s1)
E:\Project\tp78_v2_develop\mounriver_project\RF_CH582M\obj/../HAL/USB.c:217
              len = SetupReqLen >= DevEP0SIZE ?
    28a8:	0ff47993          	andi	s3,s0,255
E:\Project\tp78_v2_develop\mounriver_project\RF_CH582M\obj/../HAL/USB.c:220
              SetupReqLen -= len;
    28ac:	8f81                	sub	a5,a5,s0
    28ae:	86f19523          	sh	a5,-1942(gp) # 20001882 <SetupReqLen>
E:\Project\tp78_v2_develop\mounriver_project\RF_CH582M\obj/../HAL/USB.c:221
              pDescr += len;
    28b2:	00092783          	lw	a5,0(s2)
    28b6:	943e                	add	s0,s0,a5
    28b8:	8681a823          	sw	s0,-1936(gp) # 20001888 <pDescr>
E:\Project\tp78_v2_develop\mounriver_project\RF_CH582M\obj/../HAL/USB.c:222
              R8_UEP0_T_LEN = len;
    28bc:	400087b7          	lui	a5,0x40008
    28c0:	03378023          	sb	s3,32(a5) # 40008020 <_eusrstack+0x20000020>
E:\Project\tp78_v2_develop\mounriver_project\RF_CH582M\obj/../HAL/USB.c:223
              R8_UEP0_CTRL ^= RB_UEP_T_TOG;                             // 翻转
    28c4:	0227c703          	lbu	a4,34(a5)
    28c8:	04074713          	xori	a4,a4,64
E:\Project\tp78_v2_develop\mounriver_project\RF_CH582M\obj/../HAL/USB.c:227
              R8_UEP0_CTRL = UEP_R_RES_ACK | UEP_T_RES_NAK;
    28cc:	02e78123          	sb	a4,34(a5)
E:\Project\tp78_v2_develop\mounriver_project\RF_CH582M\obj/../HAL/USB.c:228
              break;
    28d0:	b575                	j	277c <USB_DevTransProcess+0x58>
E:\Project\tp78_v2_develop\mounriver_project\RF_CH582M\obj/../HAL/USB.c:226
              R8_USB_DEV_AD = ( R8_USB_DEV_AD & RB_UDA_GP_BIT ) | SetupReqLen;
    28d2:	0037c703          	lbu	a4,3(a5)
    28d6:	86a1c683          	lbu	a3,-1942(gp) # 20001882 <SetupReqLen>
    28da:	08077713          	andi	a4,a4,128
    28de:	8f55                	or	a4,a4,a3
    28e0:	00e781a3          	sb	a4,3(a5)
E:\Project\tp78_v2_develop\mounriver_project\RF_CH582M\obj/../HAL/USB.c:227
              R8_UEP0_CTRL = UEP_R_RES_ACK | UEP_T_RES_NAK;
    28e4:	4709                	li	a4,2
    28e6:	b7dd                	j	28cc <USB_DevTransProcess+0x1a8>
E:\Project\tp78_v2_develop\mounriver_project\RF_CH582M\obj/../HAL/USB.c:230
              R8_UEP0_T_LEN = 0;                                      // 状态阶段完成中断或者是强制上传0长度数据包结束控制传输
    28e8:	02078023          	sb	zero,32(a5)
E:\Project\tp78_v2_develop\mounriver_project\RF_CH582M\obj/../HAL/USB.c:231
              R8_UEP0_CTRL = UEP_R_RES_ACK | UEP_T_RES_NAK;
    28ec:	bfe5                	j	28e4 <USB_DevTransProcess+0x1c0>
E:\Project\tp78_v2_develop\mounriver_project\RF_CH582M\obj/../HAL/USB.c:239
          len = R8_USB_RX_LEN;
    28ee:	0087c783          	lbu	a5,8(a5)
E:\Project\tp78_v2_develop\mounriver_project\RF_CH582M\obj/../HAL/USB.c:240
          if ( SetupReqCode == 0x09 )
    28f2:	86c1c703          	lbu	a4,-1940(gp) # 20001884 <SetupReqCode>
    28f6:	47a5                	li	a5,9
    28f8:	e8f712e3          	bne	a4,a5,277c <USB_DevTransProcess+0x58>
E:\Project\tp78_v2_develop\mounriver_project\RF_CH582M\obj/../HAL/USB.c:243
            if ( (pEP0_DataBuf[1] & (1<<0)) == 0 ) {
    28fc:	85818793          	addi	a5,gp,-1960 # 20001870 <pEP0_RAM_Addr>
    2900:	439c                	lw	a5,0(a5)
E:\Project\tp78_v2_develop\mounriver_project\RF_CH582M\obj/../HAL/USB.c:253
            tmos_start_task(RFtaskID, SBP_RF_LEDOUT_TX_EVT, 10);
    2902:	4629                	li	a2,10
    2904:	45a1                	li	a1,8
E:\Project\tp78_v2_develop\mounriver_project\RF_CH582M\obj/../HAL/USB.c:243
            if ( (pEP0_DataBuf[1] & (1<<0)) == 0 ) {
    2906:	0017c783          	lbu	a5,1(a5)
E:\Project\tp78_v2_develop\mounriver_project\RF_CH582M\obj/../HAL/USB.c:253
            tmos_start_task(RFtaskID, SBP_RF_LEDOUT_TX_EVT, 10);
    290a:	ac01c503          	lbu	a0,-1344(gp) # 20001ad8 <RFtaskID>
    290e:	0017f713          	andi	a4,a5,1
E:\Project\tp78_v2_develop\mounriver_project\RF_CH582M\obj/../HAL/USB.c:248
            if ( (pEP0_DataBuf[1] & (1<<1)) == 0 ) {
    2912:	8385                	srli	a5,a5,0x1
    2914:	8b85                	andi	a5,a5,1
    2916:	80e18623          	sb	a4,-2036(gp) # 20001824 <LEDOUT_DATA>
    291a:	80f186a3          	sb	a5,-2035(gp) # 20001825 <LEDOUT_DATA+0x1>
E:\Project\tp78_v2_develop\mounriver_project\RF_CH582M\obj/../HAL/USB.c:253
            tmos_start_task(RFtaskID, SBP_RF_LEDOUT_TX_EVT, 10);
    291e:	04b000ef          	jal	ra,3168 <tmos_start_task>
    2922:	bda9                	j	277c <USB_DevTransProcess+0x58>
E:\Project\tp78_v2_develop\mounriver_project\RF_CH582M\obj/../HAL/USB.c:260
          if ( R8_USB_INT_ST & RB_UIS_TOG_OK )
    2924:	0077c703          	lbu	a4,7(a5)
    2928:	04077713          	andi	a4,a4,64
    292c:	e40708e3          	beqz	a4,277c <USB_DevTransProcess+0x58>
E:\Project\tp78_v2_develop\mounriver_project\RF_CH582M\obj/../HAL/USB.c:262
            len = R8_USB_RX_LEN;
    2930:	0087c503          	lbu	a0,8(a5)
E:\Project\tp78_v2_develop\mounriver_project\RF_CH582M\obj/../HAL/USB.c:263
            DevEP1_OUT_Deal( len );
    2934:	3ba1                	jal	268c <DevEP1_OUT_Deal>
    2936:	b599                	j	277c <USB_DevTransProcess+0x58>
E:\Project\tp78_v2_develop\mounriver_project\RF_CH582M\obj/../HAL/USB.c:274
          if ( R8_USB_INT_ST & RB_UIS_TOG_OK )
    2938:	0077c703          	lbu	a4,7(a5)
    293c:	04077713          	andi	a4,a4,64
    2940:	e2070ee3          	beqz	a4,277c <USB_DevTransProcess+0x58>
E:\Project\tp78_v2_develop\mounriver_project\RF_CH582M\obj/../HAL/USB.c:276
            len = R8_USB_RX_LEN;
    2944:	0087c503          	lbu	a0,8(a5)
E:\Project\tp78_v2_develop\mounriver_project\RF_CH582M\obj/../HAL/USB.c:277
            DevEP2_OUT_Deal( len );
    2948:	33ad                	jal	26b2 <DevEP2_OUT_Deal>
    294a:	bd0d                	j	277c <USB_DevTransProcess+0x58>
E:\Project\tp78_v2_develop\mounriver_project\RF_CH582M\obj/../HAL/USB.c:283
          R8_UEP2_CTRL = ( R8_UEP2_CTRL & ~MASK_UEP_T_RES ) | UEP_T_RES_NAK;
    294c:	02a7c703          	lbu	a4,42(a5)
    2950:	0fc77713          	andi	a4,a4,252
    2954:	00276713          	ori	a4,a4,2
    2958:	02e78523          	sb	a4,42(a5)
E:\Project\tp78_v2_develop\mounriver_project\RF_CH582M\obj/../HAL/USB.c:284
          break;
    295c:	b505                	j	277c <USB_DevTransProcess+0x58>
E:\Project\tp78_v2_develop\mounriver_project\RF_CH582M\obj/../HAL/USB.c:288
          if ( R8_USB_INT_ST & RB_UIS_TOG_OK )
    295e:	0077c703          	lbu	a4,7(a5)
    2962:	04077713          	andi	a4,a4,64
    2966:	e0070be3          	beqz	a4,277c <USB_DevTransProcess+0x58>
E:\Project\tp78_v2_develop\mounriver_project\RF_CH582M\obj/../HAL/USB.c:290
            len = R8_USB_RX_LEN;
    296a:	0087c503          	lbu	a0,8(a5)
E:\Project\tp78_v2_develop\mounriver_project\RF_CH582M\obj/../HAL/USB.c:291
            DevEP3_OUT_Deal( len );
    296e:	33ad                	jal	26d8 <DevEP3_OUT_Deal>
    2970:	b531                	j	277c <USB_DevTransProcess+0x58>
E:\Project\tp78_v2_develop\mounriver_project\RF_CH582M\obj/../HAL/USB.c:297
          R8_UEP3_CTRL = ( R8_UEP3_CTRL & ~MASK_UEP_T_RES ) | UEP_T_RES_NAK;
    2972:	02e7c703          	lbu	a4,46(a5)
    2976:	0fc77713          	andi	a4,a4,252
    297a:	00276713          	ori	a4,a4,2
    297e:	02e78723          	sb	a4,46(a5)
E:\Project\tp78_v2_develop\mounriver_project\RF_CH582M\obj/../HAL/USB.c:298
          break;
    2982:	bbed                	j	277c <USB_DevTransProcess+0x58>
E:\Project\tp78_v2_develop\mounriver_project\RF_CH582M\obj/../HAL/USB.c:302
          if ( R8_USB_INT_ST & RB_UIS_TOG_OK )
    2984:	0077c703          	lbu	a4,7(a5)
    2988:	04077713          	andi	a4,a4,64
    298c:	de0708e3          	beqz	a4,277c <USB_DevTransProcess+0x58>
E:\Project\tp78_v2_develop\mounriver_project\RF_CH582M\obj/../HAL/USB.c:304
            R8_UEP4_CTRL ^= RB_UEP_R_TOG;
    2990:	0327c703          	lbu	a4,50(a5)
    2994:	08074713          	xori	a4,a4,128
    2998:	02e78923          	sb	a4,50(a5)
E:\Project\tp78_v2_develop\mounriver_project\RF_CH582M\obj/../HAL/USB.c:305
            len = R8_USB_RX_LEN;
    299c:	0087c503          	lbu	a0,8(a5)
E:\Project\tp78_v2_develop\mounriver_project\RF_CH582M\obj/../HAL/USB.c:306
            DevEP4_OUT_Deal( len );
    29a0:	3bb9                	jal	26fe <DevEP4_OUT_Deal>
    29a2:	bbe9                	j	277c <USB_DevTransProcess+0x58>
E:\Project\tp78_v2_develop\mounriver_project\RF_CH582M\obj/../HAL/USB.c:344
        switch ( SetupReqCode )
    29a4:	4629                	li	a2,10
    29a6:	0af66f63          	bltu	a2,a5,2a64 <USB_DevTransProcess+0x340>
    29aa:	00004617          	auipc	a2,0x4
    29ae:	b5e60613          	addi	a2,a2,-1186 # 6508 <memcpy+0x102>
    29b2:	078a                	slli	a5,a5,0x2
    29b4:	97b2                	add	a5,a5,a2
    29b6:	439c                	lw	a5,0(a5)
    29b8:	97b2                	add	a5,a5,a2
    29ba:	8782                	jr	a5
E:\Project\tp78_v2_develop\mounriver_project\RF_CH582M\obj/../HAL/USB.c:348
            switch ( ( ( pSetupReqPak->wValue ) >> 8 ) )
    29bc:	00354783          	lbu	a5,3(a0)
    29c0:	00254683          	lbu	a3,2(a0)
    29c4:	4609                	li	a2,2
    29c6:	07a2                	slli	a5,a5,0x8
    29c8:	8fd5                	or	a5,a5,a3
    29ca:	0087d693          	srli	a3,a5,0x8
    29ce:	0ac68d63          	beq	a3,a2,2a88 <USB_DevTransProcess+0x364>
    29d2:	00d66963          	bltu	a2,a3,29e4 <USB_DevTransProcess+0x2c0>
    29d6:	4785                	li	a5,1
    29d8:	02f68b63          	beq	a3,a5,2a0e <USB_DevTransProcess+0x2ea>
E:\Project\tp78_v2_develop\mounriver_project\RF_CH582M\obj/../HAL/USB.c:402
                errflag = 0xff;
    29dc:	0ff00413          	li	s0,255
E:\Project\tp78_v2_develop\mounriver_project\RF_CH582M\obj/../HAL/USB.c:328
      len = 0;
    29e0:	4781                	li	a5,0
    29e2:	a835                	j	2a1e <USB_DevTransProcess+0x2fa>
    29e4:	458d                	li	a1,3
    29e6:	0ab68b63          	beq	a3,a1,2a9c <USB_DevTransProcess+0x378>
    29ea:	02200793          	li	a5,34
    29ee:	fef697e3          	bne	a3,a5,29dc <USB_DevTransProcess+0x2b8>
E:\Project\tp78_v2_develop\mounriver_project\RF_CH582M\obj/../HAL/USB.c:366
                if ( ( ( pSetupReqPak->wIndex ) & 0xff ) == 0 )         //接口0报表描述符
    29f2:	00454783          	lbu	a5,4(a0)
    29f6:	0e079663          	bnez	a5,2ae2 <USB_DevTransProcess+0x3be>
E:\Project\tp78_v2_develop\mounriver_project\RF_CH582M\obj/../HAL/USB.c:368
                  pDescr = HID_Rep_Desc;                                //数据准备上传
    29fa:	00004797          	auipc	a5,0x4
    29fe:	b3a78793          	addi	a5,a5,-1222 # 6534 <HID_Rep_Desc>
    2a02:	86f1a823          	sw	a5,-1936(gp) # 20001888 <pDescr>
E:\Project\tp78_v2_develop\mounriver_project\RF_CH582M\obj/../HAL/USB.c:329
      errflag = 0;
    2a06:	4401                	li	s0,0
E:\Project\tp78_v2_develop\mounriver_project\RF_CH582M\obj/../HAL/USB.c:369
                  len = sizeof( HID_Rep_Desc );
    2a08:	0d100793          	li	a5,209
    2a0c:	a809                	j	2a1e <USB_DevTransProcess+0x2fa>
E:\Project\tp78_v2_develop\mounriver_project\RF_CH582M\obj/../HAL/USB.c:352
                pDescr = MyDevDescr;
    2a0e:	00004797          	auipc	a5,0x4
    2a12:	c3678793          	addi	a5,a5,-970 # 6644 <MyDevDescr>
    2a16:	86f1a823          	sw	a5,-1936(gp) # 20001888 <pDescr>
E:\Project\tp78_v2_develop\mounriver_project\RF_CH582M\obj/../HAL/USB.c:329
      errflag = 0;
    2a1a:	4401                	li	s0,0
E:\Project\tp78_v2_develop\mounriver_project\RF_CH582M\obj/../HAL/USB.c:353
                len = MyDevDescr[0];
    2a1c:	47c9                	li	a5,18
E:\Project\tp78_v2_develop\mounriver_project\RF_CH582M\obj/../HAL/USB.c:405
            if ( SetupReqLen > len )
    2a1e:	07c2                	slli	a5,a5,0x10
    2a20:	83c1                	srli	a5,a5,0x10
    2a22:	00e7f463          	bgeu	a5,a4,2a2a <USB_DevTransProcess+0x306>
E:\Project\tp78_v2_develop\mounriver_project\RF_CH582M\obj/../HAL/USB.c:406
              SetupReqLen = len;      //实际需上传总长度
    2a26:	86f19523          	sh	a5,-1942(gp) # 20001882 <SetupReqLen>
E:\Project\tp78_v2_develop\mounriver_project\RF_CH582M\obj/../HAL/USB.c:408
                DevEP0SIZE : SetupReqLen;
    2a2a:	86a18793          	addi	a5,gp,-1942 # 20001882 <SetupReqLen>
    2a2e:	0007d603          	lhu	a2,0(a5)
    2a32:	04000793          	li	a5,64
    2a36:	00c7f463          	bgeu	a5,a2,2a3e <USB_DevTransProcess+0x31a>
    2a3a:	04000613          	li	a2,64
E:\Project\tp78_v2_develop\mounriver_project\RF_CH582M\obj/../HAL/USB.c:409
            memcpy( pEP0_DataBuf, pDescr, len );
    2a3e:	87018993          	addi	s3,gp,-1936 # 20001888 <pDescr>
    2a42:	01061493          	slli	s1,a2,0x10
    2a46:	0009a583          	lw	a1,0(s3) # 10000 <_data_lma+0x9970>
    2a4a:	80c1                	srli	s1,s1,0x10
    2a4c:	8626                	mv	a2,s1
    2a4e:	1b9030ef          	jal	ra,6406 <memcpy>
E:\Project\tp78_v2_develop\mounriver_project\RF_CH582M\obj/../HAL/USB.c:410
            pDescr += len;
    2a52:	0009a603          	lw	a2,0(s3)
    2a56:	9626                	add	a2,a2,s1
    2a58:	86c1a823          	sw	a2,-1936(gp) # 20001888 <pDescr>
E:\Project\tp78_v2_develop\mounriver_project\RF_CH582M\obj/../HAL/USB.c:474
      if ( errflag == 0xff )        // 错误或不支持
    2a5c:	0ff00793          	li	a5,255
    2a60:	d6f418e3          	bne	s0,a5,27d0 <USB_DevTransProcess+0xac>
E:\Project\tp78_v2_develop\mounriver_project\RF_CH582M\obj/../HAL/USB.c:477
        R8_UEP0_CTRL = RB_UEP_R_TOG | RB_UEP_T_TOG | UEP_R_RES_STALL | UEP_T_RES_STALL;    // STALL
    2a64:	400087b7          	lui	a5,0x40008
    2a68:	fcf00713          	li	a4,-49
E:\Project\tp78_v2_develop\mounriver_project\RF_CH582M\obj/../HAL/USB.c:490
        R8_UEP0_CTRL = RB_UEP_R_TOG | RB_UEP_T_TOG | UEP_R_RES_ACK | UEP_T_RES_ACK;    // 默认数据包是DATA1
    2a6c:	02e78123          	sb	a4,34(a5) # 40008022 <_eusrstack+0x20000022>
E:\Project\tp78_v2_develop\mounriver_project\RF_CH582M\obj/../HAL/USB.c:493
      R8_USB_INT_FG = RB_UIF_TRANSFER;
    2a70:	400087b7          	lui	a5,0x40008
    2a74:	4709                	li	a4,2
    2a76:	00e78323          	sb	a4,6(a5) # 40008006 <_eusrstack+0x20000006>
E:\Project\tp78_v2_develop\mounriver_project\RF_CH582M\obj/../HAL/USB.c:521
}
    2a7a:	40f2                	lw	ra,28(sp)
    2a7c:	4462                	lw	s0,24(sp)
    2a7e:	44d2                	lw	s1,20(sp)
    2a80:	4942                	lw	s2,16(sp)
    2a82:	49b2                	lw	s3,12(sp)
    2a84:	6105                	addi	sp,sp,32
    2a86:	8082                	ret
E:\Project\tp78_v2_develop\mounriver_project\RF_CH582M\obj/../HAL/USB.c:359
                pDescr = MyCfgDescr;
    2a88:	00004797          	auipc	a5,0x4
    2a8c:	b8078793          	addi	a5,a5,-1152 # 6608 <MyCfgDescr>
    2a90:	86f1a823          	sw	a5,-1936(gp) # 20001888 <pDescr>
E:\Project\tp78_v2_develop\mounriver_project\RF_CH582M\obj/../HAL/USB.c:329
      errflag = 0;
    2a94:	4401                	li	s0,0
E:\Project\tp78_v2_develop\mounriver_project\RF_CH582M\obj/../HAL/USB.c:360
                len = MyCfgDescr[2];
    2a96:	03900793          	li	a5,57
    2a9a:	b751                	j	2a1e <USB_DevTransProcess+0x2fa>
E:\Project\tp78_v2_develop\mounriver_project\RF_CH582M\obj/../HAL/USB.c:380
                switch ( ( pSetupReqPak->wValue ) & 0xff )
    2a9c:	0ff7f793          	andi	a5,a5,255
    2aa0:	4685                	li	a3,1
    2aa2:	00d78e63          	beq	a5,a3,2abe <USB_DevTransProcess+0x39a>
    2aa6:	c78d                	beqz	a5,2ad0 <USB_DevTransProcess+0x3ac>
    2aa8:	f2c79ae3          	bne	a5,a2,29dc <USB_DevTransProcess+0x2b8>
E:\Project\tp78_v2_develop\mounriver_project\RF_CH582M\obj/../HAL/USB.c:387
                    pDescr = MyProdInfo;
    2aac:	00004797          	auipc	a5,0x4
    2ab0:	bbc78793          	addi	a5,a5,-1092 # 6668 <MyProdInfo>
    2ab4:	86f1a823          	sw	a5,-1936(gp) # 20001888 <pDescr>
E:\Project\tp78_v2_develop\mounriver_project\RF_CH582M\obj/../HAL/USB.c:329
      errflag = 0;
    2ab8:	4401                	li	s0,0
E:\Project\tp78_v2_develop\mounriver_project\RF_CH582M\obj/../HAL/USB.c:388
                    len = MyProdInfo[0];
    2aba:	47c1                	li	a5,16
    2abc:	b78d                	j	2a1e <USB_DevTransProcess+0x2fa>
E:\Project\tp78_v2_develop\mounriver_project\RF_CH582M\obj/../HAL/USB.c:383
                    pDescr = MyManuInfo;
    2abe:	00004797          	auipc	a5,0x4
    2ac2:	b9a78793          	addi	a5,a5,-1126 # 6658 <MyManuInfo>
    2ac6:	86f1a823          	sw	a5,-1936(gp) # 20001888 <pDescr>
E:\Project\tp78_v2_develop\mounriver_project\RF_CH582M\obj/../HAL/USB.c:329
      errflag = 0;
    2aca:	4401                	li	s0,0
E:\Project\tp78_v2_develop\mounriver_project\RF_CH582M\obj/../HAL/USB.c:384
                    len = MyManuInfo[0];
    2acc:	47b9                	li	a5,14
    2ace:	bf81                	j	2a1e <USB_DevTransProcess+0x2fa>
E:\Project\tp78_v2_develop\mounriver_project\RF_CH582M\obj/../HAL/USB.c:391
                    pDescr = MyLangDescr;
    2ad0:	00004797          	auipc	a5,0x4
    2ad4:	bbc78793          	addi	a5,a5,-1092 # 668c <MyLangDescr>
    2ad8:	86f1a823          	sw	a5,-1936(gp) # 20001888 <pDescr>
E:\Project\tp78_v2_develop\mounriver_project\RF_CH582M\obj/../HAL/USB.c:329
      errflag = 0;
    2adc:	4401                	li	s0,0
E:\Project\tp78_v2_develop\mounriver_project\RF_CH582M\obj/../HAL/USB.c:392
                    len = MyLangDescr[0];
    2ade:	4791                	li	a5,4
    2ae0:	bf3d                	j	2a1e <USB_DevTransProcess+0x2fa>
E:\Project\tp78_v2_develop\mounriver_project\RF_CH582M\obj/../HAL/USB.c:329
      errflag = 0;
    2ae2:	4401                	li	s0,0
E:\Project\tp78_v2_develop\mounriver_project\RF_CH582M\obj/../HAL/USB.c:373
                  len = 0xff;
    2ae4:	0ff00793          	li	a5,255
    2ae8:	bf1d                	j	2a1e <USB_DevTransProcess+0x2fa>
E:\Project\tp78_v2_develop\mounriver_project\RF_CH582M\obj/../HAL/USB.c:415
            SetupReqLen = ( pSetupReqPak->wValue ) & 0xff;
    2aea:	00254783          	lbu	a5,2(a0)
E:\Project\tp78_v2_develop\mounriver_project\RF_CH582M\obj/../HAL/USB.c:466
              SetupReqLen = 2;
    2aee:	86f19523          	sh	a5,-1942(gp) # 20001882 <SetupReqLen>
E:\Project\tp78_v2_develop\mounriver_project\RF_CH582M\obj/../HAL/USB.c:474
      if ( errflag == 0xff )        // 错误或不支持
    2af2:	b9f9                	j	27d0 <USB_DevTransProcess+0xac>
E:\Project\tp78_v2_develop\mounriver_project\RF_CH582M\obj/../HAL/USB.c:419
            pEP0_DataBuf[0] = DevConfig;
    2af4:	8681c783          	lbu	a5,-1944(gp) # 20001880 <DevConfig>
    2af8:	00f50023          	sb	a5,0(a0)
E:\Project\tp78_v2_develop\mounriver_project\RF_CH582M\obj/../HAL/USB.c:420
            if ( SetupReqLen > 1 )
    2afc:	86a1d703          	lhu	a4,-1942(gp) # 20001882 <SetupReqLen>
    2b00:	4785                	li	a5,1
    2b02:	cce7f7e3          	bgeu	a5,a4,27d0 <USB_DevTransProcess+0xac>
E:\Project\tp78_v2_develop\mounriver_project\RF_CH582M\obj/../HAL/USB.c:421
              SetupReqLen = 1;
    2b06:	4785                	li	a5,1
    2b08:	b7dd                	j	2aee <USB_DevTransProcess+0x3ca>
E:\Project\tp78_v2_develop\mounriver_project\RF_CH582M\obj/../HAL/USB.c:425
            DevConfig = ( pSetupReqPak->wValue ) & 0xff;
    2b0a:	00254783          	lbu	a5,2(a0)
    2b0e:	86f18423          	sb	a5,-1944(gp) # 20001880 <DevConfig>
E:\Project\tp78_v2_develop\mounriver_project\RF_CH582M\obj/../HAL/USB.c:474
      if ( errflag == 0xff )        // 错误或不支持
    2b12:	b97d                	j	27d0 <USB_DevTransProcess+0xac>
E:\Project\tp78_v2_develop\mounriver_project\RF_CH582M\obj/../HAL/USB.c:430
            if ( ( pSetupReqPak->bRequestType & USB_REQ_RECIP_MASK ) == USB_REQ_RECIP_ENDP )    // 端点
    2b14:	01f97713          	andi	a4,s2,31
    2b18:	4789                	li	a5,2
    2b1a:	f4f715e3          	bne	a4,a5,2a64 <USB_DevTransProcess+0x340>
E:\Project\tp78_v2_develop\mounriver_project\RF_CH582M\obj/../HAL/USB.c:432
              switch ( ( pSetupReqPak->wIndex ) & 0xff )
    2b1e:	00454783          	lbu	a5,4(a0)
    2b22:	04e78163          	beq	a5,a4,2b64 <USB_DevTransProcess+0x440>
    2b26:	00f76c63          	bltu	a4,a5,2b3e <USB_DevTransProcess+0x41a>
    2b2a:	4705                	li	a4,1
    2b2c:	f2e79ce3          	bne	a5,a4,2a64 <USB_DevTransProcess+0x340>
E:\Project\tp78_v2_develop\mounriver_project\RF_CH582M\obj/../HAL/USB.c:444
                  R8_UEP1_CTRL = ( R8_UEP1_CTRL & ~( RB_UEP_R_TOG | MASK_UEP_R_RES ) ) | UEP_R_RES_ACK;
    2b30:	40008737          	lui	a4,0x40008
    2b34:	02674783          	lbu	a5,38(a4) # 40008026 <_eusrstack+0x20000026>
    2b38:	0737f793          	andi	a5,a5,115
    2b3c:	a099                	j	2b82 <USB_DevTransProcess+0x45e>
    2b3e:	08100713          	li	a4,129
    2b42:	02e78863          	beq	a5,a4,2b72 <USB_DevTransProcess+0x44e>
    2b46:	08200713          	li	a4,130
    2b4a:	f0e79de3          	bne	a5,a4,2a64 <USB_DevTransProcess+0x340>
E:\Project\tp78_v2_develop\mounriver_project\RF_CH582M\obj/../HAL/USB.c:435
                  R8_UEP2_CTRL = ( R8_UEP2_CTRL & ~( RB_UEP_T_TOG | MASK_UEP_T_RES ) ) | UEP_T_RES_NAK;
    2b4e:	40008737          	lui	a4,0x40008
    2b52:	02a74783          	lbu	a5,42(a4) # 4000802a <_eusrstack+0x2000002a>
    2b56:	0bc7f793          	andi	a5,a5,188
    2b5a:	0027e793          	ori	a5,a5,2
E:\Project\tp78_v2_develop\mounriver_project\RF_CH582M\obj/../HAL/USB.c:438
                  R8_UEP2_CTRL = ( R8_UEP2_CTRL & ~( RB_UEP_R_TOG | MASK_UEP_R_RES ) ) | UEP_R_RES_ACK;
    2b5e:	02f70523          	sb	a5,42(a4)
E:\Project\tp78_v2_develop\mounriver_project\RF_CH582M\obj/../HAL/USB.c:474
      if ( errflag == 0xff )        // 错误或不支持
    2b62:	b1bd                	j	27d0 <USB_DevTransProcess+0xac>
E:\Project\tp78_v2_develop\mounriver_project\RF_CH582M\obj/../HAL/USB.c:438
                  R8_UEP2_CTRL = ( R8_UEP2_CTRL & ~( RB_UEP_R_TOG | MASK_UEP_R_RES ) ) | UEP_R_RES_ACK;
    2b64:	40008737          	lui	a4,0x40008
    2b68:	02a74783          	lbu	a5,42(a4) # 4000802a <_eusrstack+0x2000002a>
    2b6c:	0737f793          	andi	a5,a5,115
    2b70:	b7fd                	j	2b5e <USB_DevTransProcess+0x43a>
E:\Project\tp78_v2_develop\mounriver_project\RF_CH582M\obj/../HAL/USB.c:441
                  R8_UEP1_CTRL = ( R8_UEP1_CTRL & ~( RB_UEP_T_TOG | MASK_UEP_T_RES ) ) | UEP_T_RES_NAK;
    2b72:	40008737          	lui	a4,0x40008
    2b76:	02674783          	lbu	a5,38(a4) # 40008026 <_eusrstack+0x20000026>
    2b7a:	0bc7f793          	andi	a5,a5,188
    2b7e:	0027e793          	ori	a5,a5,2
E:\Project\tp78_v2_develop\mounriver_project\RF_CH582M\obj/../HAL/USB.c:444
                  R8_UEP1_CTRL = ( R8_UEP1_CTRL & ~( RB_UEP_R_TOG | MASK_UEP_R_RES ) ) | UEP_R_RES_ACK;
    2b82:	02f70323          	sb	a5,38(a4)
E:\Project\tp78_v2_develop\mounriver_project\RF_CH582M\obj/../HAL/USB.c:474
      if ( errflag == 0xff )        // 错误或不支持
    2b86:	b1a9                	j	27d0 <USB_DevTransProcess+0xac>
E:\Project\tp78_v2_develop\mounriver_project\RF_CH582M\obj/../HAL/USB.c:457
            pEP0_DataBuf[0] = 0x00;
    2b88:	00050023          	sb	zero,0(a0)
E:\Project\tp78_v2_develop\mounriver_project\RF_CH582M\obj/../HAL/USB.c:458
            if ( SetupReqLen > 1 )
    2b8c:	bf85                	j	2afc <USB_DevTransProcess+0x3d8>
E:\Project\tp78_v2_develop\mounriver_project\RF_CH582M\obj/../HAL/USB.c:463
            pEP0_DataBuf[0] = 0x00;
    2b8e:	00050023          	sb	zero,0(a0)
E:\Project\tp78_v2_develop\mounriver_project\RF_CH582M\obj/../HAL/USB.c:464
            pEP0_DataBuf[1] = 0x00;
    2b92:	429c                	lw	a5,0(a3)
    2b94:	000780a3          	sb	zero,1(a5)
E:\Project\tp78_v2_develop\mounriver_project\RF_CH582M\obj/../HAL/USB.c:465
            if ( SetupReqLen > 2 )
    2b98:	86a1d703          	lhu	a4,-1942(gp) # 20001882 <SetupReqLen>
    2b9c:	4789                	li	a5,2
    2b9e:	c2e7f9e3          	bgeu	a5,a4,27d0 <USB_DevTransProcess+0xac>
    2ba2:	b7b1                	j	2aee <USB_DevTransProcess+0x3ca>
E:\Project\tp78_v2_develop\mounriver_project\RF_CH582M\obj/../HAL/USB.c:496
  else if ( intflag & RB_UIF_BUS_RST )
    2ba4:	00177693          	andi	a3,a4,1
    2ba8:	c28d                	beqz	a3,2bca <USB_DevTransProcess+0x4a6>
E:\Project\tp78_v2_develop\mounriver_project\RF_CH582M\obj/../HAL/USB.c:498
    R8_USB_DEV_AD = 0;
    2baa:	000781a3          	sb	zero,3(a5)
E:\Project\tp78_v2_develop\mounriver_project\RF_CH582M\obj/../HAL/USB.c:499
    R8_UEP0_CTRL = UEP_R_RES_ACK | UEP_T_RES_NAK;
    2bae:	4709                	li	a4,2
    2bb0:	02e78123          	sb	a4,34(a5)
E:\Project\tp78_v2_develop\mounriver_project\RF_CH582M\obj/../HAL/USB.c:500
    R8_UEP1_CTRL = UEP_R_RES_ACK | UEP_T_RES_NAK | RB_UEP_AUTO_TOG;
    2bb4:	4749                	li	a4,18
    2bb6:	02e78323          	sb	a4,38(a5)
E:\Project\tp78_v2_develop\mounriver_project\RF_CH582M\obj/../HAL/USB.c:501
    R8_UEP2_CTRL = UEP_R_RES_ACK | UEP_T_RES_NAK | RB_UEP_AUTO_TOG;
    2bba:	02e78523          	sb	a4,42(a5)
E:\Project\tp78_v2_develop\mounriver_project\RF_CH582M\obj/../HAL/USB.c:502
    R8_UEP3_CTRL = UEP_R_RES_ACK | UEP_T_RES_NAK | RB_UEP_AUTO_TOG;
    2bbe:	02e78723          	sb	a4,46(a5)
E:\Project\tp78_v2_develop\mounriver_project\RF_CH582M\obj/../HAL/USB.c:503
    R8_USB_INT_FG = RB_UIF_BUS_RST;
    2bc2:	4705                	li	a4,1
E:\Project\tp78_v2_develop\mounriver_project\RF_CH582M\obj/../HAL/USB.c:519
    R8_USB_INT_FG = intflag;
    2bc4:	00e78323          	sb	a4,6(a5)
    2bc8:	8082                	ret
E:\Project\tp78_v2_develop\mounriver_project\RF_CH582M\obj/../HAL/USB.c:505
  else if ( intflag & RB_UIF_SUSPEND )
    2bca:	00477693          	andi	a3,a4,4
    2bce:	dafd                	beqz	a3,2bc4 <USB_DevTransProcess+0x4a0>
E:\Project\tp78_v2_develop\mounriver_project\RF_CH582M\obj/../HAL/USB.c:507
    if ( R8_USB_MIS_ST & RB_UMS_SUSPEND )
    2bd0:	0057c703          	lbu	a4,5(a5)
    2bd4:	8309                	srli	a4,a4,0x2
    2bd6:	00174713          	xori	a4,a4,1
    2bda:	8b05                	andi	a4,a4,1
    2bdc:	80e18523          	sb	a4,-2038(gp) # 20001822 <USB_Ready>
E:\Project\tp78_v2_develop\mounriver_project\RF_CH582M\obj/../HAL/USB.c:515
    R8_USB_INT_FG = RB_UIF_SUSPEND;
    2be0:	4711                	li	a4,4
    2be2:	b7cd                	j	2bc4 <USB_DevTransProcess+0x4a0>

00002be4 <RF_2G4StatusCallBack>:
RF_2G4StatusCallBack():
E:\Project\tp78_v2_develop\mounriver_project\RF_CH582M\obj/../APP/RF_PHY.c:39
    switch(sta)
    2be4:	478d                	li	a5,3
    2be6:	00f50a63          	beq	a0,a5,2bfa <RF_2G4StatusCallBack+0x16>
    2bea:	4791                	li	a5,4
    2bec:	0af50463          	beq	a0,a5,2c94 <RF_2G4StatusCallBack+0xb0>
    2bf0:	4789                	li	a5,2
    2bf2:	0af51563          	bne	a0,a5,2c9c <RF_2G4StatusCallBack+0xb8>
E:\Project\tp78_v2_develop\mounriver_project\RF_CH582M\obj/../APP/RF_PHY.c:51
            RF_Shut();
    2bf6:	2d40206f          	j	4eca <RF_Shut>
E:\Project\tp78_v2_develop\mounriver_project\RF_CH582M\obj/../APP/RF_PHY.c:93
            if(crc == 1)
    2bfa:	15fd                	addi	a1,a1,-1
    2bfc:	0ff5f593          	andi	a1,a1,255
    2c00:	4785                	li	a5,1
    2c02:	08b7fd63          	bgeu	a5,a1,2c9c <RF_2G4StatusCallBack+0xb8>
E:\Project\tp78_v2_develop\mounriver_project\RF_CH582M\obj/../APP/RF_PHY.c:108
                if (rxBuf[1] <= sizeof(HID_dat)) {
    2c06:	00164703          	lbu	a4,1(a2)
    2c0a:	47a5                	li	a5,9
    2c0c:	08e7e863          	bltu	a5,a4,2c9c <RF_2G4StatusCallBack+0xb8>
E:\Project\tp78_v2_develop\mounriver_project\RF_CH582M\obj/../APP/RF_PHY.c:109
                    if (rxBuf[2] == 0x7A) {   //jump to boot
    2c10:	00264703          	lbu	a4,2(a2)
E:\Project\tp78_v2_develop\mounriver_project\RF_CH582M\obj/../APP/RF_PHY.c:37
{
    2c14:	1141                	addi	sp,sp,-16
    2c16:	c606                	sw	ra,12(sp)
E:\Project\tp78_v2_develop\mounriver_project\RF_CH582M\obj/../APP/RF_PHY.c:109
                    if (rxBuf[2] == 0x7A) {   //jump to boot
    2c18:	07a00793          	li	a5,122
    2c1c:	00f71c63          	bne	a4,a5,2c34 <RF_2G4StatusCallBack+0x50>
E:\Project\tp78_v2_develop\mounriver_project\RF_CH582M\obj/../APP/RF_PHY.c:111
                        APPJumpBoot();
    2c20:	1fffd097          	auipc	ra,0x1fffd
    2c24:	6c2080e7          	jalr	1730(ra) # 200002e2 <APPJumpBoot>
E:\Project\tp78_v2_develop\mounriver_project\RF_CH582M\obj/../APP/RF_PHY.c:145
}
    2c28:	40b2                	lw	ra,12(sp)
E:\Project\tp78_v2_develop\mounriver_project\RF_CH582M\obj/../APP/RF_PHY.c:131
                tmos_set_event(RFtaskID, SBP_RF_RF_RX_EVT);
    2c2a:	ac01c503          	lbu	a0,-1344(gp) # 20001ad8 <RFtaskID>
    2c2e:	4591                	li	a1,4
E:\Project\tp78_v2_develop\mounriver_project\RF_CH582M\obj/../APP/RF_PHY.c:145
}
    2c30:	0141                	addi	sp,sp,16
E:\Project\tp78_v2_develop\mounriver_project\RF_CH582M\obj/../APP/RF_PHY.c:136
            tmos_set_event(RFtaskID, SBP_RF_RF_RX_EVT);
    2c32:	a9d9                	j	3108 <tmos_set_event>
E:\Project\tp78_v2_develop\mounriver_project\RF_CH582M\obj/../APP/RF_PHY.c:112
                    } else if (rxBuf[2] == 0x78) {   //heartbeat
    2c34:	07800593          	li	a1,120
E:\Project\tp78_v2_develop\mounriver_project\RF_CH582M\obj/../APP/RF_PHY.c:115
                        for(i = 0; i < rxBuf[1]; i++) {
    2c38:	4781                	li	a5,0
E:\Project\tp78_v2_develop\mounriver_project\RF_CH582M\obj/../APP/RF_PHY.c:117
                            *((uint8_t*)&HID_dat + i) = rxBuf[i + 2];
    2c3a:	9b418693          	addi	a3,gp,-1612 # 200019cc <HID_dat>
E:\Project\tp78_v2_develop\mounriver_project\RF_CH582M\obj/../APP/RF_PHY.c:112
                    } else if (rxBuf[2] == 0x78) {   //heartbeat
    2c3e:	02b71063          	bne	a4,a1,2c5e <RF_2G4StatusCallBack+0x7a>
E:\Project\tp78_v2_develop\mounriver_project\RF_CH582M\obj/../APP/RF_PHY.c:113
                        heartbeat_cnt = 0;
    2c42:	8001a823          	sw	zero,-2032(gp) # 20001828 <heartbeat_cnt>
E:\Project\tp78_v2_develop\mounriver_project\RF_CH582M\obj/../APP/RF_PHY.c:130
            if (err == 0)
    2c46:	b7cd                	j	2c28 <RF_2G4StatusCallBack+0x44>
E:\Project\tp78_v2_develop\mounriver_project\RF_CH582M\obj/../APP/RF_PHY.c:117
                            *((uint8_t*)&HID_dat + i) = rxBuf[i + 2];
    2c48:	00f60733          	add	a4,a2,a5
    2c4c:	00274583          	lbu	a1,2(a4)
    2c50:	00d78733          	add	a4,a5,a3
E:\Project\tp78_v2_develop\mounriver_project\RF_CH582M\obj/../APP/RF_PHY.c:115
                        for(i = 0; i < rxBuf[1]; i++) {
    2c54:	0785                	addi	a5,a5,1
E:\Project\tp78_v2_develop\mounriver_project\RF_CH582M\obj/../APP/RF_PHY.c:117
                            *((uint8_t*)&HID_dat + i) = rxBuf[i + 2];
    2c56:	00b70023          	sb	a1,0(a4)
E:\Project\tp78_v2_develop\mounriver_project\RF_CH582M\obj/../APP/RF_PHY.c:115
                        for(i = 0; i < rxBuf[1]; i++) {
    2c5a:	0ff7f793          	andi	a5,a5,255
    2c5e:	00164703          	lbu	a4,1(a2)
    2c62:	fee7e3e3          	bltu	a5,a4,2c48 <RF_2G4StatusCallBack+0x64>
E:\Project\tp78_v2_develop\mounriver_project\RF_CH582M\obj/../APP/RF_PHY.c:119
                        if (USB_Ready == TRUE) {
    2c66:	80a1c703          	lbu	a4,-2038(gp) # 20001822 <USB_Ready>
    2c6a:	4785                	li	a5,1
    2c6c:	faf71ee3          	bne	a4,a5,2c28 <RF_2G4StatusCallBack+0x44>
E:\Project\tp78_v2_develop\mounriver_project\RF_CH582M\obj/../APP/RF_PHY.c:120
                            lastevent[1<<(HID_dat.label - 1)] = TRUE;
    2c70:	9b41c583          	lbu	a1,-1612(gp) # 200019cc <HID_dat>
    2c74:	15fd                	addi	a1,a1,-1
    2c76:	00b715b3          	sll	a1,a4,a1
    2c7a:	81418793          	addi	a5,gp,-2028 # 2000182c <lastevent>
    2c7e:	97ae                	add	a5,a5,a1
E:\Project\tp78_v2_develop\mounriver_project\RF_CH582M\obj/../APP/RF_PHY.c:121
                            tmos_set_event(usbTaskID, 1<<(HID_dat.label - 1));
    2c80:	05c2                	slli	a1,a1,0x10
    2c82:	81c1                	srli	a1,a1,0x10
    2c84:	1ffff517          	auipc	a0,0x1ffff
    2c88:	b9454503          	lbu	a0,-1132(a0) # 20001818 <usbTaskID>
E:\Project\tp78_v2_develop\mounriver_project\RF_CH582M\obj/../APP/RF_PHY.c:120
                            lastevent[1<<(HID_dat.label - 1)] = TRUE;
    2c8c:	00e78023          	sb	a4,0(a5)
E:\Project\tp78_v2_develop\mounriver_project\RF_CH582M\obj/../APP/RF_PHY.c:121
                            tmos_set_event(usbTaskID, 1<<(HID_dat.label - 1));
    2c90:	29a5                	jal	3108 <tmos_set_event>
E:\Project\tp78_v2_develop\mounriver_project\RF_CH582M\obj/../APP/RF_PHY.c:130
            if (err == 0)
    2c92:	bf59                	j	2c28 <RF_2G4StatusCallBack+0x44>
E:\Project\tp78_v2_develop\mounriver_project\RF_CH582M\obj/../APP/RF_PHY.c:136
            tmos_set_event(RFtaskID, SBP_RF_RF_RX_EVT);
    2c94:	4591                	li	a1,4
    2c96:	ac01c503          	lbu	a0,-1344(gp) # 20001ad8 <RFtaskID>
    2c9a:	bf61                	j	2c32 <RF_2G4StatusCallBack+0x4e>
    2c9c:	8082                	ret

00002c9e <RF_ProcessEvent>:
RF_ProcessEvent():
E:\Project\tp78_v2_develop\mounriver_project\RF_CH582M\obj/../APP/RF_PHY.c:158
{
    2c9e:	1141                	addi	sp,sp,-16
E:\Project\tp78_v2_develop\mounriver_project\RF_CH582M\obj/../APP/RF_PHY.c:159
    if(events & SYS_EVENT_MSG)
    2ca0:	01059793          	slli	a5,a1,0x10
E:\Project\tp78_v2_develop\mounriver_project\RF_CH582M\obj/../APP/RF_PHY.c:158
{
    2ca4:	c422                	sw	s0,8(sp)
    2ca6:	c606                	sw	ra,12(sp)
E:\Project\tp78_v2_develop\mounriver_project\RF_CH582M\obj/../APP/RF_PHY.c:159
    if(events & SYS_EVENT_MSG)
    2ca8:	87c1                	srai	a5,a5,0x10
E:\Project\tp78_v2_develop\mounriver_project\RF_CH582M\obj/../APP/RF_PHY.c:158
{
    2caa:	842e                	mv	s0,a1
E:\Project\tp78_v2_develop\mounriver_project\RF_CH582M\obj/../APP/RF_PHY.c:159
    if(events & SYS_EVENT_MSG)
    2cac:	0007db63          	bgez	a5,2cc2 <RF_ProcessEvent+0x24>
E:\Project\tp78_v2_develop\mounriver_project\RF_CH582M\obj/../APP/RF_PHY.c:163
        if((pMsg = tmos_msg_receive(task_id)) != NULL)
    2cb0:	2a81                	jal	2e00 <tmos_msg_receive>
    2cb2:	c111                	beqz	a0,2cb6 <RF_ProcessEvent+0x18>
E:\Project\tp78_v2_develop\mounriver_project\RF_CH582M\obj/../APP/RF_PHY.c:166
            tmos_msg_deallocate(pMsg);
    2cb4:	2205                	jal	2dd4 <tmos_msg_deallocate>
E:\Project\tp78_v2_develop\mounriver_project\RF_CH582M\obj/../APP/RF_PHY.c:169
        return (events ^ SYS_EVENT_MSG);
    2cb6:	6521                	lui	a0,0x8
    2cb8:	8d21                	xor	a0,a0,s0
E:\Project\tp78_v2_develop\mounriver_project\RF_CH582M\obj/../APP/RF_PHY.c:200
}
    2cba:	40b2                	lw	ra,12(sp)
    2cbc:	4422                	lw	s0,8(sp)
    2cbe:	0141                	addi	sp,sp,16
    2cc0:	8082                	ret
E:\Project\tp78_v2_develop\mounriver_project\RF_CH582M\obj/../APP/RF_PHY.c:183
    if(events & SBP_RF_RF_RX_EVT)
    2cc2:	0045f793          	andi	a5,a1,4
    2cc6:	cf99                	beqz	a5,2ce4 <RF_ProcessEvent+0x46>
E:\Project\tp78_v2_develop\mounriver_project\RF_CH582M\obj/../APP/RF_PHY.c:186
        RF_Shut();
    2cc8:	202020ef          	jal	ra,4eca <RF_Shut>
E:\Project\tp78_v2_develop\mounriver_project\RF_CH582M\obj/../APP/RF_PHY.c:187
        state = RF_Rx(LEDOUT_DATA, 2, 0xFF, 0xFF);
    2ccc:	0ff00693          	li	a3,255
    2cd0:	0ff00613          	li	a2,255
    2cd4:	4589                	li	a1,2
    2cd6:	80c18513          	addi	a0,gp,-2036 # 20001824 <LEDOUT_DATA>
    2cda:	26b010ef          	jal	ra,4744 <RF_Rx>
E:\Project\tp78_v2_develop\mounriver_project\RF_CH582M\obj/../APP/RF_PHY.c:189
        return events ^ SBP_RF_RF_RX_EVT;
    2cde:	00444513          	xori	a0,s0,4
    2ce2:	bfe1                	j	2cba <RF_ProcessEvent+0x1c>
E:\Project\tp78_v2_develop\mounriver_project\RF_CH582M\obj/../APP/RF_PHY.c:191
    if(events & SBP_RF_LEDOUT_TX_EVT)
    2ce4:	0085f793          	andi	a5,a1,8
E:\Project\tp78_v2_develop\mounriver_project\RF_CH582M\obj/../APP/RF_PHY.c:199
    return 0;
    2ce8:	4501                	li	a0,0
E:\Project\tp78_v2_develop\mounriver_project\RF_CH582M\obj/../APP/RF_PHY.c:191
    if(events & SBP_RF_LEDOUT_TX_EVT)
    2cea:	dbe1                	beqz	a5,2cba <RF_ProcessEvent+0x1c>
E:\Project\tp78_v2_develop\mounriver_project\RF_CH582M\obj/../APP/RF_PHY.c:194
        RF_Shut();
    2cec:	1de020ef          	jal	ra,4eca <RF_Shut>
E:\Project\tp78_v2_develop\mounriver_project\RF_CH582M\obj/../APP/RF_PHY.c:195
        state = RF_Rx(LEDOUT_DATA, 2, 0xFF, 0xFF);
    2cf0:	0ff00693          	li	a3,255
    2cf4:	0ff00613          	li	a2,255
    2cf8:	4589                	li	a1,2
    2cfa:	80c18513          	addi	a0,gp,-2036 # 20001824 <LEDOUT_DATA>
    2cfe:	247010ef          	jal	ra,4744 <RF_Rx>
E:\Project\tp78_v2_develop\mounriver_project\RF_CH582M\obj/../APP/RF_PHY.c:197
        return events ^ SBP_RF_LEDOUT_TX_EVT;
    2d02:	00844513          	xori	a0,s0,8
    2d06:	bf55                	j	2cba <RF_ProcessEvent+0x1c>

00002d08 <RF_Init>:
RF_Init():
E:\Project\tp78_v2_develop\mounriver_project\RF_CH582M\obj/../APP/RF_PHY.c:210
{
    2d08:	7179                	addi	sp,sp,-48
E:\Project\tp78_v2_develop\mounriver_project\RF_CH582M\obj/../APP/RF_PHY.c:214
    tmos_memset(&rfConfig, 0, sizeof(rfConfig_t));
    2d0a:	02000613          	li	a2,32
    2d0e:	4581                	li	a1,0
    2d10:	850a                	mv	a0,sp
E:\Project\tp78_v2_develop\mounriver_project\RF_CH582M\obj/../APP/RF_PHY.c:210
{
    2d12:	d606                	sw	ra,44(sp)
E:\Project\tp78_v2_develop\mounriver_project\RF_CH582M\obj/../APP/RF_PHY.c:214
    tmos_memset(&rfConfig, 0, sizeof(rfConfig_t));
    2d14:	1fffe097          	auipc	ra,0x1fffe
    2d18:	b96080e7          	jalr	-1130(ra) # 200008aa <tmos_memset>
E:\Project\tp78_v2_develop\mounriver_project\RF_CH582M\obj/../APP/RF_PHY.c:215
    RFtaskID = TMOS_ProcessEventRegister(RF_ProcessEvent);
    2d1c:	00000517          	auipc	a0,0x0
    2d20:	f8250513          	addi	a0,a0,-126 # 2c9e <RF_ProcessEvent>
    2d24:	2d71                	jal	33c0 <TMOS_ProcessEventRegister>
    2d26:	aca18023          	sb	a0,-1344(gp) # 20001ad8 <RFtaskID>
E:\Project\tp78_v2_develop\mounriver_project\RF_CH582M\obj/../APP/RF_PHY.c:216
    rfConfig.accessAddress = 0x71764129; // 禁止使用0x55555555以及0xAAAAAAAA ( 建议不超过24次位反转，且不超过连续的6个0或1 )
    2d2a:	717647b7          	lui	a5,0x71764
    2d2e:	12978793          	addi	a5,a5,297 # 71764129 <_eusrstack+0x5175c129>
    2d32:	c43e                	sw	a5,8(sp)
E:\Project\tp78_v2_develop\mounriver_project\RF_CH582M\obj/../APP/RF_PHY.c:217
    rfConfig.CRCInit = 0x555555;
    2d34:	005557b7          	lui	a5,0x555
    2d38:	55578793          	addi	a5,a5,1365 # 555555 <_data_lma+0x54eec5>
    2d3c:	c63e                	sw	a5,12(sp)
E:\Project\tp78_v2_develop\mounriver_project\RF_CH582M\obj/../APP/RF_PHY.c:219
    rfConfig.Frequency = 2405000;
    2d3e:	0024b7b7          	lui	a5,0x24b
    2d42:	28878793          	addi	a5,a5,648 # 24b288 <_data_lma+0x244bf8>
    2d46:	c23e                	sw	a5,4(sp)
E:\Project\tp78_v2_develop\mounriver_project\RF_CH582M\obj/../APP/RF_PHY.c:220
    rfConfig.LLEMode = LLE_MODE_AUTO | LLE_MODE_EX_CHANNEL; // 使能 LLE_MODE_EX_CHANNEL 表示 选择 rfConfig.Frequency 作为通信频点
    2d48:	6785                	lui	a5,0x1
    2d4a:	84178793          	addi	a5,a5,-1983 # 841 <_einit+0x83d>
    2d4e:	00f11023          	sh	a5,0(sp)
E:\Project\tp78_v2_develop\mounriver_project\RF_CH582M\obj/../APP/RF_PHY.c:221
    rfConfig.rfStatusCB = RF_2G4StatusCallBack;
    2d52:	00000797          	auipc	a5,0x0
    2d56:	e9278793          	addi	a5,a5,-366 # 2be4 <RF_2G4StatusCallBack>
    2d5a:	c83e                	sw	a5,16(sp)
E:\Project\tp78_v2_develop\mounriver_project\RF_CH582M\obj/../APP/RF_PHY.c:223
    state = RF_Config(&rfConfig);
    2d5c:	850a                	mv	a0,sp
E:\Project\tp78_v2_develop\mounriver_project\RF_CH582M\obj/../APP/RF_PHY.c:222
    rfConfig.RxMaxlen = 251;
    2d5e:	57ed                	li	a5,-5
    2d60:	00f10e23          	sb	a5,28(sp)
E:\Project\tp78_v2_develop\mounriver_project\RF_CH582M\obj/../APP/RF_PHY.c:223
    state = RF_Config(&rfConfig);
    2d64:	5fc010ef          	jal	ra,4360 <RF_Config>
E:\Project\tp78_v2_develop\mounriver_project\RF_CH582M\obj/../APP/RF_PHY.c:226
        state = RF_Rx(LEDOUT_DATA, 2, 0xFF, 0xFF);
    2d68:	0ff00693          	li	a3,255
    2d6c:	0ff00613          	li	a2,255
    2d70:	4589                	li	a1,2
    2d72:	80c18513          	addi	a0,gp,-2036 # 20001824 <LEDOUT_DATA>
    2d76:	1cf010ef          	jal	ra,4744 <RF_Rx>
E:\Project\tp78_v2_develop\mounriver_project\RF_CH582M\obj/../APP/RF_PHY.c:231
    TMR0_TimerInit(FREQ_SYS / 1000);
    2d7a:	653d                	lui	a0,0xf
    2d7c:	a6050513          	addi	a0,a0,-1440 # ea60 <_data_lma+0x83d0>
    2d80:	894ff0ef          	jal	ra,1e14 <TMR0_TimerInit>
E:\Project\tp78_v2_develop\mounriver_project\RF_CH582M\obj/../APP/RF_PHY.c:232
    TMR0_ITCfg(ENABLE, TMR0_3_IT_CYC_END);
    2d84:	40002737          	lui	a4,0x40002
    2d88:	00274783          	lbu	a5,2(a4) # 40002002 <_eusrstack+0x1fffa002>
    2d8c:	0017e793          	ori	a5,a5,1
    2d90:	00f70123          	sb	a5,2(a4)
PFIC_EnableIRQ():
E:\Project\tp78_v2_develop\mounriver_project\RF_CH582M\RVMSIS/core_riscv.h:110
    2d94:	e000e7b7          	lui	a5,0xe000e
    2d98:	6741                	lui	a4,0x10
    2d9a:	10e7a023          	sw	a4,256(a5) # e000e100 <_eusrstack+0xc0006100>
PFIC_SetPriority():
E:\Project\tp78_v2_develop\mounriver_project\RF_CH582M\RVMSIS/core_riscv.h:207
    PFIC->IPRIOR[(uint32_t)(IRQn)] = priority;
    2d9e:	4751                	li	a4,20
    2da0:	40e78823          	sb	a4,1040(a5)
RF_Init():
E:\Project\tp78_v2_develop\mounriver_project\RF_CH582M\obj/../APP/RF_PHY.c:239
}
    2da4:	50b2                	lw	ra,44(sp)
    2da6:	6145                	addi	sp,sp,48
    2da8:	8082                	ret

00002daa <main>:
main():
E:\Project\tp78_v2_develop\mounriver_project\RF_CH582M\obj/../APP/RF_main.c:56
 * @brief   主函数
 *
 * @return  none
 */
int main(void)
{
    2daa:	1141                	addi	sp,sp,-16
E:\Project\tp78_v2_develop\mounriver_project\RF_CH582M\obj/../APP/RF_main.c:60
#if(defined(DCDC_ENABLE)) && (DCDC_ENABLE == TRUE)
    PWR_DCDCCfg(ENABLE);
#endif
    SetSysClock(CLK_SOURCE_PLL_60MHz);
    2dac:	04800513          	li	a0,72
E:\Project\tp78_v2_develop\mounriver_project\RF_CH582M\obj/../APP/RF_main.c:56
{
    2db0:	c606                	sw	ra,12(sp)
E:\Project\tp78_v2_develop\mounriver_project\RF_CH582M\obj/../APP/RF_main.c:60
    SetSysClock(CLK_SOURCE_PLL_60MHz);
    2db2:	1fffd097          	auipc	ra,0x1fffd
    2db6:	314080e7          	jalr	788(ra) # 200000c6 <SetSysClock>
E:\Project\tp78_v2_develop\mounriver_project\RF_CH582M\obj/../APP/RF_main.c:72
    GPIOA_ModeCfg(bTXD1, GPIO_ModeOut_PP_5mA);
    UART1_DefInit();
#endif
    PRINT("start.\n");
    PRINT("%s\n", VER_LIB);
    CH58X_BLEInit();
    2dba:	dceff0ef          	jal	ra,2388 <CH58X_BLEInit>
E:\Project\tp78_v2_develop\mounriver_project\RF_CH582M\obj/../APP/RF_main.c:73
    HAL_Init();
    2dbe:	edeff0ef          	jal	ra,249c <HAL_Init>
E:\Project\tp78_v2_develop\mounriver_project\RF_CH582M\obj/../APP/RF_main.c:74
    RF_RoleInit();
    2dc2:	45a020ef          	jal	ra,521c <RF_RoleInit>
E:\Project\tp78_v2_develop\mounriver_project\RF_CH582M\obj/../APP/RF_main.c:75
    RF_Init();
    2dc6:	3789                	jal	2d08 <RF_Init>
E:\Project\tp78_v2_develop\mounriver_project\RF_CH582M\obj/../APP/RF_main.c:76
    HAL_USBInit();
    2dc8:	86dff0ef          	jal	ra,2634 <HAL_USBInit>
E:\Project\tp78_v2_develop\mounriver_project\RF_CH582M\obj/../APP/RF_main.c:77
    Main_Circulation();
    2dcc:	1fffd097          	auipc	ra,0x1fffd
    2dd0:	678080e7          	jalr	1656(ra) # 20000444 <Main_Circulation>

00002dd4 <tmos_msg_deallocate>:
tmos_msg_deallocate():
    2dd4:	c11d                	beqz	a0,2dfa <tmos_msg_deallocate+0x26>
    2dd6:	ffe54683          	lbu	a3,-2(a0)
    2dda:	0ff00713          	li	a4,255
    2dde:	4791                	li	a5,4
    2de0:	00e69e63          	bne	a3,a4,2dfc <tmos_msg_deallocate+0x28>
    2de4:	1141                	addi	sp,sp,-16
    2de6:	c606                	sw	ra,12(sp)
    2de8:	1ffff097          	auipc	ra,0x1ffff
    2dec:	942080e7          	jalr	-1726(ra) # 2000172a <tmos_memory_free>
    2df0:	40b2                	lw	ra,12(sp)
    2df2:	4781                	li	a5,0
    2df4:	853e                	mv	a0,a5
    2df6:	0141                	addi	sp,sp,16
    2df8:	8082                	ret
    2dfa:	4795                	li	a5,5
    2dfc:	853e                	mv	a0,a5
    2dfe:	8082                	ret

00002e00 <tmos_msg_receive>:
tmos_msg_receive():
    2e00:	20000717          	auipc	a4,0x20000
    2e04:	4dc70713          	addi	a4,a4,1244 # 200032dc <msg_qHead>
    2e08:	431c                	lw	a5,0(a4)
    2e0a:	1141                	addi	sp,sp,-16
    2e0c:	c422                	sw	s0,8(sp)
    2e0e:	c226                	sw	s1,4(sp)
    2e10:	c04a                	sw	s2,0(sp)
    2e12:	c606                	sw	ra,12(sp)
    2e14:	4401                	li	s0,0
    2e16:	4901                	li	s2,0
    2e18:	84ba                	mv	s1,a4
    2e1a:	e789                	bnez	a5,2e24 <tmos_msg_receive+0x24>
    2e1c:	65a1                	lui	a1,0x8
    2e1e:	212d                	jal	3248 <tmos_stop_task>
    2e20:	c41d                	beqz	s0,2e4e <tmos_msg_receive+0x4e>
    2e22:	a801                	j	2e32 <tmos_msg_receive+0x32>
    2e24:	ffe7c703          	lbu	a4,-2(a5)
    2e28:	02a71a63          	bne	a4,a0,2e5c <tmos_msg_receive+0x5c>
    2e2c:	cc0d                	beqz	s0,2e66 <tmos_msg_receive+0x66>
    2e2e:	65a1                	lui	a1,0x8
    2e30:	2ce1                	jal	3108 <tmos_set_event>
    2e32:	4098                	lw	a4,0(s1)
    2e34:	ff842783          	lw	a5,-8(s0)
    2e38:	02e41963          	bne	s0,a4,2e6a <tmos_msg_receive+0x6a>
    2e3c:	20000717          	auipc	a4,0x20000
    2e40:	4af72023          	sw	a5,1184(a4) # 200032dc <msg_qHead>
    2e44:	57fd                	li	a5,-1
    2e46:	fe042c23          	sw	zero,-8(s0)
    2e4a:	fef40f23          	sb	a5,-2(s0)
    2e4e:	8522                	mv	a0,s0
    2e50:	40b2                	lw	ra,12(sp)
    2e52:	4422                	lw	s0,8(sp)
    2e54:	4492                	lw	s1,4(sp)
    2e56:	4902                	lw	s2,0(sp)
    2e58:	0141                	addi	sp,sp,16
    2e5a:	8082                	ret
    2e5c:	e011                	bnez	s0,2e60 <tmos_msg_receive+0x60>
    2e5e:	893e                	mv	s2,a5
    2e60:	ff87a783          	lw	a5,-8(a5)
    2e64:	bf5d                	j	2e1a <tmos_msg_receive+0x1a>
    2e66:	843e                	mv	s0,a5
    2e68:	bfe5                	j	2e60 <tmos_msg_receive+0x60>
    2e6a:	fef92c23          	sw	a5,-8(s2)
    2e6e:	bfd9                	j	2e44 <tmos_msg_receive+0x44>

00002e70 <tmos_msg_init>:
tmos_msg_init():
    2e70:	20000797          	auipc	a5,0x20000
    2e74:	4607a623          	sw	zero,1132(a5) # 200032dc <msg_qHead>
    2e78:	8082                	ret

00002e7a <tmosFindTask>:
tmosFindTask():
    2e7a:	20000797          	auipc	a5,0x20000
    2e7e:	4ba78793          	addi	a5,a5,1210 # 20003334 <taskHead>
    2e82:	439c                	lw	a5,0(a5)
    2e84:	e399                	bnez	a5,2e8a <tmosFindTask+0x10>
    2e86:	853e                	mv	a0,a5
    2e88:	8082                	ret
    2e8a:	0027d703          	lhu	a4,2(a5)
    2e8e:	00b71663          	bne	a4,a1,2e9a <tmosFindTask+0x20>
    2e92:	0007c703          	lbu	a4,0(a5)
    2e96:	fea708e3          	beq	a4,a0,2e86 <tmosFindTask+0xc>
    2e9a:	47dc                	lw	a5,12(a5)
    2e9c:	b7e5                	j	2e84 <tmosFindTask+0xa>

00002e9e <TMOS_CB_PeriodicProcessEvent>:
TMOS_CB_PeriodicProcessEvent():
    2e9e:	c1c9                	beqz	a1,2f20 <TMOS_CB_PeriodicProcessEvent+0x82>
    2ea0:	7179                	addi	sp,sp,-48
    2ea2:	d422                	sw	s0,40(sp)
    2ea4:	d606                	sw	ra,44(sp)
    2ea6:	d226                	sw	s1,36(sp)
    2ea8:	d04a                	sw	s2,32(sp)
    2eaa:	ce4e                	sw	s3,28(sp)
    2eac:	4401                	li	s0,0
    2eae:	4741                	li	a4,16
    2eb0:	4085d7b3          	sra	a5,a1,s0
    2eb4:	8b85                	andi	a5,a5,1
    2eb6:	c3a5                	beqz	a5,2f16 <TMOS_CB_PeriodicProcessEvent+0x78>
    2eb8:	0512                	slli	a0,a0,0x4
    2eba:	4731                	li	a4,12
    2ebc:	9522                	add	a0,a0,s0
    2ebe:	02e50533          	mul	a0,a0,a4
    2ec2:	20000797          	auipc	a5,0x20000
    2ec6:	4b278793          	addi	a5,a5,1202 # 20003374 <cbTimersHead>
    2eca:	0007a903          	lw	s2,0(a5)
    2ece:	4485                	li	s1,1
    2ed0:	008494b3          	sll	s1,s1,s0
    2ed4:	04c2                	slli	s1,s1,0x10
    2ed6:	80c1                	srli	s1,s1,0x10
    2ed8:	89be                	mv	s3,a5
    2eda:	992a                	add	s2,s2,a0
    2edc:	00092703          	lw	a4,0(s2)
    2ee0:	c711                	beqz	a4,2eec <TMOS_CB_PeriodicProcessEvent+0x4e>
    2ee2:	00492503          	lw	a0,4(s2)
    2ee6:	c62e                	sw	a1,12(sp)
    2ee8:	9702                	jalr	a4
    2eea:	45b2                	lw	a1,12(sp)
    2eec:	4731                	li	a4,12
    2eee:	02e40433          	mul	s0,s0,a4
    2ef2:	0009a783          	lw	a5,0(s3)
    2ef6:	943e                	add	s0,s0,a5
    2ef8:	441c                	lw	a5,8(s0)
    2efa:	e789                	bnez	a5,2f04 <TMOS_CB_PeriodicProcessEvent+0x66>
    2efc:	00092023          	sw	zero,0(s2)
    2f00:	00092223          	sw	zero,4(s2)
    2f04:	50b2                	lw	ra,44(sp)
    2f06:	5422                	lw	s0,40(sp)
    2f08:	8da5                	xor	a1,a1,s1
    2f0a:	5902                	lw	s2,32(sp)
    2f0c:	5492                	lw	s1,36(sp)
    2f0e:	49f2                	lw	s3,28(sp)
    2f10:	852e                	mv	a0,a1
    2f12:	6145                	addi	sp,sp,48
    2f14:	8082                	ret
    2f16:	0405                	addi	s0,s0,1
    2f18:	f8e41ce3          	bne	s0,a4,2eb0 <TMOS_CB_PeriodicProcessEvent+0x12>
    2f1c:	4481                	li	s1,0
    2f1e:	b7dd                	j	2f04 <TMOS_CB_PeriodicProcessEvent+0x66>
    2f20:	852e                	mv	a0,a1
    2f22:	8082                	ret

00002f24 <TMOS_CB_ProcessEvent>:
TMOS_CB_ProcessEvent():
    2f24:	1141                	addi	sp,sp,-16
    2f26:	01059713          	slli	a4,a1,0x10
    2f2a:	c422                	sw	s0,8(sp)
    2f2c:	c606                	sw	ra,12(sp)
    2f2e:	c226                	sw	s1,4(sp)
    2f30:	c04a                	sw	s2,0(sp)
    2f32:	8741                	srai	a4,a4,0x10
    2f34:	842e                	mv	s0,a1
    2f36:	00075e63          	bgez	a4,2f52 <TMOS_CB_ProcessEvent+0x2e>
    2f3a:	35d9                	jal	2e00 <tmos_msg_receive>
    2f3c:	c111                	beqz	a0,2f40 <TMOS_CB_ProcessEvent+0x1c>
    2f3e:	3d59                	jal	2dd4 <tmos_msg_deallocate>
    2f40:	67a1                	lui	a5,0x8
    2f42:	8c3d                	xor	s0,s0,a5
    2f44:	8522                	mv	a0,s0
    2f46:	40b2                	lw	ra,12(sp)
    2f48:	4422                	lw	s0,8(sp)
    2f4a:	4492                	lw	s1,4(sp)
    2f4c:	4902                	lw	s2,0(sp)
    2f4e:	0141                	addi	sp,sp,16
    2f50:	8082                	ret
    2f52:	d9ed                	beqz	a1,2f44 <TMOS_CB_ProcessEvent+0x20>
    2f54:	87aa                	mv	a5,a0
    2f56:	4701                	li	a4,0
    2f58:	4641                	li	a2,16
    2f5a:	40e456b3          	sra	a3,s0,a4
    2f5e:	8a85                	andi	a3,a3,1
    2f60:	ce8d                	beqz	a3,2f9a <TMOS_CB_ProcessEvent+0x76>
    2f62:	0792                	slli	a5,a5,0x4
    2f64:	97ba                	add	a5,a5,a4
    2f66:	46b1                	li	a3,12
    2f68:	02d787b3          	mul	a5,a5,a3
    2f6c:	20000697          	auipc	a3,0x20000
    2f70:	40868693          	addi	a3,a3,1032 # 20003374 <cbTimersHead>
    2f74:	0006a903          	lw	s2,0(a3)
    2f78:	4485                	li	s1,1
    2f7a:	00e494b3          	sll	s1,s1,a4
    2f7e:	04c2                	slli	s1,s1,0x10
    2f80:	80c1                	srli	s1,s1,0x10
    2f82:	993e                	add	s2,s2,a5
    2f84:	00092783          	lw	a5,0(s2)
    2f88:	00492503          	lw	a0,4(s2)
    2f8c:	9782                	jalr	a5
    2f8e:	00092023          	sw	zero,0(s2)
    2f92:	00092223          	sw	zero,4(s2)
    2f96:	8c25                	xor	s0,s0,s1
    2f98:	b775                	j	2f44 <TMOS_CB_ProcessEvent+0x20>
    2f9a:	0705                	addi	a4,a4,1
    2f9c:	fac71fe3          	bne	a4,a2,2f5a <TMOS_CB_ProcessEvent+0x36>
    2fa0:	4481                	li	s1,0
    2fa2:	bfd5                	j	2f96 <TMOS_CB_ProcessEvent+0x72>

00002fa4 <tmos_proces_sleep>:
tmos_proces_sleep():
    2fa4:	1101                	addi	sp,sp,-32
    2fa6:	0068                	addi	a0,sp,12
    2fa8:	ce06                	sw	ra,28(sp)
    2faa:	cc22                	sw	s0,24(sp)
    2fac:	ca26                	sw	s1,20(sp)
    2fae:	005000ef          	jal	ra,37b2 <LL_GetNextConnectEventTime>
    2fb2:	57fd                	li	a5,-1
    2fb4:	0ef50063          	beq	a0,a5,3094 <tmos_proces_sleep+0xf0>
    2fb8:	4732                	lw	a4,12(sp)
    2fba:	20000697          	auipc	a3,0x20000
    2fbe:	37e68693          	addi	a3,a3,894 # 20003338 <ble>
    2fc2:	20000797          	auipc	a5,0x20000
    2fc6:	38b7c783          	lbu	a5,907(a5) # 2000334d <ble+0x15>
    2fca:	84b6                	mv	s1,a3
    2fcc:	0ae7f963          	bgeu	a5,a4,307e <tmos_proces_sleep+0xda>
    2fd0:	20000417          	auipc	s0,0x20000
    2fd4:	31040413          	addi	s0,s0,784 # 200032e0 <gTmosPara>
    2fd8:	4818                	lw	a4,16(s0)
    2fda:	a8c00637          	lui	a2,0xa8c00
    2fde:	02c70e63          	beq	a4,a2,301a <tmos_proces_sleep+0x76>
    2fe2:	20000797          	auipc	a5,0x20000
    2fe6:	39a78793          	addi	a5,a5,922 # 2000337c <fnGetClockCBs>
    2fea:	439c                	lw	a5,0(a5)
    2fec:	9782                	jalr	a5
    2fee:	4732                	lw	a4,12(sp)
    2ff0:	481c                	lw	a5,16(s0)
    2ff2:	00f77363          	bgeu	a4,a5,2ff8 <tmos_proces_sleep+0x54>
    2ff6:	87ba                	mv	a5,a4
    2ff8:	20000717          	auipc	a4,0x20000
    2ffc:	35574703          	lbu	a4,853(a4) # 2000334d <ble+0x15>
    3000:	8f99                	sub	a5,a5,a4
    3002:	953e                	add	a0,a0,a5
    3004:	01648783          	lb	a5,22(s1)
    3008:	0007ce63          	bltz	a5,3024 <tmos_proces_sleep+0x80>
    300c:	a8c007b7          	lui	a5,0xa8c00
    3010:	00f56a63          	bltu	a0,a5,3024 <tmos_proces_sleep+0x80>
    3014:	574007b7          	lui	a5,0x57400
    3018:	a8a5                	j	3090 <tmos_proces_sleep+0xec>
    301a:	01668683          	lb	a3,22(a3)
    301e:	0606d563          	bgez	a3,3088 <tmos_proces_sleep+0xe4>
    3022:	8d1d                	sub	a0,a0,a5
    3024:	20000417          	auipc	s0,0x20000
    3028:	36840413          	addi	s0,s0,872 # 2000338c <gBleIPPara>
    302c:	4c1c                	lw	a5,24(s0)
    302e:	cf81                	beqz	a5,3046 <tmos_proces_sleep+0xa2>
    3030:	20000797          	auipc	a5,0x20000
    3034:	3bc78793          	addi	a5,a5,956 # 200033ec <gptrRFENDReg>
    3038:	4394                	lw	a3,0(a5)
    303a:	ffcd0737          	lui	a4,0xffcd0
    303e:	177d                	addi	a4,a4,-1
    3040:	469c                	lw	a5,8(a3)
    3042:	8ff9                	and	a5,a5,a4
    3044:	c69c                	sw	a5,8(a3)
    3046:	e119                	bnez	a0,304c <tmos_proces_sleep+0xa8>
    3048:	a8c00537          	lui	a0,0xa8c00
    304c:	20000797          	auipc	a5,0x20000
    3050:	2ec78793          	addi	a5,a5,748 # 20003338 <ble>
    3054:	53dc                	lw	a5,36(a5)
    3056:	9782                	jalr	a5
    3058:	e519                	bnez	a0,3066 <tmos_proces_sleep+0xc2>
    305a:	4c1c                	lw	a5,24(s0)
    305c:	c38d                	beqz	a5,307e <tmos_proces_sleep+0xda>
    305e:	7bd000ef          	jal	ra,401a <LLE_DevInit>
    3062:	23f000ef          	jal	ra,3aa0 <BB_DevInit>
    3066:	4c1c                	lw	a5,24(s0)
    3068:	cb99                	beqz	a5,307e <tmos_proces_sleep+0xda>
    306a:	20000797          	auipc	a5,0x20000
    306e:	38278793          	addi	a5,a5,898 # 200033ec <gptrRFENDReg>
    3072:	4398                	lw	a4,0(a5)
    3074:	003306b7          	lui	a3,0x330
    3078:	471c                	lw	a5,8(a4)
    307a:	8fd5                	or	a5,a5,a3
    307c:	c71c                	sw	a5,8(a4)
    307e:	40f2                	lw	ra,28(sp)
    3080:	4462                	lw	s0,24(sp)
    3082:	44d2                	lw	s1,20(sp)
    3084:	6105                	addi	sp,sp,32
    3086:	8082                	ret
    3088:	f8f57de3          	bgeu	a0,a5,3022 <tmos_proces_sleep+0x7e>
    308c:	40f707b3          	sub	a5,a4,a5
    3090:	953e                	add	a0,a0,a5
    3092:	bf49                	j	3024 <tmos_proces_sleep+0x80>
    3094:	20000497          	auipc	s1,0x20000
    3098:	24c48493          	addi	s1,s1,588 # 200032e0 <gTmosPara>
    309c:	489c                	lw	a5,16(s1)
    309e:	a8c00437          	lui	s0,0xa8c00
    30a2:	fc878ee3          	beq	a5,s0,307e <tmos_proces_sleep+0xda>
    30a6:	20000797          	auipc	a5,0x20000
    30aa:	2d678793          	addi	a5,a5,726 # 2000337c <fnGetClockCBs>
    30ae:	439c                	lw	a5,0(a5)
    30b0:	9782                	jalr	a5
    30b2:	489c                	lw	a5,16(s1)
    30b4:	20000717          	auipc	a4,0x20000
    30b8:	29974703          	lbu	a4,665(a4) # 2000334d <ble+0x15>
    30bc:	8f99                	sub	a5,a5,a4
    30be:	953e                	add	a0,a0,a5
    30c0:	20000797          	auipc	a5,0x20000
    30c4:	27878793          	addi	a5,a5,632 # 20003338 <ble>
    30c8:	01678783          	lb	a5,22(a5)
    30cc:	f407cce3          	bltz	a5,3024 <tmos_proces_sleep+0x80>
    30d0:	f4856ae3          	bltu	a0,s0,3024 <tmos_proces_sleep+0x80>
    30d4:	b781                	j	3014 <tmos_proces_sleep+0x70>

000030d6 <TMOS_GetSystemClock>:
TMOS_GetSystemClock():
    30d6:	20000797          	auipc	a5,0x20000
    30da:	2a278793          	addi	a5,a5,674 # 20003378 <pfnTimerCBs>
    30de:	439c                	lw	a5,0(a5)
    30e0:	1141                	addi	sp,sp,-16
    30e2:	c422                	sw	s0,8(sp)
    30e4:	c606                	sw	ra,12(sp)
    30e6:	20000417          	auipc	s0,0x20000
    30ea:	1fa40413          	addi	s0,s0,506 # 200032e0 <gTmosPara>
    30ee:	cb81                	beqz	a5,30fe <TMOS_GetSystemClock+0x28>
    30f0:	9782                	jalr	a5
    30f2:	485c                	lw	a5,20(s0)
    30f4:	953e                	add	a0,a0,a5
    30f6:	20000797          	auipc	a5,0x20000
    30fa:	1ea7af23          	sw	a0,510(a5) # 200032f4 <gTmosPara+0x14>
    30fe:	4848                	lw	a0,20(s0)
    3100:	40b2                	lw	ra,12(sp)
    3102:	4422                	lw	s0,8(sp)
    3104:	0141                	addi	sp,sp,16
    3106:	8082                	ret

00003108 <tmos_set_event>:
tmos_set_event():
    3108:	20000797          	auipc	a5,0x20000
    310c:	1d97c783          	lbu	a5,473(a5) # 200032e1 <gTmosPara+0x1>
    3110:	02f57163          	bgeu	a0,a5,3132 <tmos_set_event+0x2a>
    3114:	20000717          	auipc	a4,0x20000
    3118:	21c70713          	addi	a4,a4,540 # 20003330 <EventsArr>
    311c:	00151793          	slli	a5,a0,0x1
    3120:	4308                	lw	a0,0(a4)
    3122:	953e                	add	a0,a0,a5
    3124:	00055783          	lhu	a5,0(a0) # a8c00000 <_eusrstack+0x88bf8000>
    3128:	8ddd                	or	a1,a1,a5
    312a:	00b51023          	sh	a1,0(a0)
    312e:	4501                	li	a0,0
    3130:	8082                	ret
    3132:	450d                	li	a0,3
    3134:	8082                	ret

00003136 <tmos_clear_event>:
tmos_clear_event():
    3136:	20000797          	auipc	a5,0x20000
    313a:	1ab7c783          	lbu	a5,427(a5) # 200032e1 <gTmosPara+0x1>
    313e:	02f57363          	bgeu	a0,a5,3164 <tmos_clear_event+0x2e>
    3142:	20000717          	auipc	a4,0x20000
    3146:	1ee70713          	addi	a4,a4,494 # 20003330 <EventsArr>
    314a:	00151793          	slli	a5,a0,0x1
    314e:	4308                	lw	a0,0(a4)
    3150:	fff5c593          	not	a1,a1
    3154:	953e                	add	a0,a0,a5
    3156:	00055783          	lhu	a5,0(a0)
    315a:	8dfd                	and	a1,a1,a5
    315c:	00b51023          	sh	a1,0(a0)
    3160:	4501                	li	a0,0
    3162:	8082                	ret
    3164:	450d                	li	a0,3
    3166:	8082                	ret

00003168 <tmos_start_task>:
tmos_start_task():
    3168:	20000797          	auipc	a5,0x20000
    316c:	1797c783          	lbu	a5,377(a5) # 200032e1 <gTmosPara+0x1>
    3170:	00f56463          	bltu	a0,a5,3178 <tmos_start_task+0x10>
    3174:	4501                	li	a0,0
    3176:	8082                	ret
    3178:	20000797          	auipc	a5,0x20000
    317c:	20478793          	addi	a5,a5,516 # 2000337c <fnGetClockCBs>
    3180:	439c                	lw	a5,0(a5)
    3182:	dbed                	beqz	a5,3174 <tmos_start_task+0xc>
    3184:	1101                	addi	sp,sp,-32
    3186:	cc22                	sw	s0,24(sp)
    3188:	ca26                	sw	s1,20(sp)
    318a:	c84a                	sw	s2,16(sp)
    318c:	c64e                	sw	s3,12(sp)
    318e:	ce06                	sw	ra,28(sp)
    3190:	89b2                	mv	s3,a2
    3192:	892e                	mv	s2,a1
    3194:	84aa                	mv	s1,a0
    3196:	9782                	jalr	a5
    3198:	20000417          	auipc	s0,0x20000
    319c:	17045403          	lhu	s0,368(s0) # 20003308 <gTmosPara+0x28>
    31a0:	03340433          	mul	s0,s0,s3
    31a4:	64000793          	li	a5,1600
    31a8:	32040413          	addi	s0,s0,800
    31ac:	02f45433          	divu	s0,s0,a5
    31b0:	20000797          	auipc	a5,0x20000
    31b4:	18878793          	addi	a5,a5,392 # 20003338 <ble>
    31b8:	01678703          	lb	a4,22(a5)
    31bc:	89be                	mv	s3,a5
    31be:	942a                	add	s0,s0,a0
    31c0:	00074963          	bltz	a4,31d2 <tmos_start_task+0x6a>
    31c4:	a8c007b7          	lui	a5,0xa8c00
    31c8:	00f46563          	bltu	s0,a5,31d2 <tmos_start_task+0x6a>
    31cc:	574007b7          	lui	a5,0x57400
    31d0:	943e                	add	s0,s0,a5
    31d2:	85ca                	mv	a1,s2
    31d4:	8526                	mv	a0,s1
    31d6:	3155                	jal	2e7a <tmosFindTask>
    31d8:	c501                	beqz	a0,31e0 <tmos_start_task+0x78>
    31da:	c500                	sw	s0,8(a0)
    31dc:	4505                	li	a0,1
    31de:	a015                	j	3202 <tmos_start_task+0x9a>
    31e0:	f004e593          	ori	a1,s1,-256
    31e4:	05c2                	slli	a1,a1,0x10
    31e6:	81c1                	srli	a1,a1,0x10
    31e8:	4541                	li	a0,16
    31ea:	1fffe097          	auipc	ra,0x1fffe
    31ee:	46e080e7          	jalr	1134(ra) # 20001658 <tmos_memory_allocate>
    31f2:	ed19                	bnez	a0,3210 <tmos_start_task+0xa8>
    31f4:	0309a783          	lw	a5,48(s3)
    31f8:	c781                	beqz	a5,3200 <tmos_start_task+0x98>
    31fa:	85a6                	mv	a1,s1
    31fc:	4511                	li	a0,4
    31fe:	9782                	jalr	a5
    3200:	4501                	li	a0,0
    3202:	40f2                	lw	ra,28(sp)
    3204:	4462                	lw	s0,24(sp)
    3206:	44d2                	lw	s1,20(sp)
    3208:	4942                	lw	s2,16(sp)
    320a:	49b2                	lw	s3,12(sp)
    320c:	6105                	addi	sp,sp,32
    320e:	8082                	ret
    3210:	20000797          	auipc	a5,0x20000
    3214:	12478793          	addi	a5,a5,292 # 20003334 <taskHead>
    3218:	439c                	lw	a5,0(a5)
    321a:	e39d                	bnez	a5,3240 <tmos_start_task+0xd8>
    321c:	20000797          	auipc	a5,0x20000
    3220:	10a7ac23          	sw	a0,280(a5) # 20003334 <taskHead>
    3224:	4785                	li	a5,1
    3226:	00052623          	sw	zero,12(a0)
    322a:	c500                	sw	s0,8(a0)
    322c:	01251123          	sh	s2,2(a0)
    3230:	00950023          	sb	s1,0(a0)
    3234:	00f500a3          	sb	a5,1(a0)
    3238:	00052223          	sw	zero,4(a0)
    323c:	b745                	j	31dc <tmos_start_task+0x74>
    323e:	87ba                	mv	a5,a4
    3240:	47d8                	lw	a4,12(a5)
    3242:	ff75                	bnez	a4,323e <tmos_start_task+0xd6>
    3244:	c7c8                	sw	a0,12(a5)
    3246:	bff9                	j	3224 <tmos_start_task+0xbc>

00003248 <tmos_stop_task>:
tmos_stop_task():
    3248:	1141                	addi	sp,sp,-16
    324a:	c422                	sw	s0,8(sp)
    324c:	c226                	sw	s1,4(sp)
    324e:	c04a                	sw	s2,0(sp)
    3250:	c606                	sw	ra,12(sp)
    3252:	892a                	mv	s2,a0
    3254:	842e                	mv	s0,a1
    3256:	3115                	jal	2e7a <tmosFindTask>
    3258:	84aa                	mv	s1,a0
    325a:	c119                	beqz	a0,3260 <tmos_stop_task+0x18>
    325c:	00051123          	sh	zero,2(a0)
    3260:	85a2                	mv	a1,s0
    3262:	854a                	mv	a0,s2
    3264:	3dc9                	jal	3136 <tmos_clear_event>
    3266:	20000797          	auipc	a5,0x20000
    326a:	07a7c783          	lbu	a5,122(a5) # 200032e0 <gTmosPara>
    326e:	01279b63          	bne	a5,s2,3284 <tmos_stop_task+0x3c>
    3272:	20000797          	auipc	a5,0x20000
    3276:	0ba7d783          	lhu	a5,186(a5) # 2000332c <eventsClear>
    327a:	8c5d                	or	s0,s0,a5
    327c:	20000797          	auipc	a5,0x20000
    3280:	0a879823          	sh	s0,176(a5) # 2000332c <eventsClear>
    3284:	4501                	li	a0,0
    3286:	e091                	bnez	s1,328a <tmos_stop_task+0x42>
    3288:	4519                	li	a0,6
    328a:	40b2                	lw	ra,12(sp)
    328c:	4422                	lw	s0,8(sp)
    328e:	4492                	lw	s1,4(sp)
    3290:	4902                	lw	s2,0(sp)
    3292:	0141                	addi	sp,sp,16
    3294:	8082                	ret

00003296 <TMOS_TimerRegister>:
TMOS_TimerRegister():
    3296:	1141                	addi	sp,sp,-16
    3298:	c606                	sw	ra,12(sp)
    329a:	20000797          	auipc	a5,0x20000
    329e:	0ca7af23          	sw	a0,222(a5) # 20003378 <pfnTimerCBs>
    32a2:	9502                	jalr	a0
    32a4:	40b2                	lw	ra,12(sp)
    32a6:	20000797          	auipc	a5,0x20000
    32aa:	04a7a923          	sw	a0,82(a5) # 200032f8 <gTmosPara+0x18>
    32ae:	4501                	li	a0,0
    32b0:	0141                	addi	sp,sp,16
    32b2:	8082                	ret

000032b4 <TMOS_ProcessRegister>:
TMOS_ProcessRegister():
    32b4:	4799                	li	a5,6
    32b6:	00b7e963          	bltu	a5,a1,32c8 <TMOS_ProcessRegister+0x14>
    32ba:	058a                	slli	a1,a1,0x2
    32bc:	20000797          	auipc	a5,0x20000
    32c0:	05478793          	addi	a5,a5,84 # 20003310 <pfnProcessCBs>
    32c4:	95be                	add	a1,a1,a5
    32c6:	c188                	sw	a0,0(a1)
    32c8:	8082                	ret

000032ca <TMOS_Init>:
TMOS_Init():
    32ca:	1141                	addi	sp,sp,-16
    32cc:	4671                	li	a2,28
    32ce:	4581                	li	a1,0
    32d0:	20000517          	auipc	a0,0x20000
    32d4:	04050513          	addi	a0,a0,64 # 20003310 <pfnProcessCBs>
    32d8:	c606                	sw	ra,12(sp)
    32da:	c422                	sw	s0,8(sp)
    32dc:	c226                	sw	s1,4(sp)
    32de:	1fffd097          	auipc	ra,0x1fffd
    32e2:	5cc080e7          	jalr	1484(ra) # 200008aa <tmos_memset>
    32e6:	02c00613          	li	a2,44
    32ea:	4581                	li	a1,0
    32ec:	20000517          	auipc	a0,0x20000
    32f0:	ff450513          	addi	a0,a0,-12 # 200032e0 <gTmosPara>
    32f4:	1fffd097          	auipc	ra,0x1fffd
    32f8:	5b6080e7          	jalr	1462(ra) # 200008aa <tmos_memset>
    32fc:	72b020ef          	jal	ra,6226 <tmos_memory_init>
    3300:	20000797          	auipc	a5,0x20000
    3304:	0207aa23          	sw	zero,52(a5) # 20003334 <taskHead>
    3308:	20000797          	auipc	a5,0x20000
    330c:	0607a823          	sw	zero,112(a5) # 20003378 <pfnTimerCBs>
    3310:	20000797          	auipc	a5,0x20000
    3314:	03f7c783          	lbu	a5,63(a5) # 2000334f <ble+0x17>
    3318:	0027d513          	srli	a0,a5,0x2
    331c:	8b8d                	andi	a5,a5,3
    331e:	953e                	add	a0,a0,a5
    3320:	478d                	li	a5,3
    3322:	02f50533          	mul	a0,a0,a5
    3326:	20000417          	auipc	s0,0x20000
    332a:	fba40413          	addi	s0,s0,-70 # 200032e0 <gTmosPara>
    332e:	4799                	li	a5,6
    3330:	4585                	li	a1,1
    3332:	20000497          	auipc	s1,0x20000
    3336:	fda48493          	addi	s1,s1,-38 # 2000330c <tasksArr>
    333a:	0539                	addi	a0,a0,14
    333c:	0ff57513          	andi	a0,a0,255
    3340:	00a40123          	sb	a0,2(s0)
    3344:	02f50533          	mul	a0,a0,a5
    3348:	24050513          	addi	a0,a0,576
    334c:	1fffe097          	auipc	ra,0x1fffe
    3350:	30c080e7          	jalr	780(ra) # 20001658 <tmos_memory_allocate>
    3354:	20000797          	auipc	a5,0x20000
    3358:	02a7a023          	sw	a0,32(a5) # 20003374 <cbTimersHead>
    335c:	00244783          	lbu	a5,2(s0)
    3360:	24050513          	addi	a0,a0,576
    3364:	c088                	sw	a0,0(s1)
    3366:	078a                	slli	a5,a5,0x2
    3368:	953e                	add	a0,a0,a5
    336a:	20000797          	auipc	a5,0x20000
    336e:	fca7a323          	sw	a0,-58(a5) # 20003330 <EventsArr>
    3372:	3cfd                	jal	2e70 <tmos_msg_init>
    3374:	2ebd                	jal	36f2 <tmos_snv_init>
    3376:	00144783          	lbu	a5,1(s0)
    337a:	4094                	lw	a3,0(s1)
    337c:	00000617          	auipc	a2,0x0
    3380:	b2260613          	addi	a2,a2,-1246 # 2e9e <TMOS_CB_PeriodicProcessEvent>
    3384:	00279713          	slli	a4,a5,0x2
    3388:	9736                	add	a4,a4,a3
    338a:	c310                	sw	a2,0(a4)
    338c:	00178713          	addi	a4,a5,1
    3390:	0ff77713          	andi	a4,a4,255
    3394:	070a                	slli	a4,a4,0x2
    3396:	9736                	add	a4,a4,a3
    3398:	00000617          	auipc	a2,0x0
    339c:	b8c60613          	addi	a2,a2,-1140 # 2f24 <TMOS_CB_ProcessEvent>
    33a0:	c310                	sw	a2,0(a4)
    33a2:	00378713          	addi	a4,a5,3
    33a6:	0789                	addi	a5,a5,2
    33a8:	0ff7f793          	andi	a5,a5,255
    33ac:	00e400a3          	sb	a4,1(s0)
    33b0:	40b2                	lw	ra,12(sp)
    33b2:	4422                	lw	s0,8(sp)
    33b4:	078a                	slli	a5,a5,0x2
    33b6:	97b6                	add	a5,a5,a3
    33b8:	c390                	sw	a2,0(a5)
    33ba:	4492                	lw	s1,4(sp)
    33bc:	0141                	addi	sp,sp,16
    33be:	8082                	ret

000033c0 <TMOS_ProcessEventRegister>:
TMOS_ProcessEventRegister():
    33c0:	20000797          	auipc	a5,0x20000
    33c4:	f217c783          	lbu	a5,-223(a5) # 200032e1 <gTmosPara+0x1>
    33c8:	20000717          	auipc	a4,0x20000
    33cc:	f1a74703          	lbu	a4,-230(a4) # 200032e2 <gTmosPara+0x2>
    33d0:	02e7f363          	bgeu	a5,a4,33f6 <TMOS_ProcessEventRegister+0x36>
    33d4:	20000717          	auipc	a4,0x20000
    33d8:	f3870713          	addi	a4,a4,-200 # 2000330c <tasksArr>
    33dc:	4318                	lw	a4,0(a4)
    33de:	00178693          	addi	a3,a5,1
    33e2:	20000617          	auipc	a2,0x20000
    33e6:	eed60fa3          	sb	a3,-257(a2) # 200032e1 <gTmosPara+0x1>
    33ea:	00279693          	slli	a3,a5,0x2
    33ee:	9736                	add	a4,a4,a3
    33f0:	c308                	sw	a0,0(a4)
    33f2:	853e                	mv	a0,a5
    33f4:	8082                	ret
    33f6:	0ff00793          	li	a5,255
    33fa:	bfe5                	j	33f2 <TMOS_ProcessEventRegister+0x32>

000033fc <BLE_LibInit>:
BLE_LibInit():
    33fc:	411c                	lw	a5,0(a0)
    33fe:	16078763          	beqz	a5,356c <BLE_LibInit+0x170>
    3402:	7741                	lui	a4,0xffff0
    3404:	8f7d                	and	a4,a4,a5
    3406:	200006b7          	lui	a3,0x20000
    340a:	4789                	li	a5,2
    340c:	16d71163          	bne	a4,a3,356e <BLE_LibInit+0x172>
    3410:	00455703          	lhu	a4,4(a0)
    3414:	14070d63          	beqz	a4,356e <BLE_LibInit+0x172>
    3418:	1141                	addi	sp,sp,-16
    341a:	c226                	sw	s1,4(sp)
    341c:	4619                	li	a2,6
    341e:	84aa                	mv	s1,a0
    3420:	0ff00593          	li	a1,255
    3424:	0569                	addi	a0,a0,26
    3426:	c606                	sw	ra,12(sp)
    3428:	c422                	sw	s0,8(sp)
    342a:	1fffd097          	auipc	ra,0x1fffd
    342e:	522080e7          	jalr	1314(ra) # 2000094c <tmos_isbufset>
    3432:	4705                	li	a4,1
    3434:	478d                	li	a5,3
    3436:	12e50563          	beq	a0,a4,3560 <BLE_LibInit+0x164>
    343a:	20000417          	auipc	s0,0x20000
    343e:	efe40413          	addi	s0,s0,-258 # 20003338 <ble>
    3442:	441c                	lw	a5,8(s0)
    3444:	cb81                	beqz	a5,3454 <BLE_LibInit+0x58>
    3446:	5858                	lw	a4,52(s0)
    3448:	4799                	li	a5,6
    344a:	10071b63          	bnez	a4,3560 <BLE_LibInit+0x164>
    344e:	5c18                	lw	a4,56(s0)
    3450:	10071863          	bnez	a4,3560 <BLE_LibInit+0x164>
    3454:	03c00613          	li	a2,60
    3458:	4581                	li	a1,0
    345a:	20000517          	auipc	a0,0x20000
    345e:	ede50513          	addi	a0,a0,-290 # 20003338 <ble>
    3462:	1fffd097          	auipc	ra,0x1fffd
    3466:	448080e7          	jalr	1096(ra) # 200008aa <tmos_memset>
    346a:	03c00613          	li	a2,60
    346e:	85a6                	mv	a1,s1
    3470:	20000517          	auipc	a0,0x20000
    3474:	ec850513          	addi	a0,a0,-312 # 20003338 <ble>
    3478:	1fffd097          	auipc	ra,0x1fffd
    347c:	3fa080e7          	jalr	1018(ra) # 20000872 <tmos_memcpy>
    3480:	20000797          	auipc	a5,0x20000
    3484:	ec47d783          	lhu	a5,-316(a5) # 20003344 <ble+0xc>
    3488:	e799                	bnez	a5,3496 <BLE_LibInit+0x9a>
    348a:	10000793          	li	a5,256
    348e:	20000717          	auipc	a4,0x20000
    3492:	eaf71b23          	sh	a5,-330(a4) # 20003344 <ble+0xc>
    3496:	20000797          	auipc	a5,0x20000
    349a:	eb07c783          	lbu	a5,-336(a5) # 20003346 <ble+0xe>
    349e:	e791                	bnez	a5,34aa <BLE_LibInit+0xae>
    34a0:	4785                	li	a5,1
    34a2:	20000717          	auipc	a4,0x20000
    34a6:	eaf70223          	sb	a5,-348(a4) # 20003346 <ble+0xe>
    34aa:	20000797          	auipc	a5,0x20000
    34ae:	e9e7d783          	lhu	a5,-354(a5) # 20003348 <ble+0x10>
    34b2:	e791                	bnez	a5,34be <BLE_LibInit+0xc2>
    34b4:	47ed                	li	a5,27
    34b6:	20000717          	auipc	a4,0x20000
    34ba:	e8f71923          	sh	a5,-366(a4) # 20003348 <ble+0x10>
    34be:	20000797          	auipc	a5,0x20000
    34c2:	e897c783          	lbu	a5,-375(a5) # 20003347 <ble+0xf>
    34c6:	e791                	bnez	a5,34d2 <BLE_LibInit+0xd6>
    34c8:	4795                	li	a5,5
    34ca:	20000717          	auipc	a4,0x20000
    34ce:	e6f70ea3          	sb	a5,-387(a4) # 20003347 <ble+0xf>
    34d2:	20000797          	auipc	a5,0x20000
    34d6:	e787c783          	lbu	a5,-392(a5) # 2000334a <ble+0x12>
    34da:	e791                	bnez	a5,34e6 <BLE_LibInit+0xea>
    34dc:	4785                	li	a5,1
    34de:	20000717          	auipc	a4,0x20000
    34e2:	e6f70623          	sb	a5,-404(a4) # 2000334a <ble+0x12>
    34e6:	20000797          	auipc	a5,0x20000
    34ea:	e657c783          	lbu	a5,-411(a5) # 2000334b <ble+0x13>
    34ee:	e799                	bnez	a5,34fc <BLE_LibInit+0x100>
    34f0:	00f44783          	lbu	a5,15(s0)
    34f4:	20000717          	auipc	a4,0x20000
    34f8:	e4f70ba3          	sb	a5,-425(a4) # 2000334b <ble+0x13>
    34fc:	20000797          	auipc	a5,0x20000
    3500:	e507c783          	lbu	a5,-432(a5) # 2000334c <ble+0x14>
    3504:	e791                	bnez	a5,3510 <BLE_LibInit+0x114>
    3506:	47b5                	li	a5,13
    3508:	20000717          	auipc	a4,0x20000
    350c:	e4f70223          	sb	a5,-444(a4) # 2000334c <ble+0x14>
    3510:	20000797          	auipc	a5,0x20000
    3514:	e417c783          	lbu	a5,-447(a5) # 20003351 <ble+0x19>
    3518:	e799                	bnez	a5,3526 <BLE_LibInit+0x12a>
    351a:	02800793          	li	a5,40
    351e:	20000717          	auipc	a4,0x20000
    3522:	e2f709a3          	sb	a5,-461(a4) # 20003351 <ble+0x19>
    3526:	20000797          	auipc	a5,0x20000
    352a:	e277c783          	lbu	a5,-473(a5) # 2000334d <ble+0x15>
    352e:	e799                	bnez	a5,353c <BLE_LibInit+0x140>
    3530:	02d00793          	li	a5,45
    3534:	20000717          	auipc	a4,0x20000
    3538:	e0f70ca3          	sb	a5,-487(a4) # 2000334d <ble+0x15>
    353c:	0184c783          	lbu	a5,24(s1)
    3540:	e799                	bnez	a5,354e <BLE_LibInit+0x152>
    3542:	03c00793          	li	a5,60
    3546:	20000717          	auipc	a4,0x20000
    354a:	e0f70523          	sb	a5,-502(a4) # 20003350 <ble+0x18>
    354e:	541c                	lw	a5,40(s0)
    3550:	c791                	beqz	a5,355c <BLE_LibInit+0x160>
    3552:	9782                	jalr	a5
    3554:	20000797          	auipc	a5,0x20000
    3558:	d8a79a23          	sh	a0,-620(a5) # 200032e8 <gTmosPara+0x8>
    355c:	33bd                	jal	32ca <TMOS_Init>
    355e:	4781                	li	a5,0
    3560:	40b2                	lw	ra,12(sp)
    3562:	4422                	lw	s0,8(sp)
    3564:	4492                	lw	s1,4(sp)
    3566:	853e                	mv	a0,a5
    3568:	0141                	addi	sp,sp,16
    356a:	8082                	ret
    356c:	4789                	li	a5,2
    356e:	853e                	mv	a0,a5
    3570:	8082                	ret

00003572 <clockGetTickValve>:
clockGetTickValve():
    3572:	20000797          	auipc	a5,0x20000
    3576:	e0a78793          	addi	a5,a5,-502 # 2000337c <fnGetClockCBs>
    357a:	439c                	lw	a5,0(a5)
    357c:	1141                	addi	sp,sp,-16
    357e:	c606                	sw	ra,12(sp)
    3580:	9782                	jalr	a5
    3582:	64000793          	li	a5,1600
    3586:	02f507b3          	mul	a5,a0,a5
    358a:	20000697          	auipc	a3,0x20000
    358e:	d7e6d683          	lhu	a3,-642(a3) # 20003308 <gTmosPara+0x28>
    3592:	20000717          	auipc	a4,0x20000
    3596:	d4e70713          	addi	a4,a4,-690 # 200032e0 <gTmosPara>
    359a:	4f18                	lw	a4,24(a4)
    359c:	4501                	li	a0,0
    359e:	02d7d7b3          	divu	a5,a5,a3
    35a2:	02f70063          	beq	a4,a5,35c2 <clockGetTickValve+0x50>
    35a6:	40e78533          	sub	a0,a5,a4
    35aa:	00f76863          	bltu	a4,a5,35ba <clockGetTickValve+0x48>
    35ae:	b0000537          	lui	a0,0xb0000
    35b2:	02d55533          	divu	a0,a0,a3
    35b6:	8d19                	sub	a0,a0,a4
    35b8:	953e                	add	a0,a0,a5
    35ba:	20000717          	auipc	a4,0x20000
    35be:	d2f72f23          	sw	a5,-706(a4) # 200032f8 <gTmosPara+0x18>
    35c2:	40b2                	lw	ra,12(sp)
    35c4:	0141                	addi	sp,sp,16
    35c6:	8082                	ret

000035c8 <TMOS_TempSample>:
TMOS_TempSample():
    35c8:	20000797          	auipc	a5,0x20000
    35cc:	d7078793          	addi	a5,a5,-656 # 20003338 <ble>
    35d0:	5798                	lw	a4,40(a5)
    35d2:	cb39                	beqz	a4,3628 <TMOS_TempSample+0x60>
    35d4:	1141                	addi	sp,sp,-16
    35d6:	c422                	sw	s0,8(sp)
    35d8:	c226                	sw	s1,4(sp)
    35da:	c606                	sw	ra,12(sp)
    35dc:	84be                	mv	s1,a5
    35de:	9702                	jalr	a4
    35e0:	20000717          	auipc	a4,0x20000
    35e4:	d0875703          	lhu	a4,-760(a4) # 200032e8 <gTmosPara+0x8>
    35e8:	842a                	mv	s0,a0
    35ea:	cb15                	beqz	a4,361e <TMOS_TempSample+0x56>
    35ec:	87ba                	mv	a5,a4
    35ee:	00a77363          	bgeu	a4,a0,35f4 <TMOS_TempSample+0x2c>
    35f2:	87aa                	mv	a5,a0
    35f4:	07c2                	slli	a5,a5,0x10
    35f6:	83c1                	srli	a5,a5,0x10
    35f8:	86ba                	mv	a3,a4
    35fa:	00e47363          	bgeu	s0,a4,3600 <TMOS_TempSample+0x38>
    35fe:	86a2                	mv	a3,s0
    3600:	06c2                	slli	a3,a3,0x10
    3602:	82c1                	srli	a3,a3,0x10
    3604:	8f95                	sub	a5,a5,a3
    3606:	4751                	li	a4,20
    3608:	00f75b63          	bge	a4,a5,361e <TMOS_TempSample+0x56>
    360c:	54dc                	lw	a5,44(s1)
    360e:	c391                	beqz	a5,3612 <TMOS_TempSample+0x4a>
    3610:	9782                	jalr	a5
    3612:	0d3000ef          	jal	ra,3ee4 <BLE_RegInit>
    3616:	20000797          	auipc	a5,0x20000
    361a:	cc879923          	sh	s0,-814(a5) # 200032e8 <gTmosPara+0x8>
    361e:	40b2                	lw	ra,12(sp)
    3620:	4422                	lw	s0,8(sp)
    3622:	4492                	lw	s1,4(sp)
    3624:	0141                	addi	sp,sp,16
    3626:	8082                	ret
    3628:	8082                	ret

0000362a <TMOS_TimerInit>:
TMOS_TimerInit():
    362a:	20000797          	auipc	a5,0x20000
    362e:	d0e78793          	addi	a5,a5,-754 # 20003338 <ble>
    3632:	57dc                	lw	a5,44(a5)
    3634:	1101                	addi	sp,sp,-32
    3636:	ce06                	sw	ra,28(sp)
    3638:	c781                	beqz	a5,3640 <TMOS_TimerInit+0x16>
    363a:	c62a                	sw	a0,12(sp)
    363c:	9782                	jalr	a5
    363e:	4532                	lw	a0,12(sp)
    3640:	c515                	beqz	a0,366c <TMOS_TimerInit+0x42>
    3642:	003287b7          	lui	a5,0x328
    3646:	a1278793          	addi	a5,a5,-1518 # 327a12 <_data_lma+0x321382>
    364a:	20000717          	auipc	a4,0x20000
    364e:	caf72f23          	sw	a5,-834(a4) # 20003308 <gTmosPara+0x28>
    3652:	20000797          	auipc	a5,0x20000
    3656:	d2a7a523          	sw	a0,-726(a5) # 2000337c <fnGetClockCBs>
    365a:	00000517          	auipc	a0,0x0
    365e:	f1850513          	addi	a0,a0,-232 # 3572 <clockGetTickValve>
    3662:	3915                	jal	3296 <TMOS_TimerRegister>
    3664:	40f2                	lw	ra,28(sp)
    3666:	4501                	li	a0,0
    3668:	6105                	addi	sp,sp,32
    366a:	8082                	ret
    366c:	20000797          	auipc	a5,0x20000
    3670:	ce27c783          	lbu	a5,-798(a5) # 2000334e <ble+0x16>
    3674:	01879713          	slli	a4,a5,0x18
    3678:	8761                	srai	a4,a4,0x18
    367a:	02075c63          	bgez	a4,36b2 <TMOS_TimerInit+0x88>
    367e:	20000797          	auipc	a5,0x20000
    3682:	c607af23          	sw	zero,-898(a5) # 200032fc <gTmosPara+0x1c>
    3686:	003287b7          	lui	a5,0x328
    368a:	a1278793          	addi	a5,a5,-1518 # 327a12 <_data_lma+0x321382>
    368e:	20000717          	auipc	a4,0x20000
    3692:	c6f72d23          	sw	a5,-902(a4) # 20003308 <gTmosPara+0x28>
    3696:	577d                	li	a4,-1
    3698:	4000c7b7          	lui	a5,0x4000c
    369c:	26e7a423          	sw	a4,616(a5) # 4000c268 <_eusrstack+0x20004268>
    36a0:	1fffd797          	auipc	a5,0x1fffd
    36a4:	61c78793          	addi	a5,a5,1564 # 20000cbc <clockGetHSEValue>
    36a8:	20000717          	auipc	a4,0x20000
    36ac:	ccf72a23          	sw	a5,-812(a4) # 2000337c <fnGetClockCBs>
    36b0:	b76d                	j	365a <TMOS_TimerInit+0x30>
    36b2:	0017f713          	andi	a4,a5,1
    36b6:	cf11                	beqz	a4,36d2 <TMOS_TimerInit+0xa8>
    36b8:	032087b7          	lui	a5,0x3208
    36bc:	d0078793          	addi	a5,a5,-768 # 3207d00 <_data_lma+0x3201670>
    36c0:	20000717          	auipc	a4,0x20000
    36c4:	c4f72423          	sw	a5,-952(a4) # 20003308 <gTmosPara+0x28>
    36c8:	1fffd797          	auipc	a5,0x1fffd
    36cc:	62678793          	addi	a5,a5,1574 # 20000cee <clockGetLSEValue>
    36d0:	bfe1                	j	36a8 <TMOS_TimerInit+0x7e>
    36d2:	7761                	lui	a4,0xffff8
    36d4:	20000697          	auipc	a3,0x20000
    36d8:	c2e69a23          	sh	a4,-972(a3) # 20003308 <gTmosPara+0x28>
    36dc:	cb81                	beqz	a5,36ec <TMOS_TimerInit+0xc2>
    36de:	32000793          	li	a5,800
    36e2:	20000717          	auipc	a4,0x20000
    36e6:	c2f71423          	sh	a5,-984(a4) # 2000330a <gTmosPara+0x2a>
    36ea:	bff9                	j	36c8 <TMOS_TimerInit+0x9e>
    36ec:	03200793          	li	a5,50
    36f0:	bfcd                	j	36e2 <TMOS_TimerInit+0xb8>

000036f2 <tmos_snv_init>:
tmos_snv_init():
    36f2:	1101                	addi	sp,sp,-32
    36f4:	cc22                	sw	s0,24(sp)
    36f6:	20000417          	auipc	s0,0x20000
    36fa:	c4240413          	addi	s0,s0,-958 # 20003338 <ble>
    36fe:	4408                	lw	a0,8(s0)
    3700:	ce06                	sw	ra,28(sp)
    3702:	ca26                	sw	s1,20(sp)
    3704:	c84a                	sw	s2,16(sp)
    3706:	e901                	bnez	a0,3716 <tmos_snv_init+0x24>
    3708:	4505                	li	a0,1
    370a:	40f2                	lw	ra,28(sp)
    370c:	4462                	lw	s0,24(sp)
    370e:	44d2                	lw	s1,20(sp)
    3710:	4942                	lw	s2,16(sp)
    3712:	6105                	addi	sp,sp,32
    3714:	8082                	ret
    3716:	585c                	lw	a5,52(s0)
    3718:	dbe5                	beqz	a5,3708 <tmos_snv_init+0x16>
    371a:	5c18                	lw	a4,56(s0)
    371c:	d775                	beqz	a4,3708 <tmos_snv_init+0x16>
    371e:	0070                	addi	a2,sp,12
    3720:	4585                	li	a1,1
    3722:	9782                	jalr	a5
    3724:	4418                	lw	a4,8(s0)
    3726:	47b2                	lw	a5,12(sp)
    3728:	fef700e3          	beq	a4,a5,3708 <tmos_snv_init+0x16>
    372c:	04e00593          	li	a1,78
    3730:	20000517          	auipc	a0,0x20000
    3734:	c1455503          	lhu	a0,-1004(a0) # 20003344 <ble+0xc>
    3738:	1fffe097          	auipc	ra,0x1fffe
    373c:	f20080e7          	jalr	-224(ra) # 20001658 <tmos_memory_allocate>
    3740:	20000717          	auipc	a4,0x20000
    3744:	bca72023          	sw	a0,-1088(a4) # 20003300 <gTmosPara+0x20>
    3748:	d161                	beqz	a0,3708 <tmos_snv_init+0x16>
    374a:	20000617          	auipc	a2,0x20000
    374e:	bfa65603          	lhu	a2,-1030(a2) # 20003344 <ble+0xc>
    3752:	0ff00593          	li	a1,255
    3756:	1fffd097          	auipc	ra,0x1fffd
    375a:	154080e7          	jalr	340(ra) # 200008aa <tmos_memset>
    375e:	4481                	li	s1,0
    3760:	20000917          	auipc	s2,0x20000
    3764:	b8090913          	addi	s2,s2,-1152 # 200032e0 <gTmosPara>
    3768:	20000797          	auipc	a5,0x20000
    376c:	bde7c783          	lbu	a5,-1058(a5) # 20003346 <ble+0xe>
    3770:	02092603          	lw	a2,32(s2)
    3774:	02f4c163          	blt	s1,a5,3796 <tmos_snv_init+0xa4>
    3778:	8532                	mv	a0,a2
    377a:	1fffe097          	auipc	ra,0x1fffe
    377e:	fb0080e7          	jalr	-80(ra) # 2000172a <tmos_memory_free>
    3782:	4501                	li	a0,0
    3784:	20000797          	auipc	a5,0x20000
    3788:	b607ae23          	sw	zero,-1156(a5) # 20003300 <gTmosPara+0x20>
    378c:	20000797          	auipc	a5,0x20000
    3790:	b607ac23          	sw	zero,-1160(a5) # 20003304 <gTmosPara+0x24>
    3794:	bf9d                	j	370a <tmos_snv_init+0x18>
    3796:	20000597          	auipc	a1,0x20000
    379a:	bae5d583          	lhu	a1,-1106(a1) # 20003344 <ble+0xc>
    379e:	029587b3          	mul	a5,a1,s1
    37a2:	4408                	lw	a0,8(s0)
    37a4:	5c18                	lw	a4,56(s0)
    37a6:	8189                	srli	a1,a1,0x2
    37a8:	0485                	addi	s1,s1,1
    37aa:	953e                	add	a0,a0,a5
    37ac:	c208                	sw	a0,0(a2)
    37ae:	9702                	jalr	a4
    37b0:	bf65                	j	3768 <tmos_snv_init+0x76>

000037b2 <LL_GetNextConnectEventTime>:
LL_GetNextConnectEventTime():
    37b2:	20000797          	auipc	a5,0x20000
    37b6:	b317c783          	lbu	a5,-1231(a5) # 200032e3 <gTmosPara+0x3>
    37ba:	18078263          	beqz	a5,393e <LL_GetNextConnectEventTime+0x18c>
    37be:	1141                	addi	sp,sp,-16
    37c0:	c04a                	sw	s2,0(sp)
    37c2:	c606                	sw	ra,12(sp)
    37c4:	892a                	mv	s2,a0
    37c6:	c422                	sw	s0,8(sp)
    37c8:	c226                	sw	s1,4(sp)
    37ca:	557d                	li	a0,-1
    37cc:	0e090c63          	beqz	s2,38c4 <LL_GetNextConnectEventTime+0x112>
    37d0:	20000797          	auipc	a5,0x20000
    37d4:	c3078793          	addi	a5,a5,-976 # 20003400 <gBleLlPara>
    37d8:	08c7a683          	lw	a3,140(a5)
    37dc:	c6e5                	beqz	a3,38c4 <LL_GetNextConnectEventTime+0x112>
    37de:	20000497          	auipc	s1,0x20000
    37e2:	b5a48493          	addi	s1,s1,-1190 # 20003338 <ble>
    37e6:	01648883          	lb	a7,22(s1)
    37ea:	000f4537          	lui	a0,0xf4
    37ee:	23f50f13          	addi	t5,a0,575 # f423f <_data_lma+0xedbaf>
    37f2:	20000317          	auipc	t1,0x20000
    37f6:	b1635303          	lhu	t1,-1258(t1) # 20003308 <gTmosPara+0x28>
    37fa:	20000f97          	auipc	t6,0x20000
    37fe:	b56fcf83          	lbu	t6,-1194(t6) # 20003350 <ble+0x18>
    3802:	547d                	li	s0,-1
    3804:	4e85                	li	t4,1
    3806:	24050513          	addi	a0,a0,576
    380a:	a8c00e37          	lui	t3,0xa8c00
    380e:	429d                	li	t0,7
    3810:	4e200393          	li	t2,1250
    3814:	574000b7          	lui	ra,0x57400
    3818:	00b6c703          	lbu	a4,11(a3)
    381c:	0906a783          	lw	a5,144(a3)
    3820:	07d71a63          	bne	a4,t4,3894 <LL_GetNextConnectEventTime+0xe2>
    3824:	07e6d703          	lhu	a4,126(a3)
    3828:	03a6d603          	lhu	a2,58(a3)
    382c:	0ac77863          	bgeu	a4,a2,38dc <LL_GetNextConnectEventTime+0x12a>
    3830:	0106c583          	lbu	a1,16(a3)
    3834:	0bd59463          	bne	a1,t4,38dc <LL_GetNextConnectEventTime+0x12a>
    3838:	1186a583          	lw	a1,280(a3)
    383c:	e1c5                	bnez	a1,38dc <LL_GetNextConnectEventTime+0x12a>
    383e:	0a46a583          	lw	a1,164(a3)
    3842:	edc9                	bnez	a1,38dc <LL_GetNextConnectEventTime+0x12a>
    3844:	00f6c583          	lbu	a1,15(a3)
    3848:	08559a63          	bne	a1,t0,38dc <LL_GetNextConnectEventTime+0x12a>
    384c:	0386d583          	lhu	a1,56(a3)
    3850:	8e19                	sub	a2,a2,a4
    3852:	0946a703          	lw	a4,148(a3)
    3856:	02c585b3          	mul	a1,a1,a2
    385a:	02654633          	div	a2,a0,t1
    385e:	027585b3          	mul	a1,a1,t2
    3862:	02e5d733          	divu	a4,a1,a4
    3866:	02c5d5b3          	divu	a1,a1,a2
    386a:	977e                	add	a4,a4,t6
    386c:	0742                	slli	a4,a4,0x10
    386e:	8341                	srli	a4,a4,0x10
    3870:	08e69223          	sh	a4,132(a3)
    3874:	00f58633          	add	a2,a1,a5
    3878:	0008c563          	bltz	a7,3882 <LL_GetNextConnectEventTime+0xd0>
    387c:	01c66363          	bltu	a2,t3,3882 <LL_GetNextConnectEventTime+0xd0>
    3880:	9606                	add	a2,a2,ra
    3882:	026707b3          	mul	a5,a4,t1
    3886:	97fa                	add	a5,a5,t5
    3888:	02a7d7b3          	divu	a5,a5,a0
    388c:	0408d263          	bgez	a7,38d0 <LL_GetNextConnectEventTime+0x11e>
    3890:	40f607b3          	sub	a5,a2,a5
    3894:	0087f363          	bgeu	a5,s0,389a <LL_GetNextConnectEventTime+0xe8>
    3898:	843e                	mv	s0,a5
    389a:	4294                	lw	a3,0(a3)
    389c:	feb5                	bnez	a3,3818 <LL_GetNextConnectEventTime+0x66>
    389e:	20000797          	auipc	a5,0x20000
    38a2:	ade78793          	addi	a5,a5,-1314 # 2000337c <fnGetClockCBs>
    38a6:	439c                	lw	a5,0(a5)
    38a8:	9782                	jalr	a5
    38aa:	04a46863          	bltu	s0,a0,38fa <LL_GetNextConnectEventTime+0x148>
    38ae:	40a407b3          	sub	a5,s0,a0
    38b2:	00f92023          	sw	a5,0(s2)
    38b6:	00092783          	lw	a5,0(s2)
    38ba:	4729                	li	a4,10
    38bc:	04f76f63          	bltu	a4,a5,391a <LL_GetNextConnectEventTime+0x168>
    38c0:	00092023          	sw	zero,0(s2)
    38c4:	40b2                	lw	ra,12(sp)
    38c6:	4422                	lw	s0,8(sp)
    38c8:	4492                	lw	s1,4(sp)
    38ca:	4902                	lw	s2,0(sp)
    38cc:	0141                	addi	sp,sp,16
    38ce:	8082                	ret
    38d0:	fcf670e3          	bgeu	a2,a5,3890 <LL_GetNextConnectEventTime+0xde>
    38d4:	40fe07b3          	sub	a5,t3,a5
    38d8:	97b2                	add	a5,a5,a2
    38da:	bf6d                	j	3894 <LL_GetNextConnectEventTime+0xe2>
    38dc:	0846d703          	lhu	a4,132(a3)
    38e0:	02670733          	mul	a4,a4,t1
    38e4:	977a                	add	a4,a4,t5
    38e6:	02a75733          	divu	a4,a4,a0
    38ea:	0008d463          	bgez	a7,38f2 <LL_GetNextConnectEventTime+0x140>
    38ee:	8f99                	sub	a5,a5,a4
    38f0:	b755                	j	3894 <LL_GetNextConnectEventTime+0xe2>
    38f2:	fee7fee3          	bgeu	a5,a4,38ee <LL_GetNextConnectEventTime+0x13c>
    38f6:	97f2                	add	a5,a5,t3
    38f8:	bfdd                	j	38ee <LL_GetNextConnectEventTime+0x13c>
    38fa:	408507b3          	sub	a5,a0,s0
    38fe:	0007db63          	bgez	a5,3914 <LL_GetNextConnectEventTime+0x162>
    3902:	01648783          	lb	a5,22(s1)
    3906:	fa07c4e3          	bltz	a5,38ae <LL_GetNextConnectEventTime+0xfc>
    390a:	a8c007b7          	lui	a5,0xa8c00
    390e:	97a2                	add	a5,a5,s0
    3910:	8f89                	sub	a5,a5,a0
    3912:	b745                	j	38b2 <LL_GetNextConnectEventTime+0x100>
    3914:	00092023          	sw	zero,0(s2)
    3918:	bf79                	j	38b6 <LL_GetNextConnectEventTime+0x104>
    391a:	17d9                	addi	a5,a5,-10
    391c:	00f92023          	sw	a5,0(s2)
    3920:	01648783          	lb	a5,22(s1)
    3924:	0007d563          	bgez	a5,392e <LL_GetNextConnectEventTime+0x17c>
    3928:	ff640513          	addi	a0,s0,-10
    392c:	bf61                	j	38c4 <LL_GetNextConnectEventTime+0x112>
    392e:	47a5                	li	a5,9
    3930:	fe87ece3          	bltu	a5,s0,3928 <LL_GetNextConnectEventTime+0x176>
    3934:	a8c00537          	lui	a0,0xa8c00
    3938:	1559                	addi	a0,a0,-10
    393a:	9522                	add	a0,a0,s0
    393c:	b761                	j	38c4 <LL_GetNextConnectEventTime+0x112>
    393e:	557d                	li	a0,-1
    3940:	8082                	ret

00003942 <LL_ScanSetRF>:
LL_ScanSetRF():
    3942:	1141                	addi	sp,sp,-16
    3944:	20000797          	auipc	a5,0x20000
    3948:	abc78793          	addi	a5,a5,-1348 # 20003400 <gBleLlPara>
    394c:	c226                	sw	s1,4(sp)
    394e:	20000497          	auipc	s1,0x20000
    3952:	a5a48493          	addi	s1,s1,-1446 # 200033a8 <gptrLLEReg>
    3956:	c422                	sw	s0,8(sp)
    3958:	5be0                	lw	s0,116(a5)
    395a:	409c                	lw	a5,0(s1)
    395c:	c606                	sw	ra,12(sp)
    395e:	c04a                	sw	s2,0(sp)
    3960:	4398                	lw	a4,0(a5)
    3962:	8b0d                	andi	a4,a4,3
    3964:	c305                	beqz	a4,3984 <LL_ScanSetRF+0x42>
    3966:	4bb8                	lw	a4,80(a5)
    3968:	9b61                	andi	a4,a4,-8
    396a:	cbb8                	sw	a4,80(a5)
    396c:	4398                	lw	a4,0(a5)
    396e:	00876713          	ori	a4,a4,8
    3972:	c398                	sw	a4,0(a5)
    3974:	439c                	lw	a5,0(a5)
    3976:	838d                	srli	a5,a5,0x3
    3978:	8b85                	andi	a5,a5,1
    397a:	c789                	beqz	a5,3984 <LL_ScanSetRF+0x42>
    397c:	0001                	nop
    397e:	0001                	nop
    3980:	0001                	nop
    3982:	0001                	nop
    3984:	20000797          	auipc	a5,0x20000
    3988:	a0078793          	addi	a5,a5,-1536 # 20003384 <gptrBBReg>
    398c:	4394                	lw	a3,0(a5)
    398e:	8e89c737          	lui	a4,0x8e89c
    3992:	ed670713          	addi	a4,a4,-298 # 8e89bed6 <_eusrstack+0x6e893ed6>
    3996:	c698                	sw	a4,8(a3)
    3998:	00555737          	lui	a4,0x555
    399c:	55570713          	addi	a4,a4,1365 # 555555 <_data_lma+0x54eec5>
    39a0:	c2d8                	sw	a4,4(a3)
    39a2:	02244703          	lbu	a4,34(s0)
    39a6:	0ff00693          	li	a3,255
    39aa:	893e                	mv	s2,a5
    39ac:	00d70763          	beq	a4,a3,39ba <LL_ScanSetRF+0x78>
    39b0:	57fd                	li	a5,-1
    39b2:	02e400a3          	sb	a4,33(s0)
    39b6:	02f40123          	sb	a5,34(s0)
    39ba:	02144503          	lbu	a0,33(s0)
    39be:	4789                	li	a5,2
    39c0:	00f50363          	beq	a0,a5,39c6 <LL_ScanSetRF+0x84>
    39c4:	4501                	li	a0,0
    39c6:	4098                	lw	a4,0(s1)
    39c8:	435c                	lw	a5,4(a4)
    39ca:	0017e793          	ori	a5,a5,1
    39ce:	c35c                	sw	a5,4(a4)
    39d0:	fa100793          	li	a5,-95
    39d4:	00f40523          	sb	a5,10(s0)
    39d8:	20000797          	auipc	a5,0x20000
    39dc:	9bd7c783          	lbu	a5,-1603(a5) # 20003395 <gBleIPPara+0x9>
    39e0:	cf81                	beqz	a5,39f8 <LL_ScanSetRF+0xb6>
    39e2:	20000717          	auipc	a4,0x20000
    39e6:	9b274703          	lbu	a4,-1614(a4) # 20003394 <gBleIPPara+0x8>
    39ea:	4795                	li	a5,5
    39ec:	00f71663          	bne	a4,a5,39f8 <LL_ScanSetRF+0xb6>
    39f0:	20000797          	auipc	a5,0x20000
    39f4:	9a0782a3          	sb	zero,-1627(a5) # 20003395 <gBleIPPara+0x9>
    39f8:	20000717          	auipc	a4,0x20000
    39fc:	99b74703          	lbu	a4,-1637(a4) # 20003393 <gBleIPPara+0x7>
    3a00:	479d                	li	a5,7
    3a02:	00f71863          	bne	a4,a5,3a12 <LL_ScanSetRF+0xd0>
    3a06:	10700793          	li	a5,263
    3a0a:	20000717          	auipc	a4,0x20000
    3a0e:	98f71523          	sh	a5,-1654(a4) # 20003394 <gBleIPPara+0x8>
    3a12:	4795                	li	a5,5
    3a14:	20000717          	auipc	a4,0x20000
    3a18:	96f70fa3          	sb	a5,-1665(a4) # 20003393 <gBleIPPara+0x7>
    3a1c:	4601                	li	a2,0
    3a1e:	20000797          	auipc	a5,0x20000
    3a22:	96078723          	sb	zero,-1682(a5) # 2000338c <gBleIPPara>
    3a26:	0ff00593          	li	a1,255
    3a2a:	20000797          	auipc	a5,0x20000
    3a2e:	96078323          	sb	zero,-1690(a5) # 20003390 <gBleIPPara+0x4>
    3a32:	24b9                	jal	3c80 <BLE_SetPHYRxMode>
    3a34:	4090                	lw	a2,0(s1)
    3a36:	20000797          	auipc	a5,0x20000
    3a3a:	94078da3          	sb	zero,-1701(a5) # 20003391 <gBleIPPara+0x5>
    3a3e:	20000797          	auipc	a5,0x20000
    3a42:	940787a3          	sb	zero,-1713(a5) # 2000338d <gBleIPPara+0x1>
    3a46:	4785                	li	a5,1
    3a48:	c21c                	sw	a5,0(a2)
    3a4a:	00092783          	lw	a5,0(s2)
    3a4e:	003305b7          	lui	a1,0x330
    3a52:	4398                	lw	a4,0(a5)
    3a54:	e7f77713          	andi	a4,a4,-385
    3a58:	c398                	sw	a4,0(a5)
    3a5a:	4398                	lw	a4,0(a5)
    3a5c:	e7f77713          	andi	a4,a4,-385
    3a60:	10076713          	ori	a4,a4,256
    3a64:	c398                	sw	a4,0(a5)
    3a66:	20000717          	auipc	a4,0x20000
    3a6a:	98670713          	addi	a4,a4,-1658 # 200033ec <gptrRFENDReg>
    3a6e:	4318                	lw	a4,0(a4)
    3a70:	4714                	lw	a3,8(a4)
    3a72:	8ecd                	or	a3,a3,a1
    3a74:	c714                	sw	a3,8(a4)
    3a76:	0d900693          	li	a3,217
    3a7a:	ca34                	sw	a3,80(a2)
    3a7c:	5754                	lw	a3,44(a4)
    3a7e:	9af5                	andi	a3,a3,-3
    3a80:	d754                	sw	a3,44(a4)
    3a82:	00944703          	lbu	a4,9(s0)
    3a86:	07f77693          	andi	a3,a4,127
    3a8a:	4398                	lw	a4,0(a5)
    3a8c:	f8077713          	andi	a4,a4,-128
    3a90:	8f55                	or	a4,a4,a3
    3a92:	c398                	sw	a4,0(a5)
    3a94:	40b2                	lw	ra,12(sp)
    3a96:	4422                	lw	s0,8(sp)
    3a98:	4492                	lw	s1,4(sp)
    3a9a:	4902                	lw	s2,0(sp)
    3a9c:	0141                	addi	sp,sp,16
    3a9e:	8082                	ret

00003aa0 <BB_DevInit>:
BB_DevInit():
    3aa0:	20000617          	auipc	a2,0x20000
    3aa4:	8e460613          	addi	a2,a2,-1820 # 20003384 <gptrBBReg>
    3aa8:	421c                	lw	a5,0(a2)
    3aaa:	008006b7          	lui	a3,0x800
    3aae:	800115b7          	lui	a1,0x80011
    3ab2:	4398                	lw	a4,0(a5)
    3ab4:	e7858593          	addi	a1,a1,-392 # 80010e78 <_eusrstack+0x60008e78>
    3ab8:	8f55                	or	a4,a4,a3
    3aba:	c398                	sw	a4,0(a5)
    3abc:	4398                	lw	a4,0(a5)
    3abe:	100006b7          	lui	a3,0x10000
    3ac2:	8f55                	or	a4,a4,a3
    3ac4:	c398                	sw	a4,0(a5)
    3ac6:	1d000713          	li	a4,464
    3aca:	dbd8                	sw	a4,52(a5)
    3acc:	20000717          	auipc	a4,0x20000
    3ad0:	88074703          	lbu	a4,-1920(a4) # 2000334c <ble+0x14>
    3ad4:	01971693          	slli	a3,a4,0x19
    3ad8:	8ecd                	or	a3,a3,a1
    3ada:	d7d4                	sw	a3,44(a5)
    3adc:	57d4                	lw	a3,44(a5)
    3ade:	820005b7          	lui	a1,0x82000
    3ae2:	03f77713          	andi	a4,a4,63
    3ae6:	15fd                	addi	a1,a1,-1
    3ae8:	8eed                	and	a3,a3,a1
    3aea:	0766                	slli	a4,a4,0x19
    3aec:	8f55                	or	a4,a4,a3
    3aee:	d7d8                	sw	a4,44(a5)
    3af0:	40001737          	lui	a4,0x40001
    3af4:	05700793          	li	a5,87
    3af8:	04f70023          	sb	a5,64(a4) # 40001040 <_eusrstack+0x1fff9040>
    3afc:	fa800793          	li	a5,-88
    3b00:	04f70023          	sb	a5,64(a4)
    3b04:	20000697          	auipc	a3,0x20000
    3b08:	8486c683          	lbu	a3,-1976(a3) # 2000334c <ble+0x14>
    3b0c:	47b5                	li	a5,13
    3b0e:	02d7fb63          	bgeu	a5,a3,3b44 <BB_DevInit+0xa4>
    3b12:	02275783          	lhu	a5,34(a4)
    3b16:	0107e793          	ori	a5,a5,16
    3b1a:	02f71123          	sh	a5,34(a4)
    3b1e:	4218                	lw	a4,0(a2)
    3b20:	000907b7          	lui	a5,0x90
    3b24:	08378793          	addi	a5,a5,131 # 90083 <_data_lma+0x899f3>
    3b28:	d31c                	sw	a5,32(a4)
    3b2a:	e000e737          	lui	a4,0xe000e
    3b2e:	47d1                	li	a5,20
    3b30:	04f709a3          	sb	a5,83(a4) # e000e053 <_eusrstack+0xc0006053>
    3b34:	1fffd797          	auipc	a5,0x1fffd
    3b38:	1d478793          	addi	a5,a5,468 # 20000d08 <BB_IRQLibHandler>
    3b3c:	0017e793          	ori	a5,a5,1
    3b40:	d77c                	sw	a5,108(a4)
    3b42:	8082                	ret
    3b44:	02275783          	lhu	a5,34(a4)
    3b48:	07c2                	slli	a5,a5,0x10
    3b4a:	83c1                	srli	a5,a5,0x10
    3b4c:	9bbd                	andi	a5,a5,-17
    3b4e:	07c2                	slli	a5,a5,0x10
    3b50:	83c1                	srli	a5,a5,0x10
    3b52:	b7e1                	j	3b1a <BB_DevInit+0x7a>

00003b54 <BLE_SetPHYTxMode>:
BLE_SetPHYTxMode():
    3b54:	20000797          	auipc	a5,0x20000
    3b58:	83478793          	addi	a5,a5,-1996 # 20003388 <gPaControl>
    3b5c:	439c                	lw	a5,0(a5)
    3b5e:	cb99                	beqz	a5,3b74 <BLE_SetPHYTxMode+0x20>
    3b60:	4b94                	lw	a3,16(a5)
    3b62:	4bd0                	lw	a2,20(a5)
    3b64:	4298                	lw	a4,0(a3)
    3b66:	8f51                	or	a4,a4,a2
    3b68:	c298                	sw	a4,0(a3)
    3b6a:	4394                	lw	a3,0(a5)
    3b6c:	479c                	lw	a5,8(a5)
    3b6e:	4298                	lw	a4,0(a3)
    3b70:	8fd9                	or	a5,a5,a4
    3b72:	c29c                	sw	a5,0(a3)
    3b74:	20000797          	auipc	a5,0x20000
    3b78:	81078793          	addi	a5,a5,-2032 # 20003384 <gptrBBReg>
    3b7c:	20000617          	auipc	a2,0x20000
    3b80:	82c60613          	addi	a2,a2,-2004 # 200033a8 <gptrLLEReg>
    3b84:	00257693          	andi	a3,a0,2
    3b88:	4398                	lw	a4,0(a5)
    3b8a:	00062803          	lw	a6,0(a2)
    3b8e:	20000797          	auipc	a5,0x20000
    3b92:	8087c783          	lbu	a5,-2040(a5) # 20003396 <gBleIPPara+0xa>
    3b96:	c6c1                	beqz	a3,3c1e <BLE_SetPHYTxMode+0xca>
    3b98:	4314                	lw	a3,0(a4)
    3b9a:	78f5                	lui	a7,0xffffd
    3b9c:	18fd                	addi	a7,a7,-1
    3b9e:	0116f6b3          	and	a3,a3,a7
    3ba2:	6309                	lui	t1,0x2
    3ba4:	0066e6b3          	or	a3,a3,t1
    3ba8:	c314                	sw	a3,0(a4)
    3baa:	76d1                	lui	a3,0xffff4
    3bac:	fff68893          	addi	a7,a3,-1 # ffff3fff <_eusrstack+0xdffebfff>
    3bb0:	4314                	lw	a3,0(a4)
    3bb2:	058e                	slli	a1,a1,0x3
    3bb4:	4e0d                	li	t3,3
    3bb6:	02b58593          	addi	a1,a1,43 # 8200002b <_eusrstack+0x61ff802b>
    3bba:	23678793          	addi	a5,a5,566
    3bbe:	0116f6b3          	and	a3,a3,a7
    3bc2:	03c51c63          	bne	a0,t3,3bfa <BLE_SetPHYTxMode+0xa6>
    3bc6:	6511                	lui	a0,0x4
    3bc8:	8ec9                	or	a3,a3,a0
    3bca:	c314                	sw	a3,0(a4)
    3bcc:	6735                	lui	a4,0xd
    3bce:	073d                	addi	a4,a4,15
    3bd0:	00e82623          	sw	a4,12(a6)
    3bd4:	0000100f          	fence.i
    3bd8:	4218                	lw	a4,0(a2)
    3bda:	f8000693          	li	a3,-128
    3bde:	0586                	slli	a1,a1,0x1
    3be0:	00672423          	sw	t1,8(a4) # d008 <_data_lma+0x6978>
    3be4:	1ffff617          	auipc	a2,0x1ffff
    3be8:	7ad60623          	sb	a3,1964(a2) # 20003390 <gBleIPPara+0x4>
    3bec:	95be                	add	a1,a1,a5
    3bee:	0586                	slli	a1,a1,0x1
    3bf0:	67bd                	lui	a5,0xf
    3bf2:	d36c                	sw	a1,100(a4)
    3bf4:	07bd                	addi	a5,a5,15
    3bf6:	c75c                	sw	a5,12(a4)
    3bf8:	8082                	ret
    3bfa:	c314                	sw	a3,0(a4)
    3bfc:	6735                	lui	a4,0xd
    3bfe:	073d                	addi	a4,a4,15
    3c00:	00e82623          	sw	a4,12(a6)
    3c04:	0000100f          	fence.i
    3c08:	4218                	lw	a4,0(a2)
    3c0a:	f8000693          	li	a3,-128
    3c0e:	00672423          	sw	t1,8(a4) # d008 <_data_lma+0x6978>
    3c12:	1ffff617          	auipc	a2,0x1ffff
    3c16:	76d60f23          	sb	a3,1918(a2) # 20003390 <gBleIPPara+0x4>
    3c1a:	058e                	slli	a1,a1,0x3
    3c1c:	bfc1                	j	3bec <BLE_SetPHYTxMode+0x98>
    3c1e:	76f5                	lui	a3,0xffffd
    3c20:	fff68893          	addi	a7,a3,-1 # ffffcfff <_eusrstack+0xdfff4fff>
    3c24:	4314                	lw	a3,0(a4)
    3c26:	8905                	andi	a0,a0,1
    3c28:	09e78793          	addi	a5,a5,158 # f09e <_data_lma+0x8a0e>
    3c2c:	0116f6b3          	and	a3,a3,a7
    3c30:	c505                	beqz	a0,3c58 <BLE_SetPHYTxMode+0x104>
    3c32:	c314                	sw	a3,0(a4)
    3c34:	6735                	lui	a4,0xd
    3c36:	073d                	addi	a4,a4,15
    3c38:	00e82623          	sw	a4,12(a6)
    3c3c:	0000100f          	fence.i
    3c40:	4218                	lw	a4,0(a2)
    3c42:	6689                	lui	a3,0x2
    3c44:	05ad                	addi	a1,a1,11
    3c46:	c714                	sw	a3,8(a4)
    3c48:	f8000693          	li	a3,-128
    3c4c:	1ffff617          	auipc	a2,0x1ffff
    3c50:	74d60223          	sb	a3,1860(a2) # 20003390 <gBleIPPara+0x4>
    3c54:	058a                	slli	a1,a1,0x2
    3c56:	bf59                	j	3bec <BLE_SetPHYTxMode+0x98>
    3c58:	6505                	lui	a0,0x1
    3c5a:	8ec9                	or	a3,a3,a0
    3c5c:	c314                	sw	a3,0(a4)
    3c5e:	6735                	lui	a4,0xd
    3c60:	073d                	addi	a4,a4,15
    3c62:	00e82623          	sw	a4,12(a6)
    3c66:	0000100f          	fence.i
    3c6a:	4218                	lw	a4,0(a2)
    3c6c:	6689                	lui	a3,0x2
    3c6e:	05a9                	addi	a1,a1,10
    3c70:	c714                	sw	a3,8(a4)
    3c72:	f8000693          	li	a3,-128
    3c76:	1ffff617          	auipc	a2,0x1ffff
    3c7a:	70d60d23          	sb	a3,1818(a2) # 20003390 <gBleIPPara+0x4>
    3c7e:	bf71                	j	3c1a <BLE_SetPHYTxMode+0xc6>

00003c80 <BLE_SetPHYRxMode>:
BLE_SetPHYRxMode():
    3c80:	1ffff797          	auipc	a5,0x1ffff
    3c84:	70878793          	addi	a5,a5,1800 # 20003388 <gPaControl>
    3c88:	439c                	lw	a5,0(a5)
    3c8a:	cf89                	beqz	a5,3ca4 <BLE_SetPHYRxMode+0x24>
    3c8c:	43d4                	lw	a3,4(a5)
    3c8e:	0087a803          	lw	a6,8(a5)
    3c92:	4298                	lw	a4,0(a3)
    3c94:	01076733          	or	a4,a4,a6
    3c98:	c298                	sw	a4,0(a3)
    3c9a:	47d4                	lw	a3,12(a5)
    3c9c:	4bdc                	lw	a5,20(a5)
    3c9e:	4298                	lw	a4,0(a3)
    3ca0:	8fd9                	or	a5,a5,a4
    3ca2:	c29c                	sw	a5,0(a3)
    3ca4:	1ffff797          	auipc	a5,0x1ffff
    3ca8:	6e078793          	addi	a5,a5,1760 # 20003384 <gptrBBReg>
    3cac:	00257713          	andi	a4,a0,2
    3cb0:	439c                	lw	a5,0(a5)
    3cb2:	c335                	beqz	a4,3d16 <BLE_SetPHYRxMode+0x96>
    3cb4:	4398                	lw	a4,0(a5)
    3cb6:	76f5                	lui	a3,0xffffd
    3cb8:	16fd                	addi	a3,a3,-1
    3cba:	8f75                	and	a4,a4,a3
    3cbc:	6689                	lui	a3,0x2
    3cbe:	8f55                	or	a4,a4,a3
    3cc0:	c398                	sw	a4,0(a5)
    3cc2:	00090737          	lui	a4,0x90
    3cc6:	08670713          	addi	a4,a4,134 # 90086 <_data_lma+0x899f6>
    3cca:	d398                	sw	a4,32(a5)
    3ccc:	00372737          	lui	a4,0x372
    3cd0:	2df70713          	addi	a4,a4,735 # 3722df <_data_lma+0x36bc4f>
    3cd4:	cb98                	sw	a4,16(a5)
    3cd6:	08302737          	lui	a4,0x8302
    3cda:	1745                	addi	a4,a4,-15
    3cdc:	cbd8                	sw	a4,20(a5)
    3cde:	00031737          	lui	a4,0x31
    3ce2:	61970713          	addi	a4,a4,1561 # 31619 <_data_lma+0x2af89>
    3ce6:	cf98                	sw	a4,24(a5)
    3ce8:	670d                	lui	a4,0x3
    3cea:	8de70713          	addi	a4,a4,-1826 # 28de <USB_DevTransProcess+0x1ba>
    3cee:	d798                	sw	a4,40(a5)
    3cf0:	01006737          	lui	a4,0x1006
    3cf4:	31070713          	addi	a4,a4,784 # 1006310 <_data_lma+0xfffc80>
    3cf8:	059e                	slli	a1,a1,0x7
    3cfa:	d3d8                	sw	a4,36(a5)
    3cfc:	36458593          	addi	a1,a1,868
    3d00:	1ffff797          	auipc	a5,0x1ffff
    3d04:	68b7ac23          	sw	a1,1688(a5) # 20003398 <gBleIPPara+0xc>
    3d08:	c611                	beqz	a2,3d14 <BLE_SetPHYRxMode+0x94>
    3d0a:	0606                	slli	a2,a2,0x1
    3d0c:	1ffff797          	auipc	a5,0x1ffff
    3d10:	68c7a623          	sw	a2,1676(a5) # 20003398 <gBleIPPara+0xc>
    3d14:	8082                	ret
    3d16:	00090737          	lui	a4,0x90
    3d1a:	08370713          	addi	a4,a4,131 # 90083 <_data_lma+0x899f3>
    3d1e:	d398                	sw	a4,32(a5)
    3d20:	08102737          	lui	a4,0x8102
    3d24:	90170713          	addi	a4,a4,-1791 # 8101901 <_data_lma+0x80fb271>
    3d28:	cbd8                	sw	a4,20(a5)
    3d2a:	00031737          	lui	a4,0x31
    3d2e:	62470713          	addi	a4,a4,1572 # 31624 <_data_lma+0x2af94>
    3d32:	cf98                	sw	a4,24(a5)
    3d34:	670d                	lui	a4,0x3
    3d36:	8be70713          	addi	a4,a4,-1858 # 28be <USB_DevTransProcess+0x19a>
    3d3a:	d798                	sw	a4,40(a5)
    3d3c:	01006737          	lui	a4,0x1006
    3d40:	31070713          	addi	a4,a4,784 # 1006310 <_data_lma+0xfffc80>
    3d44:	d3d8                	sw	a4,36(a5)
    3d46:	7775                	lui	a4,0xffffd
    3d48:	fff70693          	addi	a3,a4,-1 # ffffcfff <_eusrstack+0xdfff4fff>
    3d4c:	4398                	lw	a4,0(a5)
    3d4e:	4805                	li	a6,1
    3d50:	0595                	addi	a1,a1,5
    3d52:	8f75                	and	a4,a4,a3
    3d54:	01051c63          	bne	a0,a6,3d6c <BLE_SetPHYRxMode+0xec>
    3d58:	c398                	sw	a4,0(a5)
    3d5a:	002d2737          	lui	a4,0x2d2
    3d5e:	2d070713          	addi	a4,a4,720 # 2d22d0 <_data_lma+0x2cbc40>
    3d62:	cb98                	sw	a4,16(a5)
    3d64:	058e                	slli	a1,a1,0x3
    3d66:	03c58593          	addi	a1,a1,60
    3d6a:	bf59                	j	3d00 <BLE_SetPHYRxMode+0x80>
    3d6c:	6685                	lui	a3,0x1
    3d6e:	8f55                	or	a4,a4,a3
    3d70:	c398                	sw	a4,0(a5)
    3d72:	00372737          	lui	a4,0x372
    3d76:	2d070713          	addi	a4,a4,720 # 3722d0 <_data_lma+0x36bc40>
    3d7a:	cb98                	sw	a4,16(a5)
    3d7c:	0592                	slli	a1,a1,0x4
    3d7e:	b7e5                	j	3d66 <BLE_SetPHYRxMode+0xe6>

00003d80 <ll_multi_states_check>:
ll_multi_states_check():
    3d80:	1ffff797          	auipc	a5,0x1ffff
    3d84:	6157c783          	lbu	a5,1557(a5) # 20003395 <gBleIPPara+0x9>
    3d88:	e78d                	bnez	a5,3db2 <ll_multi_states_check+0x32>
    3d8a:	1ffff717          	auipc	a4,0x1ffff
    3d8e:	60974703          	lbu	a4,1545(a4) # 20003393 <gBleIPPara+0x7>
    3d92:	ffb70793          	addi	a5,a4,-5
    3d96:	0ff7f793          	andi	a5,a5,255
    3d9a:	4689                	li	a3,2
    3d9c:	00f6eb63          	bltu	a3,a5,3db2 <ll_multi_states_check+0x32>
    3da0:	1ffff797          	auipc	a5,0x1ffff
    3da4:	5ee78a23          	sb	a4,1524(a5) # 20003394 <gBleIPPara+0x8>
    3da8:	4785                	li	a5,1
    3daa:	1ffff717          	auipc	a4,0x1ffff
    3dae:	5ef705a3          	sb	a5,1515(a4) # 20003395 <gBleIPPara+0x9>
    3db2:	8082                	ret

00003db4 <ll_multi_states_process>:
ll_multi_states_process():
    3db4:	1141                	addi	sp,sp,-16
    3db6:	c606                	sw	ra,12(sp)
    3db8:	1ffff717          	auipc	a4,0x1ffff
    3dbc:	5dc74703          	lbu	a4,1500(a4) # 20003394 <gBleIPPara+0x8>
    3dc0:	479d                	li	a5,7
    3dc2:	04f71163          	bne	a4,a5,3e04 <ll_multi_states_process+0x50>
    3dc6:	1ffff797          	auipc	a5,0x1ffff
    3dca:	5e67c783          	lbu	a5,1510(a5) # 200033ac <rfConfig>
    3dce:	8b85                	andi	a5,a5,1
    3dd0:	1ffff617          	auipc	a2,0x1ffff
    3dd4:	5ff64603          	lbu	a2,1535(a2) # 200033cf <rfInfo+0x3>
    3dd8:	1ffff697          	auipc	a3,0x1ffff
    3ddc:	5f66c683          	lbu	a3,1526(a3) # 200033ce <rfInfo+0x2>
    3de0:	c7b5                	beqz	a5,3e4c <ll_multi_states_process+0x98>
    3de2:	1ffff797          	auipc	a5,0x1ffff
    3de6:	5ea78793          	addi	a5,a5,1514 # 200033cc <rfInfo>
    3dea:	43c8                	lw	a0,4(a5)
    3dec:	c125                	beqz	a0,3e4c <ll_multi_states_process+0x98>
    3dee:	00154583          	lbu	a1,1(a0) # 1001 <_einit+0xffd>
    3df2:	0509                	addi	a0,a0,2
    3df4:	151000ef          	jal	ra,4744 <RF_Rx>
    3df8:	c511                	beqz	a0,3e04 <ll_multi_states_process+0x50>
    3dfa:	4785                	li	a5,1
    3dfc:	1ffff717          	auipc	a4,0x1ffff
    3e00:	58f70ca3          	sb	a5,1433(a4) # 20003395 <gBleIPPara+0x9>
    3e04:	1ffff717          	auipc	a4,0x1ffff
    3e08:	59074703          	lbu	a4,1424(a4) # 20003394 <gBleIPPara+0x8>
    3e0c:	4795                	li	a5,5
    3e0e:	00f71b63          	bne	a4,a5,3e24 <ll_multi_states_process+0x70>
    3e12:	1ffff797          	auipc	a5,0x1ffff
    3e16:	5ee78793          	addi	a5,a5,1518 # 20003400 <gBleLlPara>
    3e1a:	5bfc                	lw	a5,116(a5)
    3e1c:	00b7c783          	lbu	a5,11(a5)
    3e20:	cb8d                	beqz	a5,3e52 <ll_multi_states_process+0x9e>
    3e22:	3605                	jal	3942 <LL_ScanSetRF>
    3e24:	1ffff717          	auipc	a4,0x1ffff
    3e28:	57074703          	lbu	a4,1392(a4) # 20003394 <gBleIPPara+0x8>
    3e2c:	4799                	li	a5,6
    3e2e:	02f71263          	bne	a4,a5,3e52 <ll_multi_states_process+0x9e>
    3e32:	1ffff797          	auipc	a5,0x1ffff
    3e36:	5ce78793          	addi	a5,a5,1486 # 20003400 <gBleLlPara>
    3e3a:	0847a783          	lw	a5,132(a5)
    3e3e:	0077c783          	lbu	a5,7(a5)
    3e42:	cb81                	beqz	a5,3e52 <ll_multi_states_process+0x9e>
    3e44:	40b2                	lw	ra,12(sp)
    3e46:	0141                	addi	sp,sp,16
    3e48:	4560206f          	j	629e <LL_InitiateSetRF>
    3e4c:	4581                	li	a1,0
    3e4e:	4501                	li	a0,0
    3e50:	b755                	j	3df4 <ll_multi_states_process+0x40>
    3e52:	40b2                	lw	ra,12(sp)
    3e54:	0141                	addi	sp,sp,16
    3e56:	8082                	ret

00003e58 <ble_ll_hw_api_shut>:
ble_ll_hw_api_shut():
    3e58:	1ffff717          	auipc	a4,0x1ffff
    3e5c:	55070713          	addi	a4,a4,1360 # 200033a8 <gptrLLEReg>
    3e60:	431c                	lw	a5,0(a4)
    3e62:	4394                	lw	a3,0(a5)
    3e64:	8a8d                	andi	a3,a3,3
    3e66:	c285                	beqz	a3,3e86 <ble_ll_hw_api_shut+0x2e>
    3e68:	4bb4                	lw	a3,80(a5)
    3e6a:	9ae1                	andi	a3,a3,-8
    3e6c:	cbb4                	sw	a3,80(a5)
    3e6e:	4394                	lw	a3,0(a5)
    3e70:	0086e693          	ori	a3,a3,8
    3e74:	c394                	sw	a3,0(a5)
    3e76:	439c                	lw	a5,0(a5)
    3e78:	838d                	srli	a5,a5,0x3
    3e7a:	8b85                	andi	a5,a5,1
    3e7c:	c789                	beqz	a5,3e86 <ble_ll_hw_api_shut+0x2e>
    3e7e:	0001                	nop
    3e80:	0001                	nop
    3e82:	0001                	nop
    3e84:	0001                	nop
    3e86:	1ffff797          	auipc	a5,0x1ffff
    3e8a:	4fe78793          	addi	a5,a5,1278 # 20003384 <gptrBBReg>
    3e8e:	4394                	lw	a3,0(a5)
    3e90:	429c                	lw	a5,0(a3)
    3e92:	e7f7f793          	andi	a5,a5,-385
    3e96:	0807e793          	ori	a5,a5,128
    3e9a:	c29c                	sw	a5,0(a3)
    3e9c:	1ffff797          	auipc	a5,0x1ffff
    3ea0:	55078793          	addi	a5,a5,1360 # 200033ec <gptrRFENDReg>
    3ea4:	4390                	lw	a2,0(a5)
    3ea6:	ffce06b7          	lui	a3,0xffce0
    3eaa:	16fd                	addi	a3,a3,-1
    3eac:	461c                	lw	a5,8(a2)
    3eae:	8ff5                	and	a5,a5,a3
    3eb0:	c61c                	sw	a5,8(a2)
    3eb2:	431c                	lw	a5,0(a4)
    3eb4:	08000713          	li	a4,128
    3eb8:	cbb8                	sw	a4,80(a5)
    3eba:	1ffff797          	auipc	a5,0x1ffff
    3ebe:	4ce78793          	addi	a5,a5,1230 # 20003388 <gPaControl>
    3ec2:	439c                	lw	a5,0(a5)
    3ec4:	cb99                	beqz	a5,3eda <ble_ll_hw_api_shut+0x82>
    3ec6:	43d4                	lw	a3,4(a5)
    3ec8:	4790                	lw	a2,8(a5)
    3eca:	4298                	lw	a4,0(a3)
    3ecc:	8f51                	or	a4,a4,a2
    3ece:	c298                	sw	a4,0(a3)
    3ed0:	4b94                	lw	a3,16(a5)
    3ed2:	4bdc                	lw	a5,20(a5)
    3ed4:	4298                	lw	a4,0(a3)
    3ed6:	8fd9                	or	a5,a5,a4
    3ed8:	c29c                	sw	a5,0(a3)
    3eda:	1ffff797          	auipc	a5,0x1ffff
    3ede:	4a078ca3          	sb	zero,1209(a5) # 20003393 <gBleIPPara+0x7>
    3ee2:	8082                	ret

00003ee4 <BLE_RegInit>:
BLE_RegInit():
    3ee4:	1ffff797          	auipc	a5,0x1ffff
    3ee8:	4a878793          	addi	a5,a5,1192 # 2000338c <gBleIPPara>
    3eec:	4f9c                	lw	a5,24(a5)
    3eee:	c7dd                	beqz	a5,3f9c <BLE_RegInit+0xb8>
    3ef0:	1141                	addi	sp,sp,-16
    3ef2:	c606                	sw	ra,12(sp)
    3ef4:	c422                	sw	s0,8(sp)
    3ef6:	c226                	sw	s1,4(sp)
    3ef8:	c04a                	sw	s2,0(sp)
    3efa:	2205                	jal	401a <LLE_DevInit>
    3efc:	1ffff917          	auipc	s2,0x1ffff
    3f00:	48890913          	addi	s2,s2,1160 # 20003384 <gptrBBReg>
    3f04:	39e010ef          	jal	ra,52a2 <RFEND_DevInit>
    3f08:	3e61                	jal	3aa0 <BB_DevInit>
    3f0a:	00092783          	lw	a5,0(s2)
    3f0e:	76f5                	lui	a3,0xffffd
    3f10:	16fd                	addi	a3,a3,-1
    3f12:	4398                	lw	a4,0(a5)
    3f14:	1ffff497          	auipc	s1,0x1ffff
    3f18:	4d848493          	addi	s1,s1,1240 # 200033ec <gptrRFENDReg>
    3f1c:	1ffff417          	auipc	s0,0x1ffff
    3f20:	48c40413          	addi	s0,s0,1164 # 200033a8 <gptrLLEReg>
    3f24:	8f75                	and	a4,a4,a3
    3f26:	c398                	sw	a4,0(a5)
    3f28:	4398                	lw	a4,0(a5)
    3f2a:	003306b7          	lui	a3,0x330
    3f2e:	e7f77713          	andi	a4,a4,-385
    3f32:	c398                	sw	a4,0(a5)
    3f34:	4398                	lw	a4,0(a5)
    3f36:	e7f77713          	andi	a4,a4,-385
    3f3a:	10076713          	ori	a4,a4,256
    3f3e:	c398                	sw	a4,0(a5)
    3f40:	4098                	lw	a4,0(s1)
    3f42:	471c                	lw	a5,8(a4)
    3f44:	8fd5                	or	a5,a5,a3
    3f46:	c71c                	sw	a5,8(a4)
    3f48:	401c                	lw	a5,0(s0)
    3f4a:	0dd00713          	li	a4,221
    3f4e:	cbb8                	sw	a4,80(a5)
    3f50:	580010ef          	jal	ra,54d0 <RFEND_TXCtune>
    3f54:	292020ef          	jal	ra,61e6 <RFEND_TXFtune>
    3f58:	4be010ef          	jal	ra,5416 <RFEND_RXFilter>
    3f5c:	53a010ef          	jal	ra,5496 <RFEND_RXAdc>
    3f60:	00092703          	lw	a4,0(s2)
    3f64:	431c                	lw	a5,0(a4)
    3f66:	e7f7f793          	andi	a5,a5,-385
    3f6a:	0807e793          	ori	a5,a5,128
    3f6e:	c31c                	sw	a5,0(a4)
    3f70:	4094                	lw	a3,0(s1)
    3f72:	ffce0737          	lui	a4,0xffce0
    3f76:	177d                	addi	a4,a4,-1
    3f78:	469c                	lw	a5,8(a3)
    3f7a:	8ff9                	and	a5,a5,a4
    3f7c:	c69c                	sw	a5,8(a3)
    3f7e:	401c                	lw	a5,0(s0)
    3f80:	08000713          	li	a4,128
    3f84:	cbb8                	sw	a4,80(a5)
    3f86:	3bed                	jal	3d80 <ll_multi_states_check>
    3f88:	40b2                	lw	ra,12(sp)
    3f8a:	4422                	lw	s0,8(sp)
    3f8c:	1ffff797          	auipc	a5,0x1ffff
    3f90:	400783a3          	sb	zero,1031(a5) # 20003393 <gBleIPPara+0x7>
    3f94:	4492                	lw	s1,4(sp)
    3f96:	4902                	lw	s2,0(sp)
    3f98:	0141                	addi	sp,sp,16
    3f9a:	8082                	ret
    3f9c:	8082                	ret

00003f9e <BLE_IPCoreInit>:
BLE_IPCoreInit():
    3f9e:	1ffff797          	auipc	a5,0x1ffff
    3fa2:	3e07a523          	sw	zero,1002(a5) # 20003388 <gPaControl>
    3fa6:	4000c7b7          	lui	a5,0x4000c
    3faa:	30078713          	addi	a4,a5,768 # 4000c300 <_eusrstack+0x20004300>
    3fae:	1ffff697          	auipc	a3,0x1ffff
    3fb2:	3ce6a923          	sw	a4,978(a3) # 20003380 <gptrAESReg>
    3fb6:	20078713          	addi	a4,a5,512
    3fba:	1ffff697          	auipc	a3,0x1ffff
    3fbe:	3ee6a723          	sw	a4,1006(a3) # 200033a8 <gptrLLEReg>
    3fc2:	10078793          	addi	a5,a5,256
    3fc6:	4000d737          	lui	a4,0x4000d
    3fca:	1141                	addi	sp,sp,-16
    3fcc:	1ffff697          	auipc	a3,0x1ffff
    3fd0:	42e6a023          	sw	a4,1056(a3) # 200033ec <gptrRFENDReg>
    3fd4:	1ffff717          	auipc	a4,0x1ffff
    3fd8:	3af72823          	sw	a5,944(a4) # 20003384 <gptrBBReg>
    3fdc:	c606                	sw	ra,12(sp)
    3fde:	1ffff717          	auipc	a4,0x1ffff
    3fe2:	3ae70713          	addi	a4,a4,942 # 2000338c <gBleIPPara>
    3fe6:	4785                	li	a5,1
    3fe8:	00f703a3          	sb	a5,7(a4)
    3fec:	1ffff797          	auipc	a5,0x1ffff
    3ff0:	34c78793          	addi	a5,a5,844 # 20003338 <ble>
    3ff4:	439c                	lw	a5,0(a5)
    3ff6:	cf1c                	sw	a5,24(a4)
    3ff8:	11078793          	addi	a5,a5,272
    3ffc:	cb5c                	sw	a5,20(a4)
    3ffe:	35dd                	jal	3ee4 <BLE_RegInit>
    4000:	e000e7b7          	lui	a5,0xe000e
    4004:	00100737          	lui	a4,0x100
    4008:	40b2                	lw	ra,12(sp)
    400a:	10e7a023          	sw	a4,256(a5) # e000e100 <_eusrstack+0xc0006100>
    400e:	00200737          	lui	a4,0x200
    4012:	10e7a023          	sw	a4,256(a5)
    4016:	0141                	addi	sp,sp,16
    4018:	8082                	ret

0000401a <LLE_DevInit>:
LLE_DevInit():
    401a:	1ffff797          	auipc	a5,0x1ffff
    401e:	38e78793          	addi	a5,a5,910 # 200033a8 <gptrLLEReg>
    4022:	439c                	lw	a5,0(a5)
    4024:	08c00713          	li	a4,140
    4028:	07600693          	li	a3,118
    402c:	cbd8                	sw	a4,20(a5)
    402e:	cfd4                	sw	a3,28(a5)
    4030:	d3d8                	sw	a4,36(a5)
    4032:	03c00613          	li	a2,60
    4036:	d7d0                	sw	a2,44(a5)
    4038:	dbd8                	sw	a4,52(a5)
    403a:	dfd0                	sw	a2,60(a5)
    403c:	c3f8                	sw	a4,68(a5)
    403e:	1ffff717          	auipc	a4,0x1ffff
    4042:	34e70713          	addi	a4,a4,846 # 2000338c <gBleIPPara>
    4046:	4f18                	lw	a4,24(a4)
    4048:	c7f4                	sw	a3,76(a5)
    404a:	dbf8                	sw	a4,116(a5)
    404c:	6741                	lui	a4,0x10
    404e:	177d                	addi	a4,a4,-1
    4050:	c798                	sw	a4,8(a5)
    4052:	673d                	lui	a4,0xf
    4054:	073d                	addi	a4,a4,15
    4056:	c7d8                	sw	a4,12(a5)
    4058:	e000e737          	lui	a4,0xe000e
    405c:	47d5                	li	a5,21
    405e:	04f70923          	sb	a5,82(a4) # e000e052 <_eusrstack+0xc0006052>
    4062:	1fffd797          	auipc	a5,0x1fffd
    4066:	1e278793          	addi	a5,a5,482 # 20001244 <LLE_IRQLibHandler>
    406a:	0017e793          	ori	a5,a5,1
    406e:	d73c                	sw	a5,104(a4)
    4070:	8082                	ret

00004072 <RF_DevSetChannel>:
RF_DevSetChannel():
    4072:	1ffff797          	auipc	a5,0x1ffff
    4076:	37a78793          	addi	a5,a5,890 # 200033ec <gptrRFENDReg>
    407a:	4394                	lw	a3,0(a5)
    407c:	1ffff797          	auipc	a5,0x1ffff
    4080:	30878793          	addi	a5,a5,776 # 20003384 <gptrBBReg>
    4084:	439c                	lw	a5,0(a5)
    4086:	10058763          	beqz	a1,4194 <RF_DevSetChannel+0x122>
    408a:	0024b737          	lui	a4,0x24b
    408e:	e9f70713          	addi	a4,a4,-353 # 24ae9f <_data_lma+0x24480f>
    4092:	08a76663          	bltu	a4,a0,411e <RF_DevSetChannel+0xac>
    4096:	4398                	lw	a4,0(a5)
    4098:	f8077713          	andi	a4,a4,-128
    409c:	02576713          	ori	a4,a4,37
    40a0:	c398                	sw	a4,0(a5)
    40a2:	0015f713          	andi	a4,a1,1
    40a6:	cb01                	beqz	a4,40b6 <RF_DevSetChannel+0x44>
    40a8:	0305f593          	andi	a1,a1,48
    40ac:	4741                	li	a4,16
    40ae:	0ee59063          	bne	a1,a4,418e <RF_DevSetChannel+0x11c>
    40b2:	83050513          	addi	a0,a0,-2000
    40b6:	56d8                	lw	a4,44(a3)
    40b8:	fe100837          	lui	a6,0xfe100
    40bc:	187d                	addi	a6,a6,-1
    40be:	00276713          	ori	a4,a4,2
    40c2:	d6d8                	sw	a4,44(a3)
    40c4:	6741                	lui	a4,0x10
    40c6:	a0070713          	addi	a4,a4,-1536 # fa00 <_data_lma+0x9370>
    40ca:	02e55633          	divu	a2,a0,a4
    40ce:	02e57533          	remu	a0,a0,a4
    40d2:	0fa00713          	li	a4,250
    40d6:	8a7d                	andi	a2,a2,31
    40d8:	01461593          	slli	a1,a2,0x14
    40dc:	42f0                	lw	a2,68(a3)
    40de:	01067633          	and	a2,a2,a6
    40e2:	8e4d                	or	a2,a2,a1
    40e4:	c2f0                	sw	a2,68(a3)
    40e6:	fffc0637          	lui	a2,0xfffc0
    40ea:	052a                	slli	a0,a0,0xa
    40ec:	02e55533          	divu	a0,a0,a4
    40f0:	42f8                	lw	a4,68(a3)
    40f2:	8f71                	and	a4,a4,a2
    40f4:	053a                	slli	a0,a0,0xe
    40f6:	8139                	srli	a0,a0,0xe
    40f8:	8d59                	or	a0,a0,a4
    40fa:	c2e8                	sw	a0,68(a3)
    40fc:	1ffff717          	auipc	a4,0x1ffff
    4100:	2b074703          	lbu	a4,688(a4) # 200033ac <rfConfig>
    4104:	8b09                	andi	a4,a4,2
    4106:	cb19                	beqz	a4,411c <RF_DevSetChannel+0xaa>
    4108:	4398                	lw	a4,0(a5)
    410a:	07f77713          	andi	a4,a4,127
    410e:	04076693          	ori	a3,a4,64
    4112:	4398                	lw	a4,0(a5)
    4114:	f8077713          	andi	a4,a4,-128
    4118:	8f55                	or	a4,a4,a3
    411a:	c398                	sw	a4,0(a5)
    411c:	8082                	ret
    411e:	00250737          	lui	a4,0x250
    4122:	48f70613          	addi	a2,a4,1167 # 25048f <_data_lma+0x249dff>
    4126:	02a66363          	bltu	a2,a0,414c <RF_DevSetChannel+0xda>
    412a:	ffdb6737          	lui	a4,0xffdb6
    412e:	93070713          	addi	a4,a4,-1744 # ffdb5930 <_eusrstack+0xdfdad930>
    4132:	972a                	add	a4,a4,a0
    4134:	7d000613          	li	a2,2000
    4138:	02c75733          	divu	a4,a4,a2
    413c:	177d                	addi	a4,a4,-1
    413e:	4390                	lw	a2,0(a5)
    4140:	07f77713          	andi	a4,a4,127
    4144:	f8067613          	andi	a2,a2,-128
    4148:	8f51                	or	a4,a4,a2
    414a:	bf99                	j	40a0 <RF_DevSetChannel+0x2e>
    414c:	49070713          	addi	a4,a4,1168
    4150:	00e51863          	bne	a0,a4,4160 <RF_DevSetChannel+0xee>
    4154:	4398                	lw	a4,0(a5)
    4156:	f8077713          	andi	a4,a4,-128
    415a:	02676713          	ori	a4,a4,38
    415e:	b789                	j	40a0 <RF_DevSetChannel+0x2e>
    4160:	0025d737          	lui	a4,0x25d
    4164:	77f70713          	addi	a4,a4,1919 # 25d77f <_data_lma+0x2570ef>
    4168:	00a76d63          	bltu	a4,a0,4182 <RF_DevSetChannel+0x110>
    416c:	ffdb6737          	lui	a4,0xffdb6
    4170:	93070713          	addi	a4,a4,-1744 # ffdb5930 <_eusrstack+0xdfdad930>
    4174:	972a                	add	a4,a4,a0
    4176:	7d000613          	li	a2,2000
    417a:	02c75733          	divu	a4,a4,a2
    417e:	1779                	addi	a4,a4,-2
    4180:	bf7d                	j	413e <RF_DevSetChannel+0xcc>
    4182:	4398                	lw	a4,0(a5)
    4184:	f8077713          	andi	a4,a4,-128
    4188:	02776713          	ori	a4,a4,39
    418c:	bf11                	j	40a0 <RF_DevSetChannel+0x2e>
    418e:	c1850513          	addi	a0,a0,-1000
    4192:	b715                	j	40b6 <RF_DevSetChannel+0x44>
    4194:	56d8                	lw	a4,44(a3)
    4196:	07f57513          	andi	a0,a0,127
    419a:	9b75                	andi	a4,a4,-3
    419c:	d6d8                	sw	a4,44(a3)
    419e:	4398                	lw	a4,0(a5)
    41a0:	f8077713          	andi	a4,a4,-128
    41a4:	8d59                	or	a0,a0,a4
    41a6:	c388                	sw	a0,0(a5)
    41a8:	bf91                	j	40fc <RF_DevSetChannel+0x8a>

000041aa <rf_stop>:
rf_stop():
    41aa:	1141                	addi	sp,sp,-16
    41ac:	c606                	sw	ra,12(sp)
    41ae:	1ffff797          	auipc	a5,0x1ffff
    41b2:	22078623          	sb	zero,556(a5) # 200033da <rfInfo+0xe>
    41b6:	314d                	jal	3e58 <ble_ll_hw_api_shut>
    41b8:	4501                	li	a0,0
    41ba:	4581                	li	a1,0
    41bc:	8f8ff0ef          	jal	ra,32b4 <TMOS_ProcessRegister>
    41c0:	40b2                	lw	ra,12(sp)
    41c2:	4501                	li	a0,0
    41c4:	0141                	addi	sp,sp,16
    41c6:	8082                	ret

000041c8 <RF_TxProcess>:
RF_TxProcess():
    41c8:	1ffff797          	auipc	a5,0x1ffff
    41cc:	1e078793          	addi	a5,a5,480 # 200033a8 <gptrLLEReg>
    41d0:	4398                	lw	a4,0(a5)
    41d2:	7179                	addi	sp,sp,-48
    41d4:	1ffff517          	auipc	a0,0x1ffff
    41d8:	1d854503          	lbu	a0,472(a0) # 200033ac <rfConfig>
    41dc:	d422                	sw	s0,40(sp)
    41de:	d226                	sw	s1,36(sp)
    41e0:	d606                	sw	ra,44(sp)
    41e2:	d04a                	sw	s2,32(sp)
    41e4:	ce4e                	sw	s3,28(sp)
    41e6:	00157693          	andi	a3,a0,1
    41ea:	84be                	mv	s1,a5
    41ec:	1ffff417          	auipc	s0,0x1ffff
    41f0:	1a040413          	addi	s0,s0,416 # 2000338c <gBleIPPara>
    41f4:	12068c63          	beqz	a3,432c <RF_TxProcess+0x164>
    41f8:	00244783          	lbu	a5,2(s0)
    41fc:	8b85                	andi	a5,a5,1
    41fe:	10078463          	beqz	a5,4306 <RF_TxProcess+0x13e>
    4202:	8511                	srai	a0,a0,0x4
    4204:	4601                	li	a2,0
    4206:	1ffff597          	auipc	a1,0x1ffff
    420a:	1c25c583          	lbu	a1,450(a1) # 200033c8 <rfConfig+0x1c>
    420e:	890d                	andi	a0,a0,3
    4210:	1ffff797          	auipc	a5,0x1ffff
    4214:	16078f23          	sb	zero,382(a5) # 2000338e <gBleIPPara+0x2>
    4218:	34a5                	jal	3c80 <BLE_SetPHYRxMode>
    421a:	1ffff597          	auipc	a1,0x1ffff
    421e:	1925c583          	lbu	a1,402(a1) # 200033ac <rfConfig>
    4222:	8591                	srai	a1,a1,0x4
    4224:	0ff00613          	li	a2,255
    4228:	898d                	andi	a1,a1,3
    422a:	4505                	li	a0,1
    422c:	1fffd097          	auipc	ra,0x1fffd
    4230:	d32080e7          	jalr	-718(ra) # 20000f5e <ll_tx_wait_finish>
    4234:	3f9d                	jal	41aa <rf_stop>
    4236:	1ffff917          	auipc	s2,0x1ffff
    423a:	17690913          	addi	s2,s2,374 # 200033ac <rfConfig>
    423e:	01092783          	lw	a5,16(s2)
    4242:	4601                	li	a2,0
    4244:	4581                	li	a1,0
    4246:	4505                	li	a0,1
    4248:	9782                	jalr	a5
    424a:	00344783          	lbu	a5,3(s0)
    424e:	89ca                	mv	s3,s2
    4250:	8b85                	andi	a5,a5,1
    4252:	cfc1                	beqz	a5,42ea <RF_TxProcess+0x122>
    4254:	4c08                	lw	a0,24(s0)
    4256:	1ffff797          	auipc	a5,0x1ffff
    425a:	12078ca3          	sb	zero,313(a5) # 2000338f <gBleIPPara+0x3>
    425e:	4581                	li	a1,0
    4260:	4681                	li	a3,0
    4262:	00f10613          	addi	a2,sp,15
    4266:	000107a3          	sb	zero,15(sp)
    426a:	1ffff797          	auipc	a5,0x1ffff
    426e:	12078323          	sb	zero,294(a5) # 20003390 <gBleIPPara+0x4>
    4272:	1fffd097          	auipc	ra,0x1fffd
    4276:	c22080e7          	jalr	-990(ra) # 20000e94 <ble_ll_chkcrc>
    427a:	01851593          	slli	a1,a0,0x18
    427e:	85e1                	srai	a1,a1,0x18
    4280:	e18d                	bnez	a1,42a2 <RF_TxProcess+0xda>
    4282:	4c1c                	lw	a5,24(s0)
    4284:	0ff00693          	li	a3,255
    4288:	0007c703          	lbu	a4,0(a5)
    428c:	00d70b63          	beq	a4,a3,42a2 <RF_TxProcess+0xda>
    4290:	1ffff797          	auipc	a5,0x1ffff
    4294:	13d7c783          	lbu	a5,317(a5) # 200033cd <rfInfo+0x1>
    4298:	00d78563          	beq	a5,a3,42a2 <RF_TxProcess+0xda>
    429c:	00f70363          	beq	a4,a5,42a2 <RF_TxProcess+0xda>
    42a0:	4589                	li	a1,2
    42a2:	00098783          	lb	a5,0(s3)
    42a6:	0007c763          	bltz	a5,42b4 <RF_TxProcess+0xec>
    42aa:	4c1c                	lw	a5,24(s0)
    42ac:	00f14703          	lbu	a4,15(sp)
    42b0:	00e78023          	sb	a4,0(a5)
    42b4:	0109a783          	lw	a5,16(s3)
    42b8:	4c10                	lw	a2,24(s0)
    42ba:	0ff5f593          	andi	a1,a1,255
    42be:	4509                	li	a0,2
    42c0:	9782                	jalr	a5
    42c2:	1ffff797          	auipc	a5,0x1ffff
    42c6:	1167c783          	lbu	a5,278(a5) # 200033d8 <rfInfo+0xc>
    42ca:	8b89                	andi	a5,a5,2
    42cc:	cb81                	beqz	a5,42dc <RF_TxProcess+0x114>
    42ce:	4585                	li	a1,1
    42d0:	1ffff517          	auipc	a0,0x1ffff
    42d4:	10c54503          	lbu	a0,268(a0) # 200033dc <rfInfo+0x10>
    42d8:	e31fe0ef          	jal	ra,3108 <tmos_set_event>
    42dc:	50b2                	lw	ra,44(sp)
    42de:	5422                	lw	s0,40(sp)
    42e0:	5492                	lw	s1,36(sp)
    42e2:	5902                	lw	s2,32(sp)
    42e4:	49f2                	lw	s3,28(sp)
    42e6:	6145                	addi	sp,sp,48
    42e8:	8082                	ret
    42ea:	409c                	lw	a5,0(s1)
    42ec:	53fc                	lw	a5,100(a5)
    42ee:	f7fd                	bnez	a5,42dc <RF_TxProcess+0x114>
    42f0:	1ffff797          	auipc	a5,0x1ffff
    42f4:	0a078023          	sb	zero,160(a5) # 20003390 <gBleIPPara+0x4>
    42f8:	01092783          	lw	a5,16(s2)
    42fc:	4601                	li	a2,0
    42fe:	4581                	li	a1,0
    4300:	4549                	li	a0,18
    4302:	9782                	jalr	a5
    4304:	bfe1                	j	42dc <RF_TxProcess+0x114>
    4306:	537c                	lw	a5,100(a4)
    4308:	ee0796e3          	bnez	a5,41f4 <RF_TxProcess+0x2c>
    430c:	3d79                	jal	41aa <rf_stop>
    430e:	abaff0ef          	jal	ra,35c8 <TMOS_TempSample>
    4312:	1ffff797          	auipc	a5,0x1ffff
    4316:	06078f23          	sb	zero,126(a5) # 20003390 <gBleIPPara+0x4>
    431a:	1ffff797          	auipc	a5,0x1ffff
    431e:	09278793          	addi	a5,a5,146 # 200033ac <rfConfig>
    4322:	4b9c                	lw	a5,16(a5)
    4324:	4601                	li	a2,0
    4326:	4581                	li	a1,0
    4328:	4545                	li	a0,17
    432a:	bfe1                	j	4302 <RF_TxProcess+0x13a>
    432c:	00344783          	lbu	a5,3(s0)
    4330:	8b85                	andi	a5,a5,1
    4332:	c39d                	beqz	a5,4358 <RF_TxProcess+0x190>
    4334:	3d9d                	jal	41aa <rf_stop>
    4336:	1ffff797          	auipc	a5,0x1ffff
    433a:	04078ca3          	sb	zero,89(a5) # 2000338f <gBleIPPara+0x3>
    433e:	1ffff797          	auipc	a5,0x1ffff
    4342:	04078923          	sb	zero,82(a5) # 20003390 <gBleIPPara+0x4>
    4346:	1ffff797          	auipc	a5,0x1ffff
    434a:	06678793          	addi	a5,a5,102 # 200033ac <rfConfig>
    434e:	4b9c                	lw	a5,16(a5)
    4350:	4601                	li	a2,0
    4352:	4581                	li	a1,0
    4354:	4505                	li	a0,1
    4356:	b775                	j	4302 <RF_TxProcess+0x13a>
    4358:	537c                	lw	a5,100(a4)
    435a:	fbe9                	bnez	a5,432c <RF_TxProcess+0x164>
    435c:	35b9                	jal	41aa <rf_stop>
    435e:	bf55                	j	4312 <RF_TxProcess+0x14a>

00004360 <RF_Config>:
RF_Config():
    4360:	491c                	lw	a5,16(a0)
    4362:	10078c63          	beqz	a5,447a <RF_Config+0x11a>
    4366:	1141                	addi	sp,sp,-16
    4368:	c422                	sw	s0,8(sp)
    436a:	c606                	sw	ra,12(sp)
    436c:	00054783          	lbu	a5,0(a0)
    4370:	842a                	mv	s0,a0
    4372:	0407f793          	andi	a5,a5,64
    4376:	c781                	beqz	a5,437e <RF_Config+0x1e>
    4378:	415c                	lw	a5,4(a0)
    437a:	4509                	li	a0,2
    437c:	cbfd                	beqz	a5,4472 <RF_Config+0x112>
    437e:	02000613          	li	a2,32
    4382:	4581                	li	a1,0
    4384:	1ffff517          	auipc	a0,0x1ffff
    4388:	02850513          	addi	a0,a0,40 # 200033ac <rfConfig>
    438c:	1fffc097          	auipc	ra,0x1fffc
    4390:	51e080e7          	jalr	1310(ra) # 200008aa <tmos_memset>
    4394:	85a2                	mv	a1,s0
    4396:	02000613          	li	a2,32
    439a:	1ffff517          	auipc	a0,0x1ffff
    439e:	01250513          	addi	a0,a0,18 # 200033ac <rfConfig>
    43a2:	1fffc097          	auipc	ra,0x1fffc
    43a6:	4d0080e7          	jalr	1232(ra) # 20000872 <tmos_memcpy>
    43aa:	1ffff797          	auipc	a5,0x1ffff
    43ae:	01b7c783          	lbu	a5,27(a5) # 200033c5 <rfConfig+0x19>
    43b2:	1ffff417          	auipc	s0,0x1ffff
    43b6:	ffa40413          	addi	s0,s0,-6 # 200033ac <rfConfig>
    43ba:	e799                	bnez	a5,43c8 <RF_Config+0x68>
    43bc:	02800793          	li	a5,40
    43c0:	1ffff717          	auipc	a4,0x1ffff
    43c4:	00f702a3          	sb	a5,5(a4) # 200033c5 <rfConfig+0x19>
    43c8:	1ffff797          	auipc	a5,0x1ffff
    43cc:	ffe7c783          	lbu	a5,-2(a5) # 200033c6 <rfConfig+0x1a>
    43d0:	e791                	bnez	a5,43dc <RF_Config+0x7c>
    43d2:	47a1                	li	a5,8
    43d4:	1ffff717          	auipc	a4,0x1ffff
    43d8:	fef70923          	sb	a5,-14(a4) # 200033c6 <rfConfig+0x1a>
    43dc:	1ffff797          	auipc	a5,0x1ffff
    43e0:	feb7c783          	lbu	a5,-21(a5) # 200033c7 <rfConfig+0x1b>
    43e4:	e791                	bnez	a5,43f0 <RF_Config+0x90>
    43e6:	47c5                	li	a5,17
    43e8:	1ffff717          	auipc	a4,0x1ffff
    43ec:	fcf70fa3          	sb	a5,-33(a4) # 200033c7 <rfConfig+0x1b>
    43f0:	1ffff797          	auipc	a5,0x1ffff
    43f4:	fd87c783          	lbu	a5,-40(a5) # 200033c8 <rfConfig+0x1c>
    43f8:	e791                	bnez	a5,4404 <RF_Config+0xa4>
    43fa:	57ed                	li	a5,-5
    43fc:	1ffff717          	auipc	a4,0x1ffff
    4400:	fcf70623          	sb	a5,-52(a4) # 200033c8 <rfConfig+0x1c>
    4404:	1ffff797          	auipc	a5,0x1ffff
    4408:	fc57c783          	lbu	a5,-59(a5) # 200033c9 <rfConfig+0x1d>
    440c:	e791                	bnez	a5,4418 <RF_Config+0xb8>
    440e:	57ed                	li	a5,-5
    4410:	1ffff717          	auipc	a4,0x1ffff
    4414:	faf70ca3          	sb	a5,-71(a4) # 200033c9 <rfConfig+0x1d>
    4418:	1ffff797          	auipc	a5,0x1ffff
    441c:	fb478793          	addi	a5,a5,-76 # 200033cc <rfInfo>
    4420:	43c8                	lw	a0,4(a5)
    4422:	c509                	beqz	a0,442c <RF_Config+0xcc>
    4424:	1fffd097          	auipc	ra,0x1fffd
    4428:	306080e7          	jalr	774(ra) # 2000172a <tmos_memory_free>
    442c:	1ffff797          	auipc	a5,0x1ffff
    4430:	fa07a223          	sw	zero,-92(a5) # 200033d0 <rfInfo+0x4>
    4434:	00044783          	lbu	a5,0(s0)
    4438:	8b85                	andi	a5,a5,1
    443a:	c385                	beqz	a5,445a <RF_Config+0xfa>
    443c:	1ffff517          	auipc	a0,0x1ffff
    4440:	f8d54503          	lbu	a0,-115(a0) # 200033c9 <rfConfig+0x1d>
    4444:	04900593          	li	a1,73
    4448:	0509                	addi	a0,a0,2
    444a:	1fffd097          	auipc	ra,0x1fffd
    444e:	20e080e7          	jalr	526(ra) # 20001658 <tmos_memory_allocate>
    4452:	1ffff797          	auipc	a5,0x1ffff
    4456:	f6a7af23          	sw	a0,-130(a5) # 200033d0 <rfInfo+0x4>
    445a:	00144783          	lbu	a5,1(s0)
    445e:	4501                	li	a0,0
    4460:	1ffff717          	auipc	a4,0x1ffff
    4464:	f6f70da3          	sb	a5,-133(a4) # 200033db <rfInfo+0xf>
    4468:	441c                	lw	a5,8(s0)
    446a:	1ffff717          	auipc	a4,0x1ffff
    446e:	f6f72b23          	sw	a5,-138(a4) # 200033e0 <rfInfo+0x14>
    4472:	40b2                	lw	ra,12(sp)
    4474:	4422                	lw	s0,8(sp)
    4476:	0141                	addi	sp,sp,16
    4478:	8082                	ret
    447a:	4505                	li	a0,1
    447c:	8082                	ret

0000447e <RF_Tx>:
RF_Tx():
    447e:	7179                	addi	sp,sp,-48
    4480:	d422                	sw	s0,40(sp)
    4482:	1ffff417          	auipc	s0,0x1ffff
    4486:	f2a40413          	addi	s0,s0,-214 # 200033ac <rfConfig>
    448a:	441c                	lw	a5,8(s0)
    448c:	d606                	sw	ra,44(sp)
    448e:	d226                	sw	s1,36(sp)
    4490:	d04a                	sw	s2,32(sp)
    4492:	ce4e                	sw	s3,28(sp)
    4494:	cc52                	sw	s4,24(sp)
    4496:	ca56                	sw	s5,20(sp)
    4498:	c85a                	sw	s6,16(sp)
    449a:	c65e                	sw	s7,12(sp)
    449c:	c462                	sw	s8,8(sp)
    449e:	c266                	sw	s9,4(sp)
    44a0:	2a078063          	beqz	a5,4740 <RF_Tx+0x2c2>
    44a4:	1ffffc17          	auipc	s8,0x1ffff
    44a8:	ee0c0c13          	addi	s8,s8,-288 # 20003384 <gptrBBReg>
    44ac:	000c2703          	lw	a4,0(s8)
    44b0:	1ffffa17          	auipc	s4,0x1ffff
    44b4:	f3ca0a13          	addi	s4,s4,-196 # 200033ec <gptrRFENDReg>
    44b8:	8ab6                	mv	s5,a3
    44ba:	431c                	lw	a5,0(a4)
    44bc:	1ffff997          	auipc	s3,0x1ffff
    44c0:	eec98993          	addi	s3,s3,-276 # 200033a8 <gptrLLEReg>
    44c4:	1ffff917          	auipc	s2,0x1ffff
    44c8:	f0890913          	addi	s2,s2,-248 # 200033cc <rfInfo>
    44cc:	e7f7f793          	andi	a5,a5,-385
    44d0:	0807e793          	ori	a5,a5,128
    44d4:	c31c                	sw	a5,0(a4)
    44d6:	000a2683          	lw	a3,0(s4)
    44da:	ffce0737          	lui	a4,0xffce0
    44de:	177d                	addi	a4,a4,-1
    44e0:	469c                	lw	a5,8(a3)
    44e2:	8baa                	mv	s7,a0
    44e4:	84ae                	mv	s1,a1
    44e6:	8ff9                	and	a5,a5,a4
    44e8:	c69c                	sw	a5,8(a3)
    44ea:	0009a783          	lw	a5,0(s3)
    44ee:	08000713          	li	a4,128
    44f2:	8b32                	mv	s6,a2
    44f4:	cbb8                	sw	a4,80(a5)
    44f6:	00c94783          	lbu	a5,12(s2)
    44fa:	4cbd                	li	s9,15
    44fc:	8b89                	andi	a5,a5,2
    44fe:	1e079063          	bnez	a5,46de <RF_Tx+0x260>
    4502:	000c2703          	lw	a4,0(s8)
    4506:	575c                	lw	a5,44(a4)
    4508:	9bf1                	andi	a5,a5,-4
    450a:	0017e793          	ori	a5,a5,1
    450e:	d75c                	sw	a5,44(a4)
    4510:	00c94783          	lbu	a5,12(s2)
    4514:	8b89                	andi	a5,a5,2
    4516:	1e078363          	beqz	a5,46fc <RF_Tx+0x27e>
    451a:	4581                	li	a1,0
    451c:	1ffff517          	auipc	a0,0x1ffff
    4520:	e9154503          	lbu	a0,-367(a0) # 200033ad <rfConfig+0x1>
    4524:	36b9                	jal	4072 <RF_DevSetChannel>
    4526:	000c2783          	lw	a5,0(s8)
    452a:	00330637          	lui	a2,0x330
    452e:	4398                	lw	a4,0(a5)
    4530:	e7f77713          	andi	a4,a4,-385
    4534:	c398                	sw	a4,0(a5)
    4536:	4398                	lw	a4,0(a5)
    4538:	e7f77713          	andi	a4,a4,-385
    453c:	10076713          	ori	a4,a4,256
    4540:	c398                	sw	a4,0(a5)
    4542:	000a2683          	lw	a3,0(s4)
    4546:	4698                	lw	a4,8(a3)
    4548:	8f51                	or	a4,a4,a2
    454a:	c698                	sw	a4,8(a3)
    454c:	0009a703          	lw	a4,0(s3)
    4550:	0da00693          	li	a3,218
    4554:	cb34                	sw	a3,80(a4)
    4556:	1ffff697          	auipc	a3,0x1ffff
    455a:	e566c683          	lbu	a3,-426(a3) # 200033ac <rfConfig>
    455e:	0406f613          	andi	a2,a3,64
    4562:	1a060663          	beqz	a2,470e <RF_Tx+0x290>
    4566:	404c                	lw	a1,4(s0)
    4568:	ffdb9637          	lui	a2,0xffdb9
    456c:	81060613          	addi	a2,a2,-2032 # ffdb8810 <_eusrstack+0xdfdb0810>
    4570:	95b2                	add	a1,a1,a2
    4572:	6661                	lui	a2,0x18
    4574:	6a060613          	addi	a2,a2,1696 # 186a0 <_data_lma+0x12010>
    4578:	18b67b63          	bgeu	a2,a1,470e <RF_Tx+0x290>
    457c:	0c800613          	li	a2,200
    4580:	d370                	sw	a2,100(a4)
    4582:	4410                	lw	a2,8(s0)
    4584:	8a85                	andi	a3,a3,1
    4586:	c790                	sw	a2,8(a5)
    4588:	4450                	lw	a2,12(s0)
    458a:	c3d0                	sw	a2,4(a5)
    458c:	c354                	sw	a3,4(a4)
    458e:	00e94783          	lbu	a5,14(s2)
    4592:	0027e793          	ori	a5,a5,2
    4596:	1ffff717          	auipc	a4,0x1ffff
    459a:	e4f70223          	sb	a5,-444(a4) # 200033da <rfInfo+0xe>
    459e:	1ffff797          	auipc	a5,0x1ffff
    45a2:	e35787a3          	sb	s5,-465(a5) # 200033cd <rfInfo+0x1>
    45a6:	1ffff797          	auipc	a5,0x1ffff
    45aa:	e3678323          	sb	s6,-474(a5) # 200033cc <rfInfo>
    45ae:	1ffffa97          	auipc	s5,0x1ffff
    45b2:	ddea8a93          	addi	s5,s5,-546 # 2000338c <gBleIPPara>
    45b6:	014aa503          	lw	a0,20(s5)
    45ba:	140b8d63          	beqz	s7,4714 <RF_Tx+0x296>
    45be:	01650023          	sb	s6,0(a0)
    45c2:	009500a3          	sb	s1,1(a0)
    45c6:	8626                	mv	a2,s1
    45c8:	85de                	mv	a1,s7
    45ca:	0509                	addi	a0,a0,2
    45cc:	1fffc097          	auipc	ra,0x1fffc
    45d0:	2a6080e7          	jalr	678(ra) # 20000872 <tmos_memcpy>
    45d4:	0009a783          	lw	a5,0(s3)
    45d8:	014aa703          	lw	a4,20(s5)
    45dc:	4581                	li	a1,0
    45de:	00000517          	auipc	a0,0x0
    45e2:	bea50513          	addi	a0,a0,-1046 # 41c8 <RF_TxProcess>
    45e6:	dbb8                	sw	a4,112(a5)
    45e8:	1ffff797          	auipc	a5,0x1ffff
    45ec:	da0783a3          	sb	zero,-601(a5) # 2000338f <gBleIPPara+0x3>
    45f0:	1ffff797          	auipc	a5,0x1ffff
    45f4:	da078023          	sb	zero,-608(a5) # 20003390 <gBleIPPara+0x4>
    45f8:	cbdfe0ef          	jal	ra,32b4 <TMOS_ProcessRegister>
    45fc:	f84ff0ef          	jal	ra,3d80 <ll_multi_states_check>
    4600:	478d                	li	a5,3
    4602:	1ffff717          	auipc	a4,0x1ffff
    4606:	d8f708a3          	sb	a5,-623(a4) # 20003393 <gBleIPPara+0x7>
    460a:	00c94783          	lbu	a5,12(s2)
    460e:	8b89                	andi	a5,a5,2
    4610:	c7a9                	beqz	a5,465a <RF_Tx+0x1dc>
    4612:	0009a703          	lw	a4,0(s3)
    4616:	537c                	lw	a5,100(a4)
    4618:	fffd                	bnez	a5,4616 <RF_Tx+0x198>
    461a:	1ffff797          	auipc	a5,0x1ffff
    461e:	d6278793          	addi	a5,a5,-670 # 2000337c <fnGetClockCBs>
    4622:	439c                	lw	a5,0(a5)
    4624:	9782                	jalr	a5
    4626:	1ffff717          	auipc	a4,0x1ffff
    462a:	d1270713          	addi	a4,a4,-750 # 20003338 <ble>
    462e:	01670703          	lb	a4,22(a4)
    4632:	00892783          	lw	a5,8(s2)
    4636:	0e075263          	bgez	a4,471a <RF_Tx+0x29c>
    463a:	8d1d                	sub	a0,a0,a5
    463c:	00044703          	lbu	a4,0(s0)
    4640:	810d                	srli	a0,a0,0x3
    4642:	014aa783          	lw	a5,20(s5)
    4646:	8b21                	andi	a4,a4,8
    4648:	c36d                	beqz	a4,472a <RF_Tx+0x2ac>
    464a:	00800737          	lui	a4,0x800
    464e:	0562                	slli	a0,a0,0x18
    4650:	2ff70713          	addi	a4,a4,767 # 8002ff <_data_lma+0x7f9c6f>
    4654:	8d59                	or	a0,a0,a4
    4656:	c388                	sw	a0,0(a5)
    4658:	4489                	li	s1,2
    465a:	1ffff597          	auipc	a1,0x1ffff
    465e:	d525c583          	lbu	a1,-686(a1) # 200033ac <rfConfig>
    4662:	8591                	srai	a1,a1,0x4
    4664:	4501                	li	a0,0
    4666:	8626                	mv	a2,s1
    4668:	898d                	andi	a1,a1,3
    466a:	1fffd097          	auipc	ra,0x1fffd
    466e:	8f4080e7          	jalr	-1804(ra) # 20000f5e <ll_tx_wait_finish>
    4672:	000a2703          	lw	a4,0(s4)
    4676:	4501                	li	a0,0
    4678:	575c                	lw	a5,44(a4)
    467a:	8385                	srli	a5,a5,0x1
    467c:	8b85                	andi	a5,a5,1
    467e:	c3b9                	beqz	a5,46c4 <RF_Tx+0x246>
    4680:	405c                	lw	a5,4(s0)
    4682:	65c1                	lui	a1,0x10
    4684:	a0058593          	addi	a1,a1,-1536 # fa00 <_data_lma+0x9370>
    4688:	c1878793          	addi	a5,a5,-1000
    468c:	02b7d6b3          	divu	a3,a5,a1
    4690:	fe100837          	lui	a6,0xfe100
    4694:	187d                	addi	a6,a6,-1
    4696:	02b7f7b3          	remu	a5,a5,a1
    469a:	8afd                	andi	a3,a3,31
    469c:	01469613          	slli	a2,a3,0x14
    46a0:	4374                	lw	a3,68(a4)
    46a2:	0106f6b3          	and	a3,a3,a6
    46a6:	8ed1                	or	a3,a3,a2
    46a8:	c374                	sw	a3,68(a4)
    46aa:	0fa00693          	li	a3,250
    46ae:	fffc0637          	lui	a2,0xfffc0
    46b2:	07aa                	slli	a5,a5,0xa
    46b4:	02d7d7b3          	divu	a5,a5,a3
    46b8:	4374                	lw	a3,68(a4)
    46ba:	8ef1                	and	a3,a3,a2
    46bc:	07ba                	slli	a5,a5,0xe
    46be:	83b9                	srli	a5,a5,0xe
    46c0:	8fd5                	or	a5,a5,a3
    46c2:	c37c                	sw	a5,68(a4)
    46c4:	50b2                	lw	ra,44(sp)
    46c6:	5422                	lw	s0,40(sp)
    46c8:	5492                	lw	s1,36(sp)
    46ca:	5902                	lw	s2,32(sp)
    46cc:	49f2                	lw	s3,28(sp)
    46ce:	4a62                	lw	s4,24(sp)
    46d0:	4ad2                	lw	s5,20(sp)
    46d2:	4b42                	lw	s6,16(sp)
    46d4:	4bb2                	lw	s7,12(sp)
    46d6:	4c22                	lw	s8,8(sp)
    46d8:	4c92                	lw	s9,4(sp)
    46da:	6145                	addi	sp,sp,48
    46dc:	8082                	ret
    46de:	1fffd097          	auipc	ra,0x1fffd
    46e2:	dfa080e7          	jalr	-518(ra) # 200014d8 <RF_FrequencyHoppingGet>
    46e6:	feacfce3          	bgeu	s9,a0,46de <RF_Tx+0x260>
    46ea:	1ffff797          	auipc	a5,0x1ffff
    46ee:	cdc7c783          	lbu	a5,-804(a5) # 200033c6 <rfConfig+0x1a>
    46f2:	0796                	slli	a5,a5,0x5
    46f4:	17c1                	addi	a5,a5,-16
    46f6:	fea7e4e3          	bltu	a5,a0,46de <RF_Tx+0x260>
    46fa:	b521                	j	4502 <RF_Tx+0x84>
    46fc:	00044783          	lbu	a5,0(s0)
    4700:	0407f793          	andi	a5,a5,64
    4704:	e0078be3          	beqz	a5,451a <RF_Tx+0x9c>
    4708:	4589                	li	a1,2
    470a:	4048                	lw	a0,4(s0)
    470c:	bd21                	j	4524 <RF_Tx+0xa6>
    470e:	0a000613          	li	a2,160
    4712:	b5bd                	j	4580 <RF_Tx+0x102>
    4714:	01652023          	sw	s6,0(a0)
    4718:	bd75                	j	45d4 <RF_Tx+0x156>
    471a:	f2f570e3          	bgeu	a0,a5,463a <RF_Tx+0x1bc>
    471e:	a8c00737          	lui	a4,0xa8c00
    4722:	40f707b3          	sub	a5,a4,a5
    4726:	953e                	add	a0,a0,a5
    4728:	bf11                	j	463c <RF_Tx+0x1be>
    472a:	0489                	addi	s1,s1,2
    472c:	0ff4f493          	andi	s1,s1,255
    4730:	009780a3          	sb	s1,1(a5)
    4734:	97a6                	add	a5,a5,s1
    4736:	00078023          	sb	zero,0(a5)
    473a:	00a780a3          	sb	a0,1(a5)
    473e:	bf31                	j	465a <RF_Tx+0x1dc>
    4740:	4505                	li	a0,1
    4742:	b749                	j	46c4 <RF_Tx+0x246>

00004744 <RF_Rx>:
RF_Rx():
    4744:	1ffff797          	auipc	a5,0x1ffff
    4748:	cbc78793          	addi	a5,a5,-836 # 20003400 <gBleLlPara>
    474c:	0987a783          	lw	a5,152(a5)
    4750:	cf91                	beqz	a5,476c <RF_Rx+0x28>
    4752:	4505                	li	a0,1
    4754:	8082                	ret
    4756:	4505                	li	a0,1
    4758:	40f2                	lw	ra,28(sp)
    475a:	4462                	lw	s0,24(sp)
    475c:	44d2                	lw	s1,20(sp)
    475e:	4942                	lw	s2,16(sp)
    4760:	49b2                	lw	s3,12(sp)
    4762:	4a22                	lw	s4,8(sp)
    4764:	4a92                	lw	s5,4(sp)
    4766:	4b02                	lw	s6,0(sp)
    4768:	6105                	addi	sp,sp,32
    476a:	8082                	ret
    476c:	1101                	addi	sp,sp,-32
    476e:	ca26                	sw	s1,20(sp)
    4770:	1ffff497          	auipc	s1,0x1ffff
    4774:	c3c48493          	addi	s1,s1,-964 # 200033ac <rfConfig>
    4778:	449c                	lw	a5,8(s1)
    477a:	ce06                	sw	ra,28(sp)
    477c:	cc22                	sw	s0,24(sp)
    477e:	c84a                	sw	s2,16(sp)
    4780:	c64e                	sw	s3,12(sp)
    4782:	c452                	sw	s4,8(sp)
    4784:	c256                	sw	s5,4(sp)
    4786:	c05a                	sw	s6,0(sp)
    4788:	d7f9                	beqz	a5,4756 <RF_Rx+0x12>
    478a:	1ffff917          	auipc	s2,0x1ffff
    478e:	c1e90913          	addi	s2,s2,-994 # 200033a8 <gptrLLEReg>
    4792:	00092783          	lw	a5,0(s2)
    4796:	4398                	lw	a4,0(a5)
    4798:	8b0d                	andi	a4,a4,3
    479a:	c305                	beqz	a4,47ba <RF_Rx+0x76>
    479c:	4bb8                	lw	a4,80(a5)
    479e:	9b61                	andi	a4,a4,-8
    47a0:	cbb8                	sw	a4,80(a5)
    47a2:	4398                	lw	a4,0(a5)
    47a4:	00876713          	ori	a4,a4,8
    47a8:	c398                	sw	a4,0(a5)
    47aa:	439c                	lw	a5,0(a5)
    47ac:	838d                	srli	a5,a5,0x3
    47ae:	8b85                	andi	a5,a5,1
    47b0:	c789                	beqz	a5,47ba <RF_Rx+0x76>
    47b2:	0001                	nop
    47b4:	0001                	nop
    47b6:	0001                	nop
    47b8:	0001                	nop
    47ba:	1ffff417          	auipc	s0,0x1ffff
    47be:	c1240413          	addi	s0,s0,-1006 # 200033cc <rfInfo>
    47c2:	00c44783          	lbu	a5,12(s0)
    47c6:	8ab6                	mv	s5,a3
    47c8:	8b32                	mv	s6,a2
    47ca:	8b91                	andi	a5,a5,4
    47cc:	89ae                	mv	s3,a1
    47ce:	8a2a                	mv	s4,a0
    47d0:	eb89                	bnez	a5,47e2 <RF_Rx+0x9e>
    47d2:	1ffff597          	auipc	a1,0x1ffff
    47d6:	bda5c583          	lbu	a1,-1062(a1) # 200033ac <rfConfig>
    47da:	0405f793          	andi	a5,a1,64
    47de:	14079c63          	bnez	a5,4936 <RF_Rx+0x1f2>
    47e2:	4581                	li	a1,0
    47e4:	1ffff517          	auipc	a0,0x1ffff
    47e8:	bc954503          	lbu	a0,-1079(a0) # 200033ad <rfConfig+0x1>
    47ec:	887ff0ef          	jal	ra,4072 <RF_DevSetChannel>
    47f0:	1ffff517          	auipc	a0,0x1ffff
    47f4:	bbc54503          	lbu	a0,-1092(a0) # 200033ac <rfConfig>
    47f8:	8511                	srai	a0,a0,0x4
    47fa:	4601                	li	a2,0
    47fc:	1ffff597          	auipc	a1,0x1ffff
    4800:	bcc5c583          	lbu	a1,-1076(a1) # 200033c8 <rfConfig+0x1c>
    4804:	890d                	andi	a0,a0,3
    4806:	c7aff0ef          	jal	ra,3c80 <BLE_SetPHYRxMode>
    480a:	1ffff717          	auipc	a4,0x1ffff
    480e:	b7a70713          	addi	a4,a4,-1158 # 20003384 <gptrBBReg>
    4812:	4494                	lw	a3,8(s1)
    4814:	431c                	lw	a5,0(a4)
    4816:	c794                	sw	a3,8(a5)
    4818:	44d4                	lw	a3,12(s1)
    481a:	c3d4                	sw	a3,4(a5)
    481c:	0004c783          	lbu	a5,0(s1)
    4820:	00092683          	lw	a3,0(s2)
    4824:	84ba                	mv	s1,a4
    4826:	8b85                	andi	a5,a5,1
    4828:	c2dc                	sw	a5,4(a3)
    482a:	1ffff797          	auipc	a5,0x1ffff
    482e:	bb6782a3          	sb	s6,-1115(a5) # 200033cf <rfInfo+0x3>
    4832:	1ffff797          	auipc	a5,0x1ffff
    4836:	b9578e23          	sb	s5,-1124(a5) # 200033ce <rfInfo+0x2>
    483a:	42dc                	lw	a5,4(a3)
    483c:	8b85                	andi	a5,a5,1
    483e:	cfb1                	beqz	a5,489a <RF_Rx+0x156>
    4840:	405c                	lw	a5,4(s0)
    4842:	e385                	bnez	a5,4862 <RF_Rx+0x11e>
    4844:	1ffff517          	auipc	a0,0x1ffff
    4848:	b8554503          	lbu	a0,-1147(a0) # 200033c9 <rfConfig+0x1d>
    484c:	04900593          	li	a1,73
    4850:	0509                	addi	a0,a0,2
    4852:	1fffd097          	auipc	ra,0x1fffd
    4856:	e06080e7          	jalr	-506(ra) # 20001658 <tmos_memory_allocate>
    485a:	1ffff797          	auipc	a5,0x1ffff
    485e:	b6a7ab23          	sw	a0,-1162(a5) # 200033d0 <rfInfo+0x4>
    4862:	405c                	lw	a5,4(s0)
    4864:	ee0789e3          	beqz	a5,4756 <RF_Rx+0x12>
    4868:	1ffff717          	auipc	a4,0x1ffff
    486c:	b6674703          	lbu	a4,-1178(a4) # 200033ce <rfInfo+0x2>
    4870:	00e78023          	sb	a4,0(a5)
    4874:	405c                	lw	a5,4(s0)
    4876:	0c0a0663          	beqz	s4,4942 <RF_Rx+0x1fe>
    487a:	0c098463          	beqz	s3,4942 <RF_Rx+0x1fe>
    487e:	013780a3          	sb	s3,1(a5)
    4882:	4048                	lw	a0,4(s0)
    4884:	864e                	mv	a2,s3
    4886:	85d2                	mv	a1,s4
    4888:	0509                	addi	a0,a0,2
    488a:	1fffc097          	auipc	ra,0x1fffc
    488e:	fe8080e7          	jalr	-24(ra) # 20000872 <tmos_memcpy>
    4892:	00092783          	lw	a5,0(s2)
    4896:	4058                	lw	a4,4(s0)
    4898:	dbb8                	sw	a4,112(a5)
    489a:	ce6ff0ef          	jal	ra,3d80 <ll_multi_states_check>
    489e:	00e44783          	lbu	a5,14(s0)
    48a2:	0047e793          	ori	a5,a5,4
    48a6:	1ffff717          	auipc	a4,0x1ffff
    48aa:	b2f70a23          	sb	a5,-1228(a4) # 200033da <rfInfo+0xe>
    48ae:	04000793          	li	a5,64
    48b2:	1ffff717          	auipc	a4,0x1ffff
    48b6:	acf70d23          	sb	a5,-1318(a4) # 2000338c <gBleIPPara>
    48ba:	1ffff797          	auipc	a5,0x1ffff
    48be:	ac078b23          	sb	zero,-1322(a5) # 20003390 <gBleIPPara+0x4>
    48c2:	479d                	li	a5,7
    48c4:	1ffff717          	auipc	a4,0x1ffff
    48c8:	acf707a3          	sb	a5,-1329(a4) # 20003393 <gBleIPPara+0x7>
    48cc:	1ffff797          	auipc	a5,0x1ffff
    48d0:	a6c78793          	addi	a5,a5,-1428 # 20003338 <ble>
    48d4:	579c                	lw	a5,40(a5)
    48d6:	cb91                	beqz	a5,48ea <RF_Rx+0x1a6>
    48d8:	64000613          	li	a2,1600
    48dc:	45c1                	li	a1,16
    48de:	1ffff517          	auipc	a0,0x1ffff
    48e2:	afe54503          	lbu	a0,-1282(a0) # 200033dc <rfInfo+0x10>
    48e6:	883fe0ef          	jal	ra,3168 <tmos_start_task>
    48ea:	1ffff797          	auipc	a5,0x1ffff
    48ee:	aa0783a3          	sb	zero,-1369(a5) # 20003391 <gBleIPPara+0x5>
    48f2:	00092683          	lw	a3,0(s2)
    48f6:	1ffff797          	auipc	a5,0x1ffff
    48fa:	a8078ba3          	sb	zero,-1385(a5) # 2000338d <gBleIPPara+0x1>
    48fe:	4098                	lw	a4,0(s1)
    4900:	4785                	li	a5,1
    4902:	c29c                	sw	a5,0(a3)
    4904:	431c                	lw	a5,0(a4)
    4906:	00330637          	lui	a2,0x330
    490a:	4501                	li	a0,0
    490c:	e7f7f793          	andi	a5,a5,-385
    4910:	c31c                	sw	a5,0(a4)
    4912:	431c                	lw	a5,0(a4)
    4914:	e7f7f793          	andi	a5,a5,-385
    4918:	1007e793          	ori	a5,a5,256
    491c:	c31c                	sw	a5,0(a4)
    491e:	1ffff797          	auipc	a5,0x1ffff
    4922:	ace78793          	addi	a5,a5,-1330 # 200033ec <gptrRFENDReg>
    4926:	4398                	lw	a4,0(a5)
    4928:	471c                	lw	a5,8(a4)
    492a:	8fd1                	or	a5,a5,a2
    492c:	c71c                	sw	a5,8(a4)
    492e:	0d900793          	li	a5,217
    4932:	cabc                	sw	a5,80(a3)
    4934:	b515                	j	4758 <RF_Rx+0x14>
    4936:	0305f593          	andi	a1,a1,48
    493a:	0015e593          	ori	a1,a1,1
    493e:	40c8                	lw	a0,4(s1)
    4940:	b575                	j	47ec <RF_Rx+0xa8>
    4942:	000780a3          	sb	zero,1(a5)
    4946:	b7b1                	j	4892 <RF_Rx+0x14e>

00004948 <rfRxProcess>:
rfRxProcess():
    4948:	7179                	addi	sp,sp,-48
    494a:	d226                	sw	s1,36(sp)
    494c:	1ffff497          	auipc	s1,0x1ffff
    4950:	a6048493          	addi	s1,s1,-1440 # 200033ac <rfConfig>
    4954:	0004c783          	lbu	a5,0(s1)
    4958:	d422                	sw	s0,40(sp)
    495a:	d606                	sw	ra,44(sp)
    495c:	d04a                	sw	s2,32(sp)
    495e:	ce4e                	sw	s3,28(sp)
    4960:	cc52                	sw	s4,24(sp)
    4962:	8b85                	andi	a5,a5,1
    4964:	1ffff417          	auipc	s0,0x1ffff
    4968:	a2840413          	addi	s0,s0,-1496 # 2000338c <gBleIPPara>
    496c:	30078463          	beqz	a5,4c74 <rfRxProcess+0x32c>
    4970:	00044783          	lbu	a5,0(s0)
    4974:	8b85                	andi	a5,a5,1
    4976:	2c078663          	beqz	a5,4c42 <rfRxProcess+0x2fa>
    497a:	1ffff797          	auipc	a5,0x1ffff
    497e:	a7278793          	addi	a5,a5,-1422 # 200033ec <gptrRFENDReg>
    4982:	4398                	lw	a4,0(a5)
    4984:	000107a3          	sb	zero,15(sp)
    4988:	01842903          	lw	s2,24(s0)
    498c:	575c                	lw	a5,44(a4)
    498e:	8385                	srli	a5,a5,0x1
    4990:	8b85                	andi	a5,a5,1
    4992:	c3a1                	beqz	a5,49d2 <rfRxProcess+0x8a>
    4994:	40dc                	lw	a5,4(s1)
    4996:	65c1                	lui	a1,0x10
    4998:	a0058593          	addi	a1,a1,-1536 # fa00 <_data_lma+0x9370>
    499c:	02b7d6b3          	divu	a3,a5,a1
    49a0:	fe100537          	lui	a0,0xfe100
    49a4:	157d                	addi	a0,a0,-1
    49a6:	02b7f7b3          	remu	a5,a5,a1
    49aa:	8afd                	andi	a3,a3,31
    49ac:	01469613          	slli	a2,a3,0x14
    49b0:	4374                	lw	a3,68(a4)
    49b2:	8ee9                	and	a3,a3,a0
    49b4:	8ed1                	or	a3,a3,a2
    49b6:	c374                	sw	a3,68(a4)
    49b8:	0fa00693          	li	a3,250
    49bc:	fffc0637          	lui	a2,0xfffc0
    49c0:	07aa                	slli	a5,a5,0xa
    49c2:	02d7d7b3          	divu	a5,a5,a3
    49c6:	4374                	lw	a3,68(a4)
    49c8:	8ef1                	and	a3,a3,a2
    49ca:	07ba                	slli	a5,a5,0xe
    49cc:	83b9                	srli	a5,a5,0xe
    49ce:	8fd5                	or	a5,a5,a3
    49d0:	c37c                	sw	a5,68(a4)
    49d2:	4681                	li	a3,0
    49d4:	00f10613          	addi	a2,sp,15
    49d8:	4581                	li	a1,0
    49da:	854a                	mv	a0,s2
    49dc:	1ffff797          	auipc	a5,0x1ffff
    49e0:	9a078823          	sb	zero,-1616(a5) # 2000338c <gBleIPPara>
    49e4:	1fffc097          	auipc	ra,0x1fffc
    49e8:	4b0080e7          	jalr	1200(ra) # 20000e94 <ble_ll_chkcrc>
    49ec:	01851a13          	slli	s4,a0,0x18
    49f0:	418a5a13          	srai	s4,s4,0x18
    49f4:	020a1263          	bnez	s4,4a18 <rfRxProcess+0xd0>
    49f8:	1ffff797          	auipc	a5,0x1ffff
    49fc:	9d77c783          	lbu	a5,-1577(a5) # 200033cf <rfInfo+0x3>
    4a00:	0ff00693          	li	a3,255
    4a04:	00d78a63          	beq	a5,a3,4a18 <rfRxProcess+0xd0>
    4a08:	4c18                	lw	a4,24(s0)
    4a0a:	00074703          	lbu	a4,0(a4)
    4a0e:	00d70563          	beq	a4,a3,4a18 <rfRxProcess+0xd0>
    4a12:	00f70363          	beq	a4,a5,4a18 <rfRxProcess+0xd0>
    4a16:	4a09                	li	s4,2
    4a18:	00048783          	lb	a5,0(s1)
    4a1c:	1ffff997          	auipc	s3,0x1ffff
    4a20:	9b098993          	addi	s3,s3,-1616 # 200033cc <rfInfo>
    4a24:	1207ca63          	bltz	a5,4b58 <rfRxProcess+0x210>
    4a28:	120a1a63          	bnez	s4,4b5c <rfRxProcess+0x214>
    4a2c:	00f14783          	lbu	a5,15(sp)
    4a30:	00f90023          	sb	a5,0(s2)
    4a34:	00c9c783          	lbu	a5,12(s3)
    4a38:	8b91                	andi	a5,a5,4
    4a3a:	c795                	beqz	a5,4a66 <rfRxProcess+0x11e>
    4a3c:	00194783          	lbu	a5,1(s2)
    4a40:	97ca                	add	a5,a5,s2
    4a42:	0007c703          	lbu	a4,0(a5)
    4a46:	08000793          	li	a5,128
    4a4a:	00f71e63          	bne	a4,a5,4a66 <rfRxProcess+0x11e>
    4a4e:	485c                	lw	a5,20(s0)
    4a50:	0ff00713          	li	a4,255
    4a54:	c398                	sw	a4,0(a5)
    4a56:	0004c783          	lbu	a5,0(s1)
    4a5a:	0087e793          	ori	a5,a5,8
    4a5e:	1ffff717          	auipc	a4,0x1ffff
    4a62:	94f70723          	sb	a5,-1714(a4) # 200033ac <rfConfig>
    4a66:	1ffff797          	auipc	a5,0x1ffff
    4a6a:	91e78793          	addi	a5,a5,-1762 # 20003384 <gptrBBReg>
    4a6e:	439c                	lw	a5,0(a5)
    4a70:	008006b7          	lui	a3,0x800
    4a74:	4398                	lw	a4,0(a5)
    4a76:	8f55                	or	a4,a4,a3
    4a78:	c398                	sw	a4,0(a5)
    4a7a:	57d8                	lw	a4,44(a5)
    4a7c:	9b71                	andi	a4,a4,-4
    4a7e:	d7d8                	sw	a4,44(a5)
    4a80:	0049a783          	lw	a5,4(s3)
    4a84:	1ffff517          	auipc	a0,0x1ffff
    4a88:	92854503          	lbu	a0,-1752(a0) # 200033ac <rfConfig>
    4a8c:	8511                	srai	a0,a0,0x4
    4a8e:	0017c583          	lbu	a1,1(a5)
    4a92:	890d                	andi	a0,a0,3
    4a94:	8c0ff0ef          	jal	ra,3b54 <BLE_SetPHYTxMode>
    4a98:	1fffc097          	auipc	ra,0x1fffc
    4a9c:	3be080e7          	jalr	958(ra) # 20000e56 <ll_rx_wait_finish>
    4aa0:	bb8ff0ef          	jal	ra,3e58 <ble_ll_hw_api_shut>
    4aa4:	1ffff697          	auipc	a3,0x1ffff
    4aa8:	9346c683          	lbu	a3,-1740(a3) # 200033d8 <rfInfo+0xc>
    4aac:	0046f793          	andi	a5,a3,4
    4ab0:	14078b63          	beqz	a5,4c06 <rfRxProcess+0x2be>
    4ab4:	1ffff717          	auipc	a4,0x1ffff
    4ab8:	88470713          	addi	a4,a4,-1916 # 20003338 <ble>
    4abc:	01670603          	lb	a2,22(a4)
    4ac0:	481c                	lw	a5,16(s0)
    4ac2:	0c065d63          	bgez	a2,4b9c <rfRxProcess+0x254>
    4ac6:	17f1                	addi	a5,a5,-4
    4ac8:	1ffff717          	auipc	a4,0x1ffff
    4acc:	8cf72a23          	sw	a5,-1836(a4) # 2000339c <gBleIPPara+0x10>
    4ad0:	481c                	lw	a5,16(s0)
    4ad2:	0089a703          	lw	a4,8(s3)
    4ad6:	0c065b63          	bgez	a2,4bac <rfRxProcess+0x264>
    4ada:	40e78733          	sub	a4,a5,a4
    4ade:	00194783          	lbu	a5,1(s2)
    4ae2:	01869593          	slli	a1,a3,0x18
    4ae6:	85e1                	srai	a1,a1,0x18
    4ae8:	97ca                	add	a5,a5,s2
    4aea:	0017c783          	lbu	a5,1(a5)
    4aee:	078e                	slli	a5,a5,0x3
    4af0:	0c05dd63          	bgez	a1,4bca <rfRxProcess+0x282>
    4af4:	0ce7f263          	bgeu	a5,a4,4bb8 <rfRxProcess+0x270>
    4af8:	8f1d                	sub	a4,a4,a5
    4afa:	02000693          	li	a3,32
    4afe:	00e6eb63          	bltu	a3,a4,4b14 <rfRxProcess+0x1cc>
    4b02:	4818                	lw	a4,16(s0)
    4b04:	0a065d63          	bgez	a2,4bbe <rfRxProcess+0x276>
    4b08:	40f707b3          	sub	a5,a4,a5
    4b0c:	1ffff717          	auipc	a4,0x1ffff
    4b10:	8cf72423          	sw	a5,-1848(a4) # 200033d4 <rfInfo+0x8>
    4b14:	4589                	li	a1,2
    4b16:	1ffff517          	auipc	a0,0x1ffff
    4b1a:	8c654503          	lbu	a0,-1850(a0) # 200033dc <rfInfo+0x10>
    4b1e:	deafe0ef          	jal	ra,3108 <tmos_set_event>
    4b22:	0004c783          	lbu	a5,0(s1)
    4b26:	8ba1                	andi	a5,a5,8
    4b28:	cbf1                	beqz	a5,4bfc <rfRxProcess+0x2b4>
    4b2a:	0049a503          	lw	a0,4(s3)
    4b2e:	1ffff617          	auipc	a2,0x1ffff
    4b32:	8a164603          	lbu	a2,-1887(a2) # 200033cf <rfInfo+0x3>
    4b36:	1ffff697          	auipc	a3,0x1ffff
    4b3a:	8986c683          	lbu	a3,-1896(a3) # 200033ce <rfInfo+0x2>
    4b3e:	cd45                	beqz	a0,4bf6 <rfRxProcess+0x2ae>
    4b40:	00154583          	lbu	a1,1(a0)
    4b44:	0509                	addi	a0,a0,2
    4b46:	3efd                	jal	4744 <RF_Rx>
    4b48:	0004c783          	lbu	a5,0(s1)
    4b4c:	9bdd                	andi	a5,a5,-9
    4b4e:	1ffff717          	auipc	a4,0x1ffff
    4b52:	84f70f23          	sb	a5,-1954(a4) # 200033ac <rfConfig>
    4b56:	a81d                	j	4b8c <rfRxProcess+0x244>
    4b58:	ec0a0ee3          	beqz	s4,4a34 <rfRxProcess+0xec>
    4b5c:	afcff0ef          	jal	ra,3e58 <ble_ll_hw_api_shut>
    4b60:	4c10                	lw	a2,24(s0)
    4b62:	489c                	lw	a5,16(s1)
    4b64:	450d                	li	a0,3
    4b66:	0ffa7593          	andi	a1,s4,255
    4b6a:	9782                	jalr	a5
    4b6c:	0049a503          	lw	a0,4(s3)
    4b70:	1ffff617          	auipc	a2,0x1ffff
    4b74:	85f64603          	lbu	a2,-1953(a2) # 200033cf <rfInfo+0x3>
    4b78:	1ffff697          	auipc	a3,0x1ffff
    4b7c:	8566c683          	lbu	a3,-1962(a3) # 200033ce <rfInfo+0x2>
    4b80:	26050263          	beqz	a0,4de4 <rfRxProcess+0x49c>
    4b84:	00154583          	lbu	a1,1(a0)
    4b88:	0509                	addi	a0,a0,2
    4b8a:	3e6d                	jal	4744 <RF_Rx>
    4b8c:	50b2                	lw	ra,44(sp)
    4b8e:	5422                	lw	s0,40(sp)
    4b90:	5492                	lw	s1,36(sp)
    4b92:	5902                	lw	s2,32(sp)
    4b94:	49f2                	lw	s3,28(sp)
    4b96:	4a62                	lw	s4,24(sp)
    4b98:	6145                	addi	sp,sp,48
    4b9a:	8082                	ret
    4b9c:	470d                	li	a4,3
    4b9e:	f2f764e3          	bltu	a4,a5,4ac6 <rfRxProcess+0x17e>
    4ba2:	a8c00737          	lui	a4,0xa8c00
    4ba6:	1771                	addi	a4,a4,-4
    4ba8:	97ba                	add	a5,a5,a4
    4baa:	bf39                	j	4ac8 <rfRxProcess+0x180>
    4bac:	f2e7f7e3          	bgeu	a5,a4,4ada <rfRxProcess+0x192>
    4bb0:	a8c005b7          	lui	a1,0xa8c00
    4bb4:	97ae                	add	a5,a5,a1
    4bb6:	b715                	j	4ada <rfRxProcess+0x192>
    4bb8:	40e78733          	sub	a4,a5,a4
    4bbc:	bf3d                	j	4afa <rfRxProcess+0x1b2>
    4bbe:	f4f775e3          	bgeu	a4,a5,4b08 <rfRxProcess+0x1c0>
    4bc2:	a8c006b7          	lui	a3,0xa8c00
    4bc6:	9736                	add	a4,a4,a3
    4bc8:	b781                	j	4b08 <rfRxProcess+0x1c0>
    4bca:	4818                	lw	a4,16(s0)
    4bcc:	00065f63          	bgez	a2,4bea <rfRxProcess+0x2a2>
    4bd0:	40f707b3          	sub	a5,a4,a5
    4bd4:	f806e693          	ori	a3,a3,-128
    4bd8:	1fffe717          	auipc	a4,0x1fffe
    4bdc:	7ef72e23          	sw	a5,2044(a4) # 200033d4 <rfInfo+0x8>
    4be0:	1fffe797          	auipc	a5,0x1fffe
    4be4:	7ed78c23          	sb	a3,2040(a5) # 200033d8 <rfInfo+0xc>
    4be8:	b735                	j	4b14 <rfRxProcess+0x1cc>
    4bea:	fef773e3          	bgeu	a4,a5,4bd0 <rfRxProcess+0x288>
    4bee:	a8c00637          	lui	a2,0xa8c00
    4bf2:	9732                	add	a4,a4,a2
    4bf4:	bff1                	j	4bd0 <rfRxProcess+0x288>
    4bf6:	4581                	li	a1,0
    4bf8:	4501                	li	a0,0
    4bfa:	b7b1                	j	4b46 <rfRxProcess+0x1fe>
    4bfc:	00194783          	lbu	a5,1(s2)
    4c00:	17f9                	addi	a5,a5,-2
    4c02:	00f900a3          	sb	a5,1(s2)
    4c06:	da4ff0ef          	jal	ra,41aa <rf_stop>
    4c0a:	489c                	lw	a5,16(s1)
    4c0c:	4c10                	lw	a2,24(s0)
    4c0e:	4581                	li	a1,0
    4c10:	450d                	li	a0,3
    4c12:	9782                	jalr	a5
    4c14:	00144783          	lbu	a5,1(s0)
    4c18:	8b85                	andi	a5,a5,1
    4c1a:	cb99                	beqz	a5,4c30 <rfRxProcess+0x2e8>
    4c1c:	1fffe797          	auipc	a5,0x1fffe
    4c20:	760788a3          	sb	zero,1905(a5) # 2000338d <gBleIPPara+0x1>
    4c24:	489c                	lw	a5,16(s1)
    4c26:	4601                	li	a2,0
    4c28:	4581                	li	a1,0
    4c2a:	4511                	li	a0,4
    4c2c:	9782                	jalr	a5
    4c2e:	bfb9                	j	4b8c <rfRxProcess+0x244>
    4c30:	1fffe797          	auipc	a5,0x1fffe
    4c34:	76078023          	sb	zero,1888(a5) # 20003390 <gBleIPPara+0x4>
    4c38:	489c                	lw	a5,16(s1)
    4c3a:	4601                	li	a2,0
    4c3c:	4581                	li	a1,0
    4c3e:	4551                	li	a0,20
    4c40:	b7f5                	j	4c2c <rfRxProcess+0x2e4>
    4c42:	93eff0ef          	jal	ra,3d80 <ll_multi_states_check>
    4c46:	1fffe797          	auipc	a5,0x1fffe
    4c4a:	73e78793          	addi	a5,a5,1854 # 20003384 <gptrBBReg>
    4c4e:	4398                	lw	a4,0(a5)
    4c50:	008006b7          	lui	a3,0x800
    4c54:	431c                	lw	a5,0(a4)
    4c56:	8fd5                	or	a5,a5,a3
    4c58:	c31c                	sw	a5,0(a4)
    4c5a:	d50ff0ef          	jal	ra,41aa <rf_stop>
    4c5e:	1fffe797          	auipc	a5,0x1fffe
    4c62:	6da78793          	addi	a5,a5,1754 # 20003338 <ble>
    4c66:	5b9c                	lw	a5,48(a5)
    4c68:	4589                	li	a1,2
    4c6a:	d38d                	beqz	a5,4b8c <rfRxProcess+0x244>
    4c6c:	08100513          	li	a0,129
    4c70:	9782                	jalr	a5
    4c72:	bf29                	j	4b8c <rfRxProcess+0x244>
    4c74:	00144783          	lbu	a5,1(s0)
    4c78:	8b85                	andi	a5,a5,1
    4c7a:	22078163          	beqz	a5,4e9c <rfRxProcess+0x554>
    4c7e:	1fffe797          	auipc	a5,0x1fffe
    4c82:	700787a3          	sb	zero,1807(a5) # 2000338d <gBleIPPara+0x1>
    4c86:	01842903          	lw	s2,24(s0)
    4c8a:	d20ff0ef          	jal	ra,41aa <rf_stop>
    4c8e:	1fffe697          	auipc	a3,0x1fffe
    4c92:	74a6c683          	lbu	a3,1866(a3) # 200033d8 <rfInfo+0xc>
    4c96:	0046f793          	andi	a5,a3,4
    4c9a:	1a078a63          	beqz	a5,4e4e <rfRxProcess+0x506>
    4c9e:	00194783          	lbu	a5,1(s2)
    4ca2:	97ca                	add	a5,a5,s2
    4ca4:	0007c703          	lbu	a4,0(a5)
    4ca8:	08000793          	li	a5,128
    4cac:	00f71a63          	bne	a4,a5,4cc0 <rfRxProcess+0x378>
    4cb0:	0004c783          	lbu	a5,0(s1)
    4cb4:	0087e793          	ori	a5,a5,8
    4cb8:	1fffe717          	auipc	a4,0x1fffe
    4cbc:	6ef70a23          	sb	a5,1780(a4) # 200033ac <rfConfig>
    4cc0:	1fffe717          	auipc	a4,0x1fffe
    4cc4:	67870713          	addi	a4,a4,1656 # 20003338 <ble>
    4cc8:	01670603          	lb	a2,22(a4)
    4ccc:	481c                	lw	a5,16(s0)
    4cce:	10065e63          	bgez	a2,4dea <rfRxProcess+0x4a2>
    4cd2:	17f1                	addi	a5,a5,-4
    4cd4:	1fffe717          	auipc	a4,0x1fffe
    4cd8:	6cf72423          	sw	a5,1736(a4) # 2000339c <gBleIPPara+0x10>
    4cdc:	481c                	lw	a5,16(s0)
    4cde:	1fffe717          	auipc	a4,0x1fffe
    4ce2:	6ee70713          	addi	a4,a4,1774 # 200033cc <rfInfo>
    4ce6:	4718                	lw	a4,8(a4)
    4ce8:	10065963          	bgez	a2,4dfa <rfRxProcess+0x4b2>
    4cec:	40e78733          	sub	a4,a5,a4
    4cf0:	00194783          	lbu	a5,1(s2)
    4cf4:	01869593          	slli	a1,a3,0x18
    4cf8:	85e1                	srai	a1,a1,0x18
    4cfa:	97ca                	add	a5,a5,s2
    4cfc:	0017c783          	lbu	a5,1(a5)
    4d00:	078e                	slli	a5,a5,0x3
    4d02:	1005db63          	bgez	a1,4e18 <rfRxProcess+0x4d0>
    4d06:	10e7f063          	bgeu	a5,a4,4e06 <rfRxProcess+0x4be>
    4d0a:	8f1d                	sub	a4,a4,a5
    4d0c:	02000693          	li	a3,32
    4d10:	00e6eb63          	bltu	a3,a4,4d26 <rfRxProcess+0x3de>
    4d14:	4818                	lw	a4,16(s0)
    4d16:	0e065b63          	bgez	a2,4e0c <rfRxProcess+0x4c4>
    4d1a:	40f707b3          	sub	a5,a4,a5
    4d1e:	1fffe717          	auipc	a4,0x1fffe
    4d22:	6af72b23          	sw	a5,1718(a4) # 200033d4 <rfInfo+0x8>
    4d26:	4589                	li	a1,2
    4d28:	1fffe517          	auipc	a0,0x1fffe
    4d2c:	6b454503          	lbu	a0,1716(a0) # 200033dc <rfInfo+0x10>
    4d30:	bd8fe0ef          	jal	ra,3108 <tmos_set_event>
    4d34:	0004c783          	lbu	a5,0(s1)
    4d38:	8ba1                	andi	a5,a5,8
    4d3a:	10078563          	beqz	a5,4e44 <rfRxProcess+0x4fc>
    4d3e:	1fffe797          	auipc	a5,0x1fffe
    4d42:	66a78793          	addi	a5,a5,1642 # 200033a8 <gptrLLEReg>
    4d46:	4394                	lw	a3,0(a5)
    4d48:	0c800793          	li	a5,200
    4d4c:	0ff00713          	li	a4,255
    4d50:	d2fc                	sw	a5,100(a3)
    4d52:	485c                	lw	a5,20(s0)
    4d54:	00330637          	lui	a2,0x330
    4d58:	4501                	li	a0,0
    4d5a:	c398                	sw	a4,0(a5)
    4d5c:	1fffe797          	auipc	a5,0x1fffe
    4d60:	62078923          	sb	zero,1586(a5) # 2000338e <gBleIPPara+0x2>
    4d64:	1fffe797          	auipc	a5,0x1fffe
    4d68:	620785a3          	sb	zero,1579(a5) # 2000338f <gBleIPPara+0x3>
    4d6c:	1fffe797          	auipc	a5,0x1fffe
    4d70:	62078223          	sb	zero,1572(a5) # 20003390 <gBleIPPara+0x4>
    4d74:	1fffe797          	auipc	a5,0x1fffe
    4d78:	60078ea3          	sb	zero,1565(a5) # 20003391 <gBleIPPara+0x5>
    4d7c:	1fffe797          	auipc	a5,0x1fffe
    4d80:	60878793          	addi	a5,a5,1544 # 20003384 <gptrBBReg>
    4d84:	4398                	lw	a4,0(a5)
    4d86:	431c                	lw	a5,0(a4)
    4d88:	e7f7f793          	andi	a5,a5,-385
    4d8c:	c31c                	sw	a5,0(a4)
    4d8e:	431c                	lw	a5,0(a4)
    4d90:	e7f7f793          	andi	a5,a5,-385
    4d94:	1007e793          	ori	a5,a5,256
    4d98:	c31c                	sw	a5,0(a4)
    4d9a:	1fffe797          	auipc	a5,0x1fffe
    4d9e:	65278793          	addi	a5,a5,1618 # 200033ec <gptrRFENDReg>
    4da2:	4398                	lw	a4,0(a5)
    4da4:	1fffe597          	auipc	a1,0x1fffe
    4da8:	6085c583          	lbu	a1,1544(a1) # 200033ac <rfConfig>
    4dac:	8591                	srai	a1,a1,0x4
    4dae:	471c                	lw	a5,8(a4)
    4db0:	898d                	andi	a1,a1,3
    4db2:	8fd1                	or	a5,a5,a2
    4db4:	c71c                	sw	a5,8(a4)
    4db6:	0da00793          	li	a5,218
    4dba:	cabc                	sw	a5,80(a3)
    4dbc:	4605                	li	a2,1
    4dbe:	1fffc097          	auipc	ra,0x1fffc
    4dc2:	1a0080e7          	jalr	416(ra) # 20000f5e <ll_tx_wait_finish>
    4dc6:	0004c783          	lbu	a5,0(s1)
    4dca:	1fffe697          	auipc	a3,0x1fffe
    4dce:	6046c683          	lbu	a3,1540(a3) # 200033ce <rfInfo+0x2>
    4dd2:	1fffe617          	auipc	a2,0x1fffe
    4dd6:	5fd64603          	lbu	a2,1533(a2) # 200033cf <rfInfo+0x3>
    4dda:	9bdd                	andi	a5,a5,-9
    4ddc:	1fffe717          	auipc	a4,0x1fffe
    4de0:	5cf70823          	sb	a5,1488(a4) # 200033ac <rfConfig>
    4de4:	4581                	li	a1,0
    4de6:	4501                	li	a0,0
    4de8:	b34d                	j	4b8a <rfRxProcess+0x242>
    4dea:	470d                	li	a4,3
    4dec:	eef763e3          	bltu	a4,a5,4cd2 <rfRxProcess+0x38a>
    4df0:	a8c00737          	lui	a4,0xa8c00
    4df4:	1771                	addi	a4,a4,-4
    4df6:	97ba                	add	a5,a5,a4
    4df8:	bdf1                	j	4cd4 <rfRxProcess+0x38c>
    4dfa:	eee7f9e3          	bgeu	a5,a4,4cec <rfRxProcess+0x3a4>
    4dfe:	a8c005b7          	lui	a1,0xa8c00
    4e02:	97ae                	add	a5,a5,a1
    4e04:	b5e5                	j	4cec <rfRxProcess+0x3a4>
    4e06:	40e78733          	sub	a4,a5,a4
    4e0a:	b709                	j	4d0c <rfRxProcess+0x3c4>
    4e0c:	f0f777e3          	bgeu	a4,a5,4d1a <rfRxProcess+0x3d2>
    4e10:	a8c006b7          	lui	a3,0xa8c00
    4e14:	9736                	add	a4,a4,a3
    4e16:	b711                	j	4d1a <rfRxProcess+0x3d2>
    4e18:	4818                	lw	a4,16(s0)
    4e1a:	00065f63          	bgez	a2,4e38 <rfRxProcess+0x4f0>
    4e1e:	40f707b3          	sub	a5,a4,a5
    4e22:	f806e693          	ori	a3,a3,-128
    4e26:	1fffe717          	auipc	a4,0x1fffe
    4e2a:	5af72723          	sw	a5,1454(a4) # 200033d4 <rfInfo+0x8>
    4e2e:	1fffe797          	auipc	a5,0x1fffe
    4e32:	5ad78523          	sb	a3,1450(a5) # 200033d8 <rfInfo+0xc>
    4e36:	bdc5                	j	4d26 <rfRxProcess+0x3de>
    4e38:	fef773e3          	bgeu	a4,a5,4e1e <rfRxProcess+0x4d6>
    4e3c:	a8c00637          	lui	a2,0xa8c00
    4e40:	9732                	add	a4,a4,a2
    4e42:	bff1                	j	4e1e <rfRxProcess+0x4d6>
    4e44:	00194783          	lbu	a5,1(s2)
    4e48:	17f9                	addi	a5,a5,-2
    4e4a:	00f900a3          	sb	a5,1(s2)
    4e4e:	4c08                	lw	a0,24(s0)
    4e50:	0ff00693          	li	a3,255
    4e54:	4901                	li	s2,0
    4e56:	00054703          	lbu	a4,0(a0)
    4e5a:	00d70b63          	beq	a4,a3,4e70 <rfRxProcess+0x528>
    4e5e:	1fffe797          	auipc	a5,0x1fffe
    4e62:	5717c783          	lbu	a5,1393(a5) # 200033cf <rfInfo+0x3>
    4e66:	00d78563          	beq	a5,a3,4e70 <rfRxProcess+0x528>
    4e6a:	00f70363          	beq	a4,a5,4e70 <rfRxProcess+0x528>
    4e6e:	4909                	li	s2,2
    4e70:	00048783          	lb	a5,0(s1)
    4e74:	4681                	li	a3,0
    4e76:	0207d063          	bgez	a5,4e96 <rfRxProcess+0x54e>
    4e7a:	4601                	li	a2,0
    4e7c:	4581                	li	a1,0
    4e7e:	1fffc097          	auipc	ra,0x1fffc
    4e82:	016080e7          	jalr	22(ra) # 20000e94 <ble_ll_chkcrc>
    4e86:	00a96533          	or	a0,s2,a0
    4e8a:	0ff57593          	andi	a1,a0,255
    4e8e:	489c                	lw	a5,16(s1)
    4e90:	4c10                	lw	a2,24(s0)
    4e92:	450d                	li	a0,3
    4e94:	bb61                	j	4c2c <rfRxProcess+0x2e4>
    4e96:	862a                	mv	a2,a0
    4e98:	4581                	li	a1,0
    4e9a:	b7d5                	j	4e7e <rfRxProcess+0x536>
    4e9c:	ee5fe0ef          	jal	ra,3d80 <ll_multi_states_check>
    4ea0:	1fffe797          	auipc	a5,0x1fffe
    4ea4:	4e478793          	addi	a5,a5,1252 # 20003384 <gptrBBReg>
    4ea8:	4398                	lw	a4,0(a5)
    4eaa:	008006b7          	lui	a3,0x800
    4eae:	431c                	lw	a5,0(a4)
    4eb0:	8fd5                	or	a5,a5,a3
    4eb2:	c31c                	sw	a5,0(a4)
    4eb4:	af6ff0ef          	jal	ra,41aa <rf_stop>
    4eb8:	1fffe797          	auipc	a5,0x1fffe
    4ebc:	48078793          	addi	a5,a5,1152 # 20003338 <ble>
    4ec0:	5b9c                	lw	a5,48(a5)
    4ec2:	cc0785e3          	beqz	a5,4b8c <rfRxProcess+0x244>
    4ec6:	4585                	li	a1,1
    4ec8:	b355                	j	4c6c <rfRxProcess+0x324>

00004eca <RF_Shut>:
RF_Shut():
    4eca:	1fffe797          	auipc	a5,0x1fffe
    4ece:	50078823          	sb	zero,1296(a5) # 200033da <rfInfo+0xe>
    4ed2:	1fffe797          	auipc	a5,0x1fffe
    4ed6:	4fa78793          	addi	a5,a5,1274 # 200033cc <rfInfo>
    4eda:	43c8                	lw	a0,4(a5)
    4edc:	1141                	addi	sp,sp,-16
    4ede:	c606                	sw	ra,12(sp)
    4ee0:	c509                	beqz	a0,4eea <RF_Shut+0x20>
    4ee2:	1fffd097          	auipc	ra,0x1fffd
    4ee6:	848080e7          	jalr	-1976(ra) # 2000172a <tmos_memory_free>
    4eea:	1fffe797          	auipc	a5,0x1fffe
    4eee:	4e07a323          	sw	zero,1254(a5) # 200033d0 <rfInfo+0x4>
    4ef2:	1fffe797          	auipc	a5,0x1fffe
    4ef6:	4a37c783          	lbu	a5,1187(a5) # 20003395 <gBleIPPara+0x9>
    4efa:	cf81                	beqz	a5,4f12 <RF_Shut+0x48>
    4efc:	1fffe717          	auipc	a4,0x1fffe
    4f00:	49874703          	lbu	a4,1176(a4) # 20003394 <gBleIPPara+0x8>
    4f04:	479d                	li	a5,7
    4f06:	00f71663          	bne	a4,a5,4f12 <RF_Shut+0x48>
    4f0a:	1fffe797          	auipc	a5,0x1fffe
    4f0e:	480785a3          	sb	zero,1163(a5) # 20003395 <gBleIPPara+0x9>
    4f12:	1fffe697          	auipc	a3,0x1fffe
    4f16:	4816c683          	lbu	a3,1153(a3) # 20003393 <gBleIPPara+0x7>
    4f1a:	ffb68793          	addi	a5,a3,-5
    4f1e:	0ff7f793          	andi	a5,a5,255
    4f22:	4705                	li	a4,1
    4f24:	00f76a63          	bltu	a4,a5,4f38 <RF_Shut+0x6e>
    4f28:	1fffe797          	auipc	a5,0x1fffe
    4f2c:	46d78623          	sb	a3,1132(a5) # 20003394 <gBleIPPara+0x8>
    4f30:	1fffe797          	auipc	a5,0x1fffe
    4f34:	46e782a3          	sb	a4,1125(a5) # 20003395 <gBleIPPara+0x9>
    4f38:	f21fe0ef          	jal	ra,3e58 <ble_ll_hw_api_shut>
    4f3c:	45c1                	li	a1,16
    4f3e:	1fffe517          	auipc	a0,0x1fffe
    4f42:	49e54503          	lbu	a0,1182(a0) # 200033dc <rfInfo+0x10>
    4f46:	b02fe0ef          	jal	ra,3248 <tmos_stop_task>
    4f4a:	4501                	li	a0,0
    4f4c:	4581                	li	a1,0
    4f4e:	b66fe0ef          	jal	ra,32b4 <TMOS_ProcessRegister>
    4f52:	40b2                	lw	ra,12(sp)
    4f54:	4501                	li	a0,0
    4f56:	0141                	addi	sp,sp,16
    4f58:	8082                	ret

00004f5a <RF_FrequencyHoppingShut>:
RF_FrequencyHoppingShut():
    4f5a:	1141                	addi	sp,sp,-16
    4f5c:	c606                	sw	ra,12(sp)
    4f5e:	c422                	sw	s0,8(sp)
    4f60:	37ad                	jal	4eca <RF_Shut>
    4f62:	1fffe797          	auipc	a5,0x1fffe
    4f66:	46a78793          	addi	a5,a5,1130 # 200033cc <rfInfo>
    4f6a:	00f7c703          	lbu	a4,15(a5)
    4f6e:	4bdc                	lw	a5,20(a5)
    4f70:	45a1                	li	a1,8
    4f72:	1fffe517          	auipc	a0,0x1fffe
    4f76:	46a54503          	lbu	a0,1130(a0) # 200033dc <rfInfo+0x10>
    4f7a:	1fffe697          	auipc	a3,0x1fffe
    4f7e:	42e689a3          	sb	a4,1075(a3) # 200033ad <rfConfig+0x1>
    4f82:	1fffe717          	auipc	a4,0x1fffe
    4f86:	42f72923          	sw	a5,1074(a4) # 200033b4 <rfConfig+0x8>
    4f8a:	abefe0ef          	jal	ra,3248 <tmos_stop_task>
    4f8e:	4591                	li	a1,4
    4f90:	1fffe517          	auipc	a0,0x1fffe
    4f94:	44c54503          	lbu	a0,1100(a0) # 200033dc <rfInfo+0x10>
    4f98:	ab0fe0ef          	jal	ra,3248 <tmos_stop_task>
    4f9c:	1fffe797          	auipc	a5,0x1fffe
    4fa0:	43c7c783          	lbu	a5,1084(a5) # 200033d8 <rfInfo+0xc>
    4fa4:	0027f713          	andi	a4,a5,2
    4fa8:	1fffe417          	auipc	s0,0x1fffe
    4fac:	40440413          	addi	s0,s0,1028 # 200033ac <rfConfig>
    4fb0:	cf19                	beqz	a4,4fce <RF_FrequencyHoppingShut+0x74>
    4fb2:	481c                	lw	a5,16(s0)
    4fb4:	4601                	li	a2,0
    4fb6:	4581                	li	a1,0
    4fb8:	02200513          	li	a0,34
    4fbc:	9782                	jalr	a5
    4fbe:	40b2                	lw	ra,12(sp)
    4fc0:	4422                	lw	s0,8(sp)
    4fc2:	1fffe797          	auipc	a5,0x1fffe
    4fc6:	40078b23          	sb	zero,1046(a5) # 200033d8 <rfInfo+0xc>
    4fca:	0141                	addi	sp,sp,16
    4fcc:	8082                	ret
    4fce:	8b91                	andi	a5,a5,4
    4fd0:	d7fd                	beqz	a5,4fbe <RF_FrequencyHoppingShut+0x64>
    4fd2:	481c                	lw	a5,16(s0)
    4fd4:	4601                	li	a2,0
    4fd6:	4581                	li	a1,0
    4fd8:	02400513          	li	a0,36
    4fdc:	b7c5                	j	4fbc <RF_FrequencyHoppingShut+0x62>

00004fde <rf_hop_heart_beat>:
rf_hop_heart_beat():
    4fde:	7179                	addi	sp,sp,-48
    4fe0:	d226                	sw	s1,36(sp)
    4fe2:	1fffe497          	auipc	s1,0x1fffe
    4fe6:	3ea48493          	addi	s1,s1,1002 # 200033cc <rfInfo>
    4fea:	00c4c783          	lbu	a5,12(s1)
    4fee:	d606                	sw	ra,44(sp)
    4ff0:	d422                	sw	s0,40(sp)
    4ff2:	d04a                	sw	s2,32(sp)
    4ff4:	ce4e                	sw	s3,28(sp)
    4ff6:	cc52                	sw	s4,24(sp)
    4ff8:	ca56                	sw	s5,20(sp)
    4ffa:	c85a                	sw	s6,16(sp)
    4ffc:	c65e                	sw	s7,12(sp)
    4ffe:	8b89                	andi	a5,a5,2
    5000:	cbe1                	beqz	a5,50d0 <rf_hop_heart_beat+0xf2>
    5002:	1fffea97          	auipc	s5,0x1fffe
    5006:	3aaaca83          	lbu	s5,938(s5) # 200033ac <rfConfig>
    500a:	009ae793          	ori	a5,s5,9
    500e:	6935                	lui	s2,0xd
    5010:	6985                	lui	s3,0x1
    5012:	6a3d                	lui	s4,0xf
    5014:	1fffe717          	auipc	a4,0x1fffe
    5018:	38f70c23          	sb	a5,920(a4) # 200033ac <rfConfig>
    501c:	4401                	li	s0,0
    501e:	1fffeb17          	auipc	s6,0x1fffe
    5022:	36eb0b13          	addi	s6,s6,878 # 2000338c <gBleIPPara>
    5026:	1fffeb97          	auipc	s7,0x1fffe
    502a:	382b8b93          	addi	s7,s7,898 # 200033a8 <gptrLLEReg>
    502e:	093d                	addi	s2,s2,15
    5030:	f9298993          	addi	s3,s3,-110 # f92 <_einit+0xf8e>
    5034:	0a3d                	addi	s4,s4,15
    5036:	1fffe697          	auipc	a3,0x1fffe
    503a:	3976c683          	lbu	a3,919(a3) # 200033cd <rfInfo+0x1>
    503e:	1fffe617          	auipc	a2,0x1fffe
    5042:	38e64603          	lbu	a2,910(a2) # 200033cc <rfInfo>
    5046:	4581                	li	a1,0
    5048:	4501                	li	a0,0
    504a:	c34ff0ef          	jal	ra,447e <RF_Tx>
    504e:	002b4783          	lbu	a5,2(s6)
    5052:	8b85                	andi	a5,a5,1
    5054:	d3ed                	beqz	a5,5036 <rf_hop_heart_beat+0x58>
    5056:	1fffe517          	auipc	a0,0x1fffe
    505a:	35654503          	lbu	a0,854(a0) # 200033ac <rfConfig>
    505e:	8511                	srai	a0,a0,0x4
    5060:	4601                	li	a2,0
    5062:	0ff00593          	li	a1,255
    5066:	890d                	andi	a0,a0,3
    5068:	1fffe797          	auipc	a5,0x1fffe
    506c:	32078323          	sb	zero,806(a5) # 2000338e <gBleIPPara+0x2>
    5070:	c11fe0ef          	jal	ra,3c80 <BLE_SetPHYRxMode>
    5074:	47f9                	li	a5,30
    5076:	0001                	nop
    5078:	17fd                	addi	a5,a5,-1
    507a:	fff5                	bnez	a5,5076 <rf_hop_heart_beat+0x98>
    507c:	1fffe597          	auipc	a1,0x1fffe
    5080:	3305c583          	lbu	a1,816(a1) # 200033ac <rfConfig>
    5084:	8591                	srai	a1,a1,0x4
    5086:	0ff00613          	li	a2,255
    508a:	898d                	andi	a1,a1,3
    508c:	4505                	li	a0,1
    508e:	1fffc097          	auipc	ra,0x1fffc
    5092:	ed0080e7          	jalr	-304(ra) # 20000f5e <ll_tx_wait_finish>
    5096:	003b4783          	lbu	a5,3(s6)
    509a:	8b85                	andi	a5,a5,1
    509c:	c7a9                	beqz	a5,50e6 <rf_hop_heart_beat+0x108>
    509e:	1fffe797          	auipc	a5,0x1fffe
    50a2:	2e0788a3          	sb	zero,753(a5) # 2000338f <gBleIPPara+0x3>
    50a6:	904ff0ef          	jal	ra,41aa <rf_stop>
    50aa:	00c4c783          	lbu	a5,12(s1)
    50ae:	4585                	li	a1,1
    50b0:	1fffe517          	auipc	a0,0x1fffe
    50b4:	32c54503          	lbu	a0,812(a0) # 200033dc <rfInfo+0x10>
    50b8:	f807e793          	ori	a5,a5,-128
    50bc:	1fffe717          	auipc	a4,0x1fffe
    50c0:	30f70e23          	sb	a5,796(a4) # 200033d8 <rfInfo+0xc>
    50c4:	844fe0ef          	jal	ra,3108 <tmos_set_event>
    50c8:	1fffe797          	auipc	a5,0x1fffe
    50cc:	2f578223          	sb	s5,740(a5) # 200033ac <rfConfig>
    50d0:	50b2                	lw	ra,44(sp)
    50d2:	5422                	lw	s0,40(sp)
    50d4:	5492                	lw	s1,36(sp)
    50d6:	5902                	lw	s2,32(sp)
    50d8:	49f2                	lw	s3,28(sp)
    50da:	4a62                	lw	s4,24(sp)
    50dc:	4ad2                	lw	s5,20(sp)
    50de:	4b42                	lw	s6,16(sp)
    50e0:	4bb2                	lw	s7,12(sp)
    50e2:	6145                	addi	sp,sp,48
    50e4:	8082                	ret
    50e6:	8c4ff0ef          	jal	ra,41aa <rf_stop>
    50ea:	0405                	addi	s0,s0,1
    50ec:	0ff47413          	andi	s0,s0,255
    50f0:	47a1                	li	a5,8
    50f2:	00f41463          	bne	s0,a5,50fa <rf_hop_heart_beat+0x11c>
    50f6:	3595                	jal	4f5a <RF_FrequencyHoppingShut>
    50f8:	bfc1                	j	50c8 <rf_hop_heart_beat+0xea>
    50fa:	000ba783          	lw	a5,0(s7)
    50fe:	0127a623          	sw	s2,12(a5)
    5102:	0000100f          	fence.i
    5106:	000ba783          	lw	a5,0(s7)
    510a:	6709                	lui	a4,0x2
    510c:	c798                	sw	a4,8(a5)
    510e:	f8000713          	li	a4,-128
    5112:	1fffe697          	auipc	a3,0x1fffe
    5116:	26e68f23          	sb	a4,638(a3) # 20003390 <gBleIPPara+0x4>
    511a:	0737a223          	sw	s3,100(a5)
    511e:	0147a623          	sw	s4,12(a5)
    5122:	53f8                	lw	a4,100(a5)
    5124:	ff7d                	bnez	a4,5122 <rf_hop_heart_beat+0x144>
    5126:	bf01                	j	5036 <rf_hop_heart_beat+0x58>

00005128 <RFFH_ProcessEvent>:
RFFH_ProcessEvent():
    5128:	1141                	addi	sp,sp,-16
    512a:	c422                	sw	s0,8(sp)
    512c:	c606                	sw	ra,12(sp)
    512e:	0015f793          	andi	a5,a1,1
    5132:	842e                	mv	s0,a1
    5134:	c3b9                	beqz	a5,517a <RFFH_ProcessEvent+0x52>
    5136:	1fffe797          	auipc	a5,0x1fffe
    513a:	2a27c783          	lbu	a5,674(a5) # 200033d8 <rfInfo+0xc>
    513e:	0027f713          	andi	a4,a5,2
    5142:	c715                	beqz	a4,516e <RFFH_ProcessEvent+0x46>
    5144:	07e2                	slli	a5,a5,0x18
    5146:	87e1                	srai	a5,a5,0x18
    5148:	1fffe517          	auipc	a0,0x1fffe
    514c:	29454503          	lbu	a0,660(a0) # 200033dc <rfInfo+0x10>
    5150:	05000613          	li	a2,80
    5154:	0007da63          	bgez	a5,5168 <RFFH_ProcessEvent+0x40>
    5158:	1fffe617          	auipc	a2,0x1fffe
    515c:	26d64603          	lbu	a2,621(a2) # 200033c5 <rfConfig+0x19>
    5160:	0a000793          	li	a5,160
    5164:	02f60633          	mul	a2,a2,a5
    5168:	4591                	li	a1,4
    516a:	ffffd0ef          	jal	ra,3168 <tmos_start_task>
    516e:	00144513          	xori	a0,s0,1
    5172:	40b2                	lw	ra,12(sp)
    5174:	4422                	lw	s0,8(sp)
    5176:	0141                	addi	sp,sp,16
    5178:	8082                	ret
    517a:	0025f793          	andi	a5,a1,2
    517e:	c3b1                	beqz	a5,51c2 <RFFH_ProcessEvent+0x9a>
    5180:	1fffe797          	auipc	a5,0x1fffe
    5184:	2587c783          	lbu	a5,600(a5) # 200033d8 <rfInfo+0xc>
    5188:	0047f713          	andi	a4,a5,4
    518c:	cb05                	beqz	a4,51bc <RFFH_ProcessEvent+0x94>
    518e:	07e2                	slli	a5,a5,0x18
    5190:	87e1                	srai	a5,a5,0x18
    5192:	1fffe517          	auipc	a0,0x1fffe
    5196:	24a54503          	lbu	a0,586(a0) # 200033dc <rfInfo+0x10>
    519a:	0a000613          	li	a2,160
    519e:	0007dc63          	bgez	a5,51b6 <RFFH_ProcessEvent+0x8e>
    51a2:	1fffe617          	auipc	a2,0x1fffe
    51a6:	22364603          	lbu	a2,547(a2) # 200033c5 <rfConfig+0x19>
    51aa:	0a000793          	li	a5,160
    51ae:	02f60633          	mul	a2,a2,a5
    51b2:	02860613          	addi	a2,a2,40
    51b6:	45a1                	li	a1,8
    51b8:	fb1fd0ef          	jal	ra,3168 <tmos_start_task>
    51bc:	00244513          	xori	a0,s0,2
    51c0:	bf4d                	j	5172 <RFFH_ProcessEvent+0x4a>
    51c2:	0045f793          	andi	a5,a1,4
    51c6:	c789                	beqz	a5,51d0 <RFFH_ProcessEvent+0xa8>
    51c8:	3d19                	jal	4fde <rf_hop_heart_beat>
    51ca:	00444513          	xori	a0,s0,4
    51ce:	b755                	j	5172 <RFFH_ProcessEvent+0x4a>
    51d0:	0085f793          	andi	a5,a1,8
    51d4:	cb99                	beqz	a5,51ea <RFFH_ProcessEvent+0xc2>
    51d6:	1fffe797          	auipc	a5,0x1fffe
    51da:	2027c783          	lbu	a5,514(a5) # 200033d8 <rfInfo+0xc>
    51de:	8b91                	andi	a5,a5,4
    51e0:	c391                	beqz	a5,51e4 <RFFH_ProcessEvent+0xbc>
    51e2:	3ba5                	jal	4f5a <RF_FrequencyHoppingShut>
    51e4:	00844513          	xori	a0,s0,8
    51e8:	b769                	j	5172 <RFFH_ProcessEvent+0x4a>
    51ea:	0105f793          	andi	a5,a1,16
    51ee:	4501                	li	a0,0
    51f0:	d3c9                	beqz	a5,5172 <RFFH_ProcessEvent+0x4a>
    51f2:	bd6fe0ef          	jal	ra,35c8 <TMOS_TempSample>
    51f6:	1fffe717          	auipc	a4,0x1fffe
    51fa:	19d74703          	lbu	a4,413(a4) # 20003393 <gBleIPPara+0x7>
    51fe:	479d                	li	a5,7
    5200:	00f71b63          	bne	a4,a5,5216 <RFFH_ProcessEvent+0xee>
    5204:	64000613          	li	a2,1600
    5208:	45c1                	li	a1,16
    520a:	1fffe517          	auipc	a0,0x1fffe
    520e:	1d254503          	lbu	a0,466(a0) # 200033dc <rfInfo+0x10>
    5212:	f57fd0ef          	jal	ra,3168 <tmos_start_task>
    5216:	01044513          	xori	a0,s0,16
    521a:	bfa1                	j	5172 <RFFH_ProcessEvent+0x4a>

0000521c <RF_RoleInit>:
RF_RoleInit():
    521c:	1141                	addi	sp,sp,-16
    521e:	c606                	sw	ra,12(sp)
    5220:	c422                	sw	s0,8(sp)
    5222:	d7dfe0ef          	jal	ra,3f9e <BLE_IPCoreInit>
    5226:	4671                	li	a2,28
    5228:	4581                	li	a1,0
    522a:	1fffe517          	auipc	a0,0x1fffe
    522e:	1a250513          	addi	a0,a0,418 # 200033cc <rfInfo>
    5232:	1fffb097          	auipc	ra,0x1fffb
    5236:	678080e7          	jalr	1656(ra) # 200008aa <tmos_memset>
    523a:	1fffe417          	auipc	s0,0x1fffe
    523e:	19240413          	addi	s0,s0,402 # 200033cc <rfInfo>
    5242:	57fd                	li	a5,-1
    5244:	00000517          	auipc	a0,0x0
    5248:	ee450513          	addi	a0,a0,-284 # 5128 <RFFH_ProcessEvent>
    524c:	c01c                	sw	a5,0(s0)
    524e:	972fe0ef          	jal	ra,33c0 <TMOS_ProcessEventRegister>
    5252:	00a40823          	sb	a0,16(s0)
    5256:	4595                	li	a1,5
    5258:	fffff517          	auipc	a0,0xfffff
    525c:	6f050513          	addi	a0,a0,1776 # 4948 <rfRxProcess>
    5260:	854fe0ef          	jal	ra,32b4 <TMOS_ProcessRegister>
    5264:	40b2                	lw	ra,12(sp)
    5266:	4422                	lw	s0,8(sp)
    5268:	4501                	li	a0,0
    526a:	0141                	addi	sp,sp,16
    526c:	8082                	ret

0000526e <RFEND_Reset>:
RFEND_Reset():
    526e:	1fffe797          	auipc	a5,0x1fffe
    5272:	17e78793          	addi	a5,a5,382 # 200033ec <gptrRFENDReg>
    5276:	4394                	lw	a3,0(a5)
    5278:	6705                	lui	a4,0x1
    527a:	10170713          	addi	a4,a4,257 # 1101 <_einit+0x10fd>
    527e:	c6d8                	sw	a4,12(a3)
    5280:	4751                	li	a4,20
    5282:	0001                	nop
    5284:	177d                	addi	a4,a4,-1
    5286:	ff75                	bnez	a4,5282 <RFEND_Reset+0x14>
    5288:	4398                	lw	a4,0(a5)
    528a:	00072623          	sw	zero,12(a4)
    528e:	4751                	li	a4,20
    5290:	0001                	nop
    5292:	177d                	addi	a4,a4,-1
    5294:	ff75                	bnez	a4,5290 <RFEND_Reset+0x22>
    5296:	4398                	lw	a4,0(a5)
    5298:	6785                	lui	a5,0x1
    529a:	10178793          	addi	a5,a5,257 # 1101 <_einit+0x10fd>
    529e:	c75c                	sw	a5,12(a4)
    52a0:	8082                	ret

000052a2 <RFEND_DevInit>:
RFEND_DevInit():
    52a2:	1141                	addi	sp,sp,-16
    52a4:	c606                	sw	ra,12(sp)
    52a6:	37e1                	jal	526e <RFEND_Reset>
    52a8:	1fffe797          	auipc	a5,0x1fffe
    52ac:	14478793          	addi	a5,a5,324 # 200033ec <gptrRFENDReg>
    52b0:	439c                	lw	a5,0(a5)
    52b2:	48000713          	li	a4,1152
    52b6:	90000337          	lui	t1,0x90000
    52ba:	d798                	sw	a4,40(a5)
    52bc:	47b8                	lw	a4,72(a5)
    52be:	137d                	addi	t1,t1,-1
    52c0:	20000e37          	lui	t3,0x20000
    52c4:	00677733          	and	a4,a4,t1
    52c8:	01c76733          	or	a4,a4,t3
    52cc:	c7b8                	sw	a4,72(a5)
    52ce:	47b8                	lw	a4,72(a5)
    52d0:	f90006b7          	lui	a3,0xf9000
    52d4:	16fd                	addi	a3,a3,-1
    52d6:	8f75                	and	a4,a4,a3
    52d8:	04000637          	lui	a2,0x4000
    52dc:	8f51                	or	a4,a4,a2
    52de:	c7b8                	sw	a4,72(a5)
    52e0:	47b8                	lw	a4,72(a5)
    52e2:	fff90637          	lui	a2,0xfff90
    52e6:	167d                	addi	a2,a2,-1
    52e8:	9b41                	andi	a4,a4,-16
    52ea:	00976713          	ori	a4,a4,9
    52ee:	c7b8                	sw	a4,72(a5)
    52f0:	47b8                	lw	a4,72(a5)
    52f2:	800008b7          	lui	a7,0x80000
    52f6:	02000eb7          	lui	t4,0x2000
    52fa:	8f71                	and	a4,a4,a2
    52fc:	c7b8                	sw	a4,72(a5)
    52fe:	47b8                	lw	a4,72(a5)
    5300:	ff000637          	lui	a2,0xff000
    5304:	167d                	addi	a2,a2,-1
    5306:	01176733          	or	a4,a4,a7
    530a:	c7b8                	sw	a4,72(a5)
    530c:	47f8                	lw	a4,76(a5)
    530e:	7545                	lui	a0,0xffff1
    5310:	1e7d                	addi	t3,t3,-1
    5312:	9b61                	andi	a4,a4,-8
    5314:	00376713          	ori	a4,a4,3
    5318:	c7f8                	sw	a4,76(a5)
    531a:	47f8                	lw	a4,76(a5)
    531c:	f8f77713          	andi	a4,a4,-113
    5320:	03076713          	ori	a4,a4,48
    5324:	c7f8                	sw	a4,76(a5)
    5326:	47ec                	lw	a1,76(a5)
    5328:	8ff5f593          	andi	a1,a1,-1793
    532c:	3005e593          	ori	a1,a1,768
    5330:	c7ec                	sw	a1,76(a5)
    5332:	47f8                	lw	a4,76(a5)
    5334:	8f71                	and	a4,a4,a2
    5336:	c7f8                	sw	a4,76(a5)
    5338:	47f8                	lw	a4,76(a5)
    533a:	6611                	lui	a2,0x4
    533c:	01d76733          	or	a4,a4,t4
    5340:	c7f8                	sw	a4,76(a5)
    5342:	0507a803          	lw	a6,80(a5)
    5346:	fff50713          	addi	a4,a0,-1 # ffff0fff <_eusrstack+0xdffe8fff>
    534a:	757d                	lui	a0,0xfffff
    534c:	00e87833          	and	a6,a6,a4
    5350:	00c86833          	or	a6,a6,a2
    5354:	0507a823          	sw	a6,80(a5)
    5358:	0547a803          	lw	a6,84(a5)
    535c:	157d                	addi	a0,a0,-1
    535e:	ff087813          	andi	a6,a6,-16
    5362:	00486813          	ori	a6,a6,4
    5366:	0507aa23          	sw	a6,84(a5)
    536a:	4bf0                	lw	a2,84(a5)
    536c:	08066613          	ori	a2,a2,128
    5370:	cbf0                	sw	a2,84(a5)
    5372:	4bf0                	lw	a2,84(a5)
    5374:	8e69                	and	a2,a2,a0
    5376:	cbf0                	sw	a2,84(a5)
    5378:	5fc8                	lw	a0,60(a5)
    537a:	8d79                	and	a0,a0,a4
    537c:	6721                	lui	a4,0x8
    537e:	8d59                	or	a0,a0,a4
    5380:	dfc8                	sw	a0,60(a5)
    5382:	5fcc                	lw	a1,60(a5)
    5384:	40000737          	lui	a4,0x40000
    5388:	8df5                	and	a1,a1,a3
    538a:	01d5e5b3          	or	a1,a1,t4
    538e:	dfcc                	sw	a1,60(a5)
    5390:	5fd0                	lw	a2,60(a5)
    5392:	007005b7          	lui	a1,0x700
    5396:	01c67633          	and	a2,a2,t3
    539a:	8e59                	or	a2,a2,a4
    539c:	dfd0                	sw	a2,60(a5)
    539e:	57d0                	lw	a2,44(a5)
    53a0:	6709                	lui	a4,0x2
    53a2:	8e4d                	or	a2,a2,a1
    53a4:	d7d0                	sw	a2,44(a5)
    53a6:	57d0                	lw	a2,44(a5)
    53a8:	8ef1                	and	a3,a3,a2
    53aa:	d7d4                	sw	a3,44(a5)
    53ac:	57d4                	lw	a3,44(a5)
    53ae:	7675                	lui	a2,0xffffd
    53b0:	167d                	addi	a2,a2,-1
    53b2:	8ef1                	and	a3,a3,a2
    53b4:	8ed9                	or	a3,a3,a4
    53b6:	d7d4                	sw	a3,44(a5)
    53b8:	57d4                	lw	a3,44(a5)
    53ba:	fffd0637          	lui	a2,0xfffd0
    53be:	167d                	addi	a2,a2,-1
    53c0:	00020737          	lui	a4,0x20
    53c4:	8ef1                	and	a3,a3,a2
    53c6:	8ed9                	or	a3,a3,a4
    53c8:	d7d4                	sw	a3,44(a5)
    53ca:	5b94                	lw	a3,48(a5)
    53cc:	9ac1                	andi	a3,a3,-16
    53ce:	db94                	sw	a3,48(a5)
    53d0:	5b94                	lw	a3,48(a5)
    53d2:	f0f6f693          	andi	a3,a3,-241
    53d6:	db94                	sw	a3,48(a5)
    53d8:	5b94                	lw	a3,48(a5)
    53da:	8ff6f693          	andi	a3,a3,-1793
    53de:	db94                	sw	a3,48(a5)
    53e0:	5b98                	lw	a4,48(a5)
    53e2:	500006b7          	lui	a3,0x50000
    53e6:	8f4d                	or	a4,a4,a1
    53e8:	db98                	sw	a4,48(a5)
    53ea:	5b98                	lw	a4,48(a5)
    53ec:	00677733          	and	a4,a4,t1
    53f0:	8f55                	or	a4,a4,a3
    53f2:	db98                	sw	a4,48(a5)
    53f4:	5f98                	lw	a4,56(a5)
    53f6:	ff0806b7          	lui	a3,0xff080
    53fa:	16fd                	addi	a3,a3,-1
    53fc:	8f75                	and	a4,a4,a3
    53fe:	008806b7          	lui	a3,0x880
    5402:	8f55                	or	a4,a4,a3
    5404:	df98                	sw	a4,56(a5)
    5406:	5f98                	lw	a4,56(a5)
    5408:	011768b3          	or	a7,a4,a7
    540c:	0317ac23          	sw	a7,56(a5)
    5410:	40b2                	lw	ra,12(sp)
    5412:	0141                	addi	sp,sp,16
    5414:	8082                	ret

00005416 <RFEND_RXFilter>:
RFEND_RXFilter():
    5416:	1fffe717          	auipc	a4,0x1fffe
    541a:	fd670713          	addi	a4,a4,-42 # 200033ec <gptrRFENDReg>
    541e:	431c                	lw	a5,0(a4)
    5420:	7641                	lui	a2,0xffff0
    5422:	167d                	addi	a2,a2,-1
    5424:	4bb4                	lw	a3,80(a5)
    5426:	8ef1                	and	a3,a3,a2
    5428:	cbb4                	sw	a3,80(a5)
    542a:	4794                	lw	a3,8(a5)
    542c:	00200637          	lui	a2,0x200
    5430:	8ed1                	or	a3,a3,a2
    5432:	c794                	sw	a3,8(a5)
    5434:	47d4                	lw	a3,12(a5)
    5436:	0106e693          	ori	a3,a3,16
    543a:	c7d4                	sw	a3,12(a5)
    543c:	47d4                	lw	a3,12(a5)
    543e:	9abd                	andi	a3,a3,-17
    5440:	c7d4                	sw	a3,12(a5)
    5442:	0001                	nop
    5444:	0001                	nop
    5446:	0001                	nop
    5448:	0001                	nop
    544a:	4314                	lw	a3,0(a4)
    544c:	6605                	lui	a2,0x1
    544e:	46dc                	lw	a5,12(a3)
    5450:	0107e793          	ori	a5,a5,16
    5454:	c6dc                	sw	a5,12(a3)
    5456:	42dc                	lw	a5,4(a3)
    5458:	8fd1                	or	a5,a5,a2
    545a:	c2dc                	sw	a5,4(a3)
    545c:	09c6a783          	lw	a5,156(a3) # 88009c <_data_lma+0x879a0c>
    5460:	83a1                	srli	a5,a5,0x8
    5462:	8b85                	andi	a5,a5,1
    5464:	dfe5                	beqz	a5,545c <RFEND_RXFilter+0x46>
    5466:	0001                	nop
    5468:	0001                	nop
    546a:	0001                	nop
    546c:	0001                	nop
    546e:	431c                	lw	a5,0(a4)
    5470:	6641                	lui	a2,0x10
    5472:	09c7a703          	lw	a4,156(a5)
    5476:	4bb4                	lw	a3,80(a5)
    5478:	8ed1                	or	a3,a3,a2
    547a:	cbb4                	sw	a3,80(a5)
    547c:	01f77693          	andi	a3,a4,31
    5480:	4bb8                	lw	a4,80(a5)
    5482:	9b01                	andi	a4,a4,-32
    5484:	8f55                	or	a4,a4,a3
    5486:	cbb8                	sw	a4,80(a5)
    5488:	4798                	lw	a4,8(a5)
    548a:	ffe006b7          	lui	a3,0xffe00
    548e:	16fd                	addi	a3,a3,-1
    5490:	8f75                	and	a4,a4,a3
    5492:	c798                	sw	a4,8(a5)
    5494:	8082                	ret

00005496 <RFEND_RXAdc>:
RFEND_RXAdc():
    5496:	1fffe797          	auipc	a5,0x1fffe
    549a:	f5678793          	addi	a5,a5,-170 # 200033ec <gptrRFENDReg>
    549e:	439c                	lw	a5,0(a5)
    54a0:	7741                	lui	a4,0xffff0
    54a2:	177d                	addi	a4,a4,-1
    54a4:	4fb4                	lw	a3,88(a5)
    54a6:	6641                	lui	a2,0x10
    54a8:	8ef9                	and	a3,a3,a4
    54aa:	cfb4                	sw	a3,88(a5)
    54ac:	4794                	lw	a3,8(a5)
    54ae:	8ed1                	or	a3,a3,a2
    54b0:	c794                	sw	a3,8(a5)
    54b2:	47d4                	lw	a3,12(a5)
    54b4:	eff6f693          	andi	a3,a3,-257
    54b8:	c7d4                	sw	a3,12(a5)
    54ba:	43d4                	lw	a3,4(a5)
    54bc:	8f75                	and	a4,a4,a3
    54be:	c3d8                	sw	a4,4(a5)
    54c0:	47d4                	lw	a3,12(a5)
    54c2:	1006e693          	ori	a3,a3,256
    54c6:	c7d4                	sw	a3,12(a5)
    54c8:	43d8                	lw	a4,4(a5)
    54ca:	8f51                	or	a4,a4,a2
    54cc:	c3d8                	sw	a4,4(a5)
    54ce:	8082                	ret

000054d0 <RFEND_TXCtune>:
RFEND_TXCtune():
    54d0:	7139                	addi	sp,sp,-64
    54d2:	dc22                	sw	s0,56(sp)
    54d4:	1fffe417          	auipc	s0,0x1fffe
    54d8:	f1840413          	addi	s0,s0,-232 # 200033ec <gptrRFENDReg>
    54dc:	401c                	lw	a5,0(s0)
    54de:	de06                	sw	ra,60(sp)
    54e0:	da26                	sw	s1,52(sp)
    54e2:	d84a                	sw	s2,48(sp)
    54e4:	d64e                	sw	s3,44(sp)
    54e6:	d452                	sw	s4,40(sp)
    54e8:	d256                	sw	s5,36(sp)
    54ea:	d05a                	sw	s6,32(sp)
    54ec:	ce5e                	sw	s7,28(sp)
    54ee:	cc62                	sw	s8,24(sp)
    54f0:	ca66                	sw	s9,20(sp)
    54f2:	c86a                	sw	s10,16(sp)
    54f4:	c66e                	sw	s11,12(sp)
    54f6:	43d8                	lw	a4,4(a5)
    54f8:	76fd                	lui	a3,0xfffff
    54fa:	16fd                	addi	a3,a3,-1
    54fc:	eff77713          	andi	a4,a4,-257
    5500:	c3d8                	sw	a4,4(a5)
    5502:	5798                	lw	a4,40(a5)
    5504:	8f75                	and	a4,a4,a3
    5506:	d798                	sw	a4,40(a5)
    5508:	57d8                	lw	a4,44(a5)
    550a:	000206b7          	lui	a3,0x20
    550e:	9b3d                	andi	a4,a4,-17
    5510:	d7d8                	sw	a4,44(a5)
    5512:	4798                	lw	a4,8(a5)
    5514:	8f55                	or	a4,a4,a3
    5516:	c798                	sw	a4,8(a5)
    5518:	43d8                	lw	a4,4(a5)
    551a:	01076713          	ori	a4,a4,16
    551e:	c3d8                	sw	a4,4(a5)
    5520:	8171c703          	lbu	a4,-2025(gp) # 2000182f <nCO2401>
    5524:	8181c683          	lbu	a3,-2024(gp) # 20001830 <nGA2401>
    5528:	8f55                	or	a4,a4,a3
    552a:	ef61                	bnez	a4,5602 <RFEND_TXCtune+0x132>
    552c:	43d8                	lw	a4,4(a5)
    552e:	7481                	lui	s1,0xfffe0
    5530:	0ff48493          	addi	s1,s1,255 # fffe00ff <_eusrstack+0xdffd80ff>
    5534:	9b79                	andi	a4,a4,-2
    5536:	c3d8                	sw	a4,4(a5)
    5538:	5f98                	lw	a4,56(a5)
    553a:	66b1                	lui	a3,0xc
    553c:	f0068693          	addi	a3,a3,-256 # bf00 <_data_lma+0x5870>
    5540:	8f65                	and	a4,a4,s1
    5542:	8f55                	or	a4,a4,a3
    5544:	df98                	sw	a4,56(a5)
    5546:	43d8                	lw	a4,4(a5)
    5548:	00176713          	ori	a4,a4,1
    554c:	c3d8                	sw	a4,4(a5)
    554e:	1fffc097          	auipc	ra,0x1fffc
    5552:	0da080e7          	jalr	218(ra) # 20001628 <RFEND_WaitTune>
    5556:	401c                	lw	a5,0(s0)
    5558:	0907a703          	lw	a4,144(a5)
    555c:	03f77713          	andi	a4,a4,63
    5560:	80e18ba3          	sb	a4,-2025(gp) # 2000182f <nCO2401>
    5564:	0947a703          	lw	a4,148(a5)
    5568:	8329                	srli	a4,a4,0xa
    556a:	07f77713          	andi	a4,a4,127
    556e:	80e18c23          	sb	a4,-2024(gp) # 20001830 <nGA2401>
    5572:	43d8                	lw	a4,4(a5)
    5574:	66b9                	lui	a3,0xe
    5576:	70068693          	addi	a3,a3,1792 # e700 <_data_lma+0x8070>
    557a:	9b79                	andi	a4,a4,-2
    557c:	c3d8                	sw	a4,4(a5)
    557e:	5f98                	lw	a4,56(a5)
    5580:	8f65                	and	a4,a4,s1
    5582:	8f55                	or	a4,a4,a3
    5584:	df98                	sw	a4,56(a5)
    5586:	43d8                	lw	a4,4(a5)
    5588:	00176713          	ori	a4,a4,1
    558c:	c3d8                	sw	a4,4(a5)
    558e:	1fffc097          	auipc	ra,0x1fffc
    5592:	09a080e7          	jalr	154(ra) # 20001628 <RFEND_WaitTune>
    5596:	401c                	lw	a5,0(s0)
    5598:	0907a703          	lw	a4,144(a5)
    559c:	03f77713          	andi	a4,a4,63
    55a0:	1fffe697          	auipc	a3,0x1fffe
    55a4:	e4e688a3          	sb	a4,-431(a3) # 200033f1 <nCO2480>
    55a8:	0947a703          	lw	a4,148(a5)
    55ac:	8329                	srli	a4,a4,0xa
    55ae:	07f77713          	andi	a4,a4,127
    55b2:	1fffe697          	auipc	a3,0x1fffe
    55b6:	e2e68ba3          	sb	a4,-457(a3) # 200033e9 <nGA2480>
    55ba:	43d8                	lw	a4,4(a5)
    55bc:	66b5                	lui	a3,0xd
    55be:	30068693          	addi	a3,a3,768 # d300 <_data_lma+0x6c70>
    55c2:	9b79                	andi	a4,a4,-2
    55c4:	c3d8                	sw	a4,4(a5)
    55c6:	5f98                	lw	a4,56(a5)
    55c8:	8f65                	and	a4,a4,s1
    55ca:	8f55                	or	a4,a4,a3
    55cc:	df98                	sw	a4,56(a5)
    55ce:	43d8                	lw	a4,4(a5)
    55d0:	00176713          	ori	a4,a4,1
    55d4:	c3d8                	sw	a4,4(a5)
    55d6:	1fffc097          	auipc	ra,0x1fffc
    55da:	052080e7          	jalr	82(ra) # 20001628 <RFEND_WaitTune>
    55de:	4018                	lw	a4,0(s0)
    55e0:	09072783          	lw	a5,144(a4) # ffff0090 <_eusrstack+0xdffe8090>
    55e4:	03f7f793          	andi	a5,a5,63
    55e8:	1fffe697          	auipc	a3,0x1fffe
    55ec:	e0f68423          	sb	a5,-504(a3) # 200033f0 <nCO2440>
    55f0:	09472783          	lw	a5,148(a4)
    55f4:	83a9                	srli	a5,a5,0xa
    55f6:	07f7f793          	andi	a5,a5,127
    55fa:	1fffe717          	auipc	a4,0x1fffe
    55fe:	def70723          	sb	a5,-530(a4) # 200033e8 <nGA2440>
    5602:	401c                	lw	a5,0(s0)
    5604:	1fffec17          	auipc	s8,0x1fffe
    5608:	decc4c03          	lbu	s8,-532(s8) # 200033f0 <nCO2440>
    560c:	8171c683          	lbu	a3,-2025(gp) # 2000182f <nCO2401>
    5610:	0a07a703          	lw	a4,160(a5)
    5614:	418686b3          	sub	a3,a3,s8
    5618:	00f6f613          	andi	a2,a3,15
    561c:	9b41                	andi	a4,a4,-16
    561e:	8f51                	or	a4,a4,a2
    5620:	0ae7a023          	sw	a4,160(a5)
    5624:	02600713          	li	a4,38
    5628:	02e68733          	mul	a4,a3,a4
    562c:	02700613          	li	a2,39
    5630:	0a07a583          	lw	a1,160(a5)
    5634:	7e7d                	lui	t3,0xfffff
    5636:	0ffe0e13          	addi	t3,t3,255 # fffff0ff <_eusrstack+0xdfff70ff>
    563a:	f0f5f593          	andi	a1,a1,-241
    563e:	02400513          	li	a0,36
    5642:	7345                	lui	t1,0xffff1
    5644:	137d                	addi	t1,t1,-1
    5646:	02300413          	li	s0,35
    564a:	02c74733          	div	a4,a4,a2
    564e:	fff108b7          	lui	a7,0xfff10
    5652:	18fd                	addi	a7,a7,-1
    5654:	02200813          	li	a6,34
    5658:	02100e93          	li	t4,33
    565c:	4f7d                	li	t5,31
    565e:	4ff9                	li	t6,30
    5660:	42f5                	li	t0,29
    5662:	43f1                	li	t2,28
    5664:	4d6d                	li	s10,27
    5666:	4bd1                	li	s7,20
    5668:	4b45                	li	s6,17
    566a:	44bd                	li	s1,15
    566c:	4939                	li	s2,14
    566e:	4a31                	li	s4,12
    5670:	4aad                	li	s5,11
    5672:	49b5                	li	s3,13
    5674:	8b3d                	andi	a4,a4,15
    5676:	0712                	slli	a4,a4,0x4
    5678:	8f4d                	or	a4,a4,a1
    567a:	02500593          	li	a1,37
    567e:	0ae7a023          	sw	a4,160(a5)
    5682:	02b68733          	mul	a4,a3,a1
    5686:	0a07a583          	lw	a1,160(a5)
    568a:	01c5f5b3          	and	a1,a1,t3
    568e:	02c74733          	div	a4,a4,a2
    5692:	8b3d                	andi	a4,a4,15
    5694:	0722                	slli	a4,a4,0x8
    5696:	8f4d                	or	a4,a4,a1
    5698:	0ae7a023          	sw	a4,160(a5)
    569c:	02a68733          	mul	a4,a3,a0
    56a0:	0a07a583          	lw	a1,160(a5)
    56a4:	f1000537          	lui	a0,0xf1000
    56a8:	157d                	addi	a0,a0,-1
    56aa:	0065f5b3          	and	a1,a1,t1
    56ae:	02c74733          	div	a4,a4,a2
    56b2:	8b3d                	andi	a4,a4,15
    56b4:	0732                	slli	a4,a4,0xc
    56b6:	8f4d                	or	a4,a4,a1
    56b8:	0ae7a023          	sw	a4,160(a5)
    56bc:	02868733          	mul	a4,a3,s0
    56c0:	0a07a583          	lw	a1,160(a5)
    56c4:	4461                	li	s0,24
    56c6:	0115f5b3          	and	a1,a1,a7
    56ca:	02c74733          	div	a4,a4,a2
    56ce:	8b3d                	andi	a4,a4,15
    56d0:	0742                	slli	a4,a4,0x10
    56d2:	8f4d                	or	a4,a4,a1
    56d4:	0ae7a023          	sw	a4,160(a5)
    56d8:	03068733          	mul	a4,a3,a6
    56dc:	0a07a583          	lw	a1,160(a5)
    56e0:	ff100837          	lui	a6,0xff100
    56e4:	187d                	addi	a6,a6,-1
    56e6:	0105f5b3          	and	a1,a1,a6
    56ea:	02c74733          	div	a4,a4,a2
    56ee:	8b3d                	andi	a4,a4,15
    56f0:	0752                	slli	a4,a4,0x14
    56f2:	8f4d                	or	a4,a4,a1
    56f4:	0ae7a023          	sw	a4,160(a5)
    56f8:	03d68733          	mul	a4,a3,t4
    56fc:	0a07a583          	lw	a1,160(a5)
    5700:	10000eb7          	lui	t4,0x10000
    5704:	1efd                	addi	t4,t4,-1
    5706:	8de9                	and	a1,a1,a0
    5708:	02c74733          	div	a4,a4,a2
    570c:	8b3d                	andi	a4,a4,15
    570e:	0762                	slli	a4,a4,0x18
    5710:	8f4d                	or	a4,a4,a1
    5712:	0ae7a023          	sw	a4,160(a5)
    5716:	00569713          	slli	a4,a3,0x5
    571a:	02c74733          	div	a4,a4,a2
    571e:	01c71593          	slli	a1,a4,0x1c
    5722:	0a07a703          	lw	a4,160(a5)
    5726:	01d77733          	and	a4,a4,t4
    572a:	8f4d                	or	a4,a4,a1
    572c:	0ae7a023          	sw	a4,160(a5)
    5730:	03e68733          	mul	a4,a3,t5
    5734:	4f5d                	li	t5,23
    5736:	02c74733          	div	a4,a4,a2
    573a:	00f77593          	andi	a1,a4,15
    573e:	0a47a703          	lw	a4,164(a5)
    5742:	9b41                	andi	a4,a4,-16
    5744:	8f4d                	or	a4,a4,a1
    5746:	0ae7a223          	sw	a4,164(a5)
    574a:	03f68733          	mul	a4,a3,t6
    574e:	0a47a583          	lw	a1,164(a5)
    5752:	4fd9                	li	t6,22
    5754:	f0f5f593          	andi	a1,a1,-241
    5758:	02c74733          	div	a4,a4,a2
    575c:	8b3d                	andi	a4,a4,15
    575e:	0712                	slli	a4,a4,0x4
    5760:	8f4d                	or	a4,a4,a1
    5762:	0ae7a223          	sw	a4,164(a5)
    5766:	02568733          	mul	a4,a3,t0
    576a:	0a47a583          	lw	a1,164(a5)
    576e:	42d5                	li	t0,21
    5770:	01c5f5b3          	and	a1,a1,t3
    5774:	02c74733          	div	a4,a4,a2
    5778:	8b3d                	andi	a4,a4,15
    577a:	0722                	slli	a4,a4,0x8
    577c:	8f4d                	or	a4,a4,a1
    577e:	0ae7a223          	sw	a4,164(a5)
    5782:	02768733          	mul	a4,a3,t2
    5786:	0a47a583          	lw	a1,164(a5)
    578a:	43cd                	li	t2,19
    578c:	0065f5b3          	and	a1,a1,t1
    5790:	02c74733          	div	a4,a4,a2
    5794:	8b3d                	andi	a4,a4,15
    5796:	0732                	slli	a4,a4,0xc
    5798:	8f4d                	or	a4,a4,a1
    579a:	0ae7a223          	sw	a4,164(a5)
    579e:	03a68733          	mul	a4,a3,s10
    57a2:	0a47a583          	lw	a1,164(a5)
    57a6:	4d49                	li	s10,18
    57a8:	0115f5b3          	and	a1,a1,a7
    57ac:	02c74733          	div	a4,a4,a2
    57b0:	8b3d                	andi	a4,a4,15
    57b2:	0742                	slli	a4,a4,0x10
    57b4:	8f4d                	or	a4,a4,a1
    57b6:	0ae7a223          	sw	a4,164(a5)
    57ba:	4769                	li	a4,26
    57bc:	02e68733          	mul	a4,a3,a4
    57c0:	0a47a583          	lw	a1,164(a5)
    57c4:	0105f5b3          	and	a1,a1,a6
    57c8:	02c74733          	div	a4,a4,a2
    57cc:	8b3d                	andi	a4,a4,15
    57ce:	0752                	slli	a4,a4,0x14
    57d0:	8f4d                	or	a4,a4,a1
    57d2:	45e5                	li	a1,25
    57d4:	0ae7a223          	sw	a4,164(a5)
    57d8:	02b68733          	mul	a4,a3,a1
    57dc:	0a47a583          	lw	a1,164(a5)
    57e0:	8de9                	and	a1,a1,a0
    57e2:	02c74733          	div	a4,a4,a2
    57e6:	8b3d                	andi	a4,a4,15
    57e8:	0762                	slli	a4,a4,0x18
    57ea:	8f4d                	or	a4,a4,a1
    57ec:	0ae7a223          	sw	a4,164(a5)
    57f0:	02868733          	mul	a4,a3,s0
    57f4:	440d                	li	s0,3
    57f6:	02c74733          	div	a4,a4,a2
    57fa:	01c71593          	slli	a1,a4,0x1c
    57fe:	0a47a703          	lw	a4,164(a5)
    5802:	01d77733          	and	a4,a4,t4
    5806:	8f4d                	or	a4,a4,a1
    5808:	0ae7a223          	sw	a4,164(a5)
    580c:	03e68733          	mul	a4,a3,t5
    5810:	4f25                	li	t5,9
    5812:	02c74733          	div	a4,a4,a2
    5816:	00f77593          	andi	a1,a4,15
    581a:	0a87a703          	lw	a4,168(a5)
    581e:	9b41                	andi	a4,a4,-16
    5820:	8f4d                	or	a4,a4,a1
    5822:	0ae7a423          	sw	a4,168(a5)
    5826:	03f68733          	mul	a4,a3,t6
    582a:	0a87a583          	lw	a1,168(a5)
    582e:	4f9d                	li	t6,7
    5830:	f0f5f593          	andi	a1,a1,-241
    5834:	02c74733          	div	a4,a4,a2
    5838:	8b3d                	andi	a4,a4,15
    583a:	0712                	slli	a4,a4,0x4
    583c:	8f4d                	or	a4,a4,a1
    583e:	0ae7a423          	sw	a4,168(a5)
    5842:	02568733          	mul	a4,a3,t0
    5846:	0a87a583          	lw	a1,168(a5)
    584a:	4299                	li	t0,6
    584c:	01c5f5b3          	and	a1,a1,t3
    5850:	02c74733          	div	a4,a4,a2
    5854:	8b3d                	andi	a4,a4,15
    5856:	0722                	slli	a4,a4,0x8
    5858:	8f4d                	or	a4,a4,a1
    585a:	0ae7a423          	sw	a4,168(a5)
    585e:	03768733          	mul	a4,a3,s7
    5862:	0a87a583          	lw	a1,168(a5)
    5866:	0065f5b3          	and	a1,a1,t1
    586a:	02c74733          	div	a4,a4,a2
    586e:	8b3d                	andi	a4,a4,15
    5870:	0732                	slli	a4,a4,0xc
    5872:	8f4d                	or	a4,a4,a1
    5874:	0ae7a423          	sw	a4,168(a5)
    5878:	02768733          	mul	a4,a3,t2
    587c:	0a87a583          	lw	a1,168(a5)
    5880:	4395                	li	t2,5
    5882:	0115f5b3          	and	a1,a1,a7
    5886:	02c74733          	div	a4,a4,a2
    588a:	8b3d                	andi	a4,a4,15
    588c:	0742                	slli	a4,a4,0x10
    588e:	8f4d                	or	a4,a4,a1
    5890:	0ae7a423          	sw	a4,168(a5)
    5894:	03a68733          	mul	a4,a3,s10
    5898:	0a87a583          	lw	a1,168(a5)
    589c:	4d29                	li	s10,10
    589e:	0105f5b3          	and	a1,a1,a6
    58a2:	02c74733          	div	a4,a4,a2
    58a6:	8b3d                	andi	a4,a4,15
    58a8:	0752                	slli	a4,a4,0x14
    58aa:	8f4d                	or	a4,a4,a1
    58ac:	0ae7a423          	sw	a4,168(a5)
    58b0:	03668733          	mul	a4,a3,s6
    58b4:	0a87a583          	lw	a1,168(a5)
    58b8:	8de9                	and	a1,a1,a0
    58ba:	02c74733          	div	a4,a4,a2
    58be:	8b3d                	andi	a4,a4,15
    58c0:	0762                	slli	a4,a4,0x18
    58c2:	8f4d                	or	a4,a4,a1
    58c4:	00469593          	slli	a1,a3,0x4
    58c8:	02c5c5b3          	div	a1,a1,a2
    58cc:	0ae7a423          	sw	a4,168(a5)
    58d0:	0a87a703          	lw	a4,168(a5)
    58d4:	01d77733          	and	a4,a4,t4
    58d8:	05f2                	slli	a1,a1,0x1c
    58da:	8f4d                	or	a4,a4,a1
    58dc:	029685b3          	mul	a1,a3,s1
    58e0:	0ae7a423          	sw	a4,168(a5)
    58e4:	0ac7a703          	lw	a4,172(a5)
    58e8:	9b41                	andi	a4,a4,-16
    58ea:	02c5c5b3          	div	a1,a1,a2
    58ee:	89bd                	andi	a1,a1,15
    58f0:	8f4d                	or	a4,a4,a1
    58f2:	0ae7a623          	sw	a4,172(a5)
    58f6:	03268733          	mul	a4,a3,s2
    58fa:	0ac7a583          	lw	a1,172(a5)
    58fe:	f0f5f593          	andi	a1,a1,-241
    5902:	02c74733          	div	a4,a4,a2
    5906:	8b3d                	andi	a4,a4,15
    5908:	0712                	slli	a4,a4,0x4
    590a:	8f4d                	or	a4,a4,a1
    590c:	0286c5b3          	div	a1,a3,s0
    5910:	0ae7a623          	sw	a4,172(a5)
    5914:	0ac7a703          	lw	a4,172(a5)
    5918:	01c77733          	and	a4,a4,t3
    591c:	89bd                	andi	a1,a1,15
    591e:	05a2                	slli	a1,a1,0x8
    5920:	8f4d                	or	a4,a4,a1
    5922:	0ae7a623          	sw	a4,172(a5)
    5926:	03468733          	mul	a4,a3,s4
    592a:	0ac7a583          	lw	a1,172(a5)
    592e:	0065f5b3          	and	a1,a1,t1
    5932:	02c74733          	div	a4,a4,a2
    5936:	8b3d                	andi	a4,a4,15
    5938:	0732                	slli	a4,a4,0xc
    593a:	8f4d                	or	a4,a4,a1
    593c:	0ae7a623          	sw	a4,172(a5)
    5940:	03568733          	mul	a4,a3,s5
    5944:	0ac7a583          	lw	a1,172(a5)
    5948:	0115f5b3          	and	a1,a1,a7
    594c:	02c74733          	div	a4,a4,a2
    5950:	8b3d                	andi	a4,a4,15
    5952:	0742                	slli	a4,a4,0x10
    5954:	8f4d                	or	a4,a4,a1
    5956:	0ae7a623          	sw	a4,172(a5)
    595a:	03a68733          	mul	a4,a3,s10
    595e:	0ac7a583          	lw	a1,172(a5)
    5962:	0105f5b3          	and	a1,a1,a6
    5966:	02c74733          	div	a4,a4,a2
    596a:	8b3d                	andi	a4,a4,15
    596c:	0752                	slli	a4,a4,0x14
    596e:	8f4d                	or	a4,a4,a1
    5970:	0ae7a623          	sw	a4,172(a5)
    5974:	03e68733          	mul	a4,a3,t5
    5978:	0ac7a583          	lw	a1,172(a5)
    597c:	8de9                	and	a1,a1,a0
    597e:	02c74733          	div	a4,a4,a2
    5982:	8b3d                	andi	a4,a4,15
    5984:	0762                	slli	a4,a4,0x18
    5986:	8f4d                	or	a4,a4,a1
    5988:	00369593          	slli	a1,a3,0x3
    598c:	02c5c5b3          	div	a1,a1,a2
    5990:	0ae7a623          	sw	a4,172(a5)
    5994:	0ac7a703          	lw	a4,172(a5)
    5998:	01d77733          	and	a4,a4,t4
    599c:	05f2                	slli	a1,a1,0x1c
    599e:	8f4d                	or	a4,a4,a1
    59a0:	03f685b3          	mul	a1,a3,t6
    59a4:	0ae7a623          	sw	a4,172(a5)
    59a8:	0b07a703          	lw	a4,176(a5)
    59ac:	9b41                	andi	a4,a4,-16
    59ae:	02c5c5b3          	div	a1,a1,a2
    59b2:	89bd                	andi	a1,a1,15
    59b4:	8f4d                	or	a4,a4,a1
    59b6:	0ae7a823          	sw	a4,176(a5)
    59ba:	02568733          	mul	a4,a3,t0
    59be:	0b07a583          	lw	a1,176(a5)
    59c2:	f0f5f593          	andi	a1,a1,-241
    59c6:	02c74733          	div	a4,a4,a2
    59ca:	8b3d                	andi	a4,a4,15
    59cc:	0712                	slli	a4,a4,0x4
    59ce:	8f4d                	or	a4,a4,a1
    59d0:	0ae7a823          	sw	a4,176(a5)
    59d4:	02768733          	mul	a4,a3,t2
    59d8:	0b07a583          	lw	a1,176(a5)
    59dc:	01c5f5b3          	and	a1,a1,t3
    59e0:	02c74733          	div	a4,a4,a2
    59e4:	8b3d                	andi	a4,a4,15
    59e6:	0722                	slli	a4,a4,0x8
    59e8:	8f4d                	or	a4,a4,a1
    59ea:	0ae7a823          	sw	a4,176(a5)
    59ee:	00269713          	slli	a4,a3,0x2
    59f2:	02c74733          	div	a4,a4,a2
    59f6:	0b07a583          	lw	a1,176(a5)
    59fa:	0065f5b3          	and	a1,a1,t1
    59fe:	8b3d                	andi	a4,a4,15
    5a00:	0732                	slli	a4,a4,0xc
    5a02:	8f4d                	or	a4,a4,a1
    5a04:	0336c5b3          	div	a1,a3,s3
    5a08:	0ae7a823          	sw	a4,176(a5)
    5a0c:	0b07a703          	lw	a4,176(a5)
    5a10:	01177733          	and	a4,a4,a7
    5a14:	89bd                	andi	a1,a1,15
    5a16:	05c2                	slli	a1,a1,0x10
    5a18:	8f4d                	or	a4,a4,a1
    5a1a:	0ae7a823          	sw	a4,176(a5)
    5a1e:	00169713          	slli	a4,a3,0x1
    5a22:	02c74733          	div	a4,a4,a2
    5a26:	0b07a583          	lw	a1,176(a5)
    5a2a:	0105f5b3          	and	a1,a1,a6
    5a2e:	8b3d                	andi	a4,a4,15
    5a30:	0752                	slli	a4,a4,0x14
    5a32:	8f4d                	or	a4,a4,a1
    5a34:	02c6c5b3          	div	a1,a3,a2
    5a38:	0ae7a823          	sw	a4,176(a5)
    5a3c:	0b07a703          	lw	a4,176(a5)
    5a40:	8f69                	and	a4,a4,a0
    5a42:	89bd                	andi	a1,a1,15
    5a44:	05e2                	slli	a1,a1,0x18
    5a46:	8f4d                	or	a4,a4,a1
    5a48:	0ae7a823          	sw	a4,176(a5)
    5a4c:	0b07a703          	lw	a4,176(a5)
    5a50:	02800593          	li	a1,40
    5a54:	01d77733          	and	a4,a4,t4
    5a58:	0ae7a823          	sw	a4,176(a5)
    5a5c:	1fffe717          	auipc	a4,0x1fffe
    5a60:	99574703          	lbu	a4,-1643(a4) # 200033f1 <nCO2480>
    5a64:	40ec0733          	sub	a4,s8,a4
    5a68:	02b74db3          	div	s11,a4,a1
    5a6c:	0b47ac83          	lw	s9,180(a5)
    5a70:	ff0cfc93          	andi	s9,s9,-16
    5a74:	03774bb3          	div	s7,a4,s7
    5a78:	00fdfd93          	andi	s11,s11,15
    5a7c:	01bcecb3          	or	s9,s9,s11
    5a80:	0b97aa23          	sw	s9,180(a5)
    5a84:	0b47ac83          	lw	s9,180(a5)
    5a88:	4dcd                	li	s11,19
    5a8a:	f0fcfc93          	andi	s9,s9,-241
    5a8e:	00fbfb93          	andi	s7,s7,15
    5a92:	0b92                	slli	s7,s7,0x4
    5a94:	017cebb3          	or	s7,s9,s7
    5a98:	0b77aa23          	sw	s7,180(a5)
    5a9c:	02870bb3          	mul	s7,a4,s0
    5aa0:	0b47ac83          	lw	s9,180(a5)
    5aa4:	01ccfcb3          	and	s9,s9,t3
    5aa8:	02bbcbb3          	div	s7,s7,a1
    5aac:	00fbfb93          	andi	s7,s7,15
    5ab0:	0ba2                	slli	s7,s7,0x8
    5ab2:	017cebb3          	or	s7,s9,s7
    5ab6:	03a74cb3          	div	s9,a4,s10
    5aba:	0b77aa23          	sw	s7,180(a5)
    5abe:	0b47ab83          	lw	s7,180(a5)
    5ac2:	006bfbb3          	and	s7,s7,t1
    5ac6:	00fcfc93          	andi	s9,s9,15
    5aca:	0cb2                	slli	s9,s9,0xc
    5acc:	019bebb3          	or	s7,s7,s9
    5ad0:	0b77aa23          	sw	s7,180(a5)
    5ad4:	4ba1                	li	s7,8
    5ad6:	03774bb3          	div	s7,a4,s7
    5ada:	0b47ac83          	lw	s9,180(a5)
    5ade:	011cfcb3          	and	s9,s9,a7
    5ae2:	00fbfb93          	andi	s7,s7,15
    5ae6:	0bc2                	slli	s7,s7,0x10
    5ae8:	017cebb3          	or	s7,s9,s7
    5aec:	0b77aa23          	sw	s7,180(a5)
    5af0:	02570bb3          	mul	s7,a4,t0
    5af4:	0b47ac83          	lw	s9,180(a5)
    5af8:	010cfcb3          	and	s9,s9,a6
    5afc:	02bbcbb3          	div	s7,s7,a1
    5b00:	00fbfb93          	andi	s7,s7,15
    5b04:	0bd2                	slli	s7,s7,0x14
    5b06:	017cebb3          	or	s7,s9,s7
    5b0a:	0b77aa23          	sw	s7,180(a5)
    5b0e:	03f70bb3          	mul	s7,a4,t6
    5b12:	0b47ac83          	lw	s9,180(a5)
    5b16:	00acfcb3          	and	s9,s9,a0
    5b1a:	02bbcbb3          	div	s7,s7,a1
    5b1e:	00fbfb93          	andi	s7,s7,15
    5b22:	0be2                	slli	s7,s7,0x18
    5b24:	017cebb3          	or	s7,s9,s7
    5b28:	02774cb3          	div	s9,a4,t2
    5b2c:	0b77aa23          	sw	s7,180(a5)
    5b30:	0b47ab83          	lw	s7,180(a5)
    5b34:	01dbfbb3          	and	s7,s7,t4
    5b38:	0cf2                	slli	s9,s9,0x1c
    5b3a:	019bebb3          	or	s7,s7,s9
    5b3e:	03e70cb3          	mul	s9,a4,t5
    5b42:	0b77aa23          	sw	s7,180(a5)
    5b46:	0b87ab83          	lw	s7,184(a5)
    5b4a:	ff0bfb93          	andi	s7,s7,-16
    5b4e:	02bcccb3          	div	s9,s9,a1
    5b52:	03570ab3          	mul	s5,a4,s5
    5b56:	00fcfc93          	andi	s9,s9,15
    5b5a:	019bebb3          	or	s7,s7,s9
    5b5e:	0b77ac23          	sw	s7,184(a5)
    5b62:	4b91                	li	s7,4
    5b64:	0b87ac83          	lw	s9,184(a5)
    5b68:	f0fcfc93          	andi	s9,s9,-241
    5b6c:	03774bb3          	div	s7,a4,s7
    5b70:	03470a33          	mul	s4,a4,s4
    5b74:	00fbfb93          	andi	s7,s7,15
    5b78:	0b92                	slli	s7,s7,0x4
    5b7a:	017cebb3          	or	s7,s9,s7
    5b7e:	0b77ac23          	sw	s7,184(a5)
    5b82:	0b87ab83          	lw	s7,184(a5)
    5b86:	4cd5                	li	s9,21
    5b88:	01cbfbb3          	and	s7,s7,t3
    5b8c:	02bacab3          	div	s5,s5,a1
    5b90:	033709b3          	mul	s3,a4,s3
    5b94:	00fafa93          	andi	s5,s5,15
    5b98:	0aa2                	slli	s5,s5,0x8
    5b9a:	015beab3          	or	s5,s7,s5
    5b9e:	0b57ac23          	sw	s5,184(a5)
    5ba2:	0b87aa83          	lw	s5,184(a5)
    5ba6:	4bd9                	li	s7,22
    5ba8:	006afab3          	and	s5,s5,t1
    5bac:	02ba4a33          	div	s4,s4,a1
    5bb0:	03270933          	mul	s2,a4,s2
    5bb4:	00fa7a13          	andi	s4,s4,15
    5bb8:	0a32                	slli	s4,s4,0xc
    5bba:	014aea33          	or	s4,s5,s4
    5bbe:	0b47ac23          	sw	s4,184(a5)
    5bc2:	0b87aa03          	lw	s4,184(a5)
    5bc6:	4ae1                	li	s5,24
    5bc8:	011a7a33          	and	s4,s4,a7
    5bcc:	02b9c9b3          	div	s3,s3,a1
    5bd0:	029704b3          	mul	s1,a4,s1
    5bd4:	00f9f993          	andi	s3,s3,15
    5bd8:	09c2                	slli	s3,s3,0x10
    5bda:	013a69b3          	or	s3,s4,s3
    5bde:	0b37ac23          	sw	s3,184(a5)
    5be2:	0b87a983          	lw	s3,184(a5)
    5be6:	4a65                	li	s4,25
    5be8:	0109f9b3          	and	s3,s3,a6
    5bec:	02b94933          	div	s2,s2,a1
    5bf0:	02b4c4b3          	div	s1,s1,a1
    5bf4:	00f97913          	andi	s2,s2,15
    5bf8:	0952                	slli	s2,s2,0x14
    5bfa:	0129e933          	or	s2,s3,s2
    5bfe:	0b27ac23          	sw	s2,184(a5)
    5c02:	0b87a903          	lw	s2,184(a5)
    5c06:	49e9                	li	s3,26
    5c08:	00a97933          	and	s2,s2,a0
    5c0c:	03670b33          	mul	s6,a4,s6
    5c10:	88bd                	andi	s1,s1,15
    5c12:	04e2                	slli	s1,s1,0x18
    5c14:	009964b3          	or	s1,s2,s1
    5c18:	00471913          	slli	s2,a4,0x4
    5c1c:	0a97ac23          	sw	s1,184(a5)
    5c20:	0b87a483          	lw	s1,184(a5)
    5c24:	01d4f4b3          	and	s1,s1,t4
    5c28:	02b94933          	div	s2,s2,a1
    5c2c:	02bb4b33          	div	s6,s6,a1
    5c30:	0972                	slli	s2,s2,0x1c
    5c32:	0124e4b3          	or	s1,s1,s2
    5c36:	0a97ac23          	sw	s1,184(a5)
    5c3a:	0bc7a483          	lw	s1,188(a5)
    5c3e:	98c1                	andi	s1,s1,-16
    5c40:	00fb7b13          	andi	s6,s6,15
    5c44:	0164eb33          	or	s6,s1,s6
    5c48:	44c9                	li	s1,18
    5c4a:	029704b3          	mul	s1,a4,s1
    5c4e:	0b67ae23          	sw	s6,188(a5)
    5c52:	0bc7a903          	lw	s2,188(a5)
    5c56:	4b5d                	li	s6,23
    5c58:	f0f97913          	andi	s2,s2,-241
    5c5c:	02b4c4b3          	div	s1,s1,a1
    5c60:	88bd                	andi	s1,s1,15
    5c62:	0492                	slli	s1,s1,0x4
    5c64:	009964b3          	or	s1,s2,s1
    5c68:	0a97ae23          	sw	s1,188(a5)
    5c6c:	03b704b3          	mul	s1,a4,s11
    5c70:	0bc7a903          	lw	s2,188(a5)
    5c74:	4df5                	li	s11,29
    5c76:	01c97933          	and	s2,s2,t3
    5c7a:	02b4c4b3          	div	s1,s1,a1
    5c7e:	88bd                	andi	s1,s1,15
    5c80:	04a2                	slli	s1,s1,0x8
    5c82:	009964b3          	or	s1,s2,s1
    5c86:	0a97ae23          	sw	s1,188(a5)
    5c8a:	4489                	li	s1,2
    5c8c:	029744b3          	div	s1,a4,s1
    5c90:	0bc7a903          	lw	s2,188(a5)
    5c94:	00697933          	and	s2,s2,t1
    5c98:	88bd                	andi	s1,s1,15
    5c9a:	04b2                	slli	s1,s1,0xc
    5c9c:	009964b3          	or	s1,s2,s1
    5ca0:	0a97ae23          	sw	s1,188(a5)
    5ca4:	039704b3          	mul	s1,a4,s9
    5ca8:	0bc7a903          	lw	s2,188(a5)
    5cac:	4cf9                	li	s9,30
    5cae:	01197933          	and	s2,s2,a7
    5cb2:	02b4c4b3          	div	s1,s1,a1
    5cb6:	88bd                	andi	s1,s1,15
    5cb8:	04c2                	slli	s1,s1,0x10
    5cba:	009964b3          	or	s1,s2,s1
    5cbe:	0a97ae23          	sw	s1,188(a5)
    5cc2:	037704b3          	mul	s1,a4,s7
    5cc6:	0bc7a903          	lw	s2,188(a5)
    5cca:	4bfd                	li	s7,31
    5ccc:	01097933          	and	s2,s2,a6
    5cd0:	02b4c4b3          	div	s1,s1,a1
    5cd4:	88bd                	andi	s1,s1,15
    5cd6:	04d2                	slli	s1,s1,0x14
    5cd8:	009964b3          	or	s1,s2,s1
    5cdc:	0a97ae23          	sw	s1,188(a5)
    5ce0:	036704b3          	mul	s1,a4,s6
    5ce4:	0bc7a903          	lw	s2,188(a5)
    5ce8:	02100b13          	li	s6,33
    5cec:	00a97933          	and	s2,s2,a0
    5cf0:	02b4c4b3          	div	s1,s1,a1
    5cf4:	88bd                	andi	s1,s1,15
    5cf6:	04e2                	slli	s1,s1,0x18
    5cf8:	009964b3          	or	s1,s2,s1
    5cfc:	0a97ae23          	sw	s1,188(a5)
    5d00:	035704b3          	mul	s1,a4,s5
    5d04:	0bc7a903          	lw	s2,188(a5)
    5d08:	02200a93          	li	s5,34
    5d0c:	01d97933          	and	s2,s2,t4
    5d10:	02b4c4b3          	div	s1,s1,a1
    5d14:	04f2                	slli	s1,s1,0x1c
    5d16:	009964b3          	or	s1,s2,s1
    5d1a:	0a97ae23          	sw	s1,188(a5)
    5d1e:	034704b3          	mul	s1,a4,s4
    5d22:	0c07a903          	lw	s2,192(a5)
    5d26:	02300a13          	li	s4,35
    5d2a:	ff097913          	andi	s2,s2,-16
    5d2e:	02b4c4b3          	div	s1,s1,a1
    5d32:	88bd                	andi	s1,s1,15
    5d34:	009964b3          	or	s1,s2,s1
    5d38:	0c97a023          	sw	s1,192(a5)
    5d3c:	033704b3          	mul	s1,a4,s3
    5d40:	0c07a903          	lw	s2,192(a5)
    5d44:	02400993          	li	s3,36
    5d48:	f0f97913          	andi	s2,s2,-241
    5d4c:	02b4c4b3          	div	s1,s1,a1
    5d50:	88bd                	andi	s1,s1,15
    5d52:	0492                	slli	s1,s1,0x4
    5d54:	009964b3          	or	s1,s2,s1
    5d58:	496d                	li	s2,27
    5d5a:	0c97a023          	sw	s1,192(a5)
    5d5e:	032704b3          	mul	s1,a4,s2
    5d62:	0c07a903          	lw	s2,192(a5)
    5d66:	01c97933          	and	s2,s2,t3
    5d6a:	02b4c4b3          	div	s1,s1,a1
    5d6e:	88bd                	andi	s1,s1,15
    5d70:	04a2                	slli	s1,s1,0x8
    5d72:	009964b3          	or	s1,s2,s1
    5d76:	0c97a023          	sw	s1,192(a5)
    5d7a:	44f1                	li	s1,28
    5d7c:	029704b3          	mul	s1,a4,s1
    5d80:	0c07a903          	lw	s2,192(a5)
    5d84:	00697933          	and	s2,s2,t1
    5d88:	02b4c4b3          	div	s1,s1,a1
    5d8c:	88bd                	andi	s1,s1,15
    5d8e:	04b2                	slli	s1,s1,0xc
    5d90:	009964b3          	or	s1,s2,s1
    5d94:	0c97a023          	sw	s1,192(a5)
    5d98:	03b704b3          	mul	s1,a4,s11
    5d9c:	0c07a903          	lw	s2,192(a5)
    5da0:	01197933          	and	s2,s2,a7
    5da4:	02b4c4b3          	div	s1,s1,a1
    5da8:	88bd                	andi	s1,s1,15
    5daa:	04c2                	slli	s1,s1,0x10
    5dac:	009964b3          	or	s1,s2,s1
    5db0:	0c97a023          	sw	s1,192(a5)
    5db4:	039704b3          	mul	s1,a4,s9
    5db8:	0c07a903          	lw	s2,192(a5)
    5dbc:	01097933          	and	s2,s2,a6
    5dc0:	02b4c4b3          	div	s1,s1,a1
    5dc4:	88bd                	andi	s1,s1,15
    5dc6:	04d2                	slli	s1,s1,0x14
    5dc8:	009964b3          	or	s1,s2,s1
    5dcc:	0c97a023          	sw	s1,192(a5)
    5dd0:	037704b3          	mul	s1,a4,s7
    5dd4:	0c07a903          	lw	s2,192(a5)
    5dd8:	00a97933          	and	s2,s2,a0
    5ddc:	02b4c4b3          	div	s1,s1,a1
    5de0:	88bd                	andi	s1,s1,15
    5de2:	04e2                	slli	s1,s1,0x18
    5de4:	009964b3          	or	s1,s2,s1
    5de8:	0c97a023          	sw	s1,192(a5)
    5dec:	00571493          	slli	s1,a4,0x5
    5df0:	02b4c4b3          	div	s1,s1,a1
    5df4:	01c49913          	slli	s2,s1,0x1c
    5df8:	0c07a483          	lw	s1,192(a5)
    5dfc:	02c70633          	mul	a2,a4,a2
    5e00:	01d4f4b3          	and	s1,s1,t4
    5e04:	0124e4b3          	or	s1,s1,s2
    5e08:	0c97a023          	sw	s1,192(a5)
    5e0c:	0c47a903          	lw	s2,196(a5)
    5e10:	ff097913          	andi	s2,s2,-16
    5e14:	036704b3          	mul	s1,a4,s6
    5e18:	02b4c4b3          	div	s1,s1,a1
    5e1c:	88bd                	andi	s1,s1,15
    5e1e:	009964b3          	or	s1,s2,s1
    5e22:	0c97a223          	sw	s1,196(a5)
    5e26:	035704b3          	mul	s1,a4,s5
    5e2a:	0c47a903          	lw	s2,196(a5)
    5e2e:	f0f97913          	andi	s2,s2,-241
    5e32:	02b4c4b3          	div	s1,s1,a1
    5e36:	88bd                	andi	s1,s1,15
    5e38:	0492                	slli	s1,s1,0x4
    5e3a:	009964b3          	or	s1,s2,s1
    5e3e:	0c97a223          	sw	s1,196(a5)
    5e42:	034704b3          	mul	s1,a4,s4
    5e46:	0c47a903          	lw	s2,196(a5)
    5e4a:	01c97933          	and	s2,s2,t3
    5e4e:	02b4c4b3          	div	s1,s1,a1
    5e52:	88bd                	andi	s1,s1,15
    5e54:	04a2                	slli	s1,s1,0x8
    5e56:	009964b3          	or	s1,s2,s1
    5e5a:	0c97a223          	sw	s1,196(a5)
    5e5e:	033704b3          	mul	s1,a4,s3
    5e62:	0c47a903          	lw	s2,196(a5)
    5e66:	00697933          	and	s2,s2,t1
    5e6a:	02b4c4b3          	div	s1,s1,a1
    5e6e:	88bd                	andi	s1,s1,15
    5e70:	04b2                	slli	s1,s1,0xc
    5e72:	009964b3          	or	s1,s2,s1
    5e76:	02500913          	li	s2,37
    5e7a:	0c97a223          	sw	s1,196(a5)
    5e7e:	032704b3          	mul	s1,a4,s2
    5e82:	0c47a903          	lw	s2,196(a5)
    5e86:	01197933          	and	s2,s2,a7
    5e8a:	02b4c4b3          	div	s1,s1,a1
    5e8e:	88bd                	andi	s1,s1,15
    5e90:	04c2                	slli	s1,s1,0x10
    5e92:	009964b3          	or	s1,s2,s1
    5e96:	0c97a223          	sw	s1,196(a5)
    5e9a:	02600493          	li	s1,38
    5e9e:	029704b3          	mul	s1,a4,s1
    5ea2:	0c47a903          	lw	s2,196(a5)
    5ea6:	01097933          	and	s2,s2,a6
    5eaa:	02b4c4b3          	div	s1,s1,a1
    5eae:	02b64633          	div	a2,a2,a1
    5eb2:	88bd                	andi	s1,s1,15
    5eb4:	04d2                	slli	s1,s1,0x14
    5eb6:	009964b3          	or	s1,s2,s1
    5eba:	0c97a223          	sw	s1,196(a5)
    5ebe:	0c47a483          	lw	s1,196(a5)
    5ec2:	8ce9                	and	s1,s1,a0
    5ec4:	8a3d                	andi	a2,a2,15
    5ec6:	0662                	slli	a2,a2,0x18
    5ec8:	8e45                	or	a2,a2,s1
    5eca:	0cc7a223          	sw	a2,196(a5)
    5ece:	0c47a603          	lw	a2,196(a5)
    5ed2:	01c71493          	slli	s1,a4,0x1c
    5ed6:	01d67633          	and	a2,a2,t4
    5eda:	8e45                	or	a2,a2,s1
    5edc:	0cc7a223          	sw	a2,196(a5)
    5ee0:	02900613          	li	a2,41
    5ee4:	02c70633          	mul	a2,a4,a2
    5ee8:	0c87a483          	lw	s1,200(a5)
    5eec:	98c1                	andi	s1,s1,-16
    5eee:	02b64633          	div	a2,a2,a1
    5ef2:	8a3d                	andi	a2,a2,15
    5ef4:	8e45                	or	a2,a2,s1
    5ef6:	0cc7a423          	sw	a2,200(a5)
    5efa:	02a00613          	li	a2,42
    5efe:	02c70633          	mul	a2,a4,a2
    5f02:	02b645b3          	div	a1,a2,a1
    5f06:	0c87a603          	lw	a2,200(a5)
    5f0a:	f0f67613          	andi	a2,a2,-241
    5f0e:	89bd                	andi	a1,a1,15
    5f10:	0592                	slli	a1,a1,0x4
    5f12:	8dd1                	or	a1,a1,a2
    5f14:	0cb7a423          	sw	a1,200(a5)
    5f18:	1fffd597          	auipc	a1,0x1fffd
    5f1c:	4d05c583          	lbu	a1,1232(a1) # 200033e8 <nGA2440>
    5f20:	1fffd617          	auipc	a2,0x1fffd
    5f24:	4c964603          	lbu	a2,1225(a2) # 200033e9 <nGA2480>
    5f28:	40c58633          	sub	a2,a1,a2
    5f2c:	03a604b3          	mul	s1,a2,s10
    5f30:	0c87a903          	lw	s2,200(a5)
    5f34:	01c97933          	and	s2,s2,t3
    5f38:	02e4c4b3          	div	s1,s1,a4
    5f3c:	0084e493          	ori	s1,s1,8
    5f40:	88bd                	andi	s1,s1,15
    5f42:	04a2                	slli	s1,s1,0x8
    5f44:	009964b3          	or	s1,s2,s1
    5f48:	0c97a423          	sw	s1,200(a5)
    5f4c:	03e604b3          	mul	s1,a2,t5
    5f50:	0c87a903          	lw	s2,200(a5)
    5f54:	00697933          	and	s2,s2,t1
    5f58:	02e4c4b3          	div	s1,s1,a4
    5f5c:	0084e493          	ori	s1,s1,8
    5f60:	88bd                	andi	s1,s1,15
    5f62:	04b2                	slli	s1,s1,0xc
    5f64:	009964b3          	or	s1,s2,s1
    5f68:	0c97a423          	sw	s1,200(a5)
    5f6c:	00361493          	slli	s1,a2,0x3
    5f70:	02e4c4b3          	div	s1,s1,a4
    5f74:	0c87a903          	lw	s2,200(a5)
    5f78:	01197933          	and	s2,s2,a7
    5f7c:	0084e493          	ori	s1,s1,8
    5f80:	88bd                	andi	s1,s1,15
    5f82:	04c2                	slli	s1,s1,0x10
    5f84:	009964b3          	or	s1,s2,s1
    5f88:	0c97a423          	sw	s1,200(a5)
    5f8c:	03f604b3          	mul	s1,a2,t6
    5f90:	0c87a903          	lw	s2,200(a5)
    5f94:	01097933          	and	s2,s2,a6
    5f98:	02e4c4b3          	div	s1,s1,a4
    5f9c:	0084e493          	ori	s1,s1,8
    5fa0:	88bd                	andi	s1,s1,15
    5fa2:	04d2                	slli	s1,s1,0x14
    5fa4:	009964b3          	or	s1,s2,s1
    5fa8:	0c97a423          	sw	s1,200(a5)
    5fac:	025604b3          	mul	s1,a2,t0
    5fb0:	0c87a903          	lw	s2,200(a5)
    5fb4:	00a97933          	and	s2,s2,a0
    5fb8:	02e4c4b3          	div	s1,s1,a4
    5fbc:	0084e493          	ori	s1,s1,8
    5fc0:	88bd                	andi	s1,s1,15
    5fc2:	04e2                	slli	s1,s1,0x18
    5fc4:	009964b3          	or	s1,s2,s1
    5fc8:	0c97a423          	sw	s1,200(a5)
    5fcc:	027604b3          	mul	s1,a2,t2
    5fd0:	0c87a903          	lw	s2,200(a5)
    5fd4:	01d97933          	and	s2,s2,t4
    5fd8:	02e4c4b3          	div	s1,s1,a4
    5fdc:	0084e493          	ori	s1,s1,8
    5fe0:	04f2                	slli	s1,s1,0x1c
    5fe2:	009964b3          	or	s1,s2,s1
    5fe6:	0c97a423          	sw	s1,200(a5)
    5fea:	00261493          	slli	s1,a2,0x2
    5fee:	02e4c4b3          	div	s1,s1,a4
    5ff2:	0cc7a903          	lw	s2,204(a5)
    5ff6:	ff097913          	andi	s2,s2,-16
    5ffa:	0084e493          	ori	s1,s1,8
    5ffe:	88bd                	andi	s1,s1,15
    6000:	009964b3          	or	s1,s2,s1
    6004:	0c97a623          	sw	s1,204(a5)
    6008:	028604b3          	mul	s1,a2,s0
    600c:	0cc7a903          	lw	s2,204(a5)
    6010:	f0f97913          	andi	s2,s2,-241
    6014:	02e4c4b3          	div	s1,s1,a4
    6018:	0084e493          	ori	s1,s1,8
    601c:	88bd                	andi	s1,s1,15
    601e:	0492                	slli	s1,s1,0x4
    6020:	009964b3          	or	s1,s2,s1
    6024:	0c97a623          	sw	s1,204(a5)
    6028:	00161493          	slli	s1,a2,0x1
    602c:	02e4c4b3          	div	s1,s1,a4
    6030:	0cc7a903          	lw	s2,204(a5)
    6034:	01c97933          	and	s2,s2,t3
    6038:	02e64733          	div	a4,a2,a4
    603c:	0084e493          	ori	s1,s1,8
    6040:	88bd                	andi	s1,s1,15
    6042:	04a2                	slli	s1,s1,0x8
    6044:	009964b3          	or	s1,s2,s1
    6048:	0c97a623          	sw	s1,204(a5)
    604c:	0cc7a603          	lw	a2,204(a5)
    6050:	00667633          	and	a2,a2,t1
    6054:	00876713          	ori	a4,a4,8
    6058:	8b3d                	andi	a4,a4,15
    605a:	0732                	slli	a4,a4,0xc
    605c:	8f51                	or	a4,a4,a2
    605e:	0ce7a623          	sw	a4,204(a5)
    6062:	0cc7a703          	lw	a4,204(a5)
    6066:	01177733          	and	a4,a4,a7
    606a:	0ce7a623          	sw	a4,204(a5)
    606e:	8181c703          	lbu	a4,-2024(gp) # 20001830 <nGA2401>
    6072:	8f0d                	sub	a4,a4,a1
    6074:	02d74633          	div	a2,a4,a3
    6078:	07f5f593          	andi	a1,a1,127
    607c:	05e2                	slli	a1,a1,0x18
    607e:	8a3d                	andi	a2,a2,15
    6080:	01461493          	slli	s1,a2,0x14
    6084:	0cc7a603          	lw	a2,204(a5)
    6088:	02870433          	mul	s0,a4,s0
    608c:	01067633          	and	a2,a2,a6
    6090:	8e45                	or	a2,a2,s1
    6092:	0cc7a623          	sw	a2,204(a5)
    6096:	00171613          	slli	a2,a4,0x1
    609a:	0cc7a483          	lw	s1,204(a5)
    609e:	8ce9                	and	s1,s1,a0
    60a0:	02d64633          	div	a2,a2,a3
    60a4:	8a3d                	andi	a2,a2,15
    60a6:	0662                	slli	a2,a2,0x18
    60a8:	8e45                	or	a2,a2,s1
    60aa:	0cc7a623          	sw	a2,204(a5)
    60ae:	0cc7a603          	lw	a2,204(a5)
    60b2:	02d44433          	div	s0,s0,a3
    60b6:	01d67eb3          	and	t4,a2,t4
    60ba:	00271613          	slli	a2,a4,0x2
    60be:	027703b3          	mul	t2,a4,t2
    60c2:	0472                	slli	s0,s0,0x1c
    60c4:	008ee433          	or	s0,t4,s0
    60c8:	0c87a623          	sw	s0,204(a5)
    60cc:	02d64633          	div	a2,a2,a3
    60d0:	025702b3          	mul	t0,a4,t0
    60d4:	00f67e93          	andi	t4,a2,15
    60d8:	0d07a603          	lw	a2,208(a5)
    60dc:	9a41                	andi	a2,a2,-16
    60de:	01d66633          	or	a2,a2,t4
    60e2:	0cc7a823          	sw	a2,208(a5)
    60e6:	0d07a603          	lw	a2,208(a5)
    60ea:	02d3c3b3          	div	t2,t2,a3
    60ee:	f0f67613          	andi	a2,a2,-241
    60f2:	02d2c2b3          	div	t0,t0,a3
    60f6:	00f3f393          	andi	t2,t2,15
    60fa:	0392                	slli	t2,t2,0x4
    60fc:	007663b3          	or	t2,a2,t2
    6100:	0c77a823          	sw	t2,208(a5)
    6104:	0d07a603          	lw	a2,208(a5)
    6108:	01c67e33          	and	t3,a2,t3
    610c:	03f70fb3          	mul	t6,a4,t6
    6110:	00f2f293          	andi	t0,t0,15
    6114:	02a2                	slli	t0,t0,0x8
    6116:	005e62b3          	or	t0,t3,t0
    611a:	0c57a823          	sw	t0,208(a5)
    611e:	0d07a603          	lw	a2,208(a5)
    6122:	00667333          	and	t1,a2,t1
    6126:	00371613          	slli	a2,a4,0x3
    612a:	02dfcfb3          	div	t6,t6,a3
    612e:	03e70f33          	mul	t5,a4,t5
    6132:	00ffff93          	andi	t6,t6,15
    6136:	0fb2                	slli	t6,t6,0xc
    6138:	01f36fb3          	or	t6,t1,t6
    613c:	0df7a823          	sw	t6,208(a5)
    6140:	0d07a303          	lw	t1,208(a5)
    6144:	011378b3          	and	a7,t1,a7
    6148:	02d64633          	div	a2,a2,a3
    614c:	03a70d33          	mul	s10,a4,s10
    6150:	8a3d                	andi	a2,a2,15
    6152:	0642                	slli	a2,a2,0x10
    6154:	00c8e633          	or	a2,a7,a2
    6158:	0cc7a823          	sw	a2,208(a5)
    615c:	0d07a603          	lw	a2,208(a5)
    6160:	01067833          	and	a6,a2,a6
    6164:	02df4f33          	div	t5,t5,a3
    6168:	02dd46b3          	div	a3,s10,a3
    616c:	00ff7f13          	andi	t5,t5,15
    6170:	0f52                	slli	t5,t5,0x14
    6172:	01e86f33          	or	t5,a6,t5
    6176:	0de7a823          	sw	t5,208(a5)
    617a:	0d07a703          	lw	a4,208(a5)
    617e:	8d79                	and	a0,a0,a4
    6180:	8abd                	andi	a3,a3,15
    6182:	06e2                	slli	a3,a3,0x18
    6184:	8ec9                	or	a3,a3,a0
    6186:	0cd7a823          	sw	a3,208(a5)
    618a:	43d8                	lw	a4,4(a5)
    618c:	6685                	lui	a3,0x1
    618e:	9b3d                	andi	a4,a4,-17
    6190:	c3d8                	sw	a4,4(a5)
    6192:	43d8                	lw	a4,4(a5)
    6194:	9b79                	andi	a4,a4,-2
    6196:	c3d8                	sw	a4,4(a5)
    6198:	5798                	lw	a4,40(a5)
    619a:	8f55                	or	a4,a4,a3
    619c:	d798                	sw	a4,40(a5)
    619e:	57d8                	lw	a4,44(a5)
    61a0:	810006b7          	lui	a3,0x81000
    61a4:	16fd                	addi	a3,a3,-1
    61a6:	01076713          	ori	a4,a4,16
    61aa:	d7d8                	sw	a4,44(a5)
    61ac:	03fc7713          	andi	a4,s8,63
    61b0:	0387ac03          	lw	s8,56(a5)
    61b4:	fc0c7c13          	andi	s8,s8,-64
    61b8:	00ec6c33          	or	s8,s8,a4
    61bc:	0387ac23          	sw	s8,56(a5)
    61c0:	5f98                	lw	a4,56(a5)
    61c2:	8f75                	and	a4,a4,a3
    61c4:	8dd9                	or	a1,a1,a4
    61c6:	df8c                	sw	a1,56(a5)
    61c8:	5462                	lw	s0,56(sp)
    61ca:	50f2                	lw	ra,60(sp)
    61cc:	54d2                	lw	s1,52(sp)
    61ce:	5942                	lw	s2,48(sp)
    61d0:	59b2                	lw	s3,44(sp)
    61d2:	5a22                	lw	s4,40(sp)
    61d4:	5a92                	lw	s5,36(sp)
    61d6:	5b02                	lw	s6,32(sp)
    61d8:	4bf2                	lw	s7,28(sp)
    61da:	4c62                	lw	s8,24(sp)
    61dc:	4cd2                	lw	s9,20(sp)
    61de:	4d42                	lw	s10,16(sp)
    61e0:	4db2                	lw	s11,12(sp)
    61e2:	6121                	addi	sp,sp,64
    61e4:	8082                	ret

000061e6 <RFEND_TXFtune>:
RFEND_TXFtune():
    61e6:	1fffd797          	auipc	a5,0x1fffd
    61ea:	20678793          	addi	a5,a5,518 # 200033ec <gptrRFENDReg>
    61ee:	4398                	lw	a4,0(a5)
    61f0:	435c                	lw	a5,4(a4)
    61f2:	1007e793          	ori	a5,a5,256
    61f6:	c35c                	sw	a5,4(a4)
    61f8:	8082                	ret

000061fa <tmos_memory_getlen>:
tmos_memory_getlen():
    61fa:	1fffd797          	auipc	a5,0x1fffd
    61fe:	20278793          	addi	a5,a5,514 # 200033fc <MemCtlStart>
    6202:	1fffd717          	auipc	a4,0x1fffd
    6206:	1f270713          	addi	a4,a4,498 # 200033f4 <MemCtlEnd>
    620a:	439c                	lw	a5,0(a5)
    620c:	4318                	lw	a4,0(a4)
    620e:	4501                	li	a0,0
    6210:	00f71363          	bne	a4,a5,6216 <tmos_memory_getlen+0x1c>
    6214:	8082                	ret
    6216:	0067d683          	lhu	a3,6(a5)
    621a:	e681                	bnez	a3,6222 <tmos_memory_getlen+0x28>
    621c:	0047d683          	lhu	a3,4(a5)
    6220:	9536                	add	a0,a0,a3
    6222:	439c                	lw	a5,0(a5)
    6224:	b7f5                	j	6210 <tmos_memory_getlen+0x16>

00006226 <tmos_memory_init>:
tmos_memory_init():
    6226:	1fffd797          	auipc	a5,0x1fffd
    622a:	11278793          	addi	a5,a5,274 # 20003338 <ble>
    622e:	438c                	lw	a1,0(a5)
    6230:	1fffd717          	auipc	a4,0x1fffd
    6234:	10c75703          	lhu	a4,268(a4) # 2000333c <ble+0x4>
    6238:	1141                	addi	sp,sp,-16
    623a:	22058613          	addi	a2,a1,544
    623e:	1fffd797          	auipc	a5,0x1fffd
    6242:	1ac7af23          	sw	a2,446(a5) # 200033fc <MemCtlStart>
    6246:	ff858793          	addi	a5,a1,-8
    624a:	97ba                	add	a5,a5,a4
    624c:	6505                	lui	a0,0x1
    624e:	1fffd697          	auipc	a3,0x1fffd
    6252:	1af6a323          	sw	a5,422(a3) # 200033f4 <MemCtlEnd>
    6256:	c606                	sw	ra,12(sp)
    6258:	051d                	addi	a0,a0,7
    625a:	00375693          	srli	a3,a4,0x3
    625e:	00e57463          	bgeu	a0,a4,6266 <tmos_memory_init+0x40>
    6262:	20000693          	li	a3,512
    6266:	00d60733          	add	a4,a2,a3
    626a:	1fffd517          	auipc	a0,0x1fffd
    626e:	18e52723          	sw	a4,398(a0) # 200033f8 <MemCtlPartition>
    6272:	22e5a023          	sw	a4,544(a1)
    6276:	16e1                	addi	a3,a3,-8
    6278:	00d61223          	sh	a3,4(a2)
    627c:	00061323          	sh	zero,6(a2)
    6280:	c31c                	sw	a5,0(a4)
    6282:	8f99                	sub	a5,a5,a4
    6284:	17e1                	addi	a5,a5,-8
    6286:	00f71223          	sh	a5,4(a4)
    628a:	00071323          	sh	zero,6(a4)
    628e:	37b5                	jal	61fa <tmos_memory_getlen>
    6290:	40b2                	lw	ra,12(sp)
    6292:	1fffd797          	auipc	a5,0x1fffd
    6296:	04a79a23          	sh	a0,84(a5) # 200032e6 <gTmosPara+0x6>
    629a:	0141                	addi	sp,sp,16
    629c:	8082                	ret

0000629e <LL_InitiateSetRF>:
LL_InitiateSetRF():
    629e:	1141                	addi	sp,sp,-16
    62a0:	1fffd797          	auipc	a5,0x1fffd
    62a4:	16078793          	addi	a5,a5,352 # 20003400 <gBleLlPara>
    62a8:	c226                	sw	s1,4(sp)
    62aa:	1fffd497          	auipc	s1,0x1fffd
    62ae:	0fe48493          	addi	s1,s1,254 # 200033a8 <gptrLLEReg>
    62b2:	c422                	sw	s0,8(sp)
    62b4:	0847a403          	lw	s0,132(a5)
    62b8:	409c                	lw	a5,0(s1)
    62ba:	c606                	sw	ra,12(sp)
    62bc:	c04a                	sw	s2,0(sp)
    62be:	4398                	lw	a4,0(a5)
    62c0:	8b0d                	andi	a4,a4,3
    62c2:	c305                	beqz	a4,62e2 <LL_InitiateSetRF+0x44>
    62c4:	4bb8                	lw	a4,80(a5)
    62c6:	9b61                	andi	a4,a4,-8
    62c8:	cbb8                	sw	a4,80(a5)
    62ca:	4398                	lw	a4,0(a5)
    62cc:	00876713          	ori	a4,a4,8
    62d0:	c398                	sw	a4,0(a5)
    62d2:	439c                	lw	a5,0(a5)
    62d4:	838d                	srli	a5,a5,0x3
    62d6:	8b85                	andi	a5,a5,1
    62d8:	c789                	beqz	a5,62e2 <LL_InitiateSetRF+0x44>
    62da:	0001                	nop
    62dc:	0001                	nop
    62de:	0001                	nop
    62e0:	0001                	nop
    62e2:	1fffd797          	auipc	a5,0x1fffd
    62e6:	0a278793          	addi	a5,a5,162 # 20003384 <gptrBBReg>
    62ea:	4394                	lw	a3,0(a5)
    62ec:	8e89c737          	lui	a4,0x8e89c
    62f0:	ed670713          	addi	a4,a4,-298 # 8e89bed6 <_eusrstack+0x6e893ed6>
    62f4:	c698                	sw	a4,8(a3)
    62f6:	00555737          	lui	a4,0x555
    62fa:	55570713          	addi	a4,a4,1365 # 555555 <_data_lma+0x54eec5>
    62fe:	c2d8                	sw	a4,4(a3)
    6300:	03a44703          	lbu	a4,58(s0)
    6304:	0ff00693          	li	a3,255
    6308:	893e                	mv	s2,a5
    630a:	00d70763          	beq	a4,a3,6318 <LL_InitiateSetRF+0x7a>
    630e:	57fd                	li	a5,-1
    6310:	02e40ca3          	sb	a4,57(s0)
    6314:	02f40d23          	sb	a5,58(s0)
    6318:	03944503          	lbu	a0,57(s0)
    631c:	4789                	li	a5,2
    631e:	00f50663          	beq	a0,a5,632a <LL_InitiateSetRF+0x8c>
    6322:	4785                	li	a5,1
    6324:	02f40ca3          	sb	a5,57(s0)
    6328:	4501                	li	a0,0
    632a:	4098                	lw	a4,0(s1)
    632c:	435c                	lw	a5,4(a4)
    632e:	0017e793          	ori	a5,a5,1
    6332:	c35c                	sw	a5,4(a4)
    6334:	fb200793          	li	a5,-78
    6338:	00f40323          	sb	a5,6(s0)
    633c:	1fffd797          	auipc	a5,0x1fffd
    6340:	0597c783          	lbu	a5,89(a5) # 20003395 <gBleIPPara+0x9>
    6344:	cf81                	beqz	a5,635c <LL_InitiateSetRF+0xbe>
    6346:	1fffd717          	auipc	a4,0x1fffd
    634a:	04e74703          	lbu	a4,78(a4) # 20003394 <gBleIPPara+0x8>
    634e:	478d                	li	a5,3
    6350:	00f71663          	bne	a4,a5,635c <LL_InitiateSetRF+0xbe>
    6354:	1fffd797          	auipc	a5,0x1fffd
    6358:	040780a3          	sb	zero,65(a5) # 20003395 <gBleIPPara+0x9>
    635c:	1fffd717          	auipc	a4,0x1fffd
    6360:	03774703          	lbu	a4,55(a4) # 20003393 <gBleIPPara+0x7>
    6364:	479d                	li	a5,7
    6366:	00f71863          	bne	a4,a5,6376 <LL_InitiateSetRF+0xd8>
    636a:	10700793          	li	a5,263
    636e:	1fffd717          	auipc	a4,0x1fffd
    6372:	02f71323          	sh	a5,38(a4) # 20003394 <gBleIPPara+0x8>
    6376:	4799                	li	a5,6
    6378:	1fffd717          	auipc	a4,0x1fffd
    637c:	00f70da3          	sb	a5,27(a4) # 20003393 <gBleIPPara+0x7>
    6380:	4601                	li	a2,0
    6382:	1fffd797          	auipc	a5,0x1fffd
    6386:	00078523          	sb	zero,10(a5) # 2000338c <gBleIPPara>
    638a:	02500593          	li	a1,37
    638e:	1fffd797          	auipc	a5,0x1fffd
    6392:	00078123          	sb	zero,2(a5) # 20003390 <gBleIPPara+0x4>
    6396:	8ebfd0ef          	jal	ra,3c80 <BLE_SetPHYRxMode>
    639a:	4090                	lw	a2,0(s1)
    639c:	1fffd797          	auipc	a5,0x1fffd
    63a0:	fe078aa3          	sb	zero,-11(a5) # 20003391 <gBleIPPara+0x5>
    63a4:	1fffd797          	auipc	a5,0x1fffd
    63a8:	fe0784a3          	sb	zero,-23(a5) # 2000338d <gBleIPPara+0x1>
    63ac:	4785                	li	a5,1
    63ae:	c21c                	sw	a5,0(a2)
    63b0:	00092783          	lw	a5,0(s2) # d000 <_data_lma+0x6970>
    63b4:	003305b7          	lui	a1,0x330
    63b8:	4398                	lw	a4,0(a5)
    63ba:	e7f77713          	andi	a4,a4,-385
    63be:	c398                	sw	a4,0(a5)
    63c0:	4398                	lw	a4,0(a5)
    63c2:	e7f77713          	andi	a4,a4,-385
    63c6:	10076713          	ori	a4,a4,256
    63ca:	c398                	sw	a4,0(a5)
    63cc:	1fffd717          	auipc	a4,0x1fffd
    63d0:	02070713          	addi	a4,a4,32 # 200033ec <gptrRFENDReg>
    63d4:	4318                	lw	a4,0(a4)
    63d6:	4714                	lw	a3,8(a4)
    63d8:	8ecd                	or	a3,a3,a1
    63da:	c714                	sw	a3,8(a4)
    63dc:	0d900693          	li	a3,217
    63e0:	ca34                	sw	a3,80(a2)
    63e2:	5754                	lw	a3,44(a4)
    63e4:	9af5                	andi	a3,a3,-3
    63e6:	d754                	sw	a3,44(a4)
    63e8:	00544703          	lbu	a4,5(s0)
    63ec:	07f77693          	andi	a3,a4,127
    63f0:	4398                	lw	a4,0(a5)
    63f2:	f8077713          	andi	a4,a4,-128
    63f6:	8f55                	or	a4,a4,a3
    63f8:	c398                	sw	a4,0(a5)
    63fa:	40b2                	lw	ra,12(sp)
    63fc:	4422                	lw	s0,8(sp)
    63fe:	4492                	lw	s1,4(sp)
    6400:	4902                	lw	s2,0(sp)
    6402:	0141                	addi	sp,sp,16
    6404:	8082                	ret

00006406 <memcpy>:
memcpy():
    6406:	00a5c7b3          	xor	a5,a1,a0
    640a:	8b8d                	andi	a5,a5,3
    640c:	00c50733          	add	a4,a0,a2
    6410:	e781                	bnez	a5,6418 <memcpy+0x12>
    6412:	478d                	li	a5,3
    6414:	00c7ee63          	bltu	a5,a2,6430 <memcpy+0x2a>
    6418:	87aa                	mv	a5,a0
    641a:	0ae57063          	bgeu	a0,a4,64ba <memcpy+0xb4>
    641e:	0005c683          	lbu	a3,0(a1) # 330000 <_data_lma+0x329970>
    6422:	0785                	addi	a5,a5,1
    6424:	0585                	addi	a1,a1,1
    6426:	fed78fa3          	sb	a3,-1(a5)
    642a:	fee7eae3          	bltu	a5,a4,641e <memcpy+0x18>
    642e:	8082                	ret
    6430:	00357693          	andi	a3,a0,3
    6434:	87aa                	mv	a5,a0
    6436:	ca91                	beqz	a3,644a <memcpy+0x44>
    6438:	0005c683          	lbu	a3,0(a1)
    643c:	0785                	addi	a5,a5,1
    643e:	0585                	addi	a1,a1,1
    6440:	fed78fa3          	sb	a3,-1(a5)
    6444:	0037f693          	andi	a3,a5,3
    6448:	b7fd                	j	6436 <memcpy+0x30>
    644a:	ffc77693          	andi	a3,a4,-4
    644e:	fe068613          	addi	a2,a3,-32
    6452:	06c7f063          	bgeu	a5,a2,64b2 <memcpy+0xac>
    6456:	0005a383          	lw	t2,0(a1)
    645a:	0045a283          	lw	t0,4(a1)
    645e:	0085af83          	lw	t6,8(a1)
    6462:	00c5af03          	lw	t5,12(a1)
    6466:	0105ae83          	lw	t4,16(a1)
    646a:	0145ae03          	lw	t3,20(a1)
    646e:	0185a303          	lw	t1,24(a1)
    6472:	01c5a883          	lw	a7,28(a1)
    6476:	02458593          	addi	a1,a1,36
    647a:	0077a023          	sw	t2,0(a5)
    647e:	ffc5a803          	lw	a6,-4(a1)
    6482:	0057a223          	sw	t0,4(a5)
    6486:	01f7a423          	sw	t6,8(a5)
    648a:	01e7a623          	sw	t5,12(a5)
    648e:	01d7a823          	sw	t4,16(a5)
    6492:	01c7aa23          	sw	t3,20(a5)
    6496:	0067ac23          	sw	t1,24(a5)
    649a:	0117ae23          	sw	a7,28(a5)
    649e:	02478793          	addi	a5,a5,36
    64a2:	ff07ae23          	sw	a6,-4(a5)
    64a6:	b775                	j	6452 <memcpy+0x4c>
    64a8:	4190                	lw	a2,0(a1)
    64aa:	0791                	addi	a5,a5,4
    64ac:	0591                	addi	a1,a1,4
    64ae:	fec7ae23          	sw	a2,-4(a5)
    64b2:	fed7ebe3          	bltu	a5,a3,64a8 <memcpy+0xa2>
    64b6:	f6e7e4e3          	bltu	a5,a4,641e <memcpy+0x18>
    64ba:	8082                	ret
    64bc:	b87e                	fsd	ft11,48(sp)
    64be:	ffff                	0xffff
    64c0:	b8a6                	fsd	fs1,112(sp)
    64c2:	ffff                	0xffff
    64c4:	b8ce                	fsd	fs3,112(sp)
    64c6:	ffff                	0xffff
    64c8:	b8e6                	fsd	fs9,112(sp)
    64ca:	ffff                	0xffff
    64cc:	b900                	fsd	fs0,48(a0)
    64ce:	ffff                	0xffff
    64d0:	bbc4                	fsd	fs1,176(a5)
    64d2:	ffff                	0xffff
    64d4:	bbc4                	fsd	fs1,176(a5)
    64d6:	ffff                	0xffff
    64d8:	bba6                	fsd	fs1,496(sp)
    64da:	ffff                	0xffff
    64dc:	bbb0                	fsd	fa2,112(a5)
    64de:	ffff                	0xffff
    64e0:	bbb8                	fsd	fa4,112(a5)
    64e2:	ffff                	0xffff
    64e4:	bbb0                	fsd	fa2,112(a5)
    64e6:	ffff                	0xffff
    64e8:	bbb0                	fsd	fa2,112(a5)
    64ea:	ffff                	0xffff
    64ec:	bbb0                	fsd	fa2,112(a5)
    64ee:	ffff                	0xffff
    64f0:	bbc4                	fsd	fs1,176(a5)
    64f2:	ffff                	0xffff
    64f4:	38354843          	fmadd.s	fa6,fa0,ft3,ft7,rmm
    64f8:	5f78                	lw	a4,124(a4)
    64fa:	4c42                	lw	s8,16(sp)
    64fc:	5f45                	li	t5,-15
    64fe:	494c                	lw	a1,20(a0)
    6500:	5f42                	lw	t5,48(sp)
    6502:	3156                	fld	ft2,368(sp)
    6504:	342e                	fld	fs0,232(sp)
    6506:	0000                	unimp
    6508:	c686                	sw	ra,76(sp)
    650a:	ffff                	0xffff
    650c:	c60c                	sw	a1,8(a2)
    650e:	ffff                	0xffff
    6510:	c55c                	sw	a5,12(a0)
    6512:	ffff                	0xffff
    6514:	c55c                	sw	a5,12(a0)
    6516:	ffff                	0xffff
    6518:	c55c                	sw	a5,12(a0)
    651a:	ffff                	0xffff
    651c:	c5e2                	sw	s8,200(sp)
    651e:	ffff                	0xffff
    6520:	c4b4                	sw	a3,72(s1)
    6522:	ffff                	0xffff
    6524:	c55c                	sw	a5,12(a0)
    6526:	ffff                	0xffff
    6528:	c5ec                	sw	a1,76(a1)
    652a:	ffff                	0xffff
    652c:	c602                	sw	zero,12(sp)
    652e:	ffff                	0xffff
    6530:	c680                	sw	s0,8(a3)
    6532:	ffff                	0xffff

00006534 <HID_Rep_Desc>:
    6534:	0105 0609 01a1 0185 0705 e019 e729 0015     ............)...
    6544:	0125 0175 0895 0281 0195 0875 0181 0395     %.u.......u.....
    6554:	0175 0805 0119 0329 0291 0595 0175 0191     u.....).....u...
    6564:	0695 0875 ff26 0500 1907 2900 8191 c000     ..u.&......)....
    6574:	0105 0209 01a1 0285 0109 00a1 0905 0119     ................
    6584:	0329 0015 0125 0175 0395 0281 0575 0195     )...%.u.....u...
    6594:	0181 0105 3009 3109 3809 8115 7f25 0875     .....0.1.8..%.u.
    65a4:	0395 0681 c0c0 0c05 0109 01a1 0385 b009     ................
    65b4:	b509 b609 e909 ea09 e209 b109 b709 0015     ................
    65c4:	0125 0895 0175 0281 05c0 0901 a10e 8501     %...u...........
    65d4:	0504 090d a121 0500 0909 9501 7501 1501     ....!........u..
    65e4:	2500 8101 0502 0901 9537 7501 550f 650f     .%......7..u.U.e
    65f4:	3614 f1f0 1046 160e f1f0 1026 810e c006     .6..F.....&.....
    6604:	00c0 0000                                   ....

00006608 <MyCfgDescr>:
    6608:	0209 0039 0102 a000 0932 0004 0100 0003     ..9.....2.......
    6618:	0000 2109 0111 0100 d122 0700 8105 4003     ...!...."......@
    6628:	0a00 0409 0001 0002 0000 0700 8205 4002     ...............@
    6638:	0000 0507 0202 0040 0000 0000               ......@.....

00006644 <MyDevDescr>:
    6644:	0112 0110 0000 4000 434a 5540 0101 0201     .......@JC@U....
    6654:	0100 0000                                   ....

00006658 <MyManuInfo>:
    6658:	030e 006c 0061 0062 0034 0031 0038 0000     ..l.a.b.4.1.8...

00006668 <MyProdInfo>:
    6668:	0310 0054 0050 0037 0038 0052 0063 0076     ..T.P.7.8.R.c.v.

00006678 <VER_LIB>:
    6678:	4843 3835 5f78 4c42 5f45 494c 5f42 3156     CH58x_BLE_LIB_V1
    6688:	342e 0031                                   .41.

0000668c <MyLangDescr>:
    668c:	0304 0409                                   ....
