
RF_CH582M.elf:     file format elf32-littleriscv
RF_CH582M.elf
architecture: riscv:rv32, flags 0x00000112:
EXEC_P, HAS_SYMS, D_PAGED
start address 0x00000000

Program Header:
    LOAD off    0x00001000 vaddr 0x00000000 paddr 0x00000000 align 2**12
         filesz 0x00000004 memsz 0x00000004 flags r-x
    LOAD off    0x00002000 vaddr 0x20000000 paddr 0x00000004 align 2**12
         filesz 0x00001814 memsz 0x00001814 flags r-x
    LOAD off    0x00003818 vaddr 0x00001818 paddr 0x00001818 align 2**12
         filesz 0x00004e60 memsz 0x00004e60 flags r-x
    LOAD off    0x00008814 vaddr 0x20001814 paddr 0x00006678 align 2**12
         filesz 0x0000000c memsz 0x00001d04 flags rw-

Sections:
Idx Name            Size      VMA       LMA       File off  Algn  Flags
  0 .init           00000004  00000000  00000000  00001000  2**1  CONTENTS, ALLOC, LOAD, READONLY, CODE
  1 .highcodelalign 00000000  00000004  00000004  00008820  2**0  CONTENTS
  2 .highcode       00001814  20000000  00000004  00002000  2**1  CONTENTS, ALLOC, LOAD, READONLY, CODE
  3 .text           00004e60  00001818  00001818  00003818  2**2  CONTENTS, ALLOC, LOAD, READONLY, CODE
  4 .fini           00000000  00006678  00006678  00008820  2**0  CONTENTS, ALLOC, LOAD, CODE
  5 .dalign         00000000  20001814  20001814  00008820  2**0  CONTENTS
  6 .dlalign        00000000  00006678  00006678  00008820  2**0  CONTENTS
  7 .data           0000000c  20001814  00006678  00008814  2**2  CONTENTS, ALLOC, LOAD, DATA
  8 .bss            00001cf8  20001820  00006684  00008820  2**3  ALLOC
  9 .stack          00000000  20008000  20008000  00008820  2**0  CONTENTS
 10 .debug_info     0000ef78  00000000  00000000  00008820  2**0  CONTENTS, READONLY, DEBUGGING
 11 .debug_abbrev   000026b3  00000000  00000000  00017798  2**0  CONTENTS, READONLY, DEBUGGING
 12 .debug_loc      00001ef7  00000000  00000000  00019e4b  2**0  CONTENTS, READONLY, DEBUGGING
 13 .debug_aranges  00000428  00000000  00000000  0001bd48  2**3  CONTENTS, READONLY, DEBUGGING
 14 .debug_ranges   00000410  00000000  00000000  0001c170  2**3  CONTENTS, READONLY, DEBUGGING
 15 .debug_line     00007a60  00000000  00000000  0001c580  2**0  CONTENTS, READONLY, DEBUGGING
 16 .debug_str      00002011  00000000  00000000  00023fe0  2**0  CONTENTS, READONLY, DEBUGGING
 17 .comment        00000033  00000000  00000000  00025ff1  2**0  CONTENTS, READONLY
 18 .debug_frame    000008d8  00000000  00000000  00026024  2**2  CONTENTS, READONLY, DEBUGGING
SYMBOL TABLE:
00000000 l    d  .init	00000000 .init
00000004 l    d  .highcodelalign	00000000 .highcodelalign
20000000 l    d  .highcode	00000000 .highcode
00001818 l    d  .text	00000000 .text
00006678 l    d  .fini	00000000 .fini
20001814 l    d  .dalign	00000000 .dalign
00006678 l    d  .dlalign	00000000 .dlalign
20001814 l    d  .data	00000000 .data
20001820 l    d  .bss	00000000 .bss
20008000 l    d  .stack	00000000 .stack
00000000 l    d  .debug_info	00000000 .debug_info
00000000 l    d  .debug_abbrev	00000000 .debug_abbrev
00000000 l    d  .debug_loc	00000000 .debug_loc
00000000 l    d  .debug_aranges	00000000 .debug_aranges
00000000 l    d  .debug_ranges	00000000 .debug_ranges
00000000 l    d  .debug_line	00000000 .debug_line
00000000 l    d  .debug_str	00000000 .debug_str
00000000 l    d  .comment	00000000 .comment
00000000 l    d  .debug_frame	00000000 .debug_frame
00000000 l    df *ABS*	00000000 ./Startup/startup_CH583.o
20000000 l       .highcode	00000000 _vector_base
00000000 l    df *ABS*	00000000 CH58x_sys.c
00000000 l    df *ABS*	00000000 ISP.c
00000000 l    df *ABS*	00000000 RTC.c
00000000 l    df *ABS*	00000000 USB.c
00000000 l    df *ABS*	00000000 RF_PHY.c
00000000 l    df *ABS*	00000000 RF_main.c
00000000 l    df *ABS*	00000000 ISP583.c
2000045e l       .highcode	00000000 .loop18
2000046c l       .highcode	00000000 .loop29
2000047a l       .highcode	00000000 .loop40
20000706 l       .highcode	00000000 .loop402
00000000 l    df *ABS*	00000000 tmos.c
00002e72 l     F .text	00000024 tmosFindTask
00000000 l    df *ABS*	00000000 tmos_hw.c
20000cbc l     F .highcode	00000032 clockGetHSEValue
20000cee l     F .highcode	00000018 clockGetLSEValue
0000356a l     F .text	00000056 clockGetTickValve
00000000 l    df *ABS*	00000000 bb.c
00000000 l    df *ABS*	00000000 ip.c
00000000 l    df *ABS*	00000000 lle.c
00000000 l    df *ABS*	00000000 rf_fh.c
00004940 l     F .text	00000582 rfRxProcess
00000000 l    df *ABS*	00000000 rfend.c
00000000 l    df *ABS*	00000000 memory.c
00000000 l    df *ABS*	00000000 CH58x_adc.c
00000000 l    df *ABS*	00000000 CH58x_clk.c
00000000 l    df *ABS*	00000000 CH58x_gpio.c
00000000 l    df *ABS*	00000000 CH58x_timer0.c
00000000 l    df *ABS*	00000000 CH58x_usbdev.c
00000000 l    df *ABS*	00000000 LED.c
00001efe l     F .text	0000009c HalLedBlink.part.2
00001fe6 l     F .text	00000056 HalLedSet.part.1
20001830 l     O .bss	00000034 HalLedStatusControl
20001820 l     O .bss	00000001 HalLedState
20001821 l     O .bss	00000001 preBlinkState
00000000 l    df *ABS*	00000000 MCU.c
00000000 l    df *ABS*	00000000 message.c
00000000 l    df *ABS*	00000000 tmos_snv.c
00000000 l    df *ABS*	00000000 ll_connect.c
00000000 l    df *ABS*	00000000 ll_scan.c
00000000 l    df *ABS*	00000000 ll_initiate.c
00000000 l    df *ABS*	00000000 memcpy.c
200033e4 g     O .bss	00000001 nGA2440
00001ed2 g     F .text	00000016 DevEP3_IN_Deal
20001824 g     O .bss	00000004 heartbeat_cnt
00002bde g     F .text	000000b8 RF_2G4StatusCallBack
20000e56 g     F .highcode	0000003e ll_rx_wait_finish
00001ea6 g     F .text	00000016 DevEP1_IN_Deal
2000047a g     F .highcode	0000000e FLASH_ROM_OUT
20001818 g     O .data	00000001 usbTaskID
20000ab8 g     F .highcode	00000204 TMOS_SystemProcess
00005266 g     F .text	00000034 RFEND_Reset
000026f0 g     F .text	000004ee USB_DevTransProcess
20002018 g       .data	00000000 __global_pointer$
000018c6 g     F .text	00000028 ADC_InterTSSampInit
200002ac g     F .highcode	0000000e mDelayuS
20000272  w    F .highcode	0000003a HardFault_Handler
200000a2  w      .highcode	00000000 GPIOB_IRQHandler
00002312 g     F .text	00000076 HAL_ProcessEvent
200000a0  w      .highcode	00000000 GPIOA_IRQHandler
20003380 g     O .bss	00000004 gptrBBReg
000033b8 g     F .text	0000003c TMOS_ProcessEventRegister
2000009a  w      .highcode	00000000 SysTick_Handler
000026a4 g     F .text	00000026 DevEP3_OUT_Deal
000030ce g     F .text	00000032 TMOS_GetSystemClock
20001ad4 g     O .bss	00000001 RFtaskID
20000090  w      .highcode	00000000 NMI_Handler
200008aa g     F .highcode	00000012 tmos_memset
2000096e g     F .highcode	0000014a tmos_proces_system_time
200000b4  w      .highcode	00000000 UART1_IRQHandler
0000209c g     F .text	00000036 HAL_LedInit
20000f5e g     F .highcode	00000124 ll_tx_wait_finish
00003a98 g     F .text	000000b4 BB_DevInit
200008bc g     F .highcode	00000014 tmos_strlen
20000e94 g     F .highcode	000000ca ble_ll_chkcrc
2000094c g     F .highcode	00000022 tmos_isbufset
20001820 g       .bss	00000000 _sbss
00004fd6 g     F .text	0000014a rf_hop_heart_beat
00004ec2 g     F .text	00000090 RF_Shut
20001878 g     O .bss	00000004 RTCTigFlag
2000046c g     F .highcode	0000000e FLASH_ROM_IN
000041c0 g     F .text	00000198 RF_TxProcess
2000187c g     O .bss	00000001 DevConfig
00006660 g     O .text	00000014 VER_LIB
000036ea g     F .text	000000c0 tmos_snv_init
00005120 g     F .text	000000f4 RFFH_ProcessEvent
00002528 g     F .text	000000d8 USB_ProcessEvent
200000b2  w      .highcode	00000000 UART0_IRQHandler
200032dc g     O .bss	0000002c gTmosPara
0000660c g     O .text	00000012 MyDevDescr
000063fe g     F .text	000000b6 memcpy
2000187e g     O .bss	00000002 SetupReqLen
200033f0 g     O .bss	00000004 MemCtlEnd
00000004 g       .init	00000000 _einit
20003308 g     O .bss	00000004 tasksArr
200033f4 g     O .bss	00000004 MemCtlPartition
20000d08 g     F .highcode	0000014e BB_IRQLibHandler
20001244 g     F .highcode	00000212 LLE_IRQLibHandler
2000330c g     O .bss	0000001c pfnProcessCBs
200000a6  w      .highcode	00000000 BB_IRQHandler
20000508 g     F .highcode	0000036a FLASH_EEPROM_CMD
000061de g     F .text	00000014 RFEND_TXFtune
20000098  w      .highcode	00000000 Break_Point_Handler
00001d22 g     F .text	000000a6 GPIOB_ModeCfg
20001880 g     O .bss	00000001 SetupReqCode
2000032c g     F .highcode	00000030 SoftReset
0000540e g     F .text	00000080 RFEND_RXFilter
00002260 g     F .text	00000040 Lib_Write_Flash
00006674 g     O .text	00000004 MyLangDescr
2000037e g     F .highcode	000000c6 TMR0_IRQHandler
20001658 g     F .highcode	000000d2 tmos_memory_allocate
20003328 g     O .bss	00000002 eventsClear
2000044c g     F .highcode	00000012 FLASH_ROM_BEG
0000652c g     O .text	0000003e KeyRepDesc
2000181c g     O .data	00000002 CAPSLOCK_DATA
20000930 g     F .highcode	0000001c tmos_revmemcpy
00002e96 g     F .text	00000086 TMOS_CB_PeriodicProcessEvent
200002ba g     F .highcode	00000028 mDelaymS
20000094  w      .highcode	00000000 Ecall_M_Mode_Handler
00003dac g     F .text	000000a4 ll_multi_states_process
000065a0 g     O .text	0000006b MyCfgDescr
0000393a g     F .text	0000015e LL_ScanSetRF
20000488 g     F .highcode	00000048 FLASH_ROM_ADDR
000037aa g     F .text	00000190 LL_GetNextConnectEventTime
20001456 g     F .highcode	00000082 RF_HopGetChannel
20001874 g     O .bss	00000001 halTaskID
20000444 g     F .highcode	00000008 Main_Circulation
20003378 g     O .bss	00000004 fnGetClockCBs
000033f4 g     F .text	00000176 BLE_LibInit
00006620 g     O .text	0000000e MyManuInfo
00004012 g     F .text	00000058 LLE_DevInit
00003b4c g     F .text	0000012c BLE_SetPHYTxMode
200033f8 g     O .bss	00000004 MemCtlStart
20001628 g     F .highcode	00000030 RFEND_WaitTune
00004358 g     F .text	0000011e RF_Config
00004476 g     F .text	000002c6 RF_Tx
00003100 g     F .text	0000002e tmos_set_event
2000035c g     F .highcode	00000016 RTC_IRQHandler
20003518 g       .bss	00000000 _ebss
00006296 g     F .text	00000168 LL_InitiateSetRF
000035c0 g     F .text	00000062 TMOS_TempSample
20001884 g     O .bss	00000004 pDescr
20001888 g     O .bss	000000c0 EP0_Databuf
00003d78 g     F .text	00000034 ll_multi_states_check
0000249c g     F .text	00000036 HAL_Init
200004d0 g     F .highcode	00000038 FLASH_ROM_WAIT
00003e50 g     F .text	0000008c ble_ll_hw_api_shut
00002058 g     F .text	00000044 HalLedSet
20001082 g     F .highcode	000001c2 BLE_CheckHoppingMap
200033e5 g     O .bss	00000001 nGA2480
2000337c g     O .bss	00000004 gptrAESReg
00004f52 g     F .text	00000084 RF_FrequencyHoppingShut
0000529a g     F .text	00000174 RFEND_DevInit
00002388 g     F .text	00000114 CH58X_BLEInit
200000c0  w      .highcode	00000000 UART2_IRQHandler
00001f9a g     F .text	0000004c HalLedOnOff
200000bc  w      .highcode	00000000 PWMX_IRQHandler
200032d8 g     O .bss	00000004 msg_qHead
00003c78 g     F .text	00000100 BLE_SetPHYRxMode
2000182b g     O .bss	00000001 nCO2401
20003384 g     O .bss	00000004 gPaControl
20001948 g     O .bss	00000080 EP1_Databuf
00000000 g       .init	00000000 _start
0000473c g     F .text	00000204 RF_Rx
00001ee8 g     F .text	00000016 DevEP4_IN_Deal
00003f96 g     F .text	0000007c BLE_IPCoreInit
200000b8  w      .highcode	00000000 ADC_IRQHandler
20001864 g     O .bss	00000004 pEP2_RAM_Addr
20000000 g       .highcode	00000000 _highcode_vma_start
200008d0 g     F .highcode	00000032 tmos_memdup
2000332c g     O .bss	00000004 EventsArr
200000b0  w      .highcode	00000000 TMR2_IRQHandler
0000663c g     O .text	00000021 VolumeRepDesc
20001814 g       .data	00000000 _data_vma
20001868 g     O .bss	00000004 pEP3_RAM_Addr
200033e8 g     O .bss	00000004 gptrRFENDReg
0000656c g     O .text	00000034 MouseRepDesc
200019c8 g     O .bss	00000009 HID_dat
200019d4 g     O .bss	00000080 EP2_Databuf
200000c6 g     F .highcode	00000170 SetSysClock
2000182d g     O .bss	00000001 l2capNumRecvDataPkts
20000372 g     F .highcode	0000000c USB_IRQHandler
0000267e g     F .text	00000026 DevEP2_OUT_Deal
20003400 g     O .bss	00000118 gBleLlPara
20000d06 g     F .highcode	00000002 TMOS_TimerIRQHandler
00002658 g     F .text	00000026 DevEP1_OUT_Deal
200014d8 g     F .highcode	000000b6 RF_FrequencyHoppingGet
20001ad8 g     O .bss	00001800 MEM_BUF
200033a8 g     O .bss	00000020 rfConfig
000061f2 g     F .text	0000002c tmos_memory_getlen
2000186c g     O .bss	00000004 pEP0_RAM_Addr
20000902 g     F .highcode	0000002e tmos_memcmp
00001e28 g     F .text	0000007e USB_DeviceInit
200000ba  w      .highcode	00000000 I2C_IRQHandler
200033a4 g     O .bss	00000004 gptrLLEReg
00002da2 g     F .text	0000002a main
00002f1c g     F .text	00000080 TMOS_CB_ProcessEvent
0000203c g     F .text	0000001c HalLedBlink
2000158e g     F .highcode	0000009a RF_FrequencyHoppingChange
00005214 g     F .text	00000052 RF_RoleInit
2000172a g     F .highcode	000000e8 tmos_memory_free
00002600 g     F .text	00000058 HAL_USBInit
200000ac  w      .highcode	00000000 USB2_IRQHandler
00003edc g     F .text	000000ba BLE_RegInit
000032c2 g     F .text	000000f6 TMOS_Init
00003160 g     F .text	000000e0 tmos_start_task
00006630 g     O .text	0000000a MyProdInfo
000024d2 g     F .text	00000056 HAL_TimeInit
20001822 g     O .bss	00000001 USB_Ready
00002c96 g     F .text	0000006a RF_ProcessEvent
00000004 g       .highcodelalign	00000000 _highcode_lma
00002d00 g     F .text	000000a2 RF_Init
00003240 g     F .text	0000004e tmos_stop_task
200000a8  w      .highcode	00000000 LLE_IRQHandler
00000000 g       .init	00000000 _sinit
00001ebc g     F .text	00000016 DevEP2_IN_Deal
20003330 g     O .bss	00000004 taskHead
000020d2 g     F .text	0000016c HalLedUpdate
0000621e g     F .text	00000078 tmos_memory_init
0000548e g     F .text	0000003a RFEND_RXAdc
000041a2 g     F .text	0000001e rf_stop
200000c4  w      .highcode	00000000 WDOG_BAT_IRQHandler
20000096  w      .highcode	00000000 Ecall_U_Mode_Handler
200000be  w      .highcode	00000000 TMR3_IRQHandler
0000223e g     F .text	00000006 Lib_Calibration_LSI
20008000 g       .stack	00000000 _eusrstack
2000009c  w      .highcode	00000000 SW_Handler
20000892 g     F .highcode	00000018 tmos_memcpy_word
20003334 g     O .bss	0000003c ble
200033ec g     O .bss	00000001 nCO2440
00001dc8 g     F .text	00000042 GetSysClock
2000182c g     O .bss	00000001 nGA2401
20001820 g       .data	00000000 _edata
200000a4  w      .highcode	00000000 SPI0_IRQHandler
00002dcc g     F .text	0000002c tmos_msg_deallocate
20001814 g       .highcode	00000000 _highcode_vma_end
20003370 g     O .bss	00000004 cbTimersHead
00006678 g       .dlalign	00000000 _data_lma
0000312e g     F .text	00000032 tmos_clear_event
000022a0 g     F .text	00000072 HAL_GetInterTempValue
00002244 g     F .text	0000001c Lib_Read_Flash
20000872 g     F .highcode	00000020 tmos_memcpy
20003388 g     O .bss	0000001c gBleIPPara
00001e0a g     F .text	0000000a SYS_GetSysTickCnt
00001818  w      .text	00000000 handle_reset
200002e2 g     F .highcode	0000004a APPJumpBoot
00002f9c g     F .text	00000132 tmos_proces_sleep
000054c8 g     F .text	00000d16 RFEND_TXCtune
20001a54 g     O .bss	00000080 EP3_Databuf
200000c2  w      .highcode	00000000 UART3_IRQHandler
00001b94 g     F .text	0000018e RTC_InitTime
000032ac g     F .text	00000016 TMOS_ProcessRegister
2000045e g     F .highcode	0000000e FLASH_ROM_END
00002df8 g     F .text	00000070 tmos_msg_receive
200033c8 g     O .bss	0000001c rfInfo
0000328e g     F .text	0000001e TMOS_TimerRegister
000026ca g     F .text	00000026 DevEP4_OUT_Deal
200033ed g     O .bss	00000001 nCO2480
200000ae  w      .highcode	00000000 TMR1_IRQHandler
00003622 g     F .text	000000c8 TMOS_TimerInit
000018ee g     F .text	000002a6 Calibration_LSI
20001870 g     O .bss	00000004 pEP1_RAM_Addr
20003374 g     O .bss	00000004 pfnTimerCBs
00002e68 g     F .text	0000000a tmos_msg_init
0000406a g     F .text	00000138 RF_DevSetChannel
20000236 g     F .highcode	0000003c SYS_ResetExecute
00001e14 g     F .text	00000014 TMR0_TimerInit
20001828 g     O .bss	00000003 lastevent



Disassembly of section .init:

00000000 <_sinit>:
_start():
E:\tp78_v2\mounriver_project\RF_CH582M\obj/../Startup/startup_CH583.S:15

	.section	.init,"ax",@progbits
	.global	_start
	.align	1
_start:
	j	handle_reset
   0:	0190106f          	j	1818 <handle_reset>

Disassembly of section .highcode:

20000000 <_highcode_vma_start>:
	...
_vector_base():
20000008:	0090                	addi	a2,sp,64
2000000a:	2000                	fld	fs0,0(s0)
2000000c:	0272                	slli	tp,tp,0x1c
2000000e:	2000                	fld	fs0,0(s0)
20000010:	bda9                	j	1ffffe6a <_data_lma+0x1fff97f2>
20000012:	f5f9                	bnez	a1,1fffffe0 <_data_lma+0x1fff9968>
20000014:	0094                	addi	a3,sp,64
20000016:	2000                	fld	fs0,0(s0)
	...
20000020:	0096                	slli	ra,ra,0x5
20000022:	2000                	fld	fs0,0(s0)
20000024:	0098                	addi	a4,sp,64
20000026:	2000                	fld	fs0,0(s0)
	...
20000030:	009a                	slli	ra,ra,0x6
20000032:	2000                	fld	fs0,0(s0)
20000034:	0000                	unimp
20000036:	0000                	unimp
20000038:	009c                	addi	a5,sp,64
2000003a:	2000                	fld	fs0,0(s0)
2000003c:	0000                	unimp
2000003e:	0000                	unimp
20000040:	037e                	slli	t1,t1,0x1f
20000042:	2000                	fld	fs0,0(s0)
20000044:	00a0                	addi	s0,sp,72
20000046:	2000                	fld	fs0,0(s0)
20000048:	00a2                	slli	ra,ra,0x8
2000004a:	2000                	fld	fs0,0(s0)
2000004c:	00a4                	addi	s1,sp,72
2000004e:	2000                	fld	fs0,0(s0)
20000050:	00a6                	slli	ra,ra,0x9
20000052:	2000                	fld	fs0,0(s0)
20000054:	00a8                	addi	a0,sp,72
20000056:	2000                	fld	fs0,0(s0)
20000058:	0372                	slli	t1,t1,0x1c
2000005a:	2000                	fld	fs0,0(s0)
2000005c:	00ac                	addi	a1,sp,72
2000005e:	2000                	fld	fs0,0(s0)
20000060:	00ae                	slli	ra,ra,0xb
20000062:	2000                	fld	fs0,0(s0)
20000064:	00b0                	addi	a2,sp,72
20000066:	2000                	fld	fs0,0(s0)
20000068:	00b2                	slli	ra,ra,0xc
2000006a:	2000                	fld	fs0,0(s0)
2000006c:	00b4                	addi	a3,sp,72
2000006e:	2000                	fld	fs0,0(s0)
20000070:	035c                	addi	a5,sp,388
20000072:	2000                	fld	fs0,0(s0)
20000074:	00b8                	addi	a4,sp,72
20000076:	2000                	fld	fs0,0(s0)
20000078:	00ba                	slli	ra,ra,0xe
2000007a:	2000                	fld	fs0,0(s0)
2000007c:	00bc                	addi	a5,sp,72
2000007e:	2000                	fld	fs0,0(s0)
20000080:	00be                	slli	ra,ra,0xf
20000082:	2000                	fld	fs0,0(s0)
20000084:	00c0                	addi	s0,sp,68
20000086:	2000                	fld	fs0,0(s0)
20000088:	00c2                	slli	ra,ra,0x10
2000008a:	2000                	fld	fs0,0(s0)
2000008c:	00c4                	addi	s1,sp,68
2000008e:	2000                	fld	fs0,0(s0)

20000090 <NMI_Handler>:
NMI_Handler():
E:\tp78_v2\mounriver_project\RF_CH582M\obj/../Startup/startup_CH583.S:91
    .weak   TMR3_IRQHandler
    .weak   UART2_IRQHandler
    .weak   UART3_IRQHandler
    .weak   WDOG_BAT_IRQHandler

NMI_Handler:         1:  j 1b
20000090:	a001                	j	20000090 <NMI_Handler>
E:\tp78_v2\mounriver_project\RF_CH582M\obj/../Startup/startup_CH583.S:92
HardFault_Handler:   1:  j 1b
20000092:	a001                	j	20000092 <NMI_Handler+0x2>

20000094 <Ecall_M_Mode_Handler>:
Ecall_M_Mode_Handler():
E:\tp78_v2\mounriver_project\RF_CH582M\obj/../Startup/startup_CH583.S:93
Ecall_M_Mode_Handler:   1:  j 1b
20000094:	a001                	j	20000094 <Ecall_M_Mode_Handler>

20000096 <Ecall_U_Mode_Handler>:
Ecall_U_Mode_Handler():
E:\tp78_v2\mounriver_project\RF_CH582M\obj/../Startup/startup_CH583.S:94
Ecall_U_Mode_Handler:   1:  j 1b
20000096:	a001                	j	20000096 <Ecall_U_Mode_Handler>

20000098 <Break_Point_Handler>:
Break_Point_Handler():
E:\tp78_v2\mounriver_project\RF_CH582M\obj/../Startup/startup_CH583.S:95
Break_Point_Handler:   1:  j 1b
20000098:	a001                	j	20000098 <Break_Point_Handler>

2000009a <SysTick_Handler>:
SysTick_Handler():
E:\tp78_v2\mounriver_project\RF_CH582M\obj/../Startup/startup_CH583.S:96
SysTick_Handler:     1:  j 1b
2000009a:	a001                	j	2000009a <SysTick_Handler>

2000009c <SW_Handler>:
SW_Handler():
E:\tp78_v2\mounriver_project\RF_CH582M\obj/../Startup/startup_CH583.S:97
SW_Handler:          1:  j 1b
2000009c:	a001                	j	2000009c <SW_Handler>
E:\tp78_v2\mounriver_project\RF_CH582M\obj/../Startup/startup_CH583.S:98
TMR0_IRQHandler:     1:  j 1b
2000009e:	a001                	j	2000009e <SW_Handler+0x2>

200000a0 <GPIOA_IRQHandler>:
GPIOA_IRQHandler():
E:\tp78_v2\mounriver_project\RF_CH582M\obj/../Startup/startup_CH583.S:99
GPIOA_IRQHandler:    1:  j 1b
200000a0:	a001                	j	200000a0 <GPIOA_IRQHandler>

200000a2 <GPIOB_IRQHandler>:
GPIOB_IRQHandler():
E:\tp78_v2\mounriver_project\RF_CH582M\obj/../Startup/startup_CH583.S:100
GPIOB_IRQHandler:    1:  j 1b
200000a2:	a001                	j	200000a2 <GPIOB_IRQHandler>

200000a4 <SPI0_IRQHandler>:
SPI0_IRQHandler():
E:\tp78_v2\mounriver_project\RF_CH582M\obj/../Startup/startup_CH583.S:101
SPI0_IRQHandler:     1:  j 1b
200000a4:	a001                	j	200000a4 <SPI0_IRQHandler>

200000a6 <BB_IRQHandler>:
BB_IRQHandler():
E:\tp78_v2\mounriver_project\RF_CH582M\obj/../Startup/startup_CH583.S:102
BB_IRQHandler:       1:  j 1b
200000a6:	a001                	j	200000a6 <BB_IRQHandler>

200000a8 <LLE_IRQHandler>:
LLE_IRQHandler():
E:\tp78_v2\mounriver_project\RF_CH582M\obj/../Startup/startup_CH583.S:103
LLE_IRQHandler:      1:  j 1b
200000a8:	a001                	j	200000a8 <LLE_IRQHandler>
E:\tp78_v2\mounriver_project\RF_CH582M\obj/../Startup/startup_CH583.S:104
USB_IRQHandler:      1:  j 1b
200000aa:	a001                	j	200000aa <LLE_IRQHandler+0x2>

200000ac <USB2_IRQHandler>:
USB2_IRQHandler():
E:\tp78_v2\mounriver_project\RF_CH582M\obj/../Startup/startup_CH583.S:105
USB2_IRQHandler:      1:  j 1b
200000ac:	a001                	j	200000ac <USB2_IRQHandler>

200000ae <TMR1_IRQHandler>:
TMR1_IRQHandler():
E:\tp78_v2\mounriver_project\RF_CH582M\obj/../Startup/startup_CH583.S:106
TMR1_IRQHandler:     1:  j 1b
200000ae:	a001                	j	200000ae <TMR1_IRQHandler>

200000b0 <TMR2_IRQHandler>:
TMR2_IRQHandler():
E:\tp78_v2\mounriver_project\RF_CH582M\obj/../Startup/startup_CH583.S:107
TMR2_IRQHandler:     1:  j 1b
200000b0:	a001                	j	200000b0 <TMR2_IRQHandler>

200000b2 <UART0_IRQHandler>:
UART0_IRQHandler():
E:\tp78_v2\mounriver_project\RF_CH582M\obj/../Startup/startup_CH583.S:108
UART0_IRQHandler:    1:  j 1b
200000b2:	a001                	j	200000b2 <UART0_IRQHandler>

200000b4 <UART1_IRQHandler>:
UART1_IRQHandler():
E:\tp78_v2\mounriver_project\RF_CH582M\obj/../Startup/startup_CH583.S:109
UART1_IRQHandler:    1:  j 1b
200000b4:	a001                	j	200000b4 <UART1_IRQHandler>
E:\tp78_v2\mounriver_project\RF_CH582M\obj/../Startup/startup_CH583.S:110
RTC_IRQHandler:      1:  j 1b
200000b6:	a001                	j	200000b6 <UART1_IRQHandler+0x2>

200000b8 <ADC_IRQHandler>:
ADC_IRQHandler():
E:\tp78_v2\mounriver_project\RF_CH582M\obj/../Startup/startup_CH583.S:111
ADC_IRQHandler:      1:  j 1b
200000b8:	a001                	j	200000b8 <ADC_IRQHandler>

200000ba <I2C_IRQHandler>:
I2C_IRQHandler():
E:\tp78_v2\mounriver_project\RF_CH582M\obj/../Startup/startup_CH583.S:112
I2C_IRQHandler:		 1:  j 1b
200000ba:	a001                	j	200000ba <I2C_IRQHandler>

200000bc <PWMX_IRQHandler>:
PWMX_IRQHandler():
E:\tp78_v2\mounriver_project\RF_CH582M\obj/../Startup/startup_CH583.S:113
PWMX_IRQHandler:     1:  j 1b
200000bc:	a001                	j	200000bc <PWMX_IRQHandler>

200000be <TMR3_IRQHandler>:
TMR3_IRQHandler():
E:\tp78_v2\mounriver_project\RF_CH582M\obj/../Startup/startup_CH583.S:114
TMR3_IRQHandler:     1:  j 1b
200000be:	a001                	j	200000be <TMR3_IRQHandler>

200000c0 <UART2_IRQHandler>:
UART2_IRQHandler():
E:\tp78_v2\mounriver_project\RF_CH582M\obj/../Startup/startup_CH583.S:115
UART2_IRQHandler:    1:  j 1b
200000c0:	a001                	j	200000c0 <UART2_IRQHandler>

200000c2 <UART3_IRQHandler>:
UART3_IRQHandler():
E:\tp78_v2\mounriver_project\RF_CH582M\obj/../Startup/startup_CH583.S:116
UART3_IRQHandler:    1:  j 1b
200000c2:	a001                	j	200000c2 <UART3_IRQHandler>

200000c4 <WDOG_BAT_IRQHandler>:
WDOG_BAT_IRQHandler():
E:\tp78_v2\mounriver_project\RF_CH582M\obj/../Startup/startup_CH583.S:117
WDOG_BAT_IRQHandler: 1:  j 1b
200000c4:	a001                	j	200000c4 <WDOG_BAT_IRQHandler>

200000c6 <SetSysClock>:
SetSysClock():
E:\tp78_v2\mounriver_project\RF_CH582M\obj/../StdPeriphDriver/CH58x_sys.c:26
 */
__HIGH_CODE
void SetSysClock(SYS_CLKTypeDef sc)
{
    uint32_t i;
    R8_SAFE_ACCESS_SIG = SAFE_ACCESS_SIG1;
200000c6:	400017b7          	lui	a5,0x40001
200000ca:	05700693          	li	a3,87
200000ce:	04d78023          	sb	a3,64(a5) # 40001040 <_eusrstack+0x1fff9040>
E:\tp78_v2\mounriver_project\RF_CH582M\obj/../StdPeriphDriver/CH58x_sys.c:27
    R8_SAFE_ACCESS_SIG = SAFE_ACCESS_SIG2;
200000d2:	fa800713          	li	a4,-88
200000d6:	04e78023          	sb	a4,64(a5)
E:\tp78_v2\mounriver_project\RF_CH582M\obj/../StdPeriphDriver/CH58x_sys.c:28
    SAFEOPERATE;
200000da:	0001                	nop
200000dc:	0001                	nop
E:\tp78_v2\mounriver_project\RF_CH582M\obj/../StdPeriphDriver/CH58x_sys.c:29
    R8_PLL_CONFIG &= ~(1 << 5); //
200000de:	04b7c603          	lbu	a2,75(a5)
200000e2:	0df67613          	andi	a2,a2,223
200000e6:	04c785a3          	sb	a2,75(a5)
E:\tp78_v2\mounriver_project\RF_CH582M\obj/../StdPeriphDriver/CH58x_sys.c:30
    R8_SAFE_ACCESS_SIG = 0;
200000ea:	04078023          	sb	zero,64(a5)
E:\tp78_v2\mounriver_project\RF_CH582M\obj/../StdPeriphDriver/CH58x_sys.c:31
    if(sc & 0x20)
200000ee:	02057613          	andi	a2,a0,32
200000f2:	ce59                	beqz	a2,20000190 <SetSysClock+0xca>
E:\tp78_v2\mounriver_project\RF_CH582M\obj/../StdPeriphDriver/CH58x_sys.c:33
    { // HSE div
        if(!(R8_HFCK_PWR_CTRL & RB_CLK_XT32M_PON))
200000f4:	00a7c603          	lbu	a2,10(a5)
200000f8:	8a11                	andi	a2,a2,4
200000fa:	e21d                	bnez	a2,20000120 <SetSysClock+0x5a>
E:\tp78_v2\mounriver_project\RF_CH582M\obj/../StdPeriphDriver/CH58x_sys.c:35
        {
            R8_SAFE_ACCESS_SIG = SAFE_ACCESS_SIG1;
200000fc:	04d78023          	sb	a3,64(a5)
E:\tp78_v2\mounriver_project\RF_CH582M\obj/../StdPeriphDriver/CH58x_sys.c:36
            R8_SAFE_ACCESS_SIG = SAFE_ACCESS_SIG2;
20000100:	04e78023          	sb	a4,64(a5)
E:\tp78_v2\mounriver_project\RF_CH582M\obj/../StdPeriphDriver/CH58x_sys.c:37
            SAFEOPERATE;
20000104:	0001                	nop
20000106:	0001                	nop
E:\tp78_v2\mounriver_project\RF_CH582M\obj/../StdPeriphDriver/CH58x_sys.c:38
            R8_HFCK_PWR_CTRL |= RB_CLK_XT32M_PON; // HSE power on
20000108:	00a7c703          	lbu	a4,10(a5)
2000010c:	00476713          	ori	a4,a4,4
20000110:	00e78523          	sb	a4,10(a5)
20000114:	4b000793          	li	a5,1200
E:\tp78_v2\mounriver_project\RF_CH582M\obj/../StdPeriphDriver/CH58x_sys.c:41 (discriminator 3)
            for(i = 0; i < 1200; i++)
            {
                __nop();
20000118:	0001                	nop
E:\tp78_v2\mounriver_project\RF_CH582M\obj/../StdPeriphDriver/CH58x_sys.c:42 (discriminator 3)
                __nop();
2000011a:	0001                	nop
2000011c:	17fd                	addi	a5,a5,-1
E:\tp78_v2\mounriver_project\RF_CH582M\obj/../StdPeriphDriver/CH58x_sys.c:39 (discriminator 3)
            for(i = 0; i < 1200; i++)
2000011e:	ffed                	bnez	a5,20000118 <SetSysClock+0x52>
E:\tp78_v2\mounriver_project\RF_CH582M\obj/../StdPeriphDriver/CH58x_sys.c:46
            }
        }

        R8_SAFE_ACCESS_SIG = SAFE_ACCESS_SIG1;
20000120:	400017b7          	lui	a5,0x40001
20000124:	05700693          	li	a3,87
20000128:	04d78023          	sb	a3,64(a5) # 40001040 <_eusrstack+0x1fff9040>
E:\tp78_v2\mounriver_project\RF_CH582M\obj/../StdPeriphDriver/CH58x_sys.c:47
        R8_SAFE_ACCESS_SIG = SAFE_ACCESS_SIG2;
2000012c:	fa800713          	li	a4,-88
20000130:	04e78023          	sb	a4,64(a5)
E:\tp78_v2\mounriver_project\RF_CH582M\obj/../StdPeriphDriver/CH58x_sys.c:48
        SAFEOPERATE;
20000134:	0001                	nop
20000136:	0001                	nop
E:\tp78_v2\mounriver_project\RF_CH582M\obj/../StdPeriphDriver/CH58x_sys.c:49
        R16_CLK_SYS_CFG = (0 << 6) | (sc & 0x1f);
20000138:	897d                	andi	a0,a0,31
2000013a:	00a79423          	sh	a0,8(a5)
E:\tp78_v2\mounriver_project\RF_CH582M\obj/../StdPeriphDriver/CH58x_sys.c:50
        __nop();
2000013e:	0001                	nop
E:\tp78_v2\mounriver_project\RF_CH582M\obj/../StdPeriphDriver/CH58x_sys.c:51
        __nop();
20000140:	0001                	nop
E:\tp78_v2\mounriver_project\RF_CH582M\obj/../StdPeriphDriver/CH58x_sys.c:52
        __nop();
20000142:	0001                	nop
E:\tp78_v2\mounriver_project\RF_CH582M\obj/../StdPeriphDriver/CH58x_sys.c:53
        __nop();
20000144:	0001                	nop
E:\tp78_v2\mounriver_project\RF_CH582M\obj/../StdPeriphDriver/CH58x_sys.c:54
        R8_SAFE_ACCESS_SIG = 0;
20000146:	04078023          	sb	zero,64(a5)
E:\tp78_v2\mounriver_project\RF_CH582M\obj/../StdPeriphDriver/CH58x_sys.c:55
        R8_SAFE_ACCESS_SIG = SAFE_ACCESS_SIG1;
2000014a:	04d78023          	sb	a3,64(a5)
E:\tp78_v2\mounriver_project\RF_CH582M\obj/../StdPeriphDriver/CH58x_sys.c:56
        R8_SAFE_ACCESS_SIG = SAFE_ACCESS_SIG2;
2000014e:	04e78023          	sb	a4,64(a5)
E:\tp78_v2\mounriver_project\RF_CH582M\obj/../StdPeriphDriver/CH58x_sys.c:57
        SAFEOPERATE;
20000152:	0001                	nop
20000154:	0001                	nop
E:\tp78_v2\mounriver_project\RF_CH582M\obj/../StdPeriphDriver/CH58x_sys.c:58
        R8_FLASH_CFG = 0X51;
20000156:	40002737          	lui	a4,0x40002
2000015a:	05100693          	li	a3,81
E:\tp78_v2\mounriver_project\RF_CH582M\obj/../StdPeriphDriver/CH58x_sys.c:90
        if(sc == CLK_SOURCE_PLL_80MHz)
        {
            R8_SAFE_ACCESS_SIG = SAFE_ACCESS_SIG1;
            R8_SAFE_ACCESS_SIG = SAFE_ACCESS_SIG2;
            SAFEOPERATE;
            R8_FLASH_CFG = 0X02;
2000015e:	80d703a3          	sb	a3,-2041(a4) # 40001807 <_eusrstack+0x1fff9807>
E:\tp78_v2\mounriver_project\RF_CH582M\obj/../StdPeriphDriver/CH58x_sys.c:91
            R8_SAFE_ACCESS_SIG = 0;
20000162:	04078023          	sb	zero,64(a5)
E:\tp78_v2\mounriver_project\RF_CH582M\obj/../StdPeriphDriver/CH58x_sys.c:110
        R8_SAFE_ACCESS_SIG = SAFE_ACCESS_SIG2;
        SAFEOPERATE;
        R16_CLK_SYS_CFG |= RB_CLK_SYS_MOD;
    }
    //更改FLASH clk的驱动能力
    R8_SAFE_ACCESS_SIG = SAFE_ACCESS_SIG1;
20000166:	400017b7          	lui	a5,0x40001
2000016a:	05700713          	li	a4,87
2000016e:	04e78023          	sb	a4,64(a5) # 40001040 <_eusrstack+0x1fff9040>
E:\tp78_v2\mounriver_project\RF_CH582M\obj/../StdPeriphDriver/CH58x_sys.c:111
    R8_SAFE_ACCESS_SIG = SAFE_ACCESS_SIG2;
20000172:	fa800713          	li	a4,-88
20000176:	04e78023          	sb	a4,64(a5)
E:\tp78_v2\mounriver_project\RF_CH582M\obj/../StdPeriphDriver/CH58x_sys.c:112
    SAFEOPERATE;
2000017a:	0001                	nop
2000017c:	0001                	nop
E:\tp78_v2\mounriver_project\RF_CH582M\obj/../StdPeriphDriver/CH58x_sys.c:113
    R8_PLL_CONFIG |= 1 << 7;
2000017e:	04b7c703          	lbu	a4,75(a5)
20000182:	08076713          	ori	a4,a4,128
20000186:	04e785a3          	sb	a4,75(a5)
E:\tp78_v2\mounriver_project\RF_CH582M\obj/../StdPeriphDriver/CH58x_sys.c:114
    R8_SAFE_ACCESS_SIG = 0;
2000018a:	04078023          	sb	zero,64(a5)
E:\tp78_v2\mounriver_project\RF_CH582M\obj/../StdPeriphDriver/CH58x_sys.c:115
}
2000018e:	8082                	ret
E:\tp78_v2\mounriver_project\RF_CH582M\obj/../StdPeriphDriver/CH58x_sys.c:62
    else if(sc & 0x40)
20000190:	04057613          	andi	a2,a0,64
20000194:	c641                	beqz	a2,2000021c <SetSysClock+0x156>
E:\tp78_v2\mounriver_project\RF_CH582M\obj/../StdPeriphDriver/CH58x_sys.c:64
        if(!(R8_HFCK_PWR_CTRL & RB_CLK_PLL_PON))
20000196:	00a7c603          	lbu	a2,10(a5)
2000019a:	8a41                	andi	a2,a2,16
2000019c:	e21d                	bnez	a2,200001c2 <SetSysClock+0xfc>
E:\tp78_v2\mounriver_project\RF_CH582M\obj/../StdPeriphDriver/CH58x_sys.c:66
            R8_SAFE_ACCESS_SIG = SAFE_ACCESS_SIG1;
2000019e:	04d78023          	sb	a3,64(a5)
E:\tp78_v2\mounriver_project\RF_CH582M\obj/../StdPeriphDriver/CH58x_sys.c:67
            R8_SAFE_ACCESS_SIG = SAFE_ACCESS_SIG2;
200001a2:	04e78023          	sb	a4,64(a5)
E:\tp78_v2\mounriver_project\RF_CH582M\obj/../StdPeriphDriver/CH58x_sys.c:68
            SAFEOPERATE;
200001a6:	0001                	nop
200001a8:	0001                	nop
E:\tp78_v2\mounriver_project\RF_CH582M\obj/../StdPeriphDriver/CH58x_sys.c:69
            R8_HFCK_PWR_CTRL |= RB_CLK_PLL_PON; // PLL power on
200001aa:	00a7c703          	lbu	a4,10(a5)
200001ae:	01076713          	ori	a4,a4,16
200001b2:	00e78523          	sb	a4,10(a5)
200001b6:	7d000793          	li	a5,2000
E:\tp78_v2\mounriver_project\RF_CH582M\obj/../StdPeriphDriver/CH58x_sys.c:72 (discriminator 3)
                __nop();
200001ba:	0001                	nop
E:\tp78_v2\mounriver_project\RF_CH582M\obj/../StdPeriphDriver/CH58x_sys.c:73 (discriminator 3)
                __nop();
200001bc:	0001                	nop
200001be:	17fd                	addi	a5,a5,-1
E:\tp78_v2\mounriver_project\RF_CH582M\obj/../StdPeriphDriver/CH58x_sys.c:70 (discriminator 3)
            for(i = 0; i < 2000; i++)
200001c0:	ffed                	bnez	a5,200001ba <SetSysClock+0xf4>
E:\tp78_v2\mounriver_project\RF_CH582M\obj/../StdPeriphDriver/CH58x_sys.c:76
        R8_SAFE_ACCESS_SIG = SAFE_ACCESS_SIG1;
200001c2:	400017b7          	lui	a5,0x40001
200001c6:	05700693          	li	a3,87
200001ca:	04d78023          	sb	a3,64(a5) # 40001040 <_eusrstack+0x1fff9040>
E:\tp78_v2\mounriver_project\RF_CH582M\obj/../StdPeriphDriver/CH58x_sys.c:77
        R8_SAFE_ACCESS_SIG = SAFE_ACCESS_SIG2;
200001ce:	fa800713          	li	a4,-88
200001d2:	04e78023          	sb	a4,64(a5)
E:\tp78_v2\mounriver_project\RF_CH582M\obj/../StdPeriphDriver/CH58x_sys.c:78
        SAFEOPERATE;
200001d6:	0001                	nop
200001d8:	0001                	nop
E:\tp78_v2\mounriver_project\RF_CH582M\obj/../StdPeriphDriver/CH58x_sys.c:79
        R16_CLK_SYS_CFG = (1 << 6) | (sc & 0x1f);
200001da:	01f57613          	andi	a2,a0,31
200001de:	04066613          	ori	a2,a2,64
200001e2:	00c79423          	sh	a2,8(a5)
E:\tp78_v2\mounriver_project\RF_CH582M\obj/../StdPeriphDriver/CH58x_sys.c:80
        __nop();
200001e6:	0001                	nop
E:\tp78_v2\mounriver_project\RF_CH582M\obj/../StdPeriphDriver/CH58x_sys.c:81
        __nop();
200001e8:	0001                	nop
E:\tp78_v2\mounriver_project\RF_CH582M\obj/../StdPeriphDriver/CH58x_sys.c:82
        __nop();
200001ea:	0001                	nop
E:\tp78_v2\mounriver_project\RF_CH582M\obj/../StdPeriphDriver/CH58x_sys.c:83
        __nop();
200001ec:	0001                	nop
E:\tp78_v2\mounriver_project\RF_CH582M\obj/../StdPeriphDriver/CH58x_sys.c:84
        R8_SAFE_ACCESS_SIG = 0;
200001ee:	04078023          	sb	zero,64(a5)
E:\tp78_v2\mounriver_project\RF_CH582M\obj/../StdPeriphDriver/CH58x_sys.c:87
            R8_SAFE_ACCESS_SIG = SAFE_ACCESS_SIG1;
200001f2:	04d78023          	sb	a3,64(a5)
E:\tp78_v2\mounriver_project\RF_CH582M\obj/../StdPeriphDriver/CH58x_sys.c:85
        if(sc == CLK_SOURCE_PLL_80MHz)
200001f6:	04600613          	li	a2,70
E:\tp78_v2\mounriver_project\RF_CH582M\obj/../StdPeriphDriver/CH58x_sys.c:88
            R8_SAFE_ACCESS_SIG = SAFE_ACCESS_SIG2;
200001fa:	04e78023          	sb	a4,64(a5)
E:\tp78_v2\mounriver_project\RF_CH582M\obj/../StdPeriphDriver/CH58x_sys.c:85
        if(sc == CLK_SOURCE_PLL_80MHz)
200001fe:	00c51863          	bne	a0,a2,2000020e <SetSysClock+0x148>
E:\tp78_v2\mounriver_project\RF_CH582M\obj/../StdPeriphDriver/CH58x_sys.c:89
            SAFEOPERATE;
20000202:	0001                	nop
20000204:	0001                	nop
E:\tp78_v2\mounriver_project\RF_CH582M\obj/../StdPeriphDriver/CH58x_sys.c:90
            R8_FLASH_CFG = 0X02;
20000206:	40002737          	lui	a4,0x40002
2000020a:	4689                	li	a3,2
2000020c:	bf89                	j	2000015e <SetSysClock+0x98>
E:\tp78_v2\mounriver_project\RF_CH582M\obj/../StdPeriphDriver/CH58x_sys.c:97
            SAFEOPERATE;
2000020e:	0001                	nop
20000210:	0001                	nop
E:\tp78_v2\mounriver_project\RF_CH582M\obj/../StdPeriphDriver/CH58x_sys.c:98
            R8_FLASH_CFG = 0X52;
20000212:	40002737          	lui	a4,0x40002
20000216:	05200693          	li	a3,82
2000021a:	b791                	j	2000015e <SetSysClock+0x98>
E:\tp78_v2\mounriver_project\RF_CH582M\obj/../StdPeriphDriver/CH58x_sys.c:104
        R8_SAFE_ACCESS_SIG = SAFE_ACCESS_SIG1;
2000021c:	04d78023          	sb	a3,64(a5)
E:\tp78_v2\mounriver_project\RF_CH582M\obj/../StdPeriphDriver/CH58x_sys.c:105
        R8_SAFE_ACCESS_SIG = SAFE_ACCESS_SIG2;
20000220:	04e78023          	sb	a4,64(a5)
E:\tp78_v2\mounriver_project\RF_CH582M\obj/../StdPeriphDriver/CH58x_sys.c:106
        SAFEOPERATE;
20000224:	0001                	nop
20000226:	0001                	nop
E:\tp78_v2\mounriver_project\RF_CH582M\obj/../StdPeriphDriver/CH58x_sys.c:107
        R16_CLK_SYS_CFG |= RB_CLK_SYS_MOD;
20000228:	0087d703          	lhu	a4,8(a5)
2000022c:	0c076713          	ori	a4,a4,192
20000230:	00e79423          	sh	a4,8(a5)
20000234:	bf0d                	j	20000166 <SetSysClock+0xa0>

20000236 <SYS_ResetExecute>:
SYS_ResetExecute():
E:\tp78_v2\mounriver_project\RF_CH582M\obj/../StdPeriphDriver/CH58x_sys.c:177
 *
 * @return  none
 */
__HIGH_CODE
void SYS_ResetExecute(void)
{
20000236:	1141                	addi	sp,sp,-16
E:\tp78_v2\mounriver_project\RF_CH582M\obj/../StdPeriphDriver/CH58x_sys.c:178
    FLASH_ROM_SW_RESET();
20000238:	4681                	li	a3,0
2000023a:	4601                	li	a2,0
2000023c:	4581                	li	a1,0
2000023e:	4511                	li	a0,4
E:\tp78_v2\mounriver_project\RF_CH582M\obj/../StdPeriphDriver/CH58x_sys.c:177
{
20000240:	c606                	sw	ra,12(sp)
E:\tp78_v2\mounriver_project\RF_CH582M\obj/../StdPeriphDriver/CH58x_sys.c:178
    FLASH_ROM_SW_RESET();
20000242:	24d9                	jal	20000508 <FLASH_EEPROM_CMD>
E:\tp78_v2\mounriver_project\RF_CH582M\obj/../StdPeriphDriver/CH58x_sys.c:179
    R8_SAFE_ACCESS_SIG = SAFE_ACCESS_SIG1;
20000244:	400017b7          	lui	a5,0x40001
20000248:	05700713          	li	a4,87
2000024c:	04e78023          	sb	a4,64(a5) # 40001040 <_eusrstack+0x1fff9040>
E:\tp78_v2\mounriver_project\RF_CH582M\obj/../StdPeriphDriver/CH58x_sys.c:180
    R8_SAFE_ACCESS_SIG = SAFE_ACCESS_SIG2;
20000250:	fa800713          	li	a4,-88
20000254:	04e78023          	sb	a4,64(a5)
E:\tp78_v2\mounriver_project\RF_CH582M\obj/../StdPeriphDriver/CH58x_sys.c:181
    SAFEOPERATE;
20000258:	0001                	nop
2000025a:	0001                	nop
E:\tp78_v2\mounriver_project\RF_CH582M\obj/../StdPeriphDriver/CH58x_sys.c:182
    R8_RST_WDOG_CTRL |= RB_SOFTWARE_RESET;
2000025c:	0467c703          	lbu	a4,70(a5)
20000260:	00176713          	ori	a4,a4,1
20000264:	04e78323          	sb	a4,70(a5)
E:\tp78_v2\mounriver_project\RF_CH582M\obj/../StdPeriphDriver/CH58x_sys.c:183
    R8_SAFE_ACCESS_SIG = 0;
20000268:	04078023          	sb	zero,64(a5)
E:\tp78_v2\mounriver_project\RF_CH582M\obj/../StdPeriphDriver/CH58x_sys.c:184
}
2000026c:	40b2                	lw	ra,12(sp)
2000026e:	0141                	addi	sp,sp,16
20000270:	8082                	ret

20000272 <HardFault_Handler>:
HardFault_Handler():
E:\tp78_v2\mounriver_project\RF_CH582M\obj/../StdPeriphDriver/CH58x_sys.c:316
__INTERRUPT
__HIGH_CODE
__attribute__((weak))
void HardFault_Handler(void)
{
    FLASH_ROM_SW_RESET();
20000272:	4681                	li	a3,0
20000274:	4601                	li	a2,0
20000276:	4581                	li	a1,0
20000278:	4511                	li	a0,4
2000027a:	2479                	jal	20000508 <FLASH_EEPROM_CMD>
E:\tp78_v2\mounriver_project\RF_CH582M\obj/../StdPeriphDriver/CH58x_sys.c:317
    R8_SAFE_ACCESS_SIG = SAFE_ACCESS_SIG1;
2000027c:	400017b7          	lui	a5,0x40001
20000280:	05700713          	li	a4,87
20000284:	04e78023          	sb	a4,64(a5) # 40001040 <_eusrstack+0x1fff9040>
E:\tp78_v2\mounriver_project\RF_CH582M\obj/../StdPeriphDriver/CH58x_sys.c:318
    R8_SAFE_ACCESS_SIG = SAFE_ACCESS_SIG2;
20000288:	fa800713          	li	a4,-88
2000028c:	04e78023          	sb	a4,64(a5)
E:\tp78_v2\mounriver_project\RF_CH582M\obj/../StdPeriphDriver/CH58x_sys.c:319
    SAFEOPERATE;
20000290:	0001                	nop
20000292:	0001                	nop
E:\tp78_v2\mounriver_project\RF_CH582M\obj/../StdPeriphDriver/CH58x_sys.c:320
    R16_INT32K_TUNE = 0xFFFF;
20000294:	577d                	li	a4,-1
20000296:	02e79623          	sh	a4,44(a5)
E:\tp78_v2\mounriver_project\RF_CH582M\obj/../StdPeriphDriver/CH58x_sys.c:321
    R8_RST_WDOG_CTRL |= RB_SOFTWARE_RESET;
2000029a:	0467c703          	lbu	a4,70(a5)
2000029e:	00176713          	ori	a4,a4,1
200002a2:	04e78323          	sb	a4,70(a5)
E:\tp78_v2\mounriver_project\RF_CH582M\obj/../StdPeriphDriver/CH58x_sys.c:322
    R8_SAFE_ACCESS_SIG = 0;
200002a6:	04078023          	sb	zero,64(a5)
E:\tp78_v2\mounriver_project\RF_CH582M\obj/../StdPeriphDriver/CH58x_sys.c:323 (discriminator 1)
    while(1);
200002aa:	a001                	j	200002aa <HardFault_Handler+0x38>

200002ac <mDelayuS>:
mDelayuS():
E:\tp78_v2\mounriver_project\RF_CH582M\obj/../StdPeriphDriver/CH58x_sys.c:340
__HIGH_CODE
void mDelayuS(uint16_t t)
{
    uint32_t i;
#if(FREQ_SYS == 60000000)
    i = t * 15;
200002ac:	47bd                	li	a5,15
200002ae:	02f50533          	mul	a0,a0,a5
E:\tp78_v2\mounriver_project\RF_CH582M\obj/../StdPeriphDriver/CH58x_sys.c:362 (discriminator 1)
#elif(FREQ_SYS == 1000000)
    i = t >> 2;
#endif
    do
    {
        __nop();
200002b2:	0001                	nop
E:\tp78_v2\mounriver_project\RF_CH582M\obj/../StdPeriphDriver/CH58x_sys.c:363 (discriminator 1)
    } while(--i);
200002b4:	157d                	addi	a0,a0,-1
200002b6:	fd75                	bnez	a0,200002b2 <mDelayuS+0x6>
E:\tp78_v2\mounriver_project\RF_CH582M\obj/../StdPeriphDriver/CH58x_sys.c:364
}
200002b8:	8082                	ret

200002ba <mDelaymS>:
mDelaymS():
E:\tp78_v2\mounriver_project\RF_CH582M\obj/../StdPeriphDriver/CH58x_sys.c:377
 *
 * @return  none
 */
__HIGH_CODE
void mDelaymS(uint16_t t)
{
200002ba:	1141                	addi	sp,sp,-16
200002bc:	c422                	sw	s0,8(sp)
200002be:	c226                	sw	s1,4(sp)
200002c0:	c606                	sw	ra,12(sp)
200002c2:	84aa                	mv	s1,a0
E:\tp78_v2\mounriver_project\RF_CH582M\obj/../StdPeriphDriver/CH58x_sys.c:380
    uint16_t i;

    for(i = 0; i < t; i++)
200002c4:	4401                	li	s0,0
E:\tp78_v2\mounriver_project\RF_CH582M\obj/../StdPeriphDriver/CH58x_sys.c:380 (discriminator 1)
200002c6:	00941763          	bne	s0,s1,200002d4 <mDelaymS+0x1a>
E:\tp78_v2\mounriver_project\RF_CH582M\obj/../StdPeriphDriver/CH58x_sys.c:384
    {
        mDelayuS(1000);
    }
}
200002ca:	40b2                	lw	ra,12(sp)
200002cc:	4422                	lw	s0,8(sp)
200002ce:	4492                	lw	s1,4(sp)
200002d0:	0141                	addi	sp,sp,16
200002d2:	8082                	ret
E:\tp78_v2\mounriver_project\RF_CH582M\obj/../StdPeriphDriver/CH58x_sys.c:380 (discriminator 3)
    for(i = 0; i < t; i++)
200002d4:	0405                	addi	s0,s0,1
E:\tp78_v2\mounriver_project\RF_CH582M\obj/../StdPeriphDriver/CH58x_sys.c:382 (discriminator 3)
        mDelayuS(1000);
200002d6:	3e800513          	li	a0,1000
E:\tp78_v2\mounriver_project\RF_CH582M\obj/../StdPeriphDriver/CH58x_sys.c:380 (discriminator 3)
    for(i = 0; i < t; i++)
200002da:	0442                	slli	s0,s0,0x10
E:\tp78_v2\mounriver_project\RF_CH582M\obj/../StdPeriphDriver/CH58x_sys.c:382 (discriminator 3)
        mDelayuS(1000);
200002dc:	3fc1                	jal	200002ac <mDelayuS>
E:\tp78_v2\mounriver_project\RF_CH582M\obj/../StdPeriphDriver/CH58x_sys.c:380 (discriminator 3)
    for(i = 0; i < t; i++)
200002de:	8041                	srli	s0,s0,0x10
200002e0:	b7dd                	j	200002c6 <mDelaymS+0xc>

200002e2 <APPJumpBoot>:
APPJumpBoot():
E:\tp78_v2\mounriver_project\RF_CH582M\obj/../HAL/ISP.c:16
#include "HAL.h"
#include "config.h"

__HIGH_CODE
void APPJumpBoot(void)   //此段代码必须运行在RAM中
{
200002e2:	1141                	addi	sp,sp,-16
200002e4:	c606                	sw	ra,12(sp)
E:\tp78_v2\mounriver_project\RF_CH582M\obj/../HAL/ISP.c:17 (discriminator 1)
  while(FLASH_ROM_ERASE(0, EEPROM_BLOCK_SIZE))
200002e6:	6685                	lui	a3,0x1
200002e8:	4601                	li	a2,0
200002ea:	4581                	li	a1,0
200002ec:	4505                	li	a0,1
200002ee:	2c29                	jal	20000508 <FLASH_EEPROM_CMD>
200002f0:	f97d                	bnez	a0,200002e6 <APPJumpBoot+0x4>
E:\tp78_v2\mounriver_project\RF_CH582M\obj/../HAL/ISP.c:21
  {
    ;//ROM 擦4K1个单位，擦0地址起始
  }
  FLASH_ROM_SW_RESET();
200002f2:	4681                	li	a3,0
200002f4:	4601                	li	a2,0
200002f6:	4581                	li	a1,0
200002f8:	4511                	li	a0,4
200002fa:	2439                	jal	20000508 <FLASH_EEPROM_CMD>
E:\tp78_v2\mounriver_project\RF_CH582M\obj/../HAL/ISP.c:22
  R8_SAFE_ACCESS_SIG = SAFE_ACCESS_SIG1;
200002fc:	400017b7          	lui	a5,0x40001
20000300:	05700713          	li	a4,87
20000304:	04e78023          	sb	a4,64(a5) # 40001040 <_eusrstack+0x1fff9040>
E:\tp78_v2\mounriver_project\RF_CH582M\obj/../HAL/ISP.c:23
  R8_SAFE_ACCESS_SIG = SAFE_ACCESS_SIG2;  //安全访问模式
20000308:	fa800713          	li	a4,-88
2000030c:	04e78023          	sb	a4,64(a5)
E:\tp78_v2\mounriver_project\RF_CH582M\obj/../HAL/ISP.c:24
  SAFEOPERATE;
20000310:	0001                	nop
20000312:	0001                	nop
E:\tp78_v2\mounriver_project\RF_CH582M\obj/../HAL/ISP.c:25
  R16_INT32K_TUNE = 0xFFFF;
20000314:	577d                	li	a4,-1
20000316:	02e79623          	sh	a4,44(a5)
E:\tp78_v2\mounriver_project\RF_CH582M\obj/../HAL/ISP.c:26
  R8_RST_WDOG_CTRL |= RB_SOFTWARE_RESET;
2000031a:	0467c703          	lbu	a4,70(a5)
2000031e:	00176713          	ori	a4,a4,1
20000322:	04e78323          	sb	a4,70(a5)
E:\tp78_v2\mounriver_project\RF_CH582M\obj/../HAL/ISP.c:27
  R8_SAFE_ACCESS_SIG = 0;//进入后执行复位，复位类型为上电复位
20000326:	04078023          	sb	zero,64(a5)
E:\tp78_v2\mounriver_project\RF_CH582M\obj/../HAL/ISP.c:28 (discriminator 1)
  while(1);//营造空片的现象，启动时就会停在BOOT，等烧写，超时时间10s
2000032a:	a001                	j	2000032a <APPJumpBoot+0x48>

2000032c <SoftReset>:
SoftReset():
E:\tp78_v2\mounriver_project\RF_CH582M\obj/../HAL/ISP.c:34
}

__HIGH_CODE
void SoftReset(void)   //软件复位
{
  R8_SAFE_ACCESS_SIG = SAFE_ACCESS_SIG1;
2000032c:	400017b7          	lui	a5,0x40001
20000330:	05700713          	li	a4,87
20000334:	04e78023          	sb	a4,64(a5) # 40001040 <_eusrstack+0x1fff9040>
E:\tp78_v2\mounriver_project\RF_CH582M\obj/../HAL/ISP.c:35
  R8_SAFE_ACCESS_SIG = SAFE_ACCESS_SIG2;  //安全访问模式
20000338:	fa800713          	li	a4,-88
2000033c:	04e78023          	sb	a4,64(a5)
E:\tp78_v2\mounriver_project\RF_CH582M\obj/../HAL/ISP.c:36
  SAFEOPERATE;
20000340:	0001                	nop
20000342:	0001                	nop
E:\tp78_v2\mounriver_project\RF_CH582M\obj/../HAL/ISP.c:37
  R16_INT32K_TUNE = 0xFFFF;
20000344:	577d                	li	a4,-1
20000346:	02e79623          	sh	a4,44(a5)
E:\tp78_v2\mounriver_project\RF_CH582M\obj/../HAL/ISP.c:38
  R8_RST_WDOG_CTRL |= RB_SOFTWARE_RESET;
2000034a:	0467c703          	lbu	a4,70(a5)
2000034e:	00176713          	ori	a4,a4,1
20000352:	04e78323          	sb	a4,70(a5)
E:\tp78_v2\mounriver_project\RF_CH582M\obj/../HAL/ISP.c:39
  R8_SAFE_ACCESS_SIG = 0;
20000356:	04078023          	sb	zero,64(a5)
E:\tp78_v2\mounriver_project\RF_CH582M\obj/../HAL/ISP.c:40 (discriminator 1)
  while(1);
2000035a:	a001                	j	2000035a <SoftReset+0x2e>

2000035c <RTC_IRQHandler>:
RTC_IRQHandler():
E:\tp78_v2\mounriver_project\RF_CH582M\obj/../HAL/RTC.c:58
 */
__INTERRUPT
__HIGH_CODE
void RTC_IRQHandler(void)
{
    R8_RTC_FLAG_CTRL = (RB_RTC_TMR_CLR | RB_RTC_TRIG_CLR);
2000035c:	400017b7          	lui	a5,0x40001
20000360:	03000713          	li	a4,48
20000364:	02e78823          	sb	a4,48(a5) # 40001030 <_eusrstack+0x1fff9030>
E:\tp78_v2\mounriver_project\RF_CH582M\obj/../HAL/RTC.c:59
    RTCTigFlag = 1;
20000368:	4785                	li	a5,1
2000036a:	86f1a023          	sw	a5,-1952(gp) # 20001878 <RTCTigFlag>
E:\tp78_v2\mounriver_project\RF_CH582M\obj/../HAL/RTC.c:60
}
2000036e:	30200073          	mret

20000372 <USB_IRQHandler>:
USB_IRQHandler():
E:\tp78_v2\mounriver_project\RF_CH582M\obj/../HAL/USB.c:551

__INTERRUPT
__HIGH_CODE
void USB_IRQHandler( void )     //USB中断服务程序,使用寄存器组1
{
    USB_DevTransProcess();
20000372:	e0002097          	auipc	ra,0xe0002
20000376:	37e080e7          	jalr	894(ra) # 26f0 <USB_DevTransProcess>
E:\tp78_v2\mounriver_project\RF_CH582M\obj/../HAL/USB.c:552
}
2000037a:	30200073          	mret

2000037e <TMR0_IRQHandler>:
TMR0_IRQHandler():
E:\tp78_v2\mounriver_project\RF_CH582M\obj/../APP/RF_PHY.c:241
__INTERRUPT
__HIGH_CODE
void TMR0_IRQHandler(void)
{
  /*!< Timer 0 IRQ */
  if (TMR0_GetITFlag(TMR0_3_IT_CYC_END)) {
2000037e:	40002737          	lui	a4,0x40002
20000382:	00674783          	lbu	a5,6(a4) # 40002006 <_eusrstack+0x1fffa006>
20000386:	8b85                	andi	a5,a5,1
20000388:	cbc5                	beqz	a5,20000438 <TMR0_IRQHandler+0xba>
E:\tp78_v2\mounriver_project\RF_CH582M\obj/../APP/RF_PHY.c:243
    /*!< Clear Pending flag */
    TMR0_ClearITFlag(TMR0_3_IT_CYC_END);
2000038a:	4785                	li	a5,1
2000038c:	00f70323          	sb	a5,6(a4)
E:\tp78_v2\mounriver_project\RF_CH582M\obj/../APP/RF_PHY.c:246

    /*!< Updata the ms count */
    if (heartbeat_cnt >= HEARTBEAT_CNT_MAX) {
20000390:	80c18793          	addi	a5,gp,-2036 # 20001824 <heartbeat_cnt>
20000394:	439c                	lw	a5,0(a5)
20000396:	474d                	li	a4,19
20000398:	0af77263          	bgeu	a4,a5,2000043c <TMR0_IRQHandler+0xbe>
E:\tp78_v2\mounriver_project\RF_CH582M\obj/../APP/RF_PHY.c:248
        heartbeat_cnt = 0;
        tmos_memset(&HID_dat, 0, sizeof(HID_dat));
2000039c:	4625                	li	a2,9
2000039e:	4581                	li	a1,0
200003a0:	9b018513          	addi	a0,gp,-1616 # 200019c8 <HID_dat>
E:\tp78_v2\mounriver_project\RF_CH582M\obj/../APP/RF_PHY.c:247
        heartbeat_cnt = 0;
200003a4:	8001a623          	sw	zero,-2036(gp) # 20001824 <heartbeat_cnt>
E:\tp78_v2\mounriver_project\RF_CH582M\obj/../APP/RF_PHY.c:248
        tmos_memset(&HID_dat, 0, sizeof(HID_dat));
200003a8:	2309                	jal	200008aa <tmos_memset>
E:\tp78_v2\mounriver_project\RF_CH582M\obj/../APP/RF_PHY.c:249
        if (lastevent[0] == TRUE) {
200003aa:	8101c703          	lbu	a4,-2032(gp) # 20001828 <lastevent>
200003ae:	4785                	li	a5,1
200003b0:	00f71d63          	bne	a4,a5,200003ca <TMR0_IRQHandler+0x4c>
E:\tp78_v2\mounriver_project\RF_CH582M\obj/../APP/RF_PHY.c:251
            lastevent[0] = FALSE;
            tmos_set_event(usbTaskID, USB_MOUSE_EVENT);
200003b4:	4585                	li	a1,1
200003b6:	00001517          	auipc	a0,0x1
200003ba:	46254503          	lbu	a0,1122(a0) # 20001818 <usbTaskID>
E:\tp78_v2\mounriver_project\RF_CH582M\obj/../APP/RF_PHY.c:250
            lastevent[0] = FALSE;
200003be:	80018823          	sb	zero,-2032(gp) # 20001828 <lastevent>
E:\tp78_v2\mounriver_project\RF_CH582M\obj/../APP/RF_PHY.c:251
            tmos_set_event(usbTaskID, USB_MOUSE_EVENT);
200003c2:	e0003097          	auipc	ra,0xe0003
200003c6:	d3e080e7          	jalr	-706(ra) # 3100 <tmos_set_event>
E:\tp78_v2\mounriver_project\RF_CH582M\obj/../APP/RF_PHY.c:253
        }
        if (lastevent[1] == TRUE) {
200003ca:	8111c703          	lbu	a4,-2031(gp) # 20001829 <lastevent+0x1>
200003ce:	4785                	li	a5,1
200003d0:	00f71d63          	bne	a4,a5,200003ea <TMR0_IRQHandler+0x6c>
E:\tp78_v2\mounriver_project\RF_CH582M\obj/../APP/RF_PHY.c:255
            lastevent[1] = FALSE;
            tmos_set_event(usbTaskID, USB_KEYBOARD_EVENT);
200003d4:	4589                	li	a1,2
200003d6:	00001517          	auipc	a0,0x1
200003da:	44254503          	lbu	a0,1090(a0) # 20001818 <usbTaskID>
E:\tp78_v2\mounriver_project\RF_CH582M\obj/../APP/RF_PHY.c:254
            lastevent[1] = FALSE;
200003de:	800188a3          	sb	zero,-2031(gp) # 20001829 <lastevent+0x1>
E:\tp78_v2\mounriver_project\RF_CH582M\obj/../APP/RF_PHY.c:255
            tmos_set_event(usbTaskID, USB_KEYBOARD_EVENT);
200003e2:	e0003097          	auipc	ra,0xe0003
200003e6:	d1e080e7          	jalr	-738(ra) # 3100 <tmos_set_event>
E:\tp78_v2\mounriver_project\RF_CH582M\obj/../APP/RF_PHY.c:257
        }
        if (lastevent[2] == TRUE) {
200003ea:	8121c703          	lbu	a4,-2030(gp) # 2000182a <lastevent+0x2>
200003ee:	4785                	li	a5,1
200003f0:	00f71d63          	bne	a4,a5,2000040a <TMR0_IRQHandler+0x8c>
E:\tp78_v2\mounriver_project\RF_CH582M\obj/../APP/RF_PHY.c:259
            lastevent[2] = FALSE;
            tmos_set_event(usbTaskID, USB_VOL_EVENT);
200003f4:	4591                	li	a1,4
200003f6:	00001517          	auipc	a0,0x1
200003fa:	42254503          	lbu	a0,1058(a0) # 20001818 <usbTaskID>
E:\tp78_v2\mounriver_project\RF_CH582M\obj/../APP/RF_PHY.c:258
            lastevent[2] = FALSE;
200003fe:	80018923          	sb	zero,-2030(gp) # 2000182a <lastevent+0x2>
E:\tp78_v2\mounriver_project\RF_CH582M\obj/../APP/RF_PHY.c:259
            tmos_set_event(usbTaskID, USB_VOL_EVENT);
20000402:	e0003097          	auipc	ra,0xe0003
20000406:	cfe080e7          	jalr	-770(ra) # 3100 <tmos_set_event>
E:\tp78_v2\mounriver_project\RF_CH582M\obj/../APP/RF_PHY.c:263
        }
    } else heartbeat_cnt++;
    /*!< Set timing time 1ms */
    R32_TMR0_CNT_END = GetSysClock() / 1000;
2000040a:	e0002097          	auipc	ra,0xe0002
2000040e:	9be080e7          	jalr	-1602(ra) # 1dc8 <GetSysClock>
20000412:	3e800793          	li	a5,1000
20000416:	02f55533          	divu	a0,a0,a5
2000041a:	400027b7          	lui	a5,0x40002
E:\tp78_v2\mounriver_project\RF_CH582M\obj/../APP/RF_PHY.c:264
    R8_TMR0_CTRL_MOD = RB_TMR_ALL_CLEAR;
2000041e:	4709                	li	a4,2
E:\tp78_v2\mounriver_project\RF_CH582M\obj/../APP/RF_PHY.c:263
    R32_TMR0_CNT_END = GetSysClock() / 1000;
20000420:	c7c8                	sw	a0,12(a5)
E:\tp78_v2\mounriver_project\RF_CH582M\obj/../APP/RF_PHY.c:264
    R8_TMR0_CTRL_MOD = RB_TMR_ALL_CLEAR;
20000422:	00e78023          	sb	a4,0(a5) # 40002000 <_eusrstack+0x1fffa000>
E:\tp78_v2\mounriver_project\RF_CH582M\obj/../APP/RF_PHY.c:265
    R8_TMR0_CTRL_MOD = RB_TMR_COUNT_EN;
20000426:	4711                	li	a4,4
20000428:	00e78023          	sb	a4,0(a5)
E:\tp78_v2\mounriver_project\RF_CH582M\obj/../APP/RF_PHY.c:268

    /*!< Enable interrupt */
    TMR0_ITCfg(ENABLE, TMR0_3_IT_CYC_END);
2000042c:	0027c703          	lbu	a4,2(a5)
20000430:	00176713          	ori	a4,a4,1
20000434:	00e78123          	sb	a4,2(a5)
E:\tp78_v2\mounriver_project\RF_CH582M\obj/../APP/RF_PHY.c:270
  }
}
20000438:	30200073          	mret
E:\tp78_v2\mounriver_project\RF_CH582M\obj/../APP/RF_PHY.c:261
    } else heartbeat_cnt++;
2000043c:	0785                	addi	a5,a5,1
2000043e:	80f1a623          	sw	a5,-2036(gp) # 20001824 <heartbeat_cnt>
20000442:	b7e1                	j	2000040a <TMR0_IRQHandler+0x8c>

20000444 <Main_Circulation>:
Main_Circulation():
E:\tp78_v2\mounriver_project\RF_CH582M\obj/../APP/RF_main.c:41
 * @return  none
 */
__HIGH_CODE
__attribute__((noinline))
void Main_Circulation()
{
20000444:	1141                	addi	sp,sp,-16
20000446:	c606                	sw	ra,12(sp)
E:\tp78_v2\mounriver_project\RF_CH582M\obj/../APP/RF_main.c:44 (discriminator 1)
    while(1)
    {
        TMOS_SystemProcess();
20000448:	2d85                	jal	20000ab8 <TMOS_SystemProcess>
2000044a:	bffd                	j	20000448 <Main_Circulation+0x4>

2000044c <FLASH_ROM_BEG>:
FLASH_ROM_BEG():
2000044c:	80040323          	sb	zero,-2042(s0)
20000450:	4715                	li	a4,5
20000452:	80e40323          	sb	a4,-2042(s0)
20000456:	0001                	nop
20000458:	80a40223          	sb	a0,-2044(s0)
2000045c:	8082                	ret

2000045e <FLASH_ROM_END>:
FLASH_ROM_END():
2000045e:	80640783          	lb	a5,-2042(s0)
20000462:	fe07cee3          	bltz	a5,2000045e <FLASH_ROM_END>
20000466:	80040323          	sb	zero,-2042(s0)
2000046a:	8082                	ret

2000046c <FLASH_ROM_IN>:
FLASH_ROM_IN():
2000046c:	80640783          	lb	a5,-2042(s0)
20000470:	fe07cee3          	bltz	a5,2000046c <FLASH_ROM_IN>
20000474:	80444503          	lbu	a0,-2044(s0)
20000478:	8082                	ret

2000047a <FLASH_ROM_OUT>:
FLASH_ROM_OUT():
2000047a:	80640783          	lb	a5,-2042(s0)
2000047e:	fe07cee3          	bltz	a5,2000047a <FLASH_ROM_OUT>
20000482:	80a40223          	sb	a0,-2044(s0)
20000486:	8082                	ret

20000488 <FLASH_ROM_ADDR>:
FLASH_ROM_ADDR():
20000488:	1141                	addi	sp,sp,-16
2000048a:	c426                	sw	s1,8(sp)
2000048c:	c24a                	sw	s2,4(sp)
2000048e:	c04e                	sw	s3,0(sp)
20000490:	c606                	sw	ra,12(sp)
20000492:	0bf57713          	andi	a4,a0,191
20000496:	47ad                	li	a5,11
20000498:	89aa                	mv	s3,a0
2000049a:	892e                	mv	s2,a1
2000049c:	4495                	li	s1,5
2000049e:	00f70663          	beq	a4,a5,200004aa <FLASH_ROM_ADDR+0x22>
200004a2:	4519                	li	a0,6
200004a4:	3765                	jal	2000044c <FLASH_ROM_BEG>
200004a6:	3f65                	jal	2000045e <FLASH_ROM_END>
200004a8:	448d                	li	s1,3
200004aa:	854e                	mv	a0,s3
200004ac:	3745                	jal	2000044c <FLASH_ROM_BEG>
200004ae:	59fd                	li	s3,-1
200004b0:	14fd                	addi	s1,s1,-1
200004b2:	01349863          	bne	s1,s3,200004c2 <FLASH_ROM_ADDR+0x3a>
200004b6:	40b2                	lw	ra,12(sp)
200004b8:	44a2                	lw	s1,8(sp)
200004ba:	4912                	lw	s2,4(sp)
200004bc:	4982                	lw	s3,0(sp)
200004be:	0141                	addi	sp,sp,16
200004c0:	8082                	ret
200004c2:	01095513          	srli	a0,s2,0x10
200004c6:	0ff57513          	andi	a0,a0,255
200004ca:	3f45                	jal	2000047a <FLASH_ROM_OUT>
200004cc:	0922                	slli	s2,s2,0x8
200004ce:	b7cd                	j	200004b0 <FLASH_ROM_ADDR+0x28>

200004d0 <FLASH_ROM_WAIT>:
FLASH_ROM_WAIT():
200004d0:	1101                	addi	sp,sp,-32
200004d2:	cc26                	sw	s1,24(sp)
200004d4:	ce06                	sw	ra,28(sp)
200004d6:	000804b7          	lui	s1,0x80
200004da:	3751                	jal	2000045e <FLASH_ROM_END>
200004dc:	4515                	li	a0,5
200004de:	37bd                	jal	2000044c <FLASH_ROM_BEG>
200004e0:	3771                	jal	2000046c <FLASH_ROM_IN>
200004e2:	3769                	jal	2000046c <FLASH_ROM_IN>
200004e4:	c62a                	sw	a0,12(sp)
200004e6:	3fa5                	jal	2000045e <FLASH_ROM_END>
200004e8:	4532                	lw	a0,12(sp)
200004ea:	00157793          	andi	a5,a0,1
200004ee:	eb89                	bnez	a5,20000500 <FLASH_ROM_WAIT+0x30>
200004f0:	00156513          	ori	a0,a0,1
200004f4:	0ff57513          	andi	a0,a0,255
200004f8:	40f2                	lw	ra,28(sp)
200004fa:	44e2                	lw	s1,24(sp)
200004fc:	6105                	addi	sp,sp,32
200004fe:	8082                	ret
20000500:	14fd                	addi	s1,s1,-1
20000502:	fce9                	bnez	s1,200004dc <FLASH_ROM_WAIT+0xc>
20000504:	4501                	li	a0,0
20000506:	bfcd                	j	200004f8 <FLASH_ROM_WAIT+0x28>

20000508 <FLASH_EEPROM_CMD>:
FLASH_EEPROM_CMD():
20000508:	7139                	addi	sp,sp,-64
2000050a:	dc26                	sw	s1,56(sp)
2000050c:	da4a                	sw	s2,52(sp)
2000050e:	d84e                	sw	s3,48(sp)
20000510:	d652                	sw	s4,44(sp)
20000512:	d456                	sw	s5,40(sp)
20000514:	d25a                	sw	s6,36(sp)
20000516:	d05e                	sw	s7,32(sp)
20000518:	de06                	sw	ra,60(sp)
2000051a:	ce62                	sw	s8,28(sp)
2000051c:	cc66                	sw	s9,24(sp)
2000051e:	e000e7b7          	lui	a5,0xe000e
20000522:	577d                	li	a4,-1
20000524:	0007aa83          	lw	s5,0(a5) # e000e000 <_eusrstack+0xc0006000>
20000528:	c622                	sw	s0,12(sp)
2000052a:	0047aa03          	lw	s4,4(a5)
2000052e:	18e7a023          	sw	a4,384(a5)
20000532:	18e7a223          	sw	a4,388(a5)
20000536:	400017b7          	lui	a5,0x40001
2000053a:	05700713          	li	a4,87
2000053e:	04e78023          	sb	a4,64(a5) # 40001040 <_eusrstack+0x1fff9040>
20000542:	fa800713          	li	a4,-88
20000546:	04e78023          	sb	a4,64(a5)
2000054a:	0447c783          	lbu	a5,68(a5)
2000054e:	ff750b93          	addi	s7,a0,-9
20000552:	84b6                	mv	s1,a3
20000554:	07e2                	slli	a5,a5,0x18
20000556:	0ffbfb93          	andi	s7,s7,255
2000055a:	4685                	li	a3,1
2000055c:	89aa                	mv	s3,a0
2000055e:	8b2e                	mv	s6,a1
20000560:	8932                	mv	s2,a2
20000562:	40002437          	lui	s0,0x40002
20000566:	87e1                	srai	a5,a5,0x18
20000568:	5701                	li	a4,-32
2000056a:	0176fa63          	bgeu	a3,s7,2000057e <FLASH_EEPROM_CMD+0x76>
2000056e:	00d50863          	beq	a0,a3,2000057e <FLASH_EEPROM_CMD+0x76>
20000572:	4689                	li	a3,2
20000574:	02000713          	li	a4,32
20000578:	00d51363          	bne	a0,a3,2000057e <FLASH_EEPROM_CMD+0x76>
2000057c:	5701                	li	a4,-32
2000057e:	8fd9                	or	a5,a5,a4
20000580:	0ff7f793          	andi	a5,a5,255
20000584:	40001cb7          	lui	s9,0x40001
20000588:	04fc8223          	sb	a5,68(s9) # 40001044 <_eusrstack+0x1fff9044>
2000058c:	4711                	li	a4,4
2000058e:	80e40323          	sb	a4,-2042(s0) # 40001806 <_eusrstack+0x1fff9806>
20000592:	0ff00513          	li	a0,255
20000596:	3d5d                	jal	2000044c <FLASH_ROM_BEG>
20000598:	4c09                	li	s8,2
2000059a:	35d1                	jal	2000045e <FLASH_ROM_END>
2000059c:	117c6d63          	bltu	s8,s7,200006b6 <FLASH_EEPROM_CMD+0x1ae>
200005a0:	000705b7          	lui	a1,0x70
200005a4:	95da                	add	a1,a1,s6
200005a6:	00078737          	lui	a4,0x78
200005aa:	5579                	li	a0,-2
200005ac:	04e5f263          	bgeu	a1,a4,200005f0 <FLASH_EEPROM_CMD+0xe8>
200005b0:	009587b3          	add	a5,a1,s1
200005b4:	02f76e63          	bltu	a4,a5,200005f0 <FLASH_EEPROM_CMD+0xe8>
200005b8:	00080b37          	lui	s6,0x80
200005bc:	47a9                	li	a5,10
200005be:	0165eb33          	or	s6,a1,s6
200005c2:	06f99963          	bne	s3,a5,20000634 <FLASH_EEPROM_CMD+0x12c>
200005c6:	e489                	bnez	s1,200005d0 <FLASH_EEPROM_CMD+0xc8>
200005c8:	4481                	li	s1,0
200005ca:	3d51                	jal	2000045e <FLASH_ROM_END>
200005cc:	8526                	mv	a0,s1
200005ce:	a00d                	j	200005f0 <FLASH_EEPROM_CMD+0xe8>
200005d0:	85da                	mv	a1,s6
200005d2:	4509                	li	a0,2
200005d4:	3d55                	jal	20000488 <FLASH_ROM_ADDR>
200005d6:	0905                	addi	s2,s2,1
200005d8:	fff94503          	lbu	a0,-1(s2)
200005dc:	14fd                	addi	s1,s1,-1
200005de:	0b05                	addi	s6,s6,1
200005e0:	3d69                	jal	2000047a <FLASH_ROM_OUT>
200005e2:	c481                	beqz	s1,200005ea <FLASH_EEPROM_CMD+0xe2>
200005e4:	0ffb7793          	andi	a5,s6,255
200005e8:	f7fd                	bnez	a5,200005d6 <FLASH_EEPROM_CMD+0xce>
200005ea:	35dd                	jal	200004d0 <FLASH_ROM_WAIT>
200005ec:	fd69                	bnez	a0,200005c6 <FLASH_EEPROM_CMD+0xbe>
200005ee:	557d                	li	a0,-1
200005f0:	400017b7          	lui	a5,0x40001
200005f4:	05700713          	li	a4,87
200005f8:	04e78023          	sb	a4,64(a5) # 40001040 <_eusrstack+0x1fff9040>
200005fc:	fa800713          	li	a4,-88
20000600:	04e78023          	sb	a4,64(a5)
20000604:	0447c703          	lbu	a4,68(a5)
20000608:	8b41                	andi	a4,a4,16
2000060a:	04e78223          	sb	a4,68(a5)
2000060e:	50f2                	lw	ra,60(sp)
20000610:	e000e7b7          	lui	a5,0xe000e
20000614:	1157a023          	sw	s5,256(a5) # e000e100 <_eusrstack+0xc0006100>
20000618:	1147a223          	sw	s4,260(a5)
2000061c:	54e2                	lw	s1,56(sp)
2000061e:	4432                	lw	s0,12(sp)
20000620:	5952                	lw	s2,52(sp)
20000622:	59c2                	lw	s3,48(sp)
20000624:	5a32                	lw	s4,44(sp)
20000626:	5aa2                	lw	s5,40(sp)
20000628:	5b12                	lw	s6,36(sp)
2000062a:	5b82                	lw	s7,32(sp)
2000062c:	4c72                	lw	s8,28(sp)
2000062e:	4ce2                	lw	s9,24(sp)
20000630:	6121                	addi	sp,sp,64
20000632:	8082                	ret
20000634:	47a5                	li	a5,9
20000636:	06f99563          	bne	s3,a5,200006a0 <FLASH_EEPROM_CMD+0x198>
2000063a:	6985                	lui	s3,0x1
2000063c:	0ff00913          	li	s2,255
20000640:	009906b3          	add	a3,s2,s1
20000644:	012b74b3          	and	s1,s6,s2
20000648:	94b6                	add	s1,s1,a3
2000064a:	fff94913          	not	s2,s2
2000064e:	009974b3          	and	s1,s2,s1
20000652:	6b85                	lui	s7,0x1
20000654:	01697933          	and	s2,s2,s6
20000658:	6b41                	lui	s6,0x10
2000065a:	fff98793          	addi	a5,s3,-1 # fff <_einit+0xffb>
2000065e:	0127f7b3          	and	a5,a5,s2
20000662:	e399                	bnez	a5,20000668 <FLASH_EEPROM_CMD+0x160>
20000664:	0134fc63          	bgeu	s1,s3,2000067c <FLASH_EEPROM_CMD+0x174>
20000668:	0049d993          	srli	s3,s3,0x4
2000066c:	47c1                	li	a5,16
2000066e:	ff37e6e3          	bltu	a5,s3,2000065a <FLASH_EEPROM_CMD+0x152>
20000672:	bf99                	j	200005c8 <FLASH_EEPROM_CMD+0xc0>
20000674:	6905                	lui	s2,0x1
20000676:	69c1                	lui	s3,0x10
20000678:	197d                	addi	s2,s2,-1
2000067a:	b7d9                	j	20000640 <FLASH_EEPROM_CMD+0x138>
2000067c:	0d800513          	li	a0,216
20000680:	01698863          	beq	s3,s6,20000690 <FLASH_EEPROM_CMD+0x188>
20000684:	02000513          	li	a0,32
20000688:	01798463          	beq	s3,s7,20000690 <FLASH_EEPROM_CMD+0x188>
2000068c:	08100513          	li	a0,129
20000690:	85ca                	mv	a1,s2
20000692:	3bdd                	jal	20000488 <FLASH_ROM_ADDR>
20000694:	3d35                	jal	200004d0 <FLASH_ROM_WAIT>
20000696:	dd21                	beqz	a0,200005ee <FLASH_EEPROM_CMD+0xe6>
20000698:	994e                	add	s2,s2,s3
2000069a:	413484b3          	sub	s1,s1,s3
2000069e:	b7d9                	j	20000664 <FLASH_EEPROM_CMD+0x15c>
200006a0:	85da                	mv	a1,s6
200006a2:	452d                	li	a0,11
200006a4:	33d5                	jal	20000488 <FLASH_ROM_ADDR>
200006a6:	94ca                	add	s1,s1,s2
200006a8:	f29900e3          	beq	s2,s1,200005c8 <FLASH_EEPROM_CMD+0xc0>
200006ac:	0905                	addi	s2,s2,1
200006ae:	3b7d                	jal	2000046c <FLASH_ROM_IN>
200006b0:	fea90fa3          	sb	a0,-1(s2) # fff <_einit+0xffb>
200006b4:	bfd5                	j	200006a8 <FLASH_EEPROM_CMD+0x1a0>
200006b6:	fff98793          	addi	a5,s3,-1 # ffff <_data_lma+0x9987>
200006ba:	0ff7f793          	andi	a5,a5,255
200006be:	0cfc6163          	bltu	s8,a5,20000780 <.loop402+0x7a>
200006c2:	041cc783          	lbu	a5,65(s9)
200006c6:	08300713          	li	a4,131
200006ca:	04f71f63          	bne	a4,a5,20000728 <.loop402+0x22>
200006ce:	00080737          	lui	a4,0x80
200006d2:	04eb6b63          	bltu	s6,a4,20000728 <.loop402+0x22>
200006d6:	009b07b3          	add	a5,s6,s1
200006da:	001006b7          	lui	a3,0x100
200006de:	04d7f563          	bgeu	a5,a3,20000728 <.loop402+0x22>
200006e2:	00eb4b33          	xor	s6,s6,a4
200006e6:	4789                	li	a5,2
200006e8:	06f99363          	bne	s3,a5,2000074e <.loop402+0x48>
200006ec:	8089                	srli	s1,s1,0x2
200006ee:	49d5                	li	s3,21
200006f0:	ec048ce3          	beqz	s1,200005c8 <FLASH_EEPROM_CMD+0xc0>
200006f4:	85da                	mv	a1,s6
200006f6:	4509                	li	a0,2
200006f8:	3b41                	jal	20000488 <FLASH_ROM_ADDR>
200006fa:	0911                	addi	s2,s2,4
200006fc:	ffc92703          	lw	a4,-4(s2)
20000700:	4791                	li	a5,4
20000702:	80e42023          	sw	a4,-2048(s0)

20000706 <.loop402>:
20000706:	80640703          	lb	a4,-2042(s0)
2000070a:	fe074ee3          	bltz	a4,20000706 <.loop402>
2000070e:	81340323          	sb	s3,-2042(s0)
20000712:	17fd                	addi	a5,a5,-1
20000714:	fbed                	bnez	a5,20000706 <.loop402>
20000716:	14fd                	addi	s1,s1,-1
20000718:	0b11                	addi	s6,s6,4
2000071a:	c481                	beqz	s1,20000722 <.loop402+0x1c>
2000071c:	0ffb7793          	andi	a5,s6,255
20000720:	ffe9                	bnez	a5,200006fa <FLASH_EEPROM_CMD+0x1f2>
20000722:	337d                	jal	200004d0 <FLASH_ROM_WAIT>
20000724:	f571                	bnez	a0,200006f0 <FLASH_EEPROM_CMD+0x1e8>
20000726:	b5e1                	j	200005ee <FLASH_EEPROM_CMD+0xe6>
20000728:	400017b7          	lui	a5,0x40001
2000072c:	0457c703          	lbu	a4,69(a5) # 40001045 <_eusrstack+0x1fff9045>
20000730:	000807b7          	lui	a5,0x80
20000734:	02077713          	andi	a4,a4,32
20000738:	e319                	bnez	a4,2000073e <.loop402+0x38>
2000073a:	000787b7          	lui	a5,0x78
2000073e:	5579                	li	a0,-2
20000740:	eafb78e3          	bgeu	s6,a5,200005f0 <FLASH_EEPROM_CMD+0xe8>
20000744:	009b0733          	add	a4,s6,s1
20000748:	f8e7ffe3          	bgeu	a5,a4,200006e6 <FLASH_EEPROM_CMD+0x1de>
2000074c:	b555                	j	200005f0 <FLASH_EEPROM_CMD+0xe8>
2000074e:	4785                	li	a5,1
20000750:	f2f982e3          	beq	s3,a5,20000674 <FLASH_EEPROM_CMD+0x16c>
20000754:	85da                	mv	a1,s6
20000756:	452d                	li	a0,11
20000758:	3b05                	jal	20000488 <FLASH_ROM_ADDR>
2000075a:	fff48993          	addi	s3,s1,-1 # 7ffff <_data_lma+0x79987>
2000075e:	e60485e3          	beqz	s1,200005c8 <FLASH_EEPROM_CMD+0xc0>
20000762:	3329                	jal	2000046c <FLASH_ROM_IN>
20000764:	0039f793          	andi	a5,s3,3
20000768:	eb91                	bnez	a5,2000077c <.loop402+0x76>
2000076a:	80042683          	lw	a3,-2048(s0)
2000076e:	00092703          	lw	a4,0(s2)
20000772:	00490793          	addi	a5,s2,4
20000776:	e4e69ae3          	bne	a3,a4,200005ca <FLASH_EEPROM_CMD+0xc2>
2000077a:	893e                	mv	s2,a5
2000077c:	84ce                	mv	s1,s3
2000077e:	bff1                	j	2000075a <.loop402+0x54>
20000780:	47b5                	li	a5,13
20000782:	00f99663          	bne	s3,a5,2000078e <.loop402+0x88>
20000786:	0b900513          	li	a0,185
2000078a:	31c9                	jal	2000044c <FLASH_ROM_BEG>
2000078c:	bd35                	j	200005c8 <FLASH_EEPROM_CMD+0xc0>
2000078e:	47b1                	li	a5,12
20000790:	0ab00513          	li	a0,171
20000794:	fef98be3          	beq	s3,a5,2000078a <.loop402+0x84>
20000798:	4799                	li	a5,6
2000079a:	04f99163          	bne	s3,a5,200007dc <.loop402+0xd6>
2000079e:	000805b7          	lui	a1,0x80
200007a2:	00bb65b3          	or	a1,s6,a1
200007a6:	452d                	li	a0,11
200007a8:	31c5                	jal	20000488 <FLASH_ROM_ADDR>
200007aa:	4481                	li	s1,0
200007ac:	4b8d                	li	s7,3
200007ae:	49a1                	li	s3,8
200007b0:	3975                	jal	2000046c <FLASH_ROM_IN>
200007b2:	01749663          	bne	s1,s7,200007be <.loop402+0xb8>
200007b6:	80042783          	lw	a5,-2048(s0)
200007ba:	00f92023          	sw	a5,0(s2)
200007be:	0485                	addi	s1,s1,1
200007c0:	ff3498e3          	bne	s1,s3,200007b0 <.loop402+0xaa>
200007c4:	80042783          	lw	a5,-2048(s0)
200007c8:	012b1713          	slli	a4,s6,0x12
200007cc:	00075563          	bgez	a4,200007d6 <.loop402+0xd0>
200007d0:	00f91223          	sh	a5,4(s2)
200007d4:	bbd5                	j	200005c8 <FLASH_EEPROM_CMD+0xc0>
200007d6:	00f92223          	sw	a5,4(s2)
200007da:	b3fd                	j	200005c8 <FLASH_EEPROM_CMD+0xc0>
200007dc:	479d                	li	a5,7
200007de:	02f99963          	bne	s3,a5,20000810 <.loop402+0x10a>
200007e2:	4581                	li	a1,0
200007e4:	04b00513          	li	a0,75
200007e8:	3145                	jal	20000488 <FLASH_ROM_ADDR>
200007ea:	44bd                	li	s1,15
200007ec:	00092023          	sw	zero,0(s2)
200007f0:	00092223          	sw	zero,4(s2)
200007f4:	59fd                	li	s3,-1
200007f6:	399d                	jal	2000046c <FLASH_ROM_IN>
200007f8:	0074f793          	andi	a5,s1,7
200007fc:	97ca                	add	a5,a5,s2
200007fe:	0007c703          	lbu	a4,0(a5) # 78000 <_data_lma+0x71988>
20000802:	14fd                	addi	s1,s1,-1
20000804:	8d39                	xor	a0,a0,a4
20000806:	00a78023          	sb	a0,0(a5)
2000080a:	ff3496e3          	bne	s1,s3,200007f6 <.loop402+0xf0>
2000080e:	bb6d                	j	200005c8 <FLASH_EEPROM_CMD+0xc0>
20000810:	47a1                	li	a5,8
20000812:	04f99263          	bne	s3,a5,20000856 <.loop402+0x150>
20000816:	396d                	jal	200004d0 <FLASH_ROM_WAIT>
20000818:	4481                	li	s1,0
2000081a:	000b0d63          	beqz	s6,20000834 <.loop402+0x12e>
2000081e:	478d                	li	a5,3
20000820:	03c00493          	li	s1,60
20000824:	00fb0863          	beq	s6,a5,20000834 <.loop402+0x12e>
20000828:	05000493          	li	s1,80
2000082c:	018b0463          	beq	s6,s8,20000834 <.loop402+0x12e>
20000830:	04400493          	li	s1,68
20000834:	07c57513          	andi	a0,a0,124
20000838:	d89508e3          	beq	a0,s1,200005c8 <FLASH_EEPROM_CMD+0xc0>
2000083c:	4519                	li	a0,6
2000083e:	3139                	jal	2000044c <FLASH_ROM_BEG>
20000840:	3939                	jal	2000045e <FLASH_ROM_END>
20000842:	4505                	li	a0,1
20000844:	3121                	jal	2000044c <FLASH_ROM_BEG>
20000846:	8526                	mv	a0,s1
20000848:	390d                	jal	2000047a <FLASH_ROM_OUT>
2000084a:	4509                	li	a0,2
2000084c:	313d                	jal	2000047a <FLASH_ROM_OUT>
2000084e:	3149                	jal	200004d0 <FLASH_ROM_WAIT>
20000850:	d6051ce3          	bnez	a0,200005c8 <FLASH_EEPROM_CMD+0xc0>
20000854:	bb69                	j	200005ee <FLASH_EEPROM_CMD+0xe6>
20000856:	4791                	li	a5,4
20000858:	00f99963          	bne	s3,a5,2000086a <.loop402+0x164>
2000085c:	06600513          	li	a0,102
20000860:	36f5                	jal	2000044c <FLASH_ROM_BEG>
20000862:	3ef5                	jal	2000045e <FLASH_ROM_END>
20000864:	09900513          	li	a0,153
20000868:	b70d                	j	2000078a <.loop402+0x84>
2000086a:	d4098fe3          	beqz	s3,200005c8 <FLASH_EEPROM_CMD+0xc0>
2000086e:	54f1                	li	s1,-4
20000870:	bba9                	j	200005ca <FLASH_EEPROM_CMD+0xc2>

20000872 <tmos_memcpy>:
tmos_memcpy():
20000872:	cd19                	beqz	a0,20000890 <tmos_memcpy+0x1e>
20000874:	cd91                	beqz	a1,20000890 <tmos_memcpy+0x1e>
20000876:	ce09                	beqz	a2,20000890 <tmos_memcpy+0x1e>
20000878:	4781                	li	a5,0
2000087a:	00f58733          	add	a4,a1,a5
2000087e:	00074683          	lbu	a3,0(a4) # 80000 <_data_lma+0x79988>
20000882:	00f50733          	add	a4,a0,a5
20000886:	0785                	addi	a5,a5,1
20000888:	00d70023          	sb	a3,0(a4)
2000088c:	fec797e3          	bne	a5,a2,2000087a <tmos_memcpy+0x8>
20000890:	8082                	ret

20000892 <tmos_memcpy_word>:
tmos_memcpy_word():
20000892:	c919                	beqz	a0,200008a8 <tmos_memcpy_word+0x16>
20000894:	c991                	beqz	a1,200008a8 <tmos_memcpy_word+0x16>
20000896:	ca09                	beqz	a2,200008a8 <tmos_memcpy_word+0x16>
20000898:	0591                	addi	a1,a1,4
2000089a:	ffc5a783          	lw	a5,-4(a1) # 7fffc <_data_lma+0x79984>
2000089e:	0511                	addi	a0,a0,4
200008a0:	167d                	addi	a2,a2,-1
200008a2:	fef52e23          	sw	a5,-4(a0)
200008a6:	bfc5                	j	20000896 <tmos_memcpy_word+0x4>
200008a8:	8082                	ret

200008aa <tmos_memset>:
tmos_memset():
200008aa:	c901                	beqz	a0,200008ba <tmos_memset+0x10>
200008ac:	c619                	beqz	a2,200008ba <tmos_memset+0x10>
200008ae:	962a                	add	a2,a2,a0
200008b0:	0505                	addi	a0,a0,1
200008b2:	feb50fa3          	sb	a1,-1(a0)
200008b6:	fea61de3          	bne	a2,a0,200008b0 <tmos_memset+0x6>
200008ba:	8082                	ret

200008bc <tmos_strlen>:
tmos_strlen():
200008bc:	4781                	li	a5,0
200008be:	00f50733          	add	a4,a0,a5
200008c2:	00070703          	lb	a4,0(a4)
200008c6:	e319                	bnez	a4,200008cc <tmos_strlen+0x10>
200008c8:	853e                	mv	a0,a5
200008ca:	8082                	ret
200008cc:	0785                	addi	a5,a5,1
200008ce:	bfc5                	j	200008be <tmos_strlen+0x2>

200008d0 <tmos_memdup>:
tmos_memdup():
200008d0:	1101                	addi	sp,sp,-32
200008d2:	862e                	mv	a2,a1
200008d4:	ca26                	sw	s1,20(sp)
200008d6:	84aa                	mv	s1,a0
200008d8:	01061513          	slli	a0,a2,0x10
200008dc:	04f00593          	li	a1,79
200008e0:	8141                	srli	a0,a0,0x10
200008e2:	cc22                	sw	s0,24(sp)
200008e4:	ce06                	sw	ra,28(sp)
200008e6:	c632                	sw	a2,12(sp)
200008e8:	571000ef          	jal	ra,20001658 <tmos_memory_allocate>
200008ec:	842a                	mv	s0,a0
200008ee:	c501                	beqz	a0,200008f6 <tmos_memdup+0x26>
200008f0:	4632                	lw	a2,12(sp)
200008f2:	85a6                	mv	a1,s1
200008f4:	3fbd                	jal	20000872 <tmos_memcpy>
200008f6:	8522                	mv	a0,s0
200008f8:	40f2                	lw	ra,28(sp)
200008fa:	4462                	lw	s0,24(sp)
200008fc:	44d2                	lw	s1,20(sp)
200008fe:	6105                	addi	sp,sp,32
20000900:	8082                	ret

20000902 <tmos_memcmp>:
tmos_memcmp():
20000902:	4785                	li	a5,1
20000904:	c115                	beqz	a0,20000928 <tmos_memcmp+0x26>
20000906:	c18d                	beqz	a1,20000928 <tmos_memcmp+0x26>
20000908:	c205                	beqz	a2,20000928 <tmos_memcmp+0x26>
2000090a:	4781                	li	a5,0
2000090c:	00f506b3          	add	a3,a0,a5
20000910:	00f58733          	add	a4,a1,a5
20000914:	0006c683          	lbu	a3,0(a3) # 100000 <_data_lma+0xf9988>
20000918:	00074703          	lbu	a4,0(a4)
2000091c:	00e69863          	bne	a3,a4,2000092c <tmos_memcmp+0x2a>
20000920:	0785                	addi	a5,a5,1
20000922:	fef615e3          	bne	a2,a5,2000090c <tmos_memcmp+0xa>
20000926:	4785                	li	a5,1
20000928:	853e                	mv	a0,a5
2000092a:	8082                	ret
2000092c:	4781                	li	a5,0
2000092e:	bfed                	j	20000928 <tmos_memcmp+0x26>

20000930 <tmos_revmemcpy>:
tmos_revmemcpy():
20000930:	fff60793          	addi	a5,a2,-1
20000934:	95be                	add	a1,a1,a5
20000936:	962a                	add	a2,a2,a0
20000938:	00c51363          	bne	a0,a2,2000093e <tmos_revmemcpy+0xe>
2000093c:	8082                	ret
2000093e:	15fd                	addi	a1,a1,-1
20000940:	0015c783          	lbu	a5,1(a1)
20000944:	0505                	addi	a0,a0,1
20000946:	fef50fa3          	sb	a5,-1(a0)
2000094a:	b7fd                	j	20000938 <tmos_revmemcpy+0x8>

2000094c <tmos_isbufset>:
tmos_isbufset():
2000094c:	87aa                	mv	a5,a0
2000094e:	4501                	li	a0,0
20000950:	cf81                	beqz	a5,20000968 <tmos_isbufset+0x1c>
20000952:	ce09                	beqz	a2,2000096c <tmos_isbufset+0x20>
20000954:	963e                	add	a2,a2,a5
20000956:	0785                	addi	a5,a5,1
20000958:	fff7c703          	lbu	a4,-1(a5)
2000095c:	00b71763          	bne	a4,a1,2000096a <tmos_isbufset+0x1e>
20000960:	fef61be3          	bne	a2,a5,20000956 <tmos_isbufset+0xa>
20000964:	4505                	li	a0,1
20000966:	8082                	ret
20000968:	8082                	ret
2000096a:	4501                	li	a0,0
2000096c:	8082                	ret

2000096e <tmos_proces_system_time>:
tmos_proces_system_time():
2000096e:	7179                	addi	sp,sp,-48
20000970:	00003797          	auipc	a5,0x3
20000974:	9c078793          	addi	a5,a5,-1600 # 20003330 <taskHead>
20000978:	d422                	sw	s0,40(sp)
2000097a:	4380                	lw	s0,0(a5)
2000097c:	d606                	sw	ra,44(sp)
2000097e:	d226                	sw	s1,36(sp)
20000980:	d04a                	sw	s2,32(sp)
20000982:	ce4e                	sw	s3,28(sp)
20000984:	cc52                	sw	s4,24(sp)
20000986:	ca56                	sw	s5,20(sp)
20000988:	c85a                	sw	s6,16(sp)
2000098a:	c65e                	sw	s7,12(sp)
2000098c:	c462                	sw	s8,8(sp)
2000098e:	cc5d                	beqz	s0,20000a4c <tmos_proces_system_time+0xde>
20000990:	01c9c937          	lui	s2,0x1c9c
20000994:	4b81                	li	s7,0
20000996:	00003a17          	auipc	s4,0x3
2000099a:	9e2a0a13          	addi	s4,s4,-1566 # 20003378 <fnGetClockCBs>
2000099e:	00003497          	auipc	s1,0x3
200009a2:	99648493          	addi	s1,s1,-1642 # 20003334 <ble>
200009a6:	37f90913          	addi	s2,s2,895 # 1c9c37f <_data_lma+0x1c95d07>
200009aa:	00003a97          	auipc	s5,0x3
200009ae:	932a8a93          	addi	s5,s5,-1742 # 200032dc <gTmosPara>
200009b2:	a8c009b7          	lui	s3,0xa8c00
200009b6:	57400b37          	lui	s6,0x57400
200009ba:	00245783          	lhu	a5,2(s0)
200009be:	e395                	bnez	a5,200009e2 <tmos_proces_system_time+0x74>
200009c0:	445c                	lw	a5,12(s0)
200009c2:	000b9d63          	bnez	s7,200009dc <tmos_proces_system_time+0x6e>
200009c6:	00003717          	auipc	a4,0x3
200009ca:	96f72523          	sw	a5,-1686(a4) # 20003330 <taskHead>
200009ce:	00c42c03          	lw	s8,12(s0)
200009d2:	8522                	mv	a0,s0
200009d4:	557000ef          	jal	ra,2000172a <tmos_memory_free>
200009d8:	8462                	mv	s0,s8
200009da:	a899                	j	20000a30 <tmos_proces_system_time+0xc2>
200009dc:	00fba623          	sw	a5,12(s7) # 100c <_einit+0x1008>
200009e0:	b7fd                	j	200009ce <tmos_proces_system_time+0x60>
200009e2:	000a2783          	lw	a5,0(s4)
200009e6:	9782                	jalr	a5
200009e8:	01648683          	lb	a3,22(s1)
200009ec:	441c                	lw	a5,8(s0)
200009ee:	0606db63          	bgez	a3,20000a64 <tmos_proces_system_time+0xf6>
200009f2:	40f50733          	sub	a4,a0,a5
200009f6:	08e96763          	bltu	s2,a4,20000a84 <tmos_proces_system_time+0x116>
200009fa:	00003797          	auipc	a5,0x3
200009fe:	8e07a923          	sw	zero,-1806(a5) # 200032ec <gTmosPara+0x10>
20000a02:	00245583          	lhu	a1,2(s0)
20000a06:	00044503          	lbu	a0,0(s0)
20000a0a:	e0002097          	auipc	ra,0xe0002
20000a0e:	6f6080e7          	jalr	1782(ra) # 3100 <tmos_set_event>
20000a12:	405c                	lw	a5,4(s0)
20000a14:	4458                	lw	a4,12(s0)
20000a16:	cfa9                	beqz	a5,20000a70 <tmos_proces_system_time+0x102>
20000a18:	4414                	lw	a3,8(s0)
20000a1a:	97b6                	add	a5,a5,a3
20000a1c:	01648683          	lb	a3,22(s1)
20000a20:	0006c563          	bltz	a3,20000a2a <tmos_proces_system_time+0xbc>
20000a24:	0137e363          	bltu	a5,s3,20000a2a <tmos_proces_system_time+0xbc>
20000a28:	97da                	add	a5,a5,s6
20000a2a:	c41c                	sw	a5,8(s0)
20000a2c:	8ba2                	mv	s7,s0
20000a2e:	843a                	mv	s0,a4
20000a30:	f449                	bnez	s0,200009ba <tmos_proces_system_time+0x4c>
20000a32:	00003797          	auipc	a5,0x3
20000a36:	8aa78793          	addi	a5,a5,-1878 # 200032dc <gTmosPara>
20000a3a:	4b9c                	lw	a5,16(a5)
20000a3c:	4709                	li	a4,2
20000a3e:	06f77863          	bgeu	a4,a5,20000aae <tmos_proces_system_time+0x140>
20000a42:	17f9                	addi	a5,a5,-2
20000a44:	00003717          	auipc	a4,0x3
20000a48:	8af72423          	sw	a5,-1880(a4) # 200032ec <gTmosPara+0x10>
20000a4c:	50b2                	lw	ra,44(sp)
20000a4e:	5422                	lw	s0,40(sp)
20000a50:	5492                	lw	s1,36(sp)
20000a52:	5902                	lw	s2,32(sp)
20000a54:	49f2                	lw	s3,28(sp)
20000a56:	4a62                	lw	s4,24(sp)
20000a58:	4ad2                	lw	s5,20(sp)
20000a5a:	4b42                	lw	s6,16(sp)
20000a5c:	4bb2                	lw	s7,12(sp)
20000a5e:	4c22                	lw	s8,8(sp)
20000a60:	6145                	addi	sp,sp,48
20000a62:	8082                	ret
20000a64:	f8f577e3          	bgeu	a0,a5,200009f2 <tmos_proces_system_time+0x84>
20000a68:	40f98733          	sub	a4,s3,a5
20000a6c:	972a                	add	a4,a4,a0
20000a6e:	b761                	j	200009f6 <tmos_proces_system_time+0x88>
20000a70:	000b9763          	bnez	s7,20000a7e <tmos_proces_system_time+0x110>
20000a74:	00003797          	auipc	a5,0x3
20000a78:	8ae7ae23          	sw	a4,-1860(a5) # 20003330 <taskHead>
20000a7c:	bf89                	j	200009ce <tmos_proces_system_time+0x60>
20000a7e:	00eba623          	sw	a4,12(s7)
20000a82:	b7b1                	j	200009ce <tmos_proces_system_time+0x60>
20000a84:	50d8                	lw	a4,36(s1)
20000a86:	cf09                	beqz	a4,20000aa0 <tmos_proces_system_time+0x132>
20000a88:	0006df63          	bgez	a3,20000aa6 <tmos_proces_system_time+0x138>
20000a8c:	40a78533          	sub	a0,a5,a0
20000a90:	010aa783          	lw	a5,16(s5)
20000a94:	00f57663          	bgeu	a0,a5,20000aa0 <tmos_proces_system_time+0x132>
20000a98:	00003797          	auipc	a5,0x3
20000a9c:	84a7aa23          	sw	a0,-1964(a5) # 200032ec <gTmosPara+0x10>
20000aa0:	8ba2                	mv	s7,s0
20000aa2:	4440                	lw	s0,12(s0)
20000aa4:	b771                	j	20000a30 <tmos_proces_system_time+0xc2>
20000aa6:	fea7f3e3          	bgeu	a5,a0,20000a8c <tmos_proces_system_time+0x11e>
20000aaa:	97ce                	add	a5,a5,s3
20000aac:	b7c5                	j	20000a8c <tmos_proces_system_time+0x11e>
20000aae:	00003797          	auipc	a5,0x3
20000ab2:	8207af23          	sw	zero,-1986(a5) # 200032ec <gTmosPara+0x10>
20000ab6:	bf59                	j	20000a4c <tmos_proces_system_time+0xde>

20000ab8 <TMOS_SystemProcess>:
TMOS_SystemProcess():
20000ab8:	1141                	addi	sp,sp,-16
20000aba:	c422                	sw	s0,8(sp)
20000abc:	00003417          	auipc	s0,0x3
20000ac0:	85040413          	addi	s0,s0,-1968 # 2000330c <pfnProcessCBs>
20000ac4:	401c                	lw	a5,0(s0)
20000ac6:	c606                	sw	ra,12(sp)
20000ac8:	c226                	sw	s1,4(sp)
20000aca:	c04a                	sw	s2,0(sp)
20000acc:	c791                	beqz	a5,20000ad8 <TMOS_SystemProcess+0x20>
20000ace:	9782                	jalr	a5
20000ad0:	00003797          	auipc	a5,0x3
20000ad4:	8207ae23          	sw	zero,-1988(a5) # 2000330c <pfnProcessCBs>
20000ad8:	405c                	lw	a5,4(s0)
20000ada:	c391                	beqz	a5,20000ade <TMOS_SystemProcess+0x26>
20000adc:	9782                	jalr	a5
20000ade:	401c                	lw	a5,0(s0)
20000ae0:	1c079063          	bnez	a5,20000ca0 <TMOS_SystemProcess+0x1e8>
20000ae4:	00003797          	auipc	a5,0x3
20000ae8:	8a97c783          	lbu	a5,-1879(a5) # 2000338d <gBleIPPara+0x5>
20000aec:	8b85                	andi	a5,a5,1
20000aee:	c795                	beqz	a5,20000b1a <TMOS_SystemProcess+0x62>
20000af0:	00003797          	auipc	a5,0x3
20000af4:	88078ea3          	sb	zero,-1891(a5) # 2000338d <gBleIPPara+0x5>
20000af8:	00003717          	auipc	a4,0x3
20000afc:	89774703          	lbu	a4,-1897(a4) # 2000338f <gBleIPPara+0x7>
20000b00:	4791                	li	a5,4
20000b02:	00e7fc63          	bgeu	a5,a4,20000b1a <TMOS_SystemProcess+0x62>
20000b06:	2e81                	jal	20000e56 <ll_rx_wait_finish>
20000b08:	00003797          	auipc	a5,0x3
20000b0c:	8877c783          	lbu	a5,-1913(a5) # 2000338f <gBleIPPara+0x7>
20000b10:	17f9                	addi	a5,a5,-2
20000b12:	078a                	slli	a5,a5,0x2
20000b14:	97a2                	add	a5,a5,s0
20000b16:	439c                	lw	a5,0(a5)
20000b18:	9782                	jalr	a5
20000b1a:	00003917          	auipc	s2,0x3
20000b1e:	8ae90913          	addi	s2,s2,-1874 # 200033c8 <rfInfo>
20000b22:	00c94783          	lbu	a5,12(s2)
20000b26:	8b91                	andi	a5,a5,4
20000b28:	c399                	beqz	a5,20000b2e <TMOS_SystemProcess+0x76>
20000b2a:	265000ef          	jal	ra,2000158e <RF_FrequencyHoppingChange>
20000b2e:	441c                	lw	a5,8(s0)
20000b30:	c391                	beqz	a5,20000b34 <TMOS_SystemProcess+0x7c>
20000b32:	9782                	jalr	a5
20000b34:	00002497          	auipc	s1,0x2
20000b38:	7f848493          	addi	s1,s1,2040 # 2000332c <EventsArr>
20000b3c:	4098                	lw	a4,0(s1)
20000b3e:	00002617          	auipc	a2,0x2
20000b42:	79f64603          	lbu	a2,1951(a2) # 200032dd <gTmosPara+0x1>
20000b46:	00002797          	auipc	a5,0x2
20000b4a:	7967c783          	lbu	a5,1942(a5) # 200032dc <gTmosPara>
20000b4e:	00179693          	slli	a3,a5,0x1
20000b52:	96ba                	add	a3,a3,a4
20000b54:	0006d683          	lhu	a3,0(a3)
20000b58:	cad5                	beqz	a3,20000c0c <TMOS_SystemProcess+0x154>
20000b5a:	00002797          	auipc	a5,0x2
20000b5e:	7827c783          	lbu	a5,1922(a5) # 200032dc <gTmosPara>
20000b62:	0ac7ef63          	bltu	a5,a2,20000c20 <TMOS_SystemProcess+0x168>
20000b66:	00002797          	auipc	a5,0x2
20000b6a:	76078b23          	sb	zero,1910(a5) # 200032dc <gTmosPara>
20000b6e:	401c                	lw	a5,0(s0)
20000b70:	12079863          	bnez	a5,20000ca0 <TMOS_SystemProcess+0x1e8>
20000b74:	00003797          	auipc	a5,0x3
20000b78:	81d7c783          	lbu	a5,-2019(a5) # 20003391 <gBleIPPara+0x9>
20000b7c:	cf91                	beqz	a5,20000b98 <TMOS_SystemProcess+0xe0>
20000b7e:	00003797          	auipc	a5,0x3
20000b82:	8117c783          	lbu	a5,-2031(a5) # 2000338f <gBleIPPara+0x7>
20000b86:	eb89                	bnez	a5,20000b98 <TMOS_SystemProcess+0xe0>
20000b88:	00003797          	auipc	a5,0x3
20000b8c:	800784a3          	sb	zero,-2039(a5) # 20003391 <gBleIPPara+0x9>
20000b90:	e0003097          	auipc	ra,0xe0003
20000b94:	21c080e7          	jalr	540(ra) # 3dac <ll_multi_states_process>
20000b98:	00002797          	auipc	a5,0x2
20000b9c:	7e078793          	addi	a5,a5,2016 # 20003378 <fnGetClockCBs>
20000ba0:	439c                	lw	a5,0(a5)
20000ba2:	0e078f63          	beqz	a5,20000ca0 <TMOS_SystemProcess+0x1e8>
20000ba6:	a8c007b7          	lui	a5,0xa8c00
20000baa:	00002717          	auipc	a4,0x2
20000bae:	74f72123          	sw	a5,1858(a4) # 200032ec <gTmosPara+0x10>
20000bb2:	3b75                	jal	2000096e <tmos_proces_system_time>
20000bb4:	00002797          	auipc	a5,0x2
20000bb8:	78078793          	addi	a5,a5,1920 # 20003334 <ble>
20000bbc:	53dc                	lw	a5,36(a5)
20000bbe:	c3ed                	beqz	a5,20000ca0 <TMOS_SystemProcess+0x1e8>
20000bc0:	00002717          	auipc	a4,0x2
20000bc4:	71c70713          	addi	a4,a4,1820 # 200032dc <gTmosPara>
20000bc8:	4b18                	lw	a4,16(a4)
20000bca:	00002797          	auipc	a5,0x2
20000bce:	77f7c783          	lbu	a5,1919(a5) # 20003349 <ble+0x15>
20000bd2:	0cf76763          	bltu	a4,a5,20000ca0 <TMOS_SystemProcess+0x1e8>
20000bd6:	00002717          	auipc	a4,0x2
20000bda:	7b974703          	lbu	a4,1977(a4) # 2000338f <gBleIPPara+0x7>
20000bde:	4791                	li	a5,4
20000be0:	0ce7e063          	bltu	a5,a4,20000ca0 <TMOS_SystemProcess+0x1e8>
20000be4:	00c94783          	lbu	a5,12(s2)
20000be8:	8b91                	andi	a5,a5,4
20000bea:	ebdd                	bnez	a5,20000ca0 <TMOS_SystemProcess+0x1e8>
20000bec:	4090                	lw	a2,0(s1)
20000bee:	00002697          	auipc	a3,0x2
20000bf2:	6ef6c683          	lbu	a3,1775(a3) # 200032dd <gTmosPara+0x1>
20000bf6:	0ad7cb63          	blt	a5,a3,20000cac <TMOS_SystemProcess+0x1f4>
20000bfa:	4422                	lw	s0,8(sp)
20000bfc:	40b2                	lw	ra,12(sp)
20000bfe:	4492                	lw	s1,4(sp)
20000c00:	4902                	lw	s2,0(sp)
20000c02:	0141                	addi	sp,sp,16
20000c04:	e0002317          	auipc	t1,0xe0002
20000c08:	39830067          	jr	920(t1) # 2f9c <tmos_proces_sleep>
20000c0c:	0785                	addi	a5,a5,1
20000c0e:	0ff7f793          	andi	a5,a5,255
20000c12:	00002697          	auipc	a3,0x2
20000c16:	6cf68523          	sb	a5,1738(a3) # 200032dc <gTmosPara>
20000c1a:	f2c7e6e3          	bltu	a5,a2,20000b46 <TMOS_SystemProcess+0x8e>
20000c1e:	bf35                	j	20000b5a <TMOS_SystemProcess+0xa2>
20000c20:	0786                	slli	a5,a5,0x1
20000c22:	973e                	add	a4,a4,a5
20000c24:	00075583          	lhu	a1,0(a4)
20000c28:	00071023          	sh	zero,0(a4)
20000c2c:	00002797          	auipc	a5,0x2
20000c30:	6e079e23          	sh	zero,1788(a5) # 20003328 <eventsClear>
20000c34:	00002797          	auipc	a5,0x2
20000c38:	6d478793          	addi	a5,a5,1748 # 20003308 <tasksArr>
20000c3c:	439c                	lw	a5,0(a5)
20000c3e:	00002517          	auipc	a0,0x2
20000c42:	69e54503          	lbu	a0,1694(a0) # 200032dc <gTmosPara>
20000c46:	00251713          	slli	a4,a0,0x2
20000c4a:	97ba                	add	a5,a5,a4
20000c4c:	439c                	lw	a5,0(a5)
20000c4e:	9782                	jalr	a5
20000c50:	00002797          	auipc	a5,0x2
20000c54:	6d87d783          	lhu	a5,1752(a5) # 20003328 <eventsClear>
20000c58:	00002717          	auipc	a4,0x2
20000c5c:	68474703          	lbu	a4,1668(a4) # 200032dc <gTmosPara>
20000c60:	fff7c793          	not	a5,a5
20000c64:	8d7d                	and	a0,a0,a5
20000c66:	00171793          	slli	a5,a4,0x1
20000c6a:	4098                	lw	a4,0(s1)
20000c6c:	973e                	add	a4,a4,a5
20000c6e:	00075783          	lhu	a5,0(a4)
20000c72:	8d5d                	or	a0,a0,a5
20000c74:	00a71023          	sh	a0,0(a4)
20000c78:	00002797          	auipc	a5,0x2
20000c7c:	6647c783          	lbu	a5,1636(a5) # 200032dc <gTmosPara>
20000c80:	c791                	beqz	a5,20000c8c <TMOS_SystemProcess+0x1d4>
20000c82:	0785                	addi	a5,a5,1
20000c84:	00002717          	auipc	a4,0x2
20000c88:	64f70c23          	sb	a5,1624(a4) # 200032dc <gTmosPara>
20000c8c:	00002717          	auipc	a4,0x2
20000c90:	65074703          	lbu	a4,1616(a4) # 200032dc <gTmosPara>
20000c94:	00002797          	auipc	a5,0x2
20000c98:	6497c783          	lbu	a5,1609(a5) # 200032dd <gTmosPara+0x1>
20000c9c:	ecf775e3          	bgeu	a4,a5,20000b66 <TMOS_SystemProcess+0xae>
20000ca0:	40b2                	lw	ra,12(sp)
20000ca2:	4422                	lw	s0,8(sp)
20000ca4:	4492                	lw	s1,4(sp)
20000ca6:	4902                	lw	s2,0(sp)
20000ca8:	0141                	addi	sp,sp,16
20000caa:	8082                	ret
20000cac:	00179713          	slli	a4,a5,0x1
20000cb0:	9732                	add	a4,a4,a2
20000cb2:	00075703          	lhu	a4,0(a4)
20000cb6:	f76d                	bnez	a4,20000ca0 <TMOS_SystemProcess+0x1e8>
20000cb8:	0785                	addi	a5,a5,1
20000cba:	bf35                	j	20000bf6 <TMOS_SystemProcess+0x13e>

20000cbc <clockGetHSEValue>:
clockGetHSEValue():
20000cbc:	67ad                	lui	a5,0xb
20000cbe:	4000c737          	lui	a4,0x4000c
20000cc2:	07bd                	addi	a5,a5,15
20000cc4:	20f72623          	sw	a5,524(a4) # 4000c20c <_eusrstack+0x2000420c>
20000cc8:	0000100f          	fence.i
20000ccc:	00002797          	auipc	a5,0x2
20000cd0:	61078793          	addi	a5,a5,1552 # 200032dc <gTmosPara>
20000cd4:	4fc8                	lw	a0,28(a5)
20000cd6:	26872783          	lw	a5,616(a4)
20000cda:	66bd                	lui	a3,0xf
20000cdc:	06bd                	addi	a3,a3,15
20000cde:	fff7c793          	not	a5,a5
20000ce2:	8399                	srli	a5,a5,0x6
20000ce4:	056a                	slli	a0,a0,0x1a
20000ce6:	20d72623          	sw	a3,524(a4)
20000cea:	8d5d                	or	a0,a0,a5
20000cec:	8082                	ret

20000cee <clockGetLSEValue>:
clockGetLSEValue():
20000cee:	1141                	addi	sp,sp,-16
20000cf0:	400017b7          	lui	a5,0x40001
20000cf4:	5f98                	lw	a4,56(a5)
20000cf6:	c63a                	sw	a4,12(sp)
20000cf8:	5f94                	lw	a3,56(a5)
20000cfa:	4732                	lw	a4,12(sp)
20000cfc:	fee69ce3          	bne	a3,a4,20000cf4 <clockGetLSEValue+0x6>
20000d00:	4532                	lw	a0,12(sp)
20000d02:	0141                	addi	sp,sp,16
20000d04:	8082                	ret

20000d06 <TMOS_TimerIRQHandler>:
TMOS_TimerIRQHandler():
20000d06:	8082                	ret

20000d08 <BB_IRQLibHandler>:
BB_IRQLibHandler():
20000d08:	715d                	addi	sp,sp,-80
20000d0a:	d23a                	sw	a4,36(sp)
20000d0c:	00002717          	auipc	a4,0x2
20000d10:	67470713          	addi	a4,a4,1652 # 20003380 <gptrBBReg>
20000d14:	d436                	sw	a3,40(sp)
20000d16:	4314                	lw	a3,0(a4)
20000d18:	d03e                	sw	a5,32(sp)
20000d1a:	de22                	sw	s0,60(sp)
20000d1c:	5e9c                	lw	a5,56(a3)
20000d1e:	ca4a                	sw	s2,20(sp)
20000d20:	c686                	sw	ra,76(sp)
20000d22:	8399                	srli	a5,a5,0x6
20000d24:	c496                	sw	t0,72(sp)
20000d26:	c29a                	sw	t1,68(sp)
20000d28:	c09e                	sw	t2,64(sp)
20000d2a:	dc26                	sw	s1,56(sp)
20000d2c:	da2a                	sw	a0,52(sp)
20000d2e:	d82e                	sw	a1,48(sp)
20000d30:	d632                	sw	a2,44(sp)
20000d32:	ce42                	sw	a6,28(sp)
20000d34:	cc46                	sw	a7,24(sp)
20000d36:	c872                	sw	t3,16(sp)
20000d38:	c676                	sw	t4,12(sp)
20000d3a:	c47a                	sw	t5,8(sp)
20000d3c:	c27e                	sw	t6,4(sp)
20000d3e:	8b85                	andi	a5,a5,1
20000d40:	843a                	mv	s0,a4
20000d42:	00002917          	auipc	s2,0x2
20000d46:	63a90913          	addi	s2,s2,1594 # 2000337c <gptrAESReg>
20000d4a:	cbd1                	beqz	a5,20000dde <BB_IRQLibHandler+0xd6>
20000d4c:	5e9c                	lw	a5,56(a3)
20000d4e:	00002497          	auipc	s1,0x2
20000d52:	63a48493          	addi	s1,s1,1594 # 20003388 <gBleIPPara>
20000d56:	f9f7f793          	andi	a5,a5,-97
20000d5a:	de9c                	sw	a5,56(a3)
20000d5c:	00002717          	auipc	a4,0x2
20000d60:	63274703          	lbu	a4,1586(a4) # 2000338e <gBleIPPara+0x6>
20000d64:	08000793          	li	a5,128
20000d68:	00f71b63          	bne	a4,a5,20000d7e <BB_IRQLibHandler+0x76>
20000d6c:	00092783          	lw	a5,0(s2)
20000d70:	439c                	lw	a5,0(a5)
20000d72:	0407f793          	andi	a5,a5,64
20000d76:	00002717          	auipc	a4,0x2
20000d7a:	60f70c23          	sb	a5,1560(a4) # 2000338e <gBleIPPara+0x6>
20000d7e:	0004c783          	lbu	a5,0(s1)
20000d82:	0407f793          	andi	a5,a5,64
20000d86:	c39d                	beqz	a5,20000dac <BB_IRQLibHandler+0xa4>
20000d88:	00002797          	auipc	a5,0x2
20000d8c:	5f078793          	addi	a5,a5,1520 # 20003378 <fnGetClockCBs>
20000d90:	439c                	lw	a5,0(a5)
20000d92:	9782                	jalr	a5
20000d94:	00002797          	auipc	a5,0x2
20000d98:	60a7a223          	sw	a0,1540(a5) # 20003398 <gBleIPPara+0x10>
20000d9c:	0004c783          	lbu	a5,0(s1)
20000da0:	0bf7f793          	andi	a5,a5,191
20000da4:	00002717          	auipc	a4,0x2
20000da8:	5ef70223          	sb	a5,1508(a4) # 20003388 <gBleIPPara>
20000dac:	0044c783          	lbu	a5,4(s1)
20000db0:	0407f793          	andi	a5,a5,64
20000db4:	e78d                	bnez	a5,20000dde <BB_IRQLibHandler+0xd6>
20000db6:	4785                	li	a5,1
20000db8:	00002717          	auipc	a4,0x2
20000dbc:	5cf70aa3          	sb	a5,1493(a4) # 2000338d <gBleIPPara+0x5>
20000dc0:	00002797          	auipc	a5,0x2
20000dc4:	5e478793          	addi	a5,a5,1508 # 200033a4 <gptrLLEReg>
20000dc8:	439c                	lw	a5,0(a5)
20000dca:	6709                	lui	a4,0x2
20000dcc:	c798                	sw	a4,8(a5)
20000dce:	fc000713          	li	a4,-64
20000dd2:	00002697          	auipc	a3,0x2
20000dd6:	5ae68d23          	sb	a4,1466(a3) # 2000338c <gBleIPPara+0x4>
20000dda:	44d8                	lw	a4,12(s1)
20000ddc:	d3f8                	sw	a4,100(a5)
20000dde:	401c                	lw	a5,0(s0)
20000de0:	5f98                	lw	a4,56(a5)
20000de2:	8311                	srli	a4,a4,0x4
20000de4:	8b05                	andi	a4,a4,1
20000de6:	cb09                	beqz	a4,20000df8 <BB_IRQLibHandler+0xf0>
20000de8:	5f98                	lw	a4,56(a5)
20000dea:	9b3d                	andi	a4,a4,-17
20000dec:	df98                	sw	a4,56(a5)
20000dee:	4705                	li	a4,1
20000df0:	00002697          	auipc	a3,0x2
20000df4:	58e68e23          	sb	a4,1436(a3) # 2000338c <gBleIPPara+0x4>
20000df8:	5f98                	lw	a4,56(a5)
20000dfa:	831d                	srli	a4,a4,0x7
20000dfc:	8b05                	andi	a4,a4,1
20000dfe:	cb11                	beqz	a4,20000e12 <BB_IRQLibHandler+0x10a>
20000e00:	5f98                	lw	a4,56(a5)
20000e02:	f7f77713          	andi	a4,a4,-129
20000e06:	df98                	sw	a4,56(a5)
20000e08:	4785                	li	a5,1
20000e0a:	00002717          	auipc	a4,0x2
20000e0e:	58f70123          	sb	a5,1410(a4) # 2000338c <gBleIPPara+0x4>
20000e12:	00092783          	lw	a5,0(s2)
20000e16:	43d8                	lw	a4,4(a5)
20000e18:	8305                	srli	a4,a4,0x1
20000e1a:	8b05                	andi	a4,a4,1
20000e1c:	c719                	beqz	a4,20000e2a <BB_IRQLibHandler+0x122>
20000e1e:	43d8                	lw	a4,4(a5)
20000e20:	9b75                	andi	a4,a4,-3
20000e22:	c3d8                	sw	a4,4(a5)
20000e24:	43d8                	lw	a4,4(a5)
20000e26:	9b79                	andi	a4,a4,-2
20000e28:	c3d8                	sw	a4,4(a5)
20000e2a:	5472                	lw	s0,60(sp)
20000e2c:	40b6                	lw	ra,76(sp)
20000e2e:	42a6                	lw	t0,72(sp)
20000e30:	4316                	lw	t1,68(sp)
20000e32:	4386                	lw	t2,64(sp)
20000e34:	54e2                	lw	s1,56(sp)
20000e36:	5552                	lw	a0,52(sp)
20000e38:	55c2                	lw	a1,48(sp)
20000e3a:	5632                	lw	a2,44(sp)
20000e3c:	56a2                	lw	a3,40(sp)
20000e3e:	5712                	lw	a4,36(sp)
20000e40:	5782                	lw	a5,32(sp)
20000e42:	4872                	lw	a6,28(sp)
20000e44:	48e2                	lw	a7,24(sp)
20000e46:	4952                	lw	s2,20(sp)
20000e48:	4e42                	lw	t3,16(sp)
20000e4a:	4eb2                	lw	t4,12(sp)
20000e4c:	4f22                	lw	t5,8(sp)
20000e4e:	4f92                	lw	t6,4(sp)
20000e50:	6161                	addi	sp,sp,80
20000e52:	30200073          	mret

20000e56 <ll_rx_wait_finish>:
ll_rx_wait_finish():
20000e56:	00002797          	auipc	a5,0x2
20000e5a:	54e78793          	addi	a5,a5,1358 # 200033a4 <gptrLLEReg>
20000e5e:	4394                	lw	a3,0(a5)
20000e60:	00002797          	auipc	a5,0x2
20000e64:	52878793          	addi	a5,a5,1320 # 20003388 <gBleIPPara>
20000e68:	0007c703          	lbu	a4,0(a5)
20000e6c:	8b05                	andi	a4,a4,1
20000e6e:	cb11                	beqz	a4,20000e82 <ll_rx_wait_finish+0x2c>
20000e70:	00002797          	auipc	a5,0x2
20000e74:	50078e23          	sb	zero,1308(a5) # 2000338c <gBleIPPara+0x4>
20000e78:	00002797          	auipc	a5,0x2
20000e7c:	50078aa3          	sb	zero,1301(a5) # 2000338d <gBleIPPara+0x5>
20000e80:	8082                	ret
20000e82:	0017c703          	lbu	a4,1(a5)
20000e86:	8b05                	andi	a4,a4,1
20000e88:	f765                	bnez	a4,20000e70 <ll_rx_wait_finish+0x1a>
20000e8a:	52f8                	lw	a4,100(a3)
20000e8c:	ff71                	bnez	a4,20000e68 <ll_rx_wait_finish+0x12>
20000e8e:	0057c783          	lbu	a5,5(a5)
20000e92:	b7dd                	j	20000e78 <ll_rx_wait_finish+0x22>

20000e94 <ble_ll_chkcrc>:
ble_ll_chkcrc():
20000e94:	00002817          	auipc	a6,0x2
20000e98:	4ec80813          	addi	a6,a6,1260 # 20003380 <gptrBBReg>
20000e9c:	00082703          	lw	a4,0(a6)
20000ea0:	5f1c                	lw	a5,56(a4)
20000ea2:	8395                	srli	a5,a5,0x5
20000ea4:	8b85                	andi	a5,a5,1
20000ea6:	ebd5                	bnez	a5,20000f5a <ble_ll_chkcrc+0xc6>
20000ea8:	c61d                	beqz	a2,20000ed6 <ble_ll_chkcrc+0x42>
20000eaa:	00002797          	auipc	a5,0x2
20000eae:	55678793          	addi	a5,a5,1366 # 20003400 <gBleLlPara>
20000eb2:	04679883          	lh	a7,70(a5)
20000eb6:	00060303          	lb	t1,0(a2)
20000eba:	5b1c                	lw	a5,48(a4)
20000ebc:	83bd                	srli	a5,a5,0xf
20000ebe:	08030b63          	beqz	t1,20000f54 <ble_ll_chkcrc+0xc0>
20000ec2:	1ff7f793          	andi	a5,a5,511
20000ec6:	411787b3          	sub	a5,a5,a7
20000eca:	979a                	add	a5,a5,t1
20000ecc:	4709                	li	a4,2
20000ece:	02e7c7b3          	div	a5,a5,a4
20000ed2:	00f60023          	sb	a5,0(a2)
20000ed6:	ca85                	beqz	a3,20000f06 <ble_ll_chkcrc+0x72>
20000ed8:	00082783          	lw	a5,0(a6)
20000edc:	5b98                	lw	a4,48(a5)
20000ede:	0746                	slli	a4,a4,0x11
20000ee0:	01675793          	srli	a5,a4,0x16
20000ee4:	00075663          	bgez	a4,20000ef0 <ble_ll_chkcrc+0x5c>
20000ee8:	c007e793          	ori	a5,a5,-1024
20000eec:	07c2                	slli	a5,a5,0x10
20000eee:	83c1                	srli	a5,a5,0x10
20000ef0:	00069703          	lh	a4,0(a3)
20000ef4:	07c2                	slli	a5,a5,0x10
20000ef6:	87c1                	srai	a5,a5,0x10
20000ef8:	c709                	beqz	a4,20000f02 <ble_ll_chkcrc+0x6e>
20000efa:	97ba                	add	a5,a5,a4
20000efc:	4709                	li	a4,2
20000efe:	02e7c7b3          	div	a5,a5,a4
20000f02:	00f69023          	sh	a5,0(a3)
20000f06:	c99d                	beqz	a1,20000f3c <ble_ll_chkcrc+0xa8>
20000f08:	00154783          	lbu	a5,1(a0)
20000f0c:	cb85                	beqz	a5,20000f3c <ble_ll_chkcrc+0xa8>
20000f0e:	00002697          	auipc	a3,0x2
20000f12:	4806c683          	lbu	a3,1152(a3) # 2000338e <gBleIPPara+0x6>
20000f16:	0406f693          	andi	a3,a3,64
20000f1a:	00978713          	addi	a4,a5,9
20000f1e:	4791                	li	a5,4
20000f20:	ca85                	beqz	a3,20000f50 <ble_ll_chkcrc+0xbc>
20000f22:	953a                	add	a0,a0,a4
20000f24:	00054703          	lbu	a4,0(a0)
20000f28:	4685                	li	a3,1
20000f2a:	06f77613          	andi	a2,a4,111
20000f2e:	02d61163          	bne	a2,a3,20000f50 <ble_ll_chkcrc+0xbc>
20000f32:	0762                	slli	a4,a4,0x18
20000f34:	8761                	srai	a4,a4,0x18
20000f36:	47b1                	li	a5,12
20000f38:	00074c63          	bltz	a4,20000f50 <ble_ll_chkcrc+0xbc>
20000f3c:	00082783          	lw	a5,0(a6)
20000f40:	5f9c                	lw	a5,56(a5)
20000f42:	83ed                	srli	a5,a5,0x1b
20000f44:	8b8d                	andi	a5,a5,3
20000f46:	00002717          	auipc	a4,0x2
20000f4a:	44f706a3          	sb	a5,1101(a4) # 20003393 <gBleIPPara+0xb>
20000f4e:	4781                	li	a5,0
20000f50:	853e                	mv	a0,a5
20000f52:	8082                	ret
20000f54:	411787b3          	sub	a5,a5,a7
20000f58:	bfad                	j	20000ed2 <ble_ll_chkcrc+0x3e>
20000f5a:	4789                	li	a5,2
20000f5c:	bfd5                	j	20000f50 <ble_ll_chkcrc+0xbc>

20000f5e <ll_tx_wait_finish>:
ll_tx_wait_finish():
20000f5e:	1141                	addi	sp,sp,-16
20000f60:	c422                	sw	s0,8(sp)
20000f62:	c606                	sw	ra,12(sp)
20000f64:	00002417          	auipc	s0,0x2
20000f68:	44040413          	addi	s0,s0,1088 # 200033a4 <gptrLLEReg>
20000f6c:	4018                	lw	a4,0(s0)
20000f6e:	e949                	bnez	a0,20001000 <ll_tx_wait_finish+0xa2>
20000f70:	87ae                	mv	a5,a1
20000f72:	5374                	lw	a3,100(a4)
20000f74:	fefd                	bnez	a3,20000f72 <ll_tx_wait_finish+0x14>
20000f76:	853e                	mv	a0,a5
20000f78:	85b2                	mv	a1,a2
20000f7a:	00002797          	auipc	a5,0x2
20000f7e:	40078823          	sb	zero,1040(a5) # 2000338a <gBleIPPara+0x2>
20000f82:	e0003097          	auipc	ra,0xe0003
20000f86:	bca080e7          	jalr	-1078(ra) # 3b4c <BLE_SetPHYTxMode>
20000f8a:	00002797          	auipc	a5,0x2
20000f8e:	3f678793          	addi	a5,a5,1014 # 20003380 <gptrBBReg>
20000f92:	439c                	lw	a5,0(a5)
20000f94:	008006b7          	lui	a3,0x800
20000f98:	4398                	lw	a4,0(a5)
20000f9a:	8f55                	or	a4,a4,a3
20000f9c:	c398                	sw	a4,0(a5)
20000f9e:	57d8                	lw	a4,44(a5)
20000fa0:	9b71                	andi	a4,a4,-4
20000fa2:	d7d8                	sw	a4,44(a5)
20000fa4:	00002797          	auipc	a5,0x2
20000fa8:	3e0784a3          	sb	zero,1001(a5) # 2000338d <gBleIPPara+0x5>
20000fac:	00002797          	auipc	a5,0x2
20000fb0:	3c078ea3          	sb	zero,989(a5) # 20003389 <gBleIPPara+0x1>
20000fb4:	401c                	lw	a5,0(s0)
20000fb6:	4709                	li	a4,2
20000fb8:	c398                	sw	a4,0(a5)
20000fba:	e000f7b7          	lui	a5,0xe000f
20000fbe:	d107a703          	lw	a4,-752(a5) # e000ed10 <_eusrstack+0xc0006d10>
20000fc2:	9b6d                	andi	a4,a4,-5
20000fc4:	d0e7a823          	sw	a4,-752(a5)
20000fc8:	d107a703          	lw	a4,-752(a5)
20000fcc:	9b5d                	andi	a4,a4,-9
20000fce:	d0e7a823          	sw	a4,-752(a5)
20000fd2:	10500073          	wfi
20000fd6:	4014                	lw	a3,0(s0)
20000fd8:	00002717          	auipc	a4,0x2
20000fdc:	3b070713          	addi	a4,a4,944 # 20003388 <gBleIPPara>
20000fe0:	00274783          	lbu	a5,2(a4)
20000fe4:	8b85                	andi	a5,a5,1
20000fe6:	eb89                	bnez	a5,20000ff8 <ll_tx_wait_finish+0x9a>
20000fe8:	00374783          	lbu	a5,3(a4)
20000fec:	8b85                	andi	a5,a5,1
20000fee:	c7d9                	beqz	a5,2000107c <ll_tx_wait_finish+0x11e>
20000ff0:	00002797          	auipc	a5,0x2
20000ff4:	38078e23          	sb	zero,924(a5) # 2000338c <gBleIPPara+0x4>
20000ff8:	40b2                	lw	ra,12(sp)
20000ffa:	4422                	lw	s0,8(sp)
20000ffc:	0141                	addi	sp,sp,16
20000ffe:	8082                	ret
20001000:	478d                	li	a5,3
20001002:	02f51063          	bne	a0,a5,20001022 <ll_tx_wait_finish+0xc4>
20001006:	00002797          	auipc	a5,0x2
2000100a:	37a78793          	addi	a5,a5,890 # 20003380 <gptrBBReg>
2000100e:	439c                	lw	a5,0(a5)
20001010:	008006b7          	lui	a3,0x800
20001014:	4398                	lw	a4,0(a5)
20001016:	8f55                	or	a4,a4,a3
20001018:	c398                	sw	a4,0(a5)
2000101a:	57d8                	lw	a4,44(a5)
2000101c:	9b71                	andi	a4,a4,-4
2000101e:	d7d8                	sw	a4,44(a5)
20001020:	bf5d                	j	20000fd6 <ll_tx_wait_finish+0x78>
20001022:	4785                	li	a5,1
20001024:	faf519e3          	bne	a0,a5,20000fd6 <ll_tx_wait_finish+0x78>
20001028:	67b5                	lui	a5,0xd
2000102a:	07bd                	addi	a5,a5,15
2000102c:	c75c                	sw	a5,12(a4)
2000102e:	0000100f          	fence.i
20001032:	401c                	lw	a5,0(s0)
20001034:	6709                	lui	a4,0x2
20001036:	4609                	li	a2,2
20001038:	c798                	sw	a4,8(a5)
2000103a:	f8000713          	li	a4,-128
2000103e:	00002697          	auipc	a3,0x2
20001042:	34e68723          	sb	a4,846(a3) # 2000338c <gBleIPPara+0x4>
20001046:	00002717          	auipc	a4,0x2
2000104a:	33a70713          	addi	a4,a4,826 # 20003380 <gptrBBReg>
2000104e:	4314                	lw	a3,0(a4)
20001050:	4298                	lw	a4,0(a3)
20001052:	8331                	srli	a4,a4,0xc
20001054:	8b0d                	andi	a4,a4,3
20001056:	00c71963          	bne	a4,a2,20001068 <ll_tx_wait_finish+0x10a>
2000105a:	43e00713          	li	a4,1086
2000105e:	d3f8                	sw	a4,100(a5)
20001060:	673d                	lui	a4,0xf
20001062:	073d                	addi	a4,a4,15
20001064:	c7d8                	sw	a4,12(a5)
20001066:	bf85                	j	20000fd6 <ll_tx_wait_finish+0x78>
20001068:	4298                	lw	a4,0(a3)
2000106a:	8331                	srli	a4,a4,0xc
2000106c:	8b0d                	andi	a4,a4,3
2000106e:	e701                	bnez	a4,20001076 <ll_tx_wait_finish+0x118>
20001070:	19600713          	li	a4,406
20001074:	b7ed                	j	2000105e <ll_tx_wait_finish+0x100>
20001076:	1be00713          	li	a4,446
2000107a:	b7d5                	j	2000105e <ll_tx_wait_finish+0x100>
2000107c:	52fc                	lw	a5,100(a3)
2000107e:	f3ad                	bnez	a5,20000fe0 <ll_tx_wait_finish+0x82>
20001080:	bfa5                	j	20000ff8 <ll_tx_wait_finish+0x9a>

20001082 <BLE_CheckHoppingMap>:
BLE_CheckHoppingMap():
20001082:	715d                	addi	sp,sp,-80
20001084:	de4e                	sw	s3,60(sp)
20001086:	00002997          	auipc	s3,0x2
2000108a:	2fa98993          	addi	s3,s3,762 # 20003380 <gptrBBReg>
2000108e:	0009a703          	lw	a4,0(s3)
20001092:	c686                	sw	ra,76(sp)
20001094:	c4a2                	sw	s0,72(sp)
20001096:	c2a6                	sw	s1,68(sp)
20001098:	c0ca                	sw	s2,64(sp)
2000109a:	dc52                	sw	s4,56(sp)
2000109c:	431c                	lw	a5,0(a4)
2000109e:	00002917          	auipc	s2,0x2
200010a2:	34a90913          	addi	s2,s2,842 # 200033e8 <gptrRFENDReg>
200010a6:	00002a17          	auipc	s4,0x2
200010aa:	2fea0a13          	addi	s4,s4,766 # 200033a4 <gptrLLEReg>
200010ae:	e7f7f793          	andi	a5,a5,-385
200010b2:	0807e793          	ori	a5,a5,128
200010b6:	c31c                	sw	a5,0(a4)
200010b8:	00092683          	lw	a3,0(s2)
200010bc:	ffce0737          	lui	a4,0xffce0
200010c0:	177d                	addi	a4,a4,-1
200010c2:	469c                	lw	a5,8(a3)
200010c4:	02800613          	li	a2,40
200010c8:	842a                	mv	s0,a0
200010ca:	8ff9                	and	a5,a5,a4
200010cc:	c69c                	sw	a5,8(a3)
200010ce:	000a2783          	lw	a5,0(s4)
200010d2:	08000713          	li	a4,128
200010d6:	0028                	addi	a0,sp,8
200010d8:	cbb8                	sw	a4,80(a5)
200010da:	84ae                	mv	s1,a1
200010dc:	08100593          	li	a1,129
200010e0:	fcaff0ef          	jal	ra,200008aa <tmos_memset>
200010e4:	e0003097          	auipc	ra,0xe0003
200010e8:	c94080e7          	jalr	-876(ra) # 3d78 <ll_multi_states_check>
200010ec:	e0003097          	auipc	ra,0xe0003
200010f0:	d64080e7          	jalr	-668(ra) # 3e50 <ble_ll_hw_api_shut>
200010f4:	0009a783          	lw	a5,0(s3)
200010f8:	1ff47693          	andi	a3,s0,511
200010fc:	fffc0eb7          	lui	t4,0xfffc0
20001100:	0007a423          	sw	zero,8(a5) # d008 <_data_lma+0x6990>
20001104:	4b98                	lw	a4,16(a5)
20001106:	f8100513          	li	a0,-127
2000110a:	85ce                	mv	a1,s3
2000110c:	03f76713          	ori	a4,a4,63
20001110:	cb98                	sw	a4,16(a5)
20001112:	4ff8                	lw	a4,92(a5)
20001114:	884a                	mv	a6,s2
20001116:	00040fb7          	lui	t6,0x40
2000111a:	e0077713          	andi	a4,a4,-512
2000111e:	8f55                	or	a4,a4,a3
20001120:	cff8                	sw	a4,92(a5)
20001122:	4398                	lw	a4,0(a5)
20001124:	76f5                	lui	a3,0xffffd
20001126:	16fd                	addi	a3,a3,-1
20001128:	8f75                	and	a4,a4,a3
2000112a:	c398                	sw	a4,0(a5)
2000112c:	4398                	lw	a4,0(a5)
2000112e:	003306b7          	lui	a3,0x330
20001132:	4291                	li	t0,4
20001134:	e7f77713          	andi	a4,a4,-385
20001138:	c398                	sw	a4,0(a5)
2000113a:	4398                	lw	a4,0(a5)
2000113c:	1efd                	addi	t4,t4,-1
2000113e:	4385                	li	t2,1
20001140:	e7f77713          	andi	a4,a4,-385
20001144:	10076713          	ori	a4,a4,256
20001148:	c398                	sw	a4,0(a5)
2000114a:	00092703          	lw	a4,0(s2)
2000114e:	02800f13          	li	t5,40
20001152:	471c                	lw	a5,8(a4)
20001154:	8fd5                	or	a5,a5,a3
20001156:	c71c                	sw	a5,8(a4)
20001158:	000a2783          	lw	a5,0(s4)
2000115c:	0d900713          	li	a4,217
20001160:	0034                	addi	a3,sp,8
20001162:	cbb8                	sw	a4,80(a5)
20001164:	4701                	li	a4,0
20001166:	00375893          	srli	a7,a4,0x3
2000116a:	98a6                	add	a7,a7,s1
2000116c:	0008c783          	lbu	a5,0(a7)
20001170:	00777613          	andi	a2,a4,7
20001174:	40c7d7b3          	sra	a5,a5,a2
20001178:	8b85                	andi	a5,a5,1
2000117a:	c7dd                	beqz	a5,20001228 <BLE_CheckHoppingMap+0x1a6>
2000117c:	419c                	lw	a5,0(a1)
2000117e:	00082e03          	lw	t3,0(a6)
20001182:	04079c23          	sh	zero,88(a5)
20001186:	06079023          	sh	zero,96(a5)
2000118a:	02ce2303          	lw	t1,44(t3)
2000118e:	ffd37313          	andi	t1,t1,-3
20001192:	026e2623          	sw	t1,44(t3)
20001196:	0007ae03          	lw	t3,0(a5)
2000119a:	07f77313          	andi	t1,a4,127
2000119e:	f80e7e13          	andi	t3,t3,-128
200011a2:	006e6333          	or	t1,t3,t1
200011a6:	0067a023          	sw	t1,0(a5)
200011aa:	0247a303          	lw	t1,36(a5)
200011ae:	01f36333          	or	t1,t1,t6
200011b2:	0267a223          	sw	t1,36(a5)
200011b6:	4301                	li	t1,0
200011b8:	0607de03          	lhu	t3,96(a5)
200011bc:	03c30763          	beq	t1,t3,200011ea <BLE_CheckHoppingMap+0x168>
200011c0:	0307a303          	lw	t1,48(a5)
200011c4:	00068e03          	lb	t3,0(a3) # 330000 <_data_lma+0x329988>
200011c8:	00f35313          	srli	t1,t1,0xf
200011cc:	0362                	slli	t1,t1,0x18
200011ce:	41835313          	srai	t1,t1,0x18
200011d2:	006e5863          	bge	t3,t1,200011e2 <BLE_CheckHoppingMap+0x160>
200011d6:	0307a303          	lw	t1,48(a5)
200011da:	00f35313          	srli	t1,t1,0xf
200011de:	00668023          	sb	t1,0(a3)
200011e2:	0607d303          	lhu	t1,96(a5)
200011e6:	0ff37313          	andi	t1,t1,255
200011ea:	0587de03          	lhu	t3,88(a5)
200011ee:	fdc2f5e3          	bgeu	t0,t3,200011b8 <BLE_CheckHoppingMap+0x136>
200011f2:	0247a303          	lw	t1,36(a5)
200011f6:	01d37333          	and	t1,t1,t4
200011fa:	0267a223          	sw	t1,36(a5)
200011fe:	00068783          	lb	a5,0(a3)
20001202:	00f45c63          	bge	s0,a5,2000121a <BLE_CheckHoppingMap+0x198>
20001206:	0008c303          	lbu	t1,0(a7)
2000120a:	00c39633          	sll	a2,t2,a2
2000120e:	fff64613          	not	a2,a2
20001212:	00667633          	and	a2,a2,t1
20001216:	00c88023          	sb	a2,0(a7)
2000121a:	863e                	mv	a2,a5
2000121c:	00a7d363          	bge	a5,a0,20001222 <BLE_CheckHoppingMap+0x1a0>
20001220:	862a                	mv	a2,a0
20001222:	01861513          	slli	a0,a2,0x18
20001226:	8561                	srai	a0,a0,0x18
20001228:	0705                	addi	a4,a4,1
2000122a:	0ff77713          	andi	a4,a4,255
2000122e:	0685                	addi	a3,a3,1
20001230:	f3e71be3          	bne	a4,t5,20001166 <BLE_CheckHoppingMap+0xe4>
20001234:	40b6                	lw	ra,76(sp)
20001236:	4426                	lw	s0,72(sp)
20001238:	4496                	lw	s1,68(sp)
2000123a:	4906                	lw	s2,64(sp)
2000123c:	59f2                	lw	s3,60(sp)
2000123e:	5a62                	lw	s4,56(sp)
20001240:	6161                	addi	sp,sp,80
20001242:	8082                	ret

20001244 <LLE_IRQLibHandler>:
LLE_IRQLibHandler():
20001244:	1101                	addi	sp,sp,-32
20001246:	c836                	sw	a3,16(sp)
20001248:	00002697          	auipc	a3,0x2
2000124c:	15c68693          	addi	a3,a3,348 # 200033a4 <gptrLLEReg>
20001250:	c43e                	sw	a5,8(sp)
20001252:	429c                	lw	a5,0(a3)
20001254:	c63a                	sw	a4,12(sp)
20001256:	ca32                	sw	a2,20(sp)
20001258:	47d8                	lw	a4,12(a5)
2000125a:	ce2a                	sw	a0,28(sp)
2000125c:	cc2e                	sw	a1,24(sp)
2000125e:	01171613          	slli	a2,a4,0x11
20001262:	02065563          	bgez	a2,2000128c <LLE_IRQLibHandler+0x48>
20001266:	4798                	lw	a4,8(a5)
20001268:	01171613          	slli	a2,a4,0x11
2000126c:	02065063          	bgez	a2,2000128c <LLE_IRQLibHandler+0x48>
20001270:	577d                	li	a4,-1
20001272:	d7b8                	sw	a4,104(a5)
20001274:	00002717          	auipc	a4,0x2
20001278:	06870713          	addi	a4,a4,104 # 200032dc <gTmosPara>
2000127c:	4f58                	lw	a4,28(a4)
2000127e:	0705                	addi	a4,a4,1
20001280:	00002617          	auipc	a2,0x2
20001284:	06e62c23          	sw	a4,120(a2) # 200032f8 <gTmosPara+0x1c>
20001288:	6711                	lui	a4,0x4
2000128a:	c798                	sw	a4,8(a5)
2000128c:	4798                	lw	a4,8(a5)
2000128e:	830d                	srli	a4,a4,0x3
20001290:	8b05                	andi	a4,a4,1
20001292:	c31d                	beqz	a4,200012b8 <LLE_IRQLibHandler+0x74>
20001294:	00002717          	auipc	a4,0x2
20001298:	0f674703          	lbu	a4,246(a4) # 2000338a <gBleIPPara+0x2>
2000129c:	00176713          	ori	a4,a4,1
200012a0:	00002617          	auipc	a2,0x2
200012a4:	0ee60523          	sb	a4,234(a2) # 2000338a <gBleIPPara+0x2>
200012a8:	f8000713          	li	a4,-128
200012ac:	00002617          	auipc	a2,0x2
200012b0:	0ee60023          	sb	a4,224(a2) # 2000338c <gBleIPPara+0x4>
200012b4:	4721                	li	a4,8
200012b6:	c798                	sw	a4,8(a5)
200012b8:	4798                	lw	a4,8(a5)
200012ba:	8b05                	andi	a4,a4,1
200012bc:	cf09                	beqz	a4,200012d6 <LLE_IRQLibHandler+0x92>
200012be:	00002717          	auipc	a4,0x2
200012c2:	0cb74703          	lbu	a4,203(a4) # 20003389 <gBleIPPara+0x1>
200012c6:	00176713          	ori	a4,a4,1
200012ca:	00002617          	auipc	a2,0x2
200012ce:	0ae60fa3          	sb	a4,191(a2) # 20003389 <gBleIPPara+0x1>
200012d2:	4705                	li	a4,1
200012d4:	c798                	sw	a4,8(a5)
200012d6:	4798                	lw	a4,8(a5)
200012d8:	8309                	srli	a4,a4,0x2
200012da:	8b05                	andi	a4,a4,1
200012dc:	e709                	bnez	a4,200012e6 <LLE_IRQLibHandler+0xa2>
200012de:	4798                	lw	a4,8(a5)
200012e0:	8305                	srli	a4,a4,0x1
200012e2:	8b05                	andi	a4,a4,1
200012e4:	cf39                	beqz	a4,20001342 <LLE_IRQLibHandler+0xfe>
200012e6:	4798                	lw	a4,8(a5)
200012e8:	00002617          	auipc	a2,0x2
200012ec:	0a060613          	addi	a2,a2,160 # 20003388 <gBleIPPara>
200012f0:	00002517          	auipc	a0,0x2
200012f4:	09050513          	addi	a0,a0,144 # 20003380 <gptrBBReg>
200012f8:	8309                	srli	a4,a4,0x2
200012fa:	8b05                	andi	a4,a4,1
200012fc:	10070c63          	beqz	a4,20001414 <LLE_IRQLibHandler+0x1d0>
20001300:	4118                	lw	a4,0(a0)
20001302:	4318                	lw	a4,0(a4)
20001304:	8331                	srli	a4,a4,0xc
20001306:	8b0d                	andi	a4,a4,3
20001308:	10071363          	bnez	a4,2000140e <LLE_IRQLibHandler+0x1ca>
2000130c:	4bac                	lw	a1,80(a5)
2000130e:	4e18                	lw	a4,24(a2)
20001310:	0205f593          	andi	a1,a1,32
20001314:	00174703          	lbu	a4,1(a4)
20001318:	c5e9                	beqz	a1,200013e2 <LLE_IRQLibHandler+0x19e>
2000131a:	e77d                	bnez	a4,20001408 <LLE_IRQLibHandler+0x1c4>
2000131c:	06700713          	li	a4,103
20001320:	cfd8                	sw	a4,28(a5)
20001322:	00064703          	lbu	a4,0(a2)
20001326:	00176713          	ori	a4,a4,1
2000132a:	00002617          	auipc	a2,0x2
2000132e:	04e60f23          	sb	a4,94(a2) # 20003388 <gBleIPPara>
20001332:	4711                	li	a4,4
20001334:	c798                	sw	a4,8(a5)
20001336:	4118                	lw	a4,0(a0)
20001338:	575c                	lw	a5,44(a4)
2000133a:	9bf1                	andi	a5,a5,-4
2000133c:	0017e793          	ori	a5,a5,1
20001340:	d75c                	sw	a5,44(a4)
20001342:	429c                	lw	a5,0(a3)
20001344:	4798                	lw	a4,8(a5)
20001346:	01371693          	slli	a3,a4,0x13
2000134a:	0206d663          	bgez	a3,20001376 <LLE_IRQLibHandler+0x132>
2000134e:	00002697          	auipc	a3,0x2
20001352:	1226c683          	lbu	a3,290(a3) # 20003470 <gBleLlPara+0x70>
20001356:	8ac1                	andi	a3,a3,16
20001358:	00002717          	auipc	a4,0x2
2000135c:	0a870713          	addi	a4,a4,168 # 20003400 <gBleLlPara>
20001360:	c6e1                	beqz	a3,20001428 <LLE_IRQLibHandler+0x1e4>
20001362:	07074703          	lbu	a4,112(a4)
20001366:	02076713          	ori	a4,a4,32
2000136a:	00002697          	auipc	a3,0x2
2000136e:	10e68323          	sb	a4,262(a3) # 20003470 <gBleLlPara+0x70>
20001372:	6705                	lui	a4,0x1
20001374:	c798                	sw	a4,8(a5)
20001376:	4798                	lw	a4,8(a5)
20001378:	01271693          	slli	a3,a4,0x12
2000137c:	0206d163          	bgez	a3,2000139e <LLE_IRQLibHandler+0x15a>
20001380:	00002717          	auipc	a4,0x2
20001384:	00c74703          	lbu	a4,12(a4) # 2000338c <gBleIPPara+0x4>
20001388:	0762                	slli	a4,a4,0x18
2000138a:	8761                	srai	a4,a4,0x18
2000138c:	00075763          	bgez	a4,2000139a <LLE_IRQLibHandler+0x156>
20001390:	4705                	li	a4,1
20001392:	00002697          	auipc	a3,0x2
20001396:	fee68d23          	sb	a4,-6(a3) # 2000338c <gBleIPPara+0x4>
2000139a:	6709                	lui	a4,0x2
2000139c:	c798                	sw	a4,8(a5)
2000139e:	4798                	lw	a4,8(a5)
200013a0:	01071693          	slli	a3,a4,0x10
200013a4:	0206d663          	bgez	a3,200013d0 <LLE_IRQLibHandler+0x18c>
200013a8:	00002697          	auipc	a3,0x2
200013ac:	0c96c683          	lbu	a3,201(a3) # 20003471 <gBleLlPara+0x71>
200013b0:	8a85                	andi	a3,a3,1
200013b2:	00002717          	auipc	a4,0x2
200013b6:	04e70713          	addi	a4,a4,78 # 20003400 <gBleLlPara>
200013ba:	c6c9                	beqz	a3,20001444 <LLE_IRQLibHandler+0x200>
200013bc:	07174703          	lbu	a4,113(a4)
200013c0:	00276713          	ori	a4,a4,2
200013c4:	00002697          	auipc	a3,0x2
200013c8:	0ae686a3          	sb	a4,173(a3) # 20003471 <gBleLlPara+0x71>
200013cc:	6721                	lui	a4,0x8
200013ce:	c798                	sw	a4,8(a5)
200013d0:	4572                	lw	a0,28(sp)
200013d2:	45e2                	lw	a1,24(sp)
200013d4:	4652                	lw	a2,20(sp)
200013d6:	46c2                	lw	a3,16(sp)
200013d8:	4732                	lw	a4,12(sp)
200013da:	47a2                	lw	a5,8(sp)
200013dc:	6105                	addi	sp,sp,32
200013de:	30200073          	mret
200013e2:	df0d                	beqz	a4,2000131c <LLE_IRQLibHandler+0xd8>
200013e4:	4585                	li	a1,1
200013e6:	00b71563          	bne	a4,a1,200013f0 <LLE_IRQLibHandler+0x1ac>
200013ea:	06b00713          	li	a4,107
200013ee:	bf0d                	j	20001320 <LLE_IRQLibHandler+0xdc>
200013f0:	4589                	li	a1,2
200013f2:	00b71563          	bne	a4,a1,200013fc <LLE_IRQLibHandler+0x1b8>
200013f6:	06f00713          	li	a4,111
200013fa:	b71d                	j	20001320 <LLE_IRQLibHandler+0xdc>
200013fc:	458d                	li	a1,3
200013fe:	00b71563          	bne	a4,a1,20001408 <LLE_IRQLibHandler+0x1c4>
20001402:	07300713          	li	a4,115
20001406:	bf29                	j	20001320 <LLE_IRQLibHandler+0xdc>
20001408:	07500713          	li	a4,117
2000140c:	bf11                	j	20001320 <LLE_IRQLibHandler+0xdc>
2000140e:	07600713          	li	a4,118
20001412:	b739                	j	20001320 <LLE_IRQLibHandler+0xdc>
20001414:	00364703          	lbu	a4,3(a2)
20001418:	00176713          	ori	a4,a4,1
2000141c:	00002617          	auipc	a2,0x2
20001420:	f6e607a3          	sb	a4,-145(a2) # 2000338b <gBleIPPara+0x3>
20001424:	4709                	li	a4,2
20001426:	b739                	j	20001334 <LLE_IRQLibHandler+0xf0>
20001428:	07074683          	lbu	a3,112(a4) # 8070 <_data_lma+0x19f8>
2000142c:	4609                	li	a2,2
2000142e:	8abd                	andi	a3,a3,15
20001430:	00c68863          	beq	a3,a2,20001440 <LLE_IRQLibHandler+0x1fc>
20001434:	07074703          	lbu	a4,112(a4)
20001438:	468d                	li	a3,3
2000143a:	8b3d                	andi	a4,a4,15
2000143c:	f2d71be3          	bne	a4,a3,20001372 <LLE_IRQLibHandler+0x12e>
20001440:	4711                	li	a4,4
20001442:	b725                	j	2000136a <LLE_IRQLibHandler+0x126>
20001444:	07174683          	lbu	a3,113(a4)
20001448:	8a91                	andi	a3,a3,4
2000144a:	d2c9                	beqz	a3,200013cc <LLE_IRQLibHandler+0x188>
2000144c:	07174703          	lbu	a4,113(a4)
20001450:	00876713          	ori	a4,a4,8
20001454:	bf85                	j	200013c4 <LLE_IRQLibHandler+0x180>

20001456 <RF_HopGetChannel>:
RF_HopGetChannel():
20001456:	00002717          	auipc	a4,0x2
2000145a:	f5270713          	addi	a4,a4,-174 # 200033a8 <rfConfig>
2000145e:	01b74683          	lbu	a3,27(a4)
20001462:	00002797          	auipc	a5,0x2
20001466:	f737c783          	lbu	a5,-141(a5) # 200033d5 <rfInfo+0xd>
2000146a:	97b6                	add	a5,a5,a3
2000146c:	0ff7f793          	andi	a5,a5,255
20001470:	46fd                	li	a3,31
20001472:	04f6ea63          	bltu	a3,a5,200014c6 <RF_HopGetChannel+0x70>
20001476:	4b4c                	lw	a1,20(a4)
20001478:	00002697          	auipc	a3,0x2
2000147c:	f2f688a3          	sb	a5,-207(a3) # 200033a9 <rfConfig+0x1>
20001480:	00002797          	auipc	a5,0x2
20001484:	f297c783          	lbu	a5,-215(a5) # 200033a9 <rfConfig+0x1>
20001488:	4705                	li	a4,1
2000148a:	00f71733          	sll	a4,a4,a5
2000148e:	00002697          	auipc	a3,0x2
20001492:	f4f683a3          	sb	a5,-185(a3) # 200033d5 <rfInfo+0xd>
20001496:	8f6d                	and	a4,a4,a1
20001498:	ef1d                	bnez	a4,200014d6 <RF_HopGetChannel+0x80>
2000149a:	00002697          	auipc	a3,0x2
2000149e:	f3f6c683          	lbu	a3,-193(a3) # 200033d9 <rfInfo+0x11>
200014a2:	02d7f6b3          	remu	a3,a5,a3
200014a6:	02000513          	li	a0,32
200014aa:	4781                	li	a5,0
200014ac:	00f5d633          	srl	a2,a1,a5
200014b0:	8a05                	andi	a2,a2,1
200014b2:	0ff7f813          	andi	a6,a5,255
200014b6:	ce09                	beqz	a2,200014d0 <RF_HopGetChannel+0x7a>
200014b8:	00e69963          	bne	a3,a4,200014ca <RF_HopGetChannel+0x74>
200014bc:	00002797          	auipc	a5,0x2
200014c0:	ef0786a3          	sb	a6,-275(a5) # 200033a9 <rfConfig+0x1>
200014c4:	8082                	ret
200014c6:	1781                	addi	a5,a5,-32
200014c8:	b77d                	j	20001476 <RF_HopGetChannel+0x20>
200014ca:	0705                	addi	a4,a4,1
200014cc:	0ff77713          	andi	a4,a4,255
200014d0:	0785                	addi	a5,a5,1
200014d2:	fca79de3          	bne	a5,a0,200014ac <RF_HopGetChannel+0x56>
200014d6:	8082                	ret

200014d8 <RF_FrequencyHoppingGet>:
RF_FrequencyHoppingGet():
200014d8:	00002797          	auipc	a5,0x2
200014dc:	ea078793          	addi	a5,a5,-352 # 20003378 <fnGetClockCBs>
200014e0:	439c                	lw	a5,0(a5)
200014e2:	1101                	addi	sp,sp,-32
200014e4:	cc22                	sw	s0,24(sp)
200014e6:	c64e                	sw	s3,12(sp)
200014e8:	ce06                	sw	ra,28(sp)
200014ea:	ca26                	sw	s1,20(sp)
200014ec:	c84a                	sw	s2,16(sp)
200014ee:	c452                	sw	s4,8(sp)
200014f0:	c256                	sw	s5,4(sp)
200014f2:	9782                	jalr	a5
200014f4:	00002797          	auipc	a5,0x2
200014f8:	ed478793          	addi	a5,a5,-300 # 200033c8 <rfInfo>
200014fc:	4780                	lw	s0,8(a5)
200014fe:	4981                	li	s3,0
20001500:	06a40563          	beq	s0,a0,2000156a <RF_FrequencyHoppingGet+0x92>
20001504:	84be                	mv	s1,a5
20001506:	00002797          	auipc	a5,0x2
2000150a:	e2e78793          	addi	a5,a5,-466 # 20003334 <ble>
2000150e:	01678703          	lb	a4,22(a5)
20001512:	893e                	mv	s2,a5
20001514:	06075563          	bgez	a4,2000157e <RF_FrequencyHoppingGet+0xa6>
20001518:	8d01                	sub	a0,a0,s0
2000151a:	00555413          	srli	s0,a0,0x5
2000151e:	00002797          	auipc	a5,0x2
20001522:	ea47c783          	lbu	a5,-348(a5) # 200033c2 <rfConfig+0x1a>
20001526:	01f57993          	andi	s3,a0,31
2000152a:	02f46d63          	bltu	s0,a5,20001564 <RF_FrequencyHoppingGet+0x8c>
2000152e:	a8c00a37          	lui	s4,0xa8c00
20001532:	57400ab7          	lui	s5,0x57400
20001536:	3705                	jal	20001456 <RF_HopGetChannel>
20001538:	449c                	lw	a5,8(s1)
2000153a:	00002697          	auipc	a3,0x2
2000153e:	e886c683          	lbu	a3,-376(a3) # 200033c2 <rfConfig+0x1a>
20001542:	00569713          	slli	a4,a3,0x5
20001546:	973e                	add	a4,a4,a5
20001548:	01690783          	lb	a5,22(s2)
2000154c:	8c15                	sub	s0,s0,a3
2000154e:	0007c563          	bltz	a5,20001558 <RF_FrequencyHoppingGet+0x80>
20001552:	01476363          	bltu	a4,s4,20001558 <RF_FrequencyHoppingGet+0x80>
20001556:	9756                	add	a4,a4,s5
20001558:	00002797          	auipc	a5,0x2
2000155c:	e6e7ac23          	sw	a4,-392(a5) # 200033d0 <rfInfo+0x8>
20001560:	fcd47be3          	bgeu	s0,a3,20001536 <RF_FrequencyHoppingGet+0x5e>
20001564:	0416                	slli	s0,s0,0x5
20001566:	013469b3          	or	s3,s0,s3
2000156a:	40f2                	lw	ra,28(sp)
2000156c:	4462                	lw	s0,24(sp)
2000156e:	854e                	mv	a0,s3
20001570:	44d2                	lw	s1,20(sp)
20001572:	4942                	lw	s2,16(sp)
20001574:	49b2                	lw	s3,12(sp)
20001576:	4a22                	lw	s4,8(sp)
20001578:	4a92                	lw	s5,4(sp)
2000157a:	6105                	addi	sp,sp,32
2000157c:	8082                	ret
2000157e:	f8857de3          	bgeu	a0,s0,20001518 <RF_FrequencyHoppingGet+0x40>
20001582:	a8c007b7          	lui	a5,0xa8c00
20001586:	40878433          	sub	s0,a5,s0
2000158a:	9522                	add	a0,a0,s0
2000158c:	b779                	j	2000151a <RF_FrequencyHoppingGet+0x42>

2000158e <RF_FrequencyHoppingChange>:
RF_FrequencyHoppingChange():
2000158e:	00002797          	auipc	a5,0x2
20001592:	dea78793          	addi	a5,a5,-534 # 20003378 <fnGetClockCBs>
20001596:	439c                	lw	a5,0(a5)
20001598:	1141                	addi	sp,sp,-16
2000159a:	c422                	sw	s0,8(sp)
2000159c:	c606                	sw	ra,12(sp)
2000159e:	c226                	sw	s1,4(sp)
200015a0:	9782                	jalr	a5
200015a2:	00002797          	auipc	a5,0x2
200015a6:	e2678793          	addi	a5,a5,-474 # 200033c8 <rfInfo>
200015aa:	4780                	lw	s0,8(a5)
200015ac:	06a40963          	beq	s0,a0,2000161e <RF_FrequencyHoppingChange+0x90>
200015b0:	84be                	mv	s1,a5
200015b2:	00002797          	auipc	a5,0x2
200015b6:	d8278793          	addi	a5,a5,-638 # 20003334 <ble>
200015ba:	01678783          	lb	a5,22(a5)
200015be:	0407d863          	bgez	a5,2000160e <RF_FrequencyHoppingChange+0x80>
200015c2:	8d01                	sub	a0,a0,s0
200015c4:	00555413          	srli	s0,a0,0x5
200015c8:	00002797          	auipc	a5,0x2
200015cc:	dfa7c783          	lbu	a5,-518(a5) # 200033c2 <rfConfig+0x1a>
200015d0:	04f46763          	bltu	s0,a5,2000161e <RF_FrequencyHoppingChange+0x90>
200015d4:	3549                	jal	20001456 <RF_HopGetChannel>
200015d6:	4498                	lw	a4,8(s1)
200015d8:	00002797          	auipc	a5,0x2
200015dc:	dea7c783          	lbu	a5,-534(a5) # 200033c2 <rfConfig+0x1a>
200015e0:	00579693          	slli	a3,a5,0x5
200015e4:	9736                	add	a4,a4,a3
200015e6:	8c1d                	sub	s0,s0,a5
200015e8:	00002697          	auipc	a3,0x2
200015ec:	dee6a423          	sw	a4,-536(a3) # 200033d0 <rfInfo+0x8>
200015f0:	fef472e3          	bgeu	s0,a5,200015d4 <RF_FrequencyHoppingChange+0x46>
200015f4:	4422                	lw	s0,8(sp)
200015f6:	40b2                	lw	ra,12(sp)
200015f8:	4492                	lw	s1,4(sp)
200015fa:	00002517          	auipc	a0,0x2
200015fe:	daf54503          	lbu	a0,-593(a0) # 200033a9 <rfConfig+0x1>
20001602:	4581                	li	a1,0
20001604:	0141                	addi	sp,sp,16
20001606:	e0003317          	auipc	t1,0xe0003
2000160a:	a6430067          	jr	-1436(t1) # 406a <RF_DevSetChannel>
2000160e:	fa857ae3          	bgeu	a0,s0,200015c2 <RF_FrequencyHoppingChange+0x34>
20001612:	a8c007b7          	lui	a5,0xa8c00
20001616:	40878433          	sub	s0,a5,s0
2000161a:	9522                	add	a0,a0,s0
2000161c:	b765                	j	200015c4 <RF_FrequencyHoppingChange+0x36>
2000161e:	40b2                	lw	ra,12(sp)
20001620:	4422                	lw	s0,8(sp)
20001622:	4492                	lw	s1,4(sp)
20001624:	0141                	addi	sp,sp,16
20001626:	8082                	ret

20001628 <RFEND_WaitTune>:
RFEND_WaitTune():
20001628:	00002797          	auipc	a5,0x2
2000162c:	dc078793          	addi	a5,a5,-576 # 200033e8 <gptrRFENDReg>
20001630:	4398                	lw	a4,0(a5)
20001632:	000257b7          	lui	a5,0x25
20001636:	9f078793          	addi	a5,a5,-1552 # 249f0 <_data_lma+0x1e378>
2000163a:	09072683          	lw	a3,144(a4)
2000163e:	00569613          	slli	a2,a3,0x5
20001642:	00065863          	bgez	a2,20001652 <RFEND_WaitTune+0x2a>
20001646:	09072683          	lw	a3,144(a4)
2000164a:	00669613          	slli	a2,a3,0x6
2000164e:	00064463          	bltz	a2,20001656 <RFEND_WaitTune+0x2e>
20001652:	17fd                	addi	a5,a5,-1
20001654:	f3fd                	bnez	a5,2000163a <RFEND_WaitTune+0x12>
20001656:	8082                	ret

20001658 <tmos_memory_allocate>:
tmos_memory_allocate():
20001658:	c571                	beqz	a0,20001724 <tmos_memory_allocate+0xcc>
2000165a:	87aa                	mv	a5,a0
2000165c:	4501                	li	a0,0
2000165e:	c5e9                	beqz	a1,20001728 <tmos_memory_allocate+0xd0>
20001660:	078d                	addi	a5,a5,3
20001662:	07c2                	slli	a5,a5,0x10
20001664:	83c1                	srli	a5,a5,0x10
20001666:	9bf1                	andi	a5,a5,-4
20001668:	07c2                	slli	a5,a5,0x10
2000166a:	83c1                	srli	a5,a5,0x10
2000166c:	03400713          	li	a4,52
20001670:	02f76f63          	bltu	a4,a5,200016ae <tmos_memory_allocate+0x56>
20001674:	00002717          	auipc	a4,0x2
20001678:	d8470713          	addi	a4,a4,-636 # 200033f8 <MemCtlStart>
2000167c:	4308                	lw	a0,0(a4)
2000167e:	00002717          	auipc	a4,0x2
20001682:	d7270713          	addi	a4,a4,-654 # 200033f0 <MemCtlEnd>
20001686:	4314                	lw	a3,0(a4)
20001688:	02a69863          	bne	a3,a0,200016b8 <tmos_memory_allocate+0x60>
2000168c:	00002717          	auipc	a4,0x2
20001690:	ca870713          	addi	a4,a4,-856 # 20003334 <ble>
20001694:	5b18                	lw	a4,48(a4)
20001696:	4501                	li	a0,0
20001698:	cb41                	beqz	a4,20001728 <tmos_memory_allocate+0xd0>
2000169a:	1141                	addi	sp,sp,-16
2000169c:	07c2                	slli	a5,a5,0x10
2000169e:	c606                	sw	ra,12(sp)
200016a0:	4505                	li	a0,1
200016a2:	8ddd                	or	a1,a1,a5
200016a4:	9702                	jalr	a4
200016a6:	40b2                	lw	ra,12(sp)
200016a8:	4501                	li	a0,0
200016aa:	0141                	addi	sp,sp,16
200016ac:	8082                	ret
200016ae:	00002717          	auipc	a4,0x2
200016b2:	d4670713          	addi	a4,a4,-698 # 200033f4 <MemCtlPartition>
200016b6:	b7d9                	j	2000167c <tmos_memory_allocate+0x24>
200016b8:	00655703          	lhu	a4,6(a0)
200016bc:	e335                	bnez	a4,20001720 <tmos_memory_allocate+0xc8>
200016be:	00455703          	lhu	a4,4(a0)
200016c2:	04f76f63          	bltu	a4,a5,20001720 <tmos_memory_allocate+0xc8>
200016c6:	40f706b3          	sub	a3,a4,a5
200016ca:	4621                	li	a2,8
200016cc:	02d67c63          	bgeu	a2,a3,20001704 <tmos_memory_allocate+0xac>
200016d0:	00052803          	lw	a6,0(a0)
200016d4:	00878693          	addi	a3,a5,8
200016d8:	8f1d                	sub	a4,a4,a5
200016da:	96aa                	add	a3,a3,a0
200016dc:	1761                	addi	a4,a4,-8
200016de:	00002617          	auipc	a2,0x2
200016e2:	c0465603          	lhu	a2,-1020(a2) # 200032e2 <gTmosPara+0x6>
200016e6:	00e69223          	sh	a4,4(a3)
200016ea:	0106a023          	sw	a6,0(a3)
200016ee:	00069323          	sh	zero,6(a3)
200016f2:	c114                	sw	a3,0(a0)
200016f4:	00f51223          	sh	a5,4(a0)
200016f8:	ff860713          	addi	a4,a2,-8
200016fc:	00002697          	auipc	a3,0x2
20001700:	bee69323          	sh	a4,-1050(a3) # 200032e2 <gTmosPara+0x6>
20001704:	00b51323          	sh	a1,6(a0)
20001708:	00002597          	auipc	a1,0x2
2000170c:	bda5d583          	lhu	a1,-1062(a1) # 200032e2 <gTmosPara+0x6>
20001710:	40f587b3          	sub	a5,a1,a5
20001714:	00002717          	auipc	a4,0x2
20001718:	bcf71723          	sh	a5,-1074(a4) # 200032e2 <gTmosPara+0x6>
2000171c:	0521                	addi	a0,a0,8
2000171e:	8082                	ret
20001720:	4108                	lw	a0,0(a0)
20001722:	b79d                	j	20001688 <tmos_memory_allocate+0x30>
20001724:	4501                	li	a0,0
20001726:	8082                	ret
20001728:	8082                	ret

2000172a <tmos_memory_free>:
tmos_memory_free():
2000172a:	c10d                	beqz	a0,2000174c <tmos_memory_free+0x22>
2000172c:	00002797          	auipc	a5,0x2
20001730:	ccc78793          	addi	a5,a5,-820 # 200033f8 <MemCtlStart>
20001734:	0007a303          	lw	t1,0(a5)
20001738:	00002797          	auipc	a5,0x2
2000173c:	cb878793          	addi	a5,a5,-840 # 200033f0 <MemCtlEnd>
20001740:	0007a883          	lw	a7,0(a5)
20001744:	4681                	li	a3,0
20001746:	879a                	mv	a5,t1
20001748:	0117e363          	bltu	a5,a7,2000174e <tmos_memory_free+0x24>
2000174c:	8082                	ret
2000174e:	0007a803          	lw	a6,0(a5)
20001752:	0af56d63          	bltu	a0,a5,2000180c <tmos_memory_free+0xe2>
20001756:	0aa86b63          	bltu	a6,a0,2000180c <tmos_memory_free+0xe2>
2000175a:	00878713          	addi	a4,a5,8
2000175e:	fee567e3          	bltu	a0,a4,2000174c <tmos_memory_free+0x22>
20001762:	0067d603          	lhu	a2,6(a5)
20001766:	6721                	lui	a4,0x8
20001768:	0705                	addi	a4,a4,1
2000176a:	00e61763          	bne	a2,a4,20001778 <tmos_memory_free+0x4e>
2000176e:	8151c703          	lbu	a4,-2027(gp) # 2000182d <l2capNumRecvDataPkts>
20001772:	0705                	addi	a4,a4,1
20001774:	80e18aa3          	sb	a4,-2027(gp) # 2000182d <l2capNumRecvDataPkts>
20001778:	00002597          	auipc	a1,0x2
2000177c:	b6458593          	addi	a1,a1,-1180 # 200032dc <gTmosPara>
20001780:	0047d603          	lhu	a2,4(a5)
20001784:	0065d703          	lhu	a4,6(a1)
20001788:	00079323          	sh	zero,6(a5)
2000178c:	9732                	add	a4,a4,a2
2000178e:	0742                	slli	a4,a4,0x10
20001790:	8341                	srli	a4,a4,0x10
20001792:	00002517          	auipc	a0,0x2
20001796:	b4e51823          	sh	a4,-1200(a0) # 200032e2 <gTmosPara+0x6>
2000179a:	02678a63          	beq	a5,t1,200017ce <tmos_memory_free+0xa4>
2000179e:	00002517          	auipc	a0,0x2
200017a2:	c5650513          	addi	a0,a0,-938 # 200033f4 <MemCtlPartition>
200017a6:	4108                	lw	a0,0(a0)
200017a8:	02f50363          	beq	a0,a5,200017ce <tmos_memory_free+0xa4>
200017ac:	0066d503          	lhu	a0,6(a3)
200017b0:	ed19                	bnez	a0,200017ce <tmos_memory_free+0xa4>
200017b2:	0046d783          	lhu	a5,4(a3)
200017b6:	0106a023          	sw	a6,0(a3)
200017ba:	0721                	addi	a4,a4,8
200017bc:	963e                	add	a2,a2,a5
200017be:	0621                	addi	a2,a2,8
200017c0:	00c69223          	sh	a2,4(a3)
200017c4:	00002797          	auipc	a5,0x2
200017c8:	b0e79f23          	sh	a4,-1250(a5) # 200032e2 <gTmosPara+0x6>
200017cc:	87b6                	mv	a5,a3
200017ce:	4398                	lw	a4,0(a5)
200017d0:	f7170ee3          	beq	a4,a7,2000174c <tmos_memory_free+0x22>
200017d4:	00002697          	auipc	a3,0x2
200017d8:	c2068693          	addi	a3,a3,-992 # 200033f4 <MemCtlPartition>
200017dc:	4294                	lw	a3,0(a3)
200017de:	f6d707e3          	beq	a4,a3,2000174c <tmos_memory_free+0x22>
200017e2:	00675683          	lhu	a3,6(a4) # 8006 <_data_lma+0x198e>
200017e6:	f2bd                	bnez	a3,2000174c <tmos_memory_free+0x22>
200017e8:	0047d683          	lhu	a3,4(a5)
200017ec:	00475603          	lhu	a2,4(a4)
200017f0:	4318                	lw	a4,0(a4)
200017f2:	06a1                	addi	a3,a3,8
200017f4:	96b2                	add	a3,a3,a2
200017f6:	00d79223          	sh	a3,4(a5)
200017fa:	c398                	sw	a4,0(a5)
200017fc:	0065d783          	lhu	a5,6(a1)
20001800:	07a1                	addi	a5,a5,8
20001802:	00002717          	auipc	a4,0x2
20001806:	aef71023          	sh	a5,-1312(a4) # 200032e2 <gTmosPara+0x6>
2000180a:	8082                	ret
2000180c:	86be                	mv	a3,a5
2000180e:	87c2                	mv	a5,a6
20001810:	bf25                	j	20001748 <tmos_memory_free+0x1e>
	...

Disassembly of section .text:

00001818 <handle_reset>:
handle_reset():
E:\tp78_v2\mounriver_project\RF_CH582M\obj/../Startup/startup_CH583.S:125
	.weak	handle_reset
	.align	1
handle_reset:
.option push 
.option	norelax 
	la gp, __global_pointer$
    1818:	20001197          	auipc	gp,0x20001
    181c:	80018193          	addi	gp,gp,-2048 # 20002018 <__global_pointer$>
E:\tp78_v2\mounriver_project\RF_CH582M\obj/../Startup/startup_CH583.S:128
.option	pop 
1:
	la sp, _eusrstack 
    1820:	20006117          	auipc	sp,0x20006
    1824:	7e010113          	addi	sp,sp,2016 # 20008000 <_eusrstack>
E:\tp78_v2\mounriver_project\RF_CH582M\obj/../Startup/startup_CH583.S:132

/* Load highcode code  section from flash to RAM */
2:
    la a0, _highcode_lma
    1828:	00400513          	li	a0,4
E:\tp78_v2\mounriver_project\RF_CH582M\obj/../Startup/startup_CH583.S:133
    la a1, _highcode_vma_start
    182c:	1fffe597          	auipc	a1,0x1fffe
    1830:	7d458593          	addi	a1,a1,2004 # 20000000 <_highcode_vma_start>
E:\tp78_v2\mounriver_project\RF_CH582M\obj/../Startup/startup_CH583.S:134
    la a2, _highcode_vma_end
    1834:	20000617          	auipc	a2,0x20000
    1838:	fe060613          	addi	a2,a2,-32 # 20001814 <_highcode_vma_end>
E:\tp78_v2\mounriver_project\RF_CH582M\obj/../Startup/startup_CH583.S:135
    bgeu a1, a2, 2f
    183c:	00c5fa63          	bgeu	a1,a2,1850 <handle_reset+0x38>
E:\tp78_v2\mounriver_project\RF_CH582M\obj/../Startup/startup_CH583.S:137
1:
    lw t0, (a0)
    1840:	00052283          	lw	t0,0(a0)
E:\tp78_v2\mounriver_project\RF_CH582M\obj/../Startup/startup_CH583.S:138
    sw t0, (a1)
    1844:	0055a023          	sw	t0,0(a1)
E:\tp78_v2\mounriver_project\RF_CH582M\obj/../Startup/startup_CH583.S:139
    addi a0, a0, 4
    1848:	0511                	addi	a0,a0,4
E:\tp78_v2\mounriver_project\RF_CH582M\obj/../Startup/startup_CH583.S:140
    addi a1, a1, 4
    184a:	0591                	addi	a1,a1,4
E:\tp78_v2\mounriver_project\RF_CH582M\obj/../Startup/startup_CH583.S:141
    bltu a1, a2, 1b
    184c:	fec5eae3          	bltu	a1,a2,1840 <handle_reset+0x28>
E:\tp78_v2\mounriver_project\RF_CH582M\obj/../Startup/startup_CH583.S:145

/* Load data section from flash to RAM */
2:
	la a0, _data_lma
    1850:	00005517          	auipc	a0,0x5
    1854:	e2850513          	addi	a0,a0,-472 # 6678 <_data_lma>
E:\tp78_v2\mounriver_project\RF_CH582M\obj/../Startup/startup_CH583.S:146
	la a1, _data_vma
    1858:	20000597          	auipc	a1,0x20000
    185c:	fbc58593          	addi	a1,a1,-68 # 20001814 <_highcode_vma_end>
E:\tp78_v2\mounriver_project\RF_CH582M\obj/../Startup/startup_CH583.S:147
	la a2, _edata
    1860:	80818613          	addi	a2,gp,-2040 # 20001820 <_edata>
E:\tp78_v2\mounriver_project\RF_CH582M\obj/../Startup/startup_CH583.S:148
	bgeu a1, a2, 2f
    1864:	00c5fa63          	bgeu	a1,a2,1878 <handle_reset+0x60>
E:\tp78_v2\mounriver_project\RF_CH582M\obj/../Startup/startup_CH583.S:150
1:
	lw t0, (a0)
    1868:	00052283          	lw	t0,0(a0)
E:\tp78_v2\mounriver_project\RF_CH582M\obj/../Startup/startup_CH583.S:151
	sw t0, (a1)
    186c:	0055a023          	sw	t0,0(a1)
E:\tp78_v2\mounriver_project\RF_CH582M\obj/../Startup/startup_CH583.S:152
	addi a0, a0, 4
    1870:	0511                	addi	a0,a0,4
E:\tp78_v2\mounriver_project\RF_CH582M\obj/../Startup/startup_CH583.S:153
	addi a1, a1, 4
    1872:	0591                	addi	a1,a1,4
E:\tp78_v2\mounriver_project\RF_CH582M\obj/../Startup/startup_CH583.S:154
	bltu a1, a2, 1b
    1874:	fec5eae3          	bltu	a1,a2,1868 <handle_reset+0x50>
E:\tp78_v2\mounriver_project\RF_CH582M\obj/../Startup/startup_CH583.S:157
2:
	/* clear bss section */
	la a0, _sbss
    1878:	80818513          	addi	a0,gp,-2040 # 20001820 <_edata>
E:\tp78_v2\mounriver_project\RF_CH582M\obj/../Startup/startup_CH583.S:158
	la a1, _ebss
    187c:	20002597          	auipc	a1,0x20002
    1880:	c9c58593          	addi	a1,a1,-868 # 20003518 <_ebss>
E:\tp78_v2\mounriver_project\RF_CH582M\obj/../Startup/startup_CH583.S:159
	bgeu a0, a1, 2f
    1884:	00b57763          	bgeu	a0,a1,1892 <handle_reset+0x7a>
E:\tp78_v2\mounriver_project\RF_CH582M\obj/../Startup/startup_CH583.S:161
1:
	sw zero, (a0)
    1888:	00052023          	sw	zero,0(a0)
E:\tp78_v2\mounriver_project\RF_CH582M\obj/../Startup/startup_CH583.S:162
	addi a0, a0, 4
    188c:	0511                	addi	a0,a0,4
E:\tp78_v2\mounriver_project\RF_CH582M\obj/../Startup/startup_CH583.S:163
	bltu a0, a1, 1b
    188e:	feb56de3          	bltu	a0,a1,1888 <handle_reset+0x70>
E:\tp78_v2\mounriver_project\RF_CH582M\obj/../Startup/startup_CH583.S:166
2:
	/* 流水线控制位 & 动态预测控制位 */
	li t0, 0x1f
    1892:	42fd                	li	t0,31
E:\tp78_v2\mounriver_project\RF_CH582M\obj/../Startup/startup_CH583.S:167
	csrw 0xbc0, t0
    1894:	bc029073          	csrw	0xbc0,t0
E:\tp78_v2\mounriver_project\RF_CH582M\obj/../Startup/startup_CH583.S:169
	/* 打开嵌套中断、硬件压栈功能 */
	li t0, 0x3
    1898:	428d                	li	t0,3
E:\tp78_v2\mounriver_project\RF_CH582M\obj/../Startup/startup_CH583.S:170
	csrw 0x804, t0
    189a:	80429073          	csrw	0x804,t0
E:\tp78_v2\mounriver_project\RF_CH582M\obj/../Startup/startup_CH583.S:172
	
    li t0, 0x88
    189e:	08800293          	li	t0,136
E:\tp78_v2\mounriver_project\RF_CH582M\obj/../Startup/startup_CH583.S:173
    csrs mstatus, t0
    18a2:	3002a073          	csrs	mstatus,t0
E:\tp78_v2\mounriver_project\RF_CH582M\obj/../Startup/startup_CH583.S:174
	la t0, _vector_base
    18a6:	1fffe297          	auipc	t0,0x1fffe
    18aa:	75a28293          	addi	t0,t0,1882 # 20000000 <_highcode_vma_start>
E:\tp78_v2\mounriver_project\RF_CH582M\obj/../Startup/startup_CH583.S:177

	/* 配置向量表模式为绝对地址模式 */
    ori t0, t0, 3
    18ae:	0032e293          	ori	t0,t0,3
E:\tp78_v2\mounriver_project\RF_CH582M\obj/../Startup/startup_CH583.S:178
	csrw mtvec, t0
    18b2:	30529073          	csrw	mtvec,t0
E:\tp78_v2\mounriver_project\RF_CH582M\obj/../Startup/startup_CH583.S:180

	la t0, main
    18b6:	00001297          	auipc	t0,0x1
    18ba:	4ec28293          	addi	t0,t0,1260 # 2da2 <main>
E:\tp78_v2\mounriver_project\RF_CH582M\obj/../Startup/startup_CH583.S:181
	csrw mepc, t0
    18be:	34129073          	csrw	mepc,t0
E:\tp78_v2\mounriver_project\RF_CH582M\obj/../Startup/startup_CH583.S:184
	
	
	mret
    18c2:	30200073          	mret

000018c6 <ADC_InterTSSampInit>:
ADC_InterTSSampInit():
E:\tp78_v2\mounriver_project\RF_CH582M\obj/../StdPeriphDriver/CH58x_adc.c:94
 *
 * @return  none
 */
void ADC_InterTSSampInit(void)
{
    R8_TKEY_CFG &= ~RB_TKEY_PWR_ON;
    18c6:	400017b7          	lui	a5,0x40001
    18ca:	0577c703          	lbu	a4,87(a5) # 40001057 <_eusrstack+0x1fff9057>
    18ce:	0fe77713          	andi	a4,a4,254
    18d2:	04e78ba3          	sb	a4,87(a5)
E:\tp78_v2\mounriver_project\RF_CH582M\obj/../StdPeriphDriver/CH58x_adc.c:95
    R8_TEM_SENSOR = RB_TEM_SEN_PWR_ON;
    18d6:	f8000713          	li	a4,-128
    18da:	04e78da3          	sb	a4,91(a5)
E:\tp78_v2\mounriver_project\RF_CH582M\obj/../StdPeriphDriver/CH58x_adc.c:96
    R8_ADC_CHANNEL = CH_INTE_VTEMP;
    18de:	473d                	li	a4,15
    18e0:	04e78c23          	sb	a4,88(a5)
E:\tp78_v2\mounriver_project\RF_CH582M\obj/../StdPeriphDriver/CH58x_adc.c:97
    R8_ADC_CFG = RB_ADC_POWER_ON | RB_ADC_DIFF_EN | (3 << 4);
    18e4:	03500713          	li	a4,53
    18e8:	04e78ca3          	sb	a4,89(a5)
E:\tp78_v2\mounriver_project\RF_CH582M\obj/../StdPeriphDriver/CH58x_adc.c:98
}
    18ec:	8082                	ret

000018ee <Calibration_LSI>:
Calibration_LSI():
E:\tp78_v2\mounriver_project\RF_CH582M\obj/../StdPeriphDriver/CH58x_clk.c:142
 *                              Level_128 -   用时 4.2ms 600ppm  (32M 主频)  800ppm  (60M 主频)
 *
 * @return  none
 */
void Calibration_LSI(Cali_LevelTypeDef cali_Lv)
{
    18ee:	1141                	addi	sp,sp,-16
    18f0:	c422                	sw	s0,8(sp)
    18f2:	c606                	sw	ra,12(sp)
    18f4:	842a                	mv	s0,a0
E:\tp78_v2\mounriver_project\RF_CH582M\obj/../StdPeriphDriver/CH58x_clk.c:148
    UINT32 i;
    INT32  cnt_offset;
    UINT8  retry = 0;
    INT32  freq_sys;

    freq_sys = GetSysClock();
    18f6:	29c9                	jal	1dc8 <GetSysClock>
E:\tp78_v2\mounriver_project\RF_CH582M\obj/../StdPeriphDriver/CH58x_clk.c:149
    R8_SAFE_ACCESS_SIG = SAFE_ACCESS_SIG1;
    18f8:	40001737          	lui	a4,0x40001
    18fc:	05700693          	li	a3,87
    1900:	04d70023          	sb	a3,64(a4) # 40001040 <_eusrstack+0x1fff9040>
E:\tp78_v2\mounriver_project\RF_CH582M\obj/../StdPeriphDriver/CH58x_clk.c:150
    R8_SAFE_ACCESS_SIG = SAFE_ACCESS_SIG2;
    1904:	fa800793          	li	a5,-88
    1908:	04f70023          	sb	a5,64(a4)
E:\tp78_v2\mounriver_project\RF_CH582M\obj/../StdPeriphDriver/CH58x_clk.c:151
    SAFEOPERATE;
    190c:	0001                	nop
    190e:	0001                	nop
E:\tp78_v2\mounriver_project\RF_CH582M\obj/../StdPeriphDriver/CH58x_clk.c:152
    R8_CK32K_CONFIG |= RB_CLK_OSC32K_FILT;
    1910:	02f74603          	lbu	a2,47(a4)
    1914:	00866613          	ori	a2,a2,8
    1918:	02c707a3          	sb	a2,47(a4)
E:\tp78_v2\mounriver_project\RF_CH582M\obj/../StdPeriphDriver/CH58x_clk.c:153
    R8_CK32K_CONFIG &= ~RB_CLK_OSC32K_FILT;
    191c:	02f74603          	lbu	a2,47(a4)
    1920:	0f767613          	andi	a2,a2,247
    1924:	02c707a3          	sb	a2,47(a4)
E:\tp78_v2\mounriver_project\RF_CH582M\obj/../StdPeriphDriver/CH58x_clk.c:154
    R8_XT32K_TUNE &= ~3;
    1928:	02e74603          	lbu	a2,46(a4)
    192c:	0fc67613          	andi	a2,a2,252
    1930:	02c70723          	sb	a2,46(a4)
E:\tp78_v2\mounriver_project\RF_CH582M\obj/../StdPeriphDriver/CH58x_clk.c:155
    R8_XT32K_TUNE |= 1;
    1934:	02e74603          	lbu	a2,46(a4)
    1938:	00166613          	ori	a2,a2,1
    193c:	02c70723          	sb	a2,46(a4)
E:\tp78_v2\mounriver_project\RF_CH582M\obj/../StdPeriphDriver/CH58x_clk.c:158

    // 粗调
    R8_SAFE_ACCESS_SIG = SAFE_ACCESS_SIG1;
    1940:	04d70023          	sb	a3,64(a4)
E:\tp78_v2\mounriver_project\RF_CH582M\obj/../StdPeriphDriver/CH58x_clk.c:159
    R8_SAFE_ACCESS_SIG = SAFE_ACCESS_SIG2;
    1944:	04f70023          	sb	a5,64(a4)
E:\tp78_v2\mounriver_project\RF_CH582M\obj/../StdPeriphDriver/CH58x_clk.c:160
    SAFEOPERATE;
    1948:	0001                	nop
    194a:	0001                	nop
E:\tp78_v2\mounriver_project\RF_CH582M\obj/../StdPeriphDriver/CH58x_clk.c:161
    R8_OSC_CAL_CTRL &= ~RB_OSC_CNT_TOTAL;
    194c:	05374603          	lbu	a2,83(a4)
    1950:	0f867613          	andi	a2,a2,248
    1954:	04c709a3          	sb	a2,83(a4)
E:\tp78_v2\mounriver_project\RF_CH582M\obj/../StdPeriphDriver/CH58x_clk.c:162
    R8_OSC_CAL_CTRL |= 1;
    1958:	05374603          	lbu	a2,83(a4)
    195c:	00166613          	ori	a2,a2,1
    1960:	04c709a3          	sb	a2,83(a4)
E:\tp78_v2\mounriver_project\RF_CH582M\obj/../StdPeriphDriver/CH58x_clk.c:163
    R8_SAFE_ACCESS_SIG = SAFE_ACCESS_SIG1;
    1964:	04d70023          	sb	a3,64(a4)
E:\tp78_v2\mounriver_project\RF_CH582M\obj/../StdPeriphDriver/CH58x_clk.c:164
    R8_SAFE_ACCESS_SIG = SAFE_ACCESS_SIG2;
    1968:	04f70023          	sb	a5,64(a4)
E:\tp78_v2\mounriver_project\RF_CH582M\obj/../StdPeriphDriver/CH58x_clk.c:165
    SAFEOPERATE;
    196c:	0001                	nop
    196e:	0001                	nop
E:\tp78_v2\mounriver_project\RF_CH582M\obj/../StdPeriphDriver/CH58x_clk.c:166
    R8_OSC_CAL_CTRL |= RB_OSC_CNT_EN;
    1970:	05374783          	lbu	a5,83(a4)
E:\tp78_v2\mounriver_project\RF_CH582M\obj/../StdPeriphDriver/CH58x_clk.c:167
    R16_OSC_CAL_CNT |= RB_OSC_CAL_OV_CLR;
    1974:	6691                	lui	a3,0x4
E:\tp78_v2\mounriver_project\RF_CH582M\obj/../StdPeriphDriver/CH58x_clk.c:171
    while( (R8_OSC_CAL_CTRL&RB_OSC_CNT_EN)!= RB_OSC_CNT_EN )
    {
        R8_SAFE_ACCESS_SIG = SAFE_ACCESS_SIG1;
        R8_SAFE_ACCESS_SIG = SAFE_ACCESS_SIG2;
    1976:	fa800613          	li	a2,-88
E:\tp78_v2\mounriver_project\RF_CH582M\obj/../StdPeriphDriver/CH58x_clk.c:166
    R8_OSC_CAL_CTRL |= RB_OSC_CNT_EN;
    197a:	0207e793          	ori	a5,a5,32
    197e:	04f709a3          	sb	a5,83(a4)
E:\tp78_v2\mounriver_project\RF_CH582M\obj/../StdPeriphDriver/CH58x_clk.c:167
    R16_OSC_CAL_CNT |= RB_OSC_CAL_OV_CLR;
    1982:	05075783          	lhu	a5,80(a4)
    1986:	8fd5                	or	a5,a5,a3
    1988:	04f71823          	sh	a5,80(a4)
E:\tp78_v2\mounriver_project\RF_CH582M\obj/../StdPeriphDriver/CH58x_clk.c:170
        R8_SAFE_ACCESS_SIG = SAFE_ACCESS_SIG1;
    198c:	05700693          	li	a3,87
E:\tp78_v2\mounriver_project\RF_CH582M\obj/../StdPeriphDriver/CH58x_clk.c:168
    while( (R8_OSC_CAL_CTRL&RB_OSC_CNT_EN)!= RB_OSC_CNT_EN )
    1990:	400017b7          	lui	a5,0x40001
    1994:	0537c703          	lbu	a4,83(a5) # 40001053 <_eusrstack+0x1fff9053>
    1998:	02077713          	andi	a4,a4,32
    199c:	c761                	beqz	a4,1a64 <Calibration_LSI+0x176>
E:\tp78_v2\mounriver_project\RF_CH582M\obj/../StdPeriphDriver/CH58x_clk.c:184
        while(R8_OSC_CAL_CTRL & RB_OSC_CNT_HALT);
        R16_OSC_CAL_CNT |= RB_OSC_CAL_OV_CLR;
        while(!(R8_OSC_CAL_CTRL & RB_OSC_CNT_HALT));
        i = R16_OSC_CAL_CNT; // 实时校准后采样值
        cnt_offset = (i & 0x3FFF) + R8_OSC_CAL_OV_CNT * 0x3FFF - 2000 * (freq_sys / 1000) / CAB_LSIFQ;
        if(((cnt_offset > -37 * (freq_sys / 1000) / CAB_LSIFQ) && (cnt_offset < 37 * (freq_sys / 1000) / CAB_LSIFQ)) || retry > 2)
    199e:	c1800813          	li	a6,-1000
    19a2:	3e800593          	li	a1,1000
    19a6:	03054833          	div	a6,a0,a6
    19aa:	02500793          	li	a5,37
E:\tp78_v2\mounriver_project\RF_CH582M\obj/../StdPeriphDriver/CH58x_clk.c:183
        cnt_offset = (i & 0x3FFF) + R8_OSC_CAL_OV_CNT * 0x3FFF - 2000 * (freq_sys / 1000) / CAB_LSIFQ;
    19ae:	6891                	lui	a7,0x4
E:\tp78_v2\mounriver_project\RF_CH582M\obj/../StdPeriphDriver/CH58x_clk.c:184
        if(((cnt_offset > -37 * (freq_sys / 1000) / CAB_LSIFQ) && (cnt_offset < 37 * (freq_sys / 1000) / CAB_LSIFQ)) || retry > 2)
    19b0:	6721                	lui	a4,0x8
E:\tp78_v2\mounriver_project\RF_CH582M\obj/../StdPeriphDriver/CH58x_clk.c:183
        cnt_offset = (i & 0x3FFF) + R8_OSC_CAL_OV_CNT * 0x3FFF - 2000 * (freq_sys / 1000) / CAB_LSIFQ;
    19b2:	e8088e13          	addi	t3,a7,-384 # 3e80 <ble_ll_hw_api_shut+0x30>
E:\tp78_v2\mounriver_project\RF_CH582M\obj/../StdPeriphDriver/CH58x_clk.c:184
        if(((cnt_offset > -37 * (freq_sys / 1000) / CAB_LSIFQ) && (cnt_offset < 37 * (freq_sys / 1000) / CAB_LSIFQ)) || retry > 2)
    19b6:	d0070713          	addi	a4,a4,-768 # 7d00 <_data_lma+0x1688>
    19ba:	4311                	li	t1,4
E:\tp78_v2\mounriver_project\RF_CH582M\obj/../StdPeriphDriver/CH58x_clk.c:177
        while(!(R8_OSC_CAL_CTRL & RB_OSC_CNT_HALT));
    19bc:	400016b7          	lui	a3,0x40001
E:\tp78_v2\mounriver_project\RF_CH582M\obj/../StdPeriphDriver/CH58x_clk.c:180
        R16_OSC_CAL_CNT |= RB_OSC_CAL_OV_CLR;
    19c0:	6291                	lui	t0,0x4
E:\tp78_v2\mounriver_project\RF_CH582M\obj/../StdPeriphDriver/CH58x_clk.c:183
        cnt_offset = (i & 0x3FFF) + R8_OSC_CAL_OV_CNT * 0x3FFF - 2000 * (freq_sys / 1000) / CAB_LSIFQ;
    19c2:	18fd                	addi	a7,a7,-1
E:\tp78_v2\mounriver_project\RF_CH582M\obj/../StdPeriphDriver/CH58x_clk.c:187
            break;
        retry++;
        cnt_offset = (cnt_offset > 0) ? (((cnt_offset * 2) / (37 * (freq_sys / 1000) / CAB_LSIFQ)) + 1) / 2 : (((cnt_offset * 2) / (37 * (freq_sys / 1000) / CAB_LSIFQ)) - 1) / 2;
    19c4:	4e89                	li	t4,2
E:\tp78_v2\mounriver_project\RF_CH582M\obj/../StdPeriphDriver/CH58x_clk.c:188
        R8_SAFE_ACCESS_SIG = SAFE_ACCESS_SIG1;
    19c6:	05700f93          	li	t6,87
E:\tp78_v2\mounriver_project\RF_CH582M\obj/../StdPeriphDriver/CH58x_clk.c:189
        R8_SAFE_ACCESS_SIG = SAFE_ACCESS_SIG2;
    19ca:	fa800f13          	li	t5,-88
E:\tp78_v2\mounriver_project\RF_CH582M\obj/../StdPeriphDriver/CH58x_clk.c:184
        if(((cnt_offset > -37 * (freq_sys / 1000) / CAB_LSIFQ) && (cnt_offset < 37 * (freq_sys / 1000) / CAB_LSIFQ)) || retry > 2)
    19ce:	02b545b3          	div	a1,a0,a1
    19d2:	02f80833          	mul	a6,a6,a5
    19d6:	02f587b3          	mul	a5,a1,a5
E:\tp78_v2\mounriver_project\RF_CH582M\obj/../StdPeriphDriver/CH58x_clk.c:183
        cnt_offset = (i & 0x3FFF) + R8_OSC_CAL_OV_CNT * 0x3FFF - 2000 * (freq_sys / 1000) / CAB_LSIFQ;
    19da:	03c54e33          	div	t3,a0,t3
E:\tp78_v2\mounriver_project\RF_CH582M\obj/../StdPeriphDriver/CH58x_clk.c:184
        if(((cnt_offset > -37 * (freq_sys / 1000) / CAB_LSIFQ) && (cnt_offset < 37 * (freq_sys / 1000) / CAB_LSIFQ)) || retry > 2)
    19de:	02e84833          	div	a6,a6,a4
    19e2:	02e7c7b3          	div	a5,a5,a4
E:\tp78_v2\mounriver_project\RF_CH582M\obj/../StdPeriphDriver/CH58x_clk.c:177 (discriminator 1)
        while(!(R8_OSC_CAL_CTRL & RB_OSC_CNT_HALT));
    19e6:	0536c703          	lbu	a4,83(a3) # 40001053 <_eusrstack+0x1fff9053>
    19ea:	8b21                	andi	a4,a4,8
    19ec:	df6d                	beqz	a4,19e6 <Calibration_LSI+0xf8>
E:\tp78_v2\mounriver_project\RF_CH582M\obj/../StdPeriphDriver/CH58x_clk.c:178
        i = R16_OSC_CAL_CNT; // 用于丢弃
    19ee:	0506d703          	lhu	a4,80(a3)
E:\tp78_v2\mounriver_project\RF_CH582M\obj/../StdPeriphDriver/CH58x_clk.c:179 (discriminator 1)
        while(R8_OSC_CAL_CTRL & RB_OSC_CNT_HALT);
    19f2:	0536c703          	lbu	a4,83(a3)
    19f6:	8b21                	andi	a4,a4,8
    19f8:	ff6d                	bnez	a4,19f2 <Calibration_LSI+0x104>
E:\tp78_v2\mounriver_project\RF_CH582M\obj/../StdPeriphDriver/CH58x_clk.c:180
        R16_OSC_CAL_CNT |= RB_OSC_CAL_OV_CLR;
    19fa:	0506d703          	lhu	a4,80(a3)
    19fe:	00576733          	or	a4,a4,t0
    1a02:	04e69823          	sh	a4,80(a3)
E:\tp78_v2\mounriver_project\RF_CH582M\obj/../StdPeriphDriver/CH58x_clk.c:181 (discriminator 1)
        while(!(R8_OSC_CAL_CTRL & RB_OSC_CNT_HALT));
    1a06:	0536c703          	lbu	a4,83(a3)
    1a0a:	8b21                	andi	a4,a4,8
    1a0c:	df6d                	beqz	a4,1a06 <Calibration_LSI+0x118>
E:\tp78_v2\mounriver_project\RF_CH582M\obj/../StdPeriphDriver/CH58x_clk.c:182
        i = R16_OSC_CAL_CNT; // 实时校准后采样值
    1a0e:	0506d603          	lhu	a2,80(a3)
E:\tp78_v2\mounriver_project\RF_CH582M\obj/../StdPeriphDriver/CH58x_clk.c:183
        cnt_offset = (i & 0x3FFF) + R8_OSC_CAL_OV_CNT * 0x3FFF - 2000 * (freq_sys / 1000) / CAB_LSIFQ;
    1a12:	0526c703          	lbu	a4,82(a3)
    1a16:	00c8f633          	and	a2,a7,a2
    1a1a:	02e88733          	mul	a4,a7,a4
    1a1e:	963a                	add	a2,a2,a4
    1a20:	41c60633          	sub	a2,a2,t3
E:\tp78_v2\mounriver_project\RF_CH582M\obj/../StdPeriphDriver/CH58x_clk.c:184
        if(((cnt_offset > -37 * (freq_sys / 1000) / CAB_LSIFQ) && (cnt_offset < 37 * (freq_sys / 1000) / CAB_LSIFQ)) || retry > 2)
    1a24:	00c85463          	bge	a6,a2,1a2c <Calibration_LSI+0x13e>
E:\tp78_v2\mounriver_project\RF_CH582M\obj/../StdPeriphDriver/CH58x_clk.c:184 (discriminator 1)
    1a28:	04f64d63          	blt	a2,a5,1a82 <Calibration_LSI+0x194>
    1a2c:	137d                	addi	t1,t1,-1
    1a2e:	0ff37313          	andi	t1,t1,255
E:\tp78_v2\mounriver_project\RF_CH582M\obj/../StdPeriphDriver/CH58x_clk.c:184 (discriminator 3)
    1a32:	04030863          	beqz	t1,1a82 <Calibration_LSI+0x194>
E:\tp78_v2\mounriver_project\RF_CH582M\obj/../StdPeriphDriver/CH58x_clk.c:187
        cnt_offset = (cnt_offset > 0) ? (((cnt_offset * 2) / (37 * (freq_sys / 1000) / CAB_LSIFQ)) + 1) / 2 : (((cnt_offset * 2) / (37 * (freq_sys / 1000) / CAB_LSIFQ)) - 1) / 2;
    1a36:	00161713          	slli	a4,a2,0x1
    1a3a:	02f74733          	div	a4,a4,a5
    1a3e:	04c05063          	blez	a2,1a7e <Calibration_LSI+0x190>
E:\tp78_v2\mounriver_project\RF_CH582M\obj/../StdPeriphDriver/CH58x_clk.c:187 (discriminator 1)
    1a42:	0705                	addi	a4,a4,1
E:\tp78_v2\mounriver_project\RF_CH582M\obj/../StdPeriphDriver/CH58x_clk.c:188 (discriminator 2)
        R8_SAFE_ACCESS_SIG = SAFE_ACCESS_SIG1;
    1a44:	05f68023          	sb	t6,64(a3)
E:\tp78_v2\mounriver_project\RF_CH582M\obj/../StdPeriphDriver/CH58x_clk.c:189 (discriminator 2)
        R8_SAFE_ACCESS_SIG = SAFE_ACCESS_SIG2;
    1a48:	05e68023          	sb	t5,64(a3)
E:\tp78_v2\mounriver_project\RF_CH582M\obj/../StdPeriphDriver/CH58x_clk.c:187 (discriminator 2)
        cnt_offset = (cnt_offset > 0) ? (((cnt_offset * 2) / (37 * (freq_sys / 1000) / CAB_LSIFQ)) + 1) / 2 : (((cnt_offset * 2) / (37 * (freq_sys / 1000) / CAB_LSIFQ)) - 1) / 2;
    1a4c:	03d74733          	div	a4,a4,t4
E:\tp78_v2\mounriver_project\RF_CH582M\obj/../StdPeriphDriver/CH58x_clk.c:190 (discriminator 2)
        SAFEOPERATE;
    1a50:	0001                	nop
    1a52:	0001                	nop
E:\tp78_v2\mounriver_project\RF_CH582M\obj/../StdPeriphDriver/CH58x_clk.c:191 (discriminator 2)
        R16_INT32K_TUNE += cnt_offset;
    1a54:	02c6d603          	lhu	a2,44(a3)
    1a58:	9732                	add	a4,a4,a2
    1a5a:	0742                	slli	a4,a4,0x10
    1a5c:	8341                	srli	a4,a4,0x10
    1a5e:	02e69623          	sh	a4,44(a3)
E:\tp78_v2\mounriver_project\RF_CH582M\obj/../StdPeriphDriver/CH58x_clk.c:177 (discriminator 2)
        while(!(R8_OSC_CAL_CTRL & RB_OSC_CNT_HALT));
    1a62:	b751                	j	19e6 <Calibration_LSI+0xf8>
E:\tp78_v2\mounriver_project\RF_CH582M\obj/../StdPeriphDriver/CH58x_clk.c:170
        R8_SAFE_ACCESS_SIG = SAFE_ACCESS_SIG1;
    1a64:	04d78023          	sb	a3,64(a5)
E:\tp78_v2\mounriver_project\RF_CH582M\obj/../StdPeriphDriver/CH58x_clk.c:171
        R8_SAFE_ACCESS_SIG = SAFE_ACCESS_SIG2;
    1a68:	04c78023          	sb	a2,64(a5)
E:\tp78_v2\mounriver_project\RF_CH582M\obj/../StdPeriphDriver/CH58x_clk.c:172
        SAFEOPERATE;
    1a6c:	0001                	nop
    1a6e:	0001                	nop
E:\tp78_v2\mounriver_project\RF_CH582M\obj/../StdPeriphDriver/CH58x_clk.c:173
        R8_OSC_CAL_CTRL |= RB_OSC_CNT_EN;
    1a70:	0537c703          	lbu	a4,83(a5)
    1a74:	02076713          	ori	a4,a4,32
    1a78:	04e789a3          	sb	a4,83(a5)
    1a7c:	bf21                	j	1994 <Calibration_LSI+0xa6>
E:\tp78_v2\mounriver_project\RF_CH582M\obj/../StdPeriphDriver/CH58x_clk.c:187 (discriminator 2)
        cnt_offset = (cnt_offset > 0) ? (((cnt_offset * 2) / (37 * (freq_sys / 1000) / CAB_LSIFQ)) + 1) / 2 : (((cnt_offset * 2) / (37 * (freq_sys / 1000) / CAB_LSIFQ)) - 1) / 2;
    1a7e:	177d                	addi	a4,a4,-1
    1a80:	b7d1                	j	1a44 <Calibration_LSI+0x156>
E:\tp78_v2\mounriver_project\RF_CH582M\obj/../StdPeriphDriver/CH58x_clk.c:196 (discriminator 1)
    }

    // 细调
    // 配置细调参数后，丢弃2次捕获值（软件行为）上判断已有一次，这里只留一次
    while(!(R8_OSC_CAL_CTRL & RB_OSC_CNT_HALT));
    1a82:	400017b7          	lui	a5,0x40001
    1a86:	0537c683          	lbu	a3,83(a5) # 40001053 <_eusrstack+0x1fff9053>
    1a8a:	05378713          	addi	a4,a5,83
    1a8e:	8aa1                	andi	a3,a3,8
    1a90:	dafd                	beqz	a3,1a86 <Calibration_LSI+0x198>
E:\tp78_v2\mounriver_project\RF_CH582M\obj/../StdPeriphDriver/CH58x_clk.c:197
    i = R16_OSC_CAL_CNT; // 用于丢弃
    1a92:	0507d683          	lhu	a3,80(a5)
E:\tp78_v2\mounriver_project\RF_CH582M\obj/../StdPeriphDriver/CH58x_clk.c:198
    R16_OSC_CAL_CNT |= RB_OSC_CAL_OV_CLR;
    1a96:	0507d683          	lhu	a3,80(a5)
    1a9a:	6611                	lui	a2,0x4
    1a9c:	8ed1                	or	a3,a3,a2
    1a9e:	04d79823          	sh	a3,80(a5)
E:\tp78_v2\mounriver_project\RF_CH582M\obj/../StdPeriphDriver/CH58x_clk.c:199
    R8_SAFE_ACCESS_SIG = SAFE_ACCESS_SIG1;
    1aa2:	05700693          	li	a3,87
    1aa6:	04d78023          	sb	a3,64(a5)
E:\tp78_v2\mounriver_project\RF_CH582M\obj/../StdPeriphDriver/CH58x_clk.c:200
    R8_SAFE_ACCESS_SIG = SAFE_ACCESS_SIG2;
    1aaa:	fa800693          	li	a3,-88
    1aae:	04d78023          	sb	a3,64(a5)
E:\tp78_v2\mounriver_project\RF_CH582M\obj/../StdPeriphDriver/CH58x_clk.c:201
    SAFEOPERATE;
    1ab2:	0001                	nop
    1ab4:	0001                	nop
E:\tp78_v2\mounriver_project\RF_CH582M\obj/../StdPeriphDriver/CH58x_clk.c:202
    R8_OSC_CAL_CTRL &= ~RB_OSC_CNT_TOTAL;
    1ab6:	00074783          	lbu	a5,0(a4)
    1aba:	0f87f793          	andi	a5,a5,248
    1abe:	00f70023          	sb	a5,0(a4)
E:\tp78_v2\mounriver_project\RF_CH582M\obj/../StdPeriphDriver/CH58x_clk.c:203
    R8_OSC_CAL_CTRL |= cali_Lv;
    1ac2:	00074783          	lbu	a5,0(a4)
    1ac6:	8fc1                	or	a5,a5,s0
    1ac8:	0ff7f793          	andi	a5,a5,255
    1acc:	00f70023          	sb	a5,0(a4)
E:\tp78_v2\mounriver_project\RF_CH582M\obj/../StdPeriphDriver/CH58x_clk.c:204
    while(R8_OSC_CAL_CTRL & RB_OSC_CNT_HALT);
    1ad0:	40001737          	lui	a4,0x40001
E:\tp78_v2\mounriver_project\RF_CH582M\obj/../StdPeriphDriver/CH58x_clk.c:204 (discriminator 1)
    1ad4:	05374783          	lbu	a5,83(a4) # 40001053 <_eusrstack+0x1fff9053>
    1ad8:	8ba1                	andi	a5,a5,8
    1ada:	ffed                	bnez	a5,1ad4 <Calibration_LSI+0x1e6>
E:\tp78_v2\mounriver_project\RF_CH582M\obj/../StdPeriphDriver/CH58x_clk.c:205
    while(!(R8_OSC_CAL_CTRL & RB_OSC_CNT_HALT));
    1adc:	400017b7          	lui	a5,0x40001
E:\tp78_v2\mounriver_project\RF_CH582M\obj/../StdPeriphDriver/CH58x_clk.c:205 (discriminator 1)
    1ae0:	0537c703          	lbu	a4,83(a5) # 40001053 <_eusrstack+0x1fff9053>
    1ae4:	8b21                	andi	a4,a4,8
    1ae6:	df6d                	beqz	a4,1ae0 <Calibration_LSI+0x1f2>
E:\tp78_v2\mounriver_project\RF_CH582M\obj/../StdPeriphDriver/CH58x_clk.c:207
    i = R16_OSC_CAL_CNT; // 实时校准后采样值
    cnt_offset = (i & 0x3FFF) + R8_OSC_CAL_OV_CNT * 0x3FFF - 4000 * (1 << cali_Lv) * (freq_sys / 1000000) / CAB_LSIFQ * 1000;
    1ae8:	000f4637          	lui	a2,0xf4
    1aec:	24060613          	addi	a2,a2,576 # f4240 <_data_lma+0xedbc8>
    1af0:	02c54533          	div	a0,a0,a2
E:\tp78_v2\mounriver_project\RF_CH582M\obj/../StdPeriphDriver/CH58x_clk.c:206
    i = R16_OSC_CAL_CNT; // 实时校准后采样值
    1af4:	0507d683          	lhu	a3,80(a5)
E:\tp78_v2\mounriver_project\RF_CH582M\obj/../StdPeriphDriver/CH58x_clk.c:207
    cnt_offset = (i & 0x3FFF) + R8_OSC_CAL_OV_CNT * 0x3FFF - 4000 * (1 << cali_Lv) * (freq_sys / 1000000) / CAB_LSIFQ * 1000;
    1af8:	0527c783          	lbu	a5,82(a5)
    1afc:	6711                	lui	a4,0x4
    1afe:	177d                	addi	a4,a4,-1
    1b00:	8ef9                	and	a3,a3,a4
    1b02:	6621                	lui	a2,0x8
    1b04:	d0060613          	addi	a2,a2,-768 # 7d00 <_data_lma+0x1688>
    1b08:	02f70733          	mul	a4,a4,a5
    1b0c:	6785                	lui	a5,0x1
    1b0e:	96ba                	add	a3,a3,a4
    1b10:	fa078713          	addi	a4,a5,-96 # fa0 <_einit+0xf9c>
    1b14:	00871733          	sll	a4,a4,s0
    1b18:	02a70733          	mul	a4,a4,a0
    1b1c:	3e800513          	li	a0,1000
    1b20:	c8078793          	addi	a5,a5,-896
    1b24:	4087d7b3          	sra	a5,a5,s0
    1b28:	02c74733          	div	a4,a4,a2
    1b2c:	02a70733          	mul	a4,a4,a0
    1b30:	40e68733          	sub	a4,a3,a4
E:\tp78_v2\mounriver_project\RF_CH582M\obj/../StdPeriphDriver/CH58x_clk.c:208
    cnt_offset = (cnt_offset > 0) ? ((((cnt_offset * (3200 / (1 << cali_Lv))) / (1366 * (freq_sys / 1000) / CAB_LSIFQ)) + 1) / 2) << 5 : ((((cnt_offset * (3200 / (1 << cali_Lv))) / (1366 * (freq_sys / 1000) / CAB_LSIFQ)) - 1) / 2) << 5;
    1b34:	55600693          	li	a3,1366
    1b38:	02d585b3          	mul	a1,a1,a3
    1b3c:	02c5c5b3          	div	a1,a1,a2
    1b40:	02e787b3          	mul	a5,a5,a4
    1b44:	02b7c7b3          	div	a5,a5,a1
    1b48:	04e05463          	blez	a4,1b90 <Calibration_LSI+0x2a2>
E:\tp78_v2\mounriver_project\RF_CH582M\obj/../StdPeriphDriver/CH58x_clk.c:208 (discriminator 1)
    1b4c:	0785                	addi	a5,a5,1
E:\tp78_v2\mounriver_project\RF_CH582M\obj/../StdPeriphDriver/CH58x_clk.c:208 (discriminator 2)
    1b4e:	4709                	li	a4,2
E:\tp78_v2\mounriver_project\RF_CH582M\obj/../StdPeriphDriver/CH58x_clk.c:209 (discriminator 2)
    R8_SAFE_ACCESS_SIG = SAFE_ACCESS_SIG1;
    1b50:	05700693          	li	a3,87
E:\tp78_v2\mounriver_project\RF_CH582M\obj/../StdPeriphDriver/CH58x_clk.c:208 (discriminator 2)
    cnt_offset = (cnt_offset > 0) ? ((((cnt_offset * (3200 / (1 << cali_Lv))) / (1366 * (freq_sys / 1000) / CAB_LSIFQ)) + 1) / 2) << 5 : ((((cnt_offset * (3200 / (1 << cali_Lv))) / (1366 * (freq_sys / 1000) / CAB_LSIFQ)) - 1) / 2) << 5;
    1b54:	02e7c7b3          	div	a5,a5,a4
E:\tp78_v2\mounriver_project\RF_CH582M\obj/../StdPeriphDriver/CH58x_clk.c:209 (discriminator 2)
    R8_SAFE_ACCESS_SIG = SAFE_ACCESS_SIG1;
    1b58:	40001737          	lui	a4,0x40001
    1b5c:	04d70023          	sb	a3,64(a4) # 40001040 <_eusrstack+0x1fff9040>
E:\tp78_v2\mounriver_project\RF_CH582M\obj/../StdPeriphDriver/CH58x_clk.c:210 (discriminator 2)
    R8_SAFE_ACCESS_SIG = SAFE_ACCESS_SIG2;
    1b60:	fa800693          	li	a3,-88
    1b64:	04d70023          	sb	a3,64(a4)
E:\tp78_v2\mounriver_project\RF_CH582M\obj/../StdPeriphDriver/CH58x_clk.c:208 (discriminator 2)
    cnt_offset = (cnt_offset > 0) ? ((((cnt_offset * (3200 / (1 << cali_Lv))) / (1366 * (freq_sys / 1000) / CAB_LSIFQ)) + 1) / 2) << 5 : ((((cnt_offset * (3200 / (1 << cali_Lv))) / (1366 * (freq_sys / 1000) / CAB_LSIFQ)) - 1) / 2) << 5;
    1b68:	0796                	slli	a5,a5,0x5
E:\tp78_v2\mounriver_project\RF_CH582M\obj/../StdPeriphDriver/CH58x_clk.c:211 (discriminator 2)
    SAFEOPERATE;
    1b6a:	0001                	nop
    1b6c:	0001                	nop
E:\tp78_v2\mounriver_project\RF_CH582M\obj/../StdPeriphDriver/CH58x_clk.c:212 (discriminator 2)
    R16_INT32K_TUNE += cnt_offset;
    1b6e:	02c75683          	lhu	a3,44(a4)
    1b72:	97b6                	add	a5,a5,a3
    1b74:	07c2                	slli	a5,a5,0x10
    1b76:	83c1                	srli	a5,a5,0x10
    1b78:	02f71623          	sh	a5,44(a4)
E:\tp78_v2\mounriver_project\RF_CH582M\obj/../StdPeriphDriver/CH58x_clk.c:213 (discriminator 2)
    R8_OSC_CAL_CTRL &= ~RB_OSC_CNT_EN;
    1b7c:	05374783          	lbu	a5,83(a4)
    1b80:	0df7f793          	andi	a5,a5,223
    1b84:	04f709a3          	sb	a5,83(a4)
E:\tp78_v2\mounriver_project\RF_CH582M\obj/../StdPeriphDriver/CH58x_clk.c:214 (discriminator 2)
}
    1b88:	40b2                	lw	ra,12(sp)
    1b8a:	4422                	lw	s0,8(sp)
    1b8c:	0141                	addi	sp,sp,16
    1b8e:	8082                	ret
E:\tp78_v2\mounriver_project\RF_CH582M\obj/../StdPeriphDriver/CH58x_clk.c:208 (discriminator 2)
    cnt_offset = (cnt_offset > 0) ? ((((cnt_offset * (3200 / (1 << cali_Lv))) / (1366 * (freq_sys / 1000) / CAB_LSIFQ)) + 1) / 2) << 5 : ((((cnt_offset * (3200 / (1 << cali_Lv))) / (1366 * (freq_sys / 1000) / CAB_LSIFQ)) - 1) / 2) << 5;
    1b90:	17fd                	addi	a5,a5,-1
    1b92:	bf75                	j	1b4e <Calibration_LSI+0x260>

00001b94 <RTC_InitTime>:
RTC_InitTime():
E:\tp78_v2\mounriver_project\RF_CH582M\obj/../StdPeriphDriver/CH58x_clk.c:231
 * @param   s       - 配置秒，MAX_S = 59
 *
 * @return  none
 */
void RTC_InitTime(uint16_t y, uint16_t mon, uint16_t d, uint16_t h, uint16_t m, uint16_t s)
{
    1b94:	1141                	addi	sp,sp,-16
    1b96:	832a                	mv	t1,a0
E:\tp78_v2\mounriver_project\RF_CH582M\obj/../StdPeriphDriver/CH58x_clk.c:238
    uint16_t         year, month, day, sec2, t32k;
    volatile uint8_t clk_pin;

    year = y;
    month = mon;
    day = 0;
    1b98:	4e01                	li	t3,0
E:\tp78_v2\mounriver_project\RF_CH582M\obj/../StdPeriphDriver/CH58x_clk.c:239
    while(year > BEGYEAR)
    1b9a:	7e400e93          	li	t4,2020
E:\tp78_v2\mounriver_project\RF_CH582M\obj/../StdPeriphDriver/CH58x_clk.c:241
    {
        day += YearLength(year - 1);
    1b9e:	19000f13          	li	t5,400
    1ba2:	06400f93          	li	t6,100
E:\tp78_v2\mounriver_project\RF_CH582M\obj/../StdPeriphDriver/CH58x_clk.c:239
    while(year > BEGYEAR)
    1ba6:	0e6ee463          	bltu	t4,t1,1c8e <RTC_InitTime+0xfa>
E:\tp78_v2\mounriver_project\RF_CH582M\obj/../StdPeriphDriver/CH58x_clk.c:246
        year--;
    }
    while(month > 1)
    {
        day += monthLength(IsLeapYear(y), month - 2);
    1baa:	19000893          	li	a7,400
    1bae:	06400313          	li	t1,100
    1bb2:	031578b3          	remu	a7,a0,a7
E:\tp78_v2\mounriver_project\RF_CH582M\obj/../StdPeriphDriver/CH58x_clk.c:244
    while(month > 1)
    1bb6:	4e85                	li	t4,1
E:\tp78_v2\mounriver_project\RF_CH582M\obj/../StdPeriphDriver/CH58x_clk.c:246
        day += monthLength(IsLeapYear(y), month - 2);
    1bb8:	4f0d                	li	t5,3
    1bba:	4fa1                	li	t6,8
    1bbc:	02657333          	remu	t1,a0,t1
    1bc0:	890d                	andi	a0,a0,3
    1bc2:	00153513          	seqz	a0,a0
E:\tp78_v2\mounriver_project\RF_CH582M\obj/../StdPeriphDriver/CH58x_clk.c:244
    while(month > 1)
    1bc6:	0ebeee63          	bltu	t4,a1,1cc2 <RTC_InitTime+0x12e>
E:\tp78_v2\mounriver_project\RF_CH582M\obj/../StdPeriphDriver/CH58x_clk.c:250
        month--;
    }

    day += d - 1;
    1bca:	fff60813          	addi	a6,a2,-1
E:\tp78_v2\mounriver_project\RF_CH582M\obj/../StdPeriphDriver/CH58x_clk.c:251
    sec2 = (h % 24) * 1800 + m * 30 + s / 2;
    1bce:	4679                	li	a2,30
E:\tp78_v2\mounriver_project\RF_CH582M\obj/../StdPeriphDriver/CH58x_clk.c:250
    day += d - 1;
    1bd0:	9872                	add	a6,a6,t3
    1bd2:	0842                	slli	a6,a6,0x10
    1bd4:	01085813          	srli	a6,a6,0x10
E:\tp78_v2\mounriver_project\RF_CH582M\obj/../StdPeriphDriver/CH58x_clk.c:251
    sec2 = (h % 24) * 1800 + m * 30 + s / 2;
    1bd8:	02c70733          	mul	a4,a4,a2
    1bdc:	0017d613          	srli	a2,a5,0x1
E:\tp78_v2\mounriver_project\RF_CH582M\obj/../StdPeriphDriver/CH58x_clk.c:252
    t32k = (s & 1) ? (0x8000) : (0);
    1be0:	07be                	slli	a5,a5,0xf
E:\tp78_v2\mounriver_project\RF_CH582M\obj/../StdPeriphDriver/CH58x_clk.c:251
    sec2 = (h % 24) * 1800 + m * 30 + s / 2;
    1be2:	9732                	add	a4,a4,a2
    1be4:	4661                	li	a2,24
    1be6:	02c6f6b3          	remu	a3,a3,a2
    1bea:	70800613          	li	a2,1800
    1bee:	02c686b3          	mul	a3,a3,a2
    1bf2:	9736                	add	a4,a4,a3
E:\tp78_v2\mounriver_project\RF_CH582M\obj/../StdPeriphDriver/CH58x_clk.c:254
    t = sec2;
    t = t << 16 | t32k;
    1bf4:	66a1                	lui	a3,0x8
    1bf6:	8ff5                	and	a5,a5,a3
    1bf8:	0742                	slli	a4,a4,0x10
    1bfa:	8f5d                	or	a4,a4,a5
E:\tp78_v2\mounriver_project\RF_CH582M\obj/../StdPeriphDriver/CH58x_clk.c:258

    do
    {
        clk_pin = (R8_CK32K_CONFIG & RB_32K_CLK_PIN);
    1bfc:	400016b7          	lui	a3,0x40001
E:\tp78_v2\mounriver_project\RF_CH582M\obj/../StdPeriphDriver/CH58x_clk.c:258 (discriminator 1)
    1c00:	02f6c783          	lbu	a5,47(a3) # 4000102f <_eusrstack+0x1fff902f>
    1c04:	0807f793          	andi	a5,a5,128
    1c08:	00f107a3          	sb	a5,15(sp)
E:\tp78_v2\mounriver_project\RF_CH582M\obj/../StdPeriphDriver/CH58x_clk.c:259 (discriminator 1)
    } while(clk_pin != (R8_CK32K_CONFIG & RB_32K_CLK_PIN));
    1c0c:	00f14603          	lbu	a2,15(sp)
    1c10:	02f6c783          	lbu	a5,47(a3)
    1c14:	0807f793          	andi	a5,a5,128
    1c18:	fec794e3          	bne	a5,a2,1c00 <RTC_InitTime+0x6c>
E:\tp78_v2\mounriver_project\RF_CH582M\obj/../StdPeriphDriver/CH58x_clk.c:260
    if(!clk_pin)
    1c1c:	00f14783          	lbu	a5,15(sp)
E:\tp78_v2\mounriver_project\RF_CH582M\obj/../StdPeriphDriver/CH58x_clk.c:266
    {
        while(!clk_pin)
        {
            do
            {
                clk_pin = (R8_CK32K_CONFIG & RB_32K_CLK_PIN);
    1c20:	400016b7          	lui	a3,0x40001
E:\tp78_v2\mounriver_project\RF_CH582M\obj/../StdPeriphDriver/CH58x_clk.c:260
    if(!clk_pin)
    1c24:	0ff7f793          	andi	a5,a5,255
    1c28:	c7fd                	beqz	a5,1d16 <RTC_InitTime+0x182>
E:\tp78_v2\mounriver_project\RF_CH582M\obj/../StdPeriphDriver/CH58x_clk.c:271
            } while(clk_pin != (R8_CK32K_CONFIG & RB_32K_CLK_PIN));
        }
    }

    R8_SAFE_ACCESS_SIG = SAFE_ACCESS_SIG1;
    1c2a:	400017b7          	lui	a5,0x40001
    1c2e:	05700693          	li	a3,87
    1c32:	04d78023          	sb	a3,64(a5) # 40001040 <_eusrstack+0x1fff9040>
E:\tp78_v2\mounriver_project\RF_CH582M\obj/../StdPeriphDriver/CH58x_clk.c:272
    R8_SAFE_ACCESS_SIG = SAFE_ACCESS_SIG2;
    1c36:	fa800693          	li	a3,-88
    1c3a:	04d78023          	sb	a3,64(a5)
E:\tp78_v2\mounriver_project\RF_CH582M\obj/../StdPeriphDriver/CH58x_clk.c:273
    SAFEOPERATE;
    1c3e:	0001                	nop
    1c40:	0001                	nop
E:\tp78_v2\mounriver_project\RF_CH582M\obj/../StdPeriphDriver/CH58x_clk.c:274
    R32_RTC_TRIG = day;
    1c42:	0307aa23          	sw	a6,52(a5)
E:\tp78_v2\mounriver_project\RF_CH582M\obj/../StdPeriphDriver/CH58x_clk.c:275
    R8_RTC_MODE_CTRL |= RB_RTC_LOAD_HI;
    1c46:	0317c683          	lbu	a3,49(a5)
E:\tp78_v2\mounriver_project\RF_CH582M\obj/../StdPeriphDriver/CH58x_clk.c:276
    while((R32_RTC_TRIG & 0x3FFF) != (R32_RTC_CNT_DAY & 0x3FFF));
    1c4a:	6611                	lui	a2,0x4
    1c4c:	167d                	addi	a2,a2,-1
E:\tp78_v2\mounriver_project\RF_CH582M\obj/../StdPeriphDriver/CH58x_clk.c:275
    R8_RTC_MODE_CTRL |= RB_RTC_LOAD_HI;
    1c4e:	0806e693          	ori	a3,a3,128
    1c52:	02d788a3          	sb	a3,49(a5)
E:\tp78_v2\mounriver_project\RF_CH582M\obj/../StdPeriphDriver/CH58x_clk.c:276 (discriminator 1)
    while((R32_RTC_TRIG & 0x3FFF) != (R32_RTC_CNT_DAY & 0x3FFF));
    1c56:	5bd4                	lw	a3,52(a5)
    1c58:	5fc8                	lw	a0,60(a5)
    1c5a:	03478593          	addi	a1,a5,52
    1c5e:	8ea9                	xor	a3,a3,a0
    1c60:	8ef1                	and	a3,a3,a2
    1c62:	faf5                	bnez	a3,1c56 <RTC_InitTime+0xc2>
E:\tp78_v2\mounriver_project\RF_CH582M\obj/../StdPeriphDriver/CH58x_clk.c:277
    R8_SAFE_ACCESS_SIG = SAFE_ACCESS_SIG1;
    1c64:	05700693          	li	a3,87
    1c68:	04d78023          	sb	a3,64(a5)
E:\tp78_v2\mounriver_project\RF_CH582M\obj/../StdPeriphDriver/CH58x_clk.c:278
    R8_SAFE_ACCESS_SIG = SAFE_ACCESS_SIG2;
    1c6c:	fa800693          	li	a3,-88
    1c70:	04d78023          	sb	a3,64(a5)
E:\tp78_v2\mounriver_project\RF_CH582M\obj/../StdPeriphDriver/CH58x_clk.c:279
    SAFEOPERATE;
    1c74:	0001                	nop
    1c76:	0001                	nop
E:\tp78_v2\mounriver_project\RF_CH582M\obj/../StdPeriphDriver/CH58x_clk.c:280
    R32_RTC_TRIG = t;
    1c78:	c198                	sw	a4,0(a1)
E:\tp78_v2\mounriver_project\RF_CH582M\obj/../StdPeriphDriver/CH58x_clk.c:281
    R8_RTC_MODE_CTRL |= RB_RTC_LOAD_LO;
    1c7a:	0317c703          	lbu	a4,49(a5)
    1c7e:	04076713          	ori	a4,a4,64
    1c82:	02e788a3          	sb	a4,49(a5)
E:\tp78_v2\mounriver_project\RF_CH582M\obj/../StdPeriphDriver/CH58x_clk.c:282
    R8_SAFE_ACCESS_SIG = 0;
    1c86:	04078023          	sb	zero,64(a5)
E:\tp78_v2\mounriver_project\RF_CH582M\obj/../StdPeriphDriver/CH58x_clk.c:283
}
    1c8a:	0141                	addi	sp,sp,16
    1c8c:	8082                	ret
E:\tp78_v2\mounriver_project\RF_CH582M\obj/../StdPeriphDriver/CH58x_clk.c:241
        day += YearLength(year - 1);
    1c8e:	137d                	addi	t1,t1,-1
    1c90:	03e36833          	rem	a6,t1,t5
    1c94:	16e00893          	li	a7,366
    1c98:	00080e63          	beqz	a6,1cb4 <RTC_InitTime+0x120>
E:\tp78_v2\mounriver_project\RF_CH582M\obj/../StdPeriphDriver/CH58x_clk.c:241 (discriminator 2)
    1c9c:	03f36833          	rem	a6,t1,t6
    1ca0:	16d00893          	li	a7,365
    1ca4:	00080863          	beqz	a6,1cb4 <RTC_InitTime+0x120>
E:\tp78_v2\mounriver_project\RF_CH582M\obj/../StdPeriphDriver/CH58x_clk.c:241 (discriminator 3)
    1ca8:	00337893          	andi	a7,t1,3
    1cac:	0018b893          	seqz	a7,a7
    1cb0:	16d88893          	addi	a7,a7,365
E:\tp78_v2\mounriver_project\RF_CH582M\obj/../StdPeriphDriver/CH58x_clk.c:241 (discriminator 8)
    1cb4:	011e0833          	add	a6,t3,a7
    1cb8:	01081e13          	slli	t3,a6,0x10
    1cbc:	010e5e13          	srli	t3,t3,0x10
E:\tp78_v2\mounriver_project\RF_CH582M\obj/../StdPeriphDriver/CH58x_clk.c:242 (discriminator 8)
        year--;
    1cc0:	b5dd                	j	1ba6 <RTC_InitTime+0x12>
E:\tp78_v2\mounriver_project\RF_CH582M\obj/../StdPeriphDriver/CH58x_clk.c:246
        day += monthLength(IsLeapYear(y), month - 2);
    1cc2:	03e59363          	bne	a1,t5,1ce8 <RTC_InitTime+0x154>
E:\tp78_v2\mounriver_project\RF_CH582M\obj/../StdPeriphDriver/CH58x_clk.c:246 (discriminator 1)
    1cc6:	4805                	li	a6,1
    1cc8:	00088663          	beqz	a7,1cd4 <RTC_InitTime+0x140>
E:\tp78_v2\mounriver_project\RF_CH582M\obj/../StdPeriphDriver/CH58x_clk.c:246 (discriminator 4)
    1ccc:	4801                	li	a6,0
    1cce:	00030363          	beqz	t1,1cd4 <RTC_InitTime+0x140>
E:\tp78_v2\mounriver_project\RF_CH582M\obj/../StdPeriphDriver/CH58x_clk.c:246 (discriminator 5)
    1cd2:	882a                	mv	a6,a0
E:\tp78_v2\mounriver_project\RF_CH582M\obj/../StdPeriphDriver/CH58x_clk.c:246 (discriminator 10)
    1cd4:	0871                	addi	a6,a6,28
E:\tp78_v2\mounriver_project\RF_CH582M\obj/../StdPeriphDriver/CH58x_clk.c:246 (discriminator 24)
    1cd6:	9872                	add	a6,a6,t3
E:\tp78_v2\mounriver_project\RF_CH582M\obj/../StdPeriphDriver/CH58x_clk.c:247 (discriminator 24)
        month--;
    1cd8:	15fd                	addi	a1,a1,-1
E:\tp78_v2\mounriver_project\RF_CH582M\obj/../StdPeriphDriver/CH58x_clk.c:246 (discriminator 24)
        day += monthLength(IsLeapYear(y), month - 2);
    1cda:	01081e13          	slli	t3,a6,0x10
E:\tp78_v2\mounriver_project\RF_CH582M\obj/../StdPeriphDriver/CH58x_clk.c:247 (discriminator 24)
        month--;
    1cde:	05c2                	slli	a1,a1,0x10
E:\tp78_v2\mounriver_project\RF_CH582M\obj/../StdPeriphDriver/CH58x_clk.c:246 (discriminator 24)
        day += monthLength(IsLeapYear(y), month - 2);
    1ce0:	010e5e13          	srli	t3,t3,0x10
E:\tp78_v2\mounriver_project\RF_CH582M\obj/../StdPeriphDriver/CH58x_clk.c:247 (discriminator 24)
        month--;
    1ce4:	81c1                	srli	a1,a1,0x10
    1ce6:	b5c5                	j	1bc6 <RTC_InitTime+0x32>
    1ce8:	0015f813          	andi	a6,a1,1
E:\tp78_v2\mounriver_project\RF_CH582M\obj/../StdPeriphDriver/CH58x_clk.c:246 (discriminator 2)
        day += monthLength(IsLeapYear(y), month - 2);
    1cec:	00bff463          	bgeu	t6,a1,1cf4 <RTC_InitTime+0x160>
E:\tp78_v2\mounriver_project\RF_CH582M\obj/../StdPeriphDriver/CH58x_clk.c:246 (discriminator 13)
    1cf0:	0879                	addi	a6,a6,30
    1cf2:	b7d5                	j	1cd6 <RTC_InitTime+0x142>
    1cf4:	00183813          	seqz	a6,a6
    1cf8:	bfe5                	j	1cf0 <RTC_InitTime+0x15c>
E:\tp78_v2\mounriver_project\RF_CH582M\obj/../StdPeriphDriver/CH58x_clk.c:266 (discriminator 1)
                clk_pin = (R8_CK32K_CONFIG & RB_32K_CLK_PIN);
    1cfa:	02f6c783          	lbu	a5,47(a3) # 4000102f <_eusrstack+0x1fff902f>
    1cfe:	0807f793          	andi	a5,a5,128
    1d02:	00f107a3          	sb	a5,15(sp)
E:\tp78_v2\mounriver_project\RF_CH582M\obj/../StdPeriphDriver/CH58x_clk.c:267 (discriminator 1)
            } while(clk_pin != (R8_CK32K_CONFIG & RB_32K_CLK_PIN));
    1d06:	00f14603          	lbu	a2,15(sp)
    1d0a:	02f6c783          	lbu	a5,47(a3)
    1d0e:	0807f793          	andi	a5,a5,128
    1d12:	fec794e3          	bne	a5,a2,1cfa <RTC_InitTime+0x166>
E:\tp78_v2\mounriver_project\RF_CH582M\obj/../StdPeriphDriver/CH58x_clk.c:262
        while(!clk_pin)
    1d16:	00f14783          	lbu	a5,15(sp)
    1d1a:	0ff7f793          	andi	a5,a5,255
    1d1e:	dff1                	beqz	a5,1cfa <RTC_InitTime+0x166>
    1d20:	b729                	j	1c2a <RTC_InitTime+0x96>

00001d22 <GPIOB_ModeCfg>:
GPIOB_ModeCfg():
E:\tp78_v2\mounriver_project\RF_CH582M\obj/../StdPeriphDriver/CH58x_gpio.c:72
 *
 * @return  none
 */
void GPIOB_ModeCfg(uint32_t pin, GPIOModeTypeDef mode)
{
    switch(mode)
    1d22:	4791                	li	a5,4
    1d24:	02b7ee63          	bltu	a5,a1,1d60 <GPIOB_ModeCfg+0x3e>
    1d28:	00004717          	auipc	a4,0x4
    1d2c:	78c70713          	addi	a4,a4,1932 # 64b4 <memcpy+0xb6>
    1d30:	058a                	slli	a1,a1,0x2
    1d32:	95ba                	add	a1,a1,a4
    1d34:	419c                	lw	a5,0(a1)
    1d36:	97ba                	add	a5,a5,a4
    1d38:	8782                	jr	a5
E:\tp78_v2\mounriver_project\RF_CH582M\obj/../StdPeriphDriver/CH58x_gpio.c:75
    {
        case GPIO_ModeIN_Floating:
            R32_PB_PD_DRV &= ~pin;
    1d3a:	400017b7          	lui	a5,0x40001
    1d3e:	0d47a703          	lw	a4,212(a5) # 400010d4 <_eusrstack+0x1fff90d4>
    1d42:	fff54513          	not	a0,a0
    1d46:	8f69                	and	a4,a4,a0
    1d48:	0ce7aa23          	sw	a4,212(a5)
E:\tp78_v2\mounriver_project\RF_CH582M\obj/../StdPeriphDriver/CH58x_gpio.c:76
            R32_PB_PU &= ~pin;
    1d4c:	0d07a703          	lw	a4,208(a5)
E:\tp78_v2\mounriver_project\RF_CH582M\obj/../StdPeriphDriver/CH58x_gpio.c:88
            R32_PB_DIR &= ~pin;
            break;

        case GPIO_ModeIN_PD:
            R32_PB_PD_DRV |= pin;
            R32_PB_PU &= ~pin;
    1d50:	8f69                	and	a4,a4,a0
    1d52:	0ce7a823          	sw	a4,208(a5)
E:\tp78_v2\mounriver_project\RF_CH582M\obj/../StdPeriphDriver/CH58x_gpio.c:89
            R32_PB_DIR &= ~pin;
    1d56:	0c07a703          	lw	a4,192(a5)
    1d5a:	8d79                	and	a0,a0,a4
E:\tp78_v2\mounriver_project\RF_CH582M\obj/../StdPeriphDriver/CH58x_gpio.c:99
            R32_PB_DIR |= pin;
            break;

        case GPIO_ModeOut_PP_20mA:
            R32_PB_PD_DRV |= pin;
            R32_PB_DIR |= pin;
    1d5c:	0ca7a023          	sw	a0,192(a5)
E:\tp78_v2\mounriver_project\RF_CH582M\obj/../StdPeriphDriver/CH58x_gpio.c:105
            break;

        default:
            break;
    }
}
    1d60:	8082                	ret
E:\tp78_v2\mounriver_project\RF_CH582M\obj/../StdPeriphDriver/CH58x_gpio.c:81
            R32_PB_PD_DRV &= ~pin;
    1d62:	400017b7          	lui	a5,0x40001
    1d66:	0d47a683          	lw	a3,212(a5) # 400010d4 <_eusrstack+0x1fff90d4>
    1d6a:	fff54713          	not	a4,a0
    1d6e:	8ef9                	and	a3,a3,a4
    1d70:	0cd7aa23          	sw	a3,212(a5)
E:\tp78_v2\mounriver_project\RF_CH582M\obj/../StdPeriphDriver/CH58x_gpio.c:82
            R32_PB_PU |= pin;
    1d74:	0d07a683          	lw	a3,208(a5)
    1d78:	8d55                	or	a0,a0,a3
    1d7a:	0ca7a823          	sw	a0,208(a5)
E:\tp78_v2\mounriver_project\RF_CH582M\obj/../StdPeriphDriver/CH58x_gpio.c:83
            R32_PB_DIR &= ~pin;
    1d7e:	0c07a683          	lw	a3,192(a5)
    1d82:	8f75                	and	a4,a4,a3
    1d84:	0ce7a023          	sw	a4,192(a5)
E:\tp78_v2\mounriver_project\RF_CH582M\obj/../StdPeriphDriver/CH58x_gpio.c:84
            break;
    1d88:	8082                	ret
E:\tp78_v2\mounriver_project\RF_CH582M\obj/../StdPeriphDriver/CH58x_gpio.c:87
            R32_PB_PD_DRV |= pin;
    1d8a:	400017b7          	lui	a5,0x40001
    1d8e:	0d47a703          	lw	a4,212(a5) # 400010d4 <_eusrstack+0x1fff90d4>
    1d92:	8f49                	or	a4,a4,a0
    1d94:	0ce7aa23          	sw	a4,212(a5)
E:\tp78_v2\mounriver_project\RF_CH582M\obj/../StdPeriphDriver/CH58x_gpio.c:88
            R32_PB_PU &= ~pin;
    1d98:	0d07a703          	lw	a4,208(a5)
    1d9c:	fff54513          	not	a0,a0
    1da0:	bf45                	j	1d50 <GPIOB_ModeCfg+0x2e>
E:\tp78_v2\mounriver_project\RF_CH582M\obj/../StdPeriphDriver/CH58x_gpio.c:93
            R32_PB_PD_DRV &= ~pin;
    1da2:	400017b7          	lui	a5,0x40001
    1da6:	0d47a683          	lw	a3,212(a5) # 400010d4 <_eusrstack+0x1fff90d4>
    1daa:	fff54713          	not	a4,a0
    1dae:	8f75                	and	a4,a4,a3
E:\tp78_v2\mounriver_project\RF_CH582M\obj/../StdPeriphDriver/CH58x_gpio.c:98
            R32_PB_PD_DRV |= pin;
    1db0:	0ce7aa23          	sw	a4,212(a5)
E:\tp78_v2\mounriver_project\RF_CH582M\obj/../StdPeriphDriver/CH58x_gpio.c:99
            R32_PB_DIR |= pin;
    1db4:	0c07a703          	lw	a4,192(a5)
    1db8:	8d59                	or	a0,a0,a4
    1dba:	b74d                	j	1d5c <GPIOB_ModeCfg+0x3a>
E:\tp78_v2\mounriver_project\RF_CH582M\obj/../StdPeriphDriver/CH58x_gpio.c:98
            R32_PB_PD_DRV |= pin;
    1dbc:	400017b7          	lui	a5,0x40001
    1dc0:	0d47a703          	lw	a4,212(a5) # 400010d4 <_eusrstack+0x1fff90d4>
    1dc4:	8f49                	or	a4,a4,a0
    1dc6:	b7ed                	j	1db0 <GPIOB_ModeCfg+0x8e>

00001dc8 <GetSysClock>:
GetSysClock():
E:\tp78_v2\mounriver_project\RF_CH582M\obj/../StdPeriphDriver/CH58x_sys.c:130
    rev = R16_CLK_SYS_CFG & 0xff;
    1dc8:	400017b7          	lui	a5,0x40001
    1dcc:	0087d503          	lhu	a0,8(a5) # 40001008 <_eusrstack+0x1fff9008>
    1dd0:	0542                	slli	a0,a0,0x10
    1dd2:	8141                	srli	a0,a0,0x10
E:\tp78_v2\mounriver_project\RF_CH582M\obj/../StdPeriphDriver/CH58x_sys.c:131
    if((rev & 0x40) == (0 << 6))
    1dd4:	04057793          	andi	a5,a0,64
    1dd8:	eb91                	bnez	a5,1dec <GetSysClock+0x24>
E:\tp78_v2\mounriver_project\RF_CH582M\obj/../StdPeriphDriver/CH58x_sys.c:133
        return (32000000 / (rev & 0x1f));
    1dda:	01f57793          	andi	a5,a0,31
    1dde:	01e85537          	lui	a0,0x1e85
E:\tp78_v2\mounriver_project\RF_CH582M\obj/../StdPeriphDriver/CH58x_sys.c:137
        return (480000000 / (rev & 0x1f));
    1de2:	80050513          	addi	a0,a0,-2048 # 1e84800 <_data_lma+0x1e7e188>
    1de6:	02f54533          	div	a0,a0,a5
    1dea:	8082                	ret
E:\tp78_v2\mounriver_project\RF_CH582M\obj/../StdPeriphDriver/CH58x_sys.c:135
    else if((rev & RB_CLK_SYS_MOD) == (1 << 6))
    1dec:	0c057793          	andi	a5,a0,192
    1df0:	04000713          	li	a4,64
    1df4:	00e79763          	bne	a5,a4,1e02 <GetSysClock+0x3a>
E:\tp78_v2\mounriver_project\RF_CH582M\obj/../StdPeriphDriver/CH58x_sys.c:137
        return (480000000 / (rev & 0x1f));
    1df8:	01f57793          	andi	a5,a0,31
    1dfc:	1c9c4537          	lui	a0,0x1c9c4
    1e00:	b7cd                	j	1de2 <GetSysClock+0x1a>
E:\tp78_v2\mounriver_project\RF_CH582M\obj/../StdPeriphDriver/CH58x_sys.c:141
        return (32000);
    1e02:	6521                	lui	a0,0x8
    1e04:	d0050513          	addi	a0,a0,-768 # 7d00 <_data_lma+0x1688>
E:\tp78_v2\mounriver_project\RF_CH582M\obj/../StdPeriphDriver/CH58x_sys.c:143
}
    1e08:	8082                	ret

00001e0a <SYS_GetSysTickCnt>:
SYS_GetSysTickCnt():
E:\tp78_v2\mounriver_project\RF_CH582M\obj/../StdPeriphDriver/CH58x_sys.c:230
    val = SysTick->CNT;
    1e0a:	e000f7b7          	lui	a5,0xe000f
    1e0e:	4788                	lw	a0,8(a5)
    1e10:	47cc                	lw	a1,12(a5)
E:\tp78_v2\mounriver_project\RF_CH582M\obj/../StdPeriphDriver/CH58x_sys.c:232
}
    1e12:	8082                	ret

00001e14 <TMR0_TimerInit>:
TMR0_TimerInit():
E:\tp78_v2\mounriver_project\RF_CH582M\obj/../StdPeriphDriver/CH58x_timer0.c:24
 *
 * @return  none
 */
void TMR0_TimerInit(uint32_t t)
{
    R32_TMR0_CNT_END = t;
    1e14:	400027b7          	lui	a5,0x40002
    1e18:	c7c8                	sw	a0,12(a5)
E:\tp78_v2\mounriver_project\RF_CH582M\obj/../StdPeriphDriver/CH58x_timer0.c:25
    R8_TMR0_CTRL_MOD = RB_TMR_ALL_CLEAR;
    1e1a:	4709                	li	a4,2
    1e1c:	00e78023          	sb	a4,0(a5) # 40002000 <_eusrstack+0x1fffa000>
E:\tp78_v2\mounriver_project\RF_CH582M\obj/../StdPeriphDriver/CH58x_timer0.c:26
    R8_TMR0_CTRL_MOD = RB_TMR_COUNT_EN;
    1e20:	4711                	li	a4,4
    1e22:	00e78023          	sb	a4,0(a5)
E:\tp78_v2\mounriver_project\RF_CH582M\obj/../StdPeriphDriver/CH58x_timer0.c:27
}
    1e26:	8082                	ret

00001e28 <USB_DeviceInit>:
USB_DeviceInit():
E:\tp78_v2\mounriver_project\RF_CH582M\obj/../StdPeriphDriver/CH58x_usbdev.c:29
 *
 * @return  none
 */
void USB_DeviceInit(void)
{
    R8_USB_CTRL = 0x00; // 先设定模式,取消 RB_UC_CLR_ALL
    1e28:	400087b7          	lui	a5,0x40008
    1e2c:	00078023          	sb	zero,0(a5) # 40008000 <_eusrstack+0x20000000>
E:\tp78_v2\mounriver_project\RF_CH582M\obj/../StdPeriphDriver/CH58x_usbdev.c:31

    R8_UEP4_1_MOD = RB_UEP4_RX_EN | RB_UEP4_TX_EN | RB_UEP1_RX_EN | RB_UEP1_TX_EN; // 端点4 OUT+IN,端点1 OUT+IN
    1e30:	fcc00713          	li	a4,-52
    1e34:	00e78623          	sb	a4,12(a5)
E:\tp78_v2\mounriver_project\RF_CH582M\obj/../StdPeriphDriver/CH58x_usbdev.c:32
    R8_UEP2_3_MOD = RB_UEP2_RX_EN | RB_UEP2_TX_EN | RB_UEP3_RX_EN | RB_UEP3_TX_EN; // 端点2 OUT+IN,端点3 OUT+IN
    1e38:	00e786a3          	sb	a4,13(a5)
E:\tp78_v2\mounriver_project\RF_CH582M\obj/../StdPeriphDriver/CH58x_usbdev.c:34

    R16_UEP0_DMA = (uint16_t)(uint32_t)pEP0_RAM_Addr;
    1e3c:	8541d703          	lhu	a4,-1964(gp) # 2000186c <pEP0_RAM_Addr>
    1e40:	00e79823          	sh	a4,16(a5)
E:\tp78_v2\mounriver_project\RF_CH582M\obj/../StdPeriphDriver/CH58x_usbdev.c:35
    R16_UEP1_DMA = (uint16_t)(uint32_t)pEP1_RAM_Addr;
    1e44:	8581d703          	lhu	a4,-1960(gp) # 20001870 <pEP1_RAM_Addr>
    1e48:	00e79a23          	sh	a4,20(a5)
E:\tp78_v2\mounriver_project\RF_CH582M\obj/../StdPeriphDriver/CH58x_usbdev.c:36
    R16_UEP2_DMA = (uint16_t)(uint32_t)pEP2_RAM_Addr;
    1e4c:	84c1d703          	lhu	a4,-1972(gp) # 20001864 <pEP2_RAM_Addr>
    1e50:	00e79c23          	sh	a4,24(a5)
E:\tp78_v2\mounriver_project\RF_CH582M\obj/../StdPeriphDriver/CH58x_usbdev.c:37
    R16_UEP3_DMA = (uint16_t)(uint32_t)pEP3_RAM_Addr;
    1e54:	8501d703          	lhu	a4,-1968(gp) # 20001868 <pEP3_RAM_Addr>
    1e58:	00e79e23          	sh	a4,28(a5)
E:\tp78_v2\mounriver_project\RF_CH582M\obj/../StdPeriphDriver/CH58x_usbdev.c:39

    R8_UEP0_CTRL = UEP_R_RES_ACK | UEP_T_RES_NAK;
    1e5c:	4689                	li	a3,2
    1e5e:	02d78123          	sb	a3,34(a5)
E:\tp78_v2\mounriver_project\RF_CH582M\obj/../StdPeriphDriver/CH58x_usbdev.c:40
    R8_UEP1_CTRL = UEP_R_RES_ACK | UEP_T_RES_NAK | RB_UEP_AUTO_TOG;
    1e62:	4749                	li	a4,18
    1e64:	02e78323          	sb	a4,38(a5)
E:\tp78_v2\mounriver_project\RF_CH582M\obj/../StdPeriphDriver/CH58x_usbdev.c:41
    R8_UEP2_CTRL = UEP_R_RES_ACK | UEP_T_RES_NAK | RB_UEP_AUTO_TOG;
    1e68:	02e78523          	sb	a4,42(a5)
E:\tp78_v2\mounriver_project\RF_CH582M\obj/../StdPeriphDriver/CH58x_usbdev.c:42
    R8_UEP3_CTRL = UEP_R_RES_ACK | UEP_T_RES_NAK | RB_UEP_AUTO_TOG;
    1e6c:	02e78723          	sb	a4,46(a5)
E:\tp78_v2\mounriver_project\RF_CH582M\obj/../StdPeriphDriver/CH58x_usbdev.c:43
    R8_UEP4_CTRL = UEP_R_RES_ACK | UEP_T_RES_NAK;
    1e70:	02d78923          	sb	a3,50(a5)
E:\tp78_v2\mounriver_project\RF_CH582M\obj/../StdPeriphDriver/CH58x_usbdev.c:45

    R8_USB_DEV_AD = 0x00;
    1e74:	000781a3          	sb	zero,3(a5)
E:\tp78_v2\mounriver_project\RF_CH582M\obj/../StdPeriphDriver/CH58x_usbdev.c:46
    R8_USB_CTRL = RB_UC_DEV_PU_EN | RB_UC_INT_BUSY | RB_UC_DMA_EN; // 启动USB设备及DMA，在中断期间中断标志未清除前自动返回NAK
    1e78:	02900713          	li	a4,41
    1e7c:	00e78023          	sb	a4,0(a5)
E:\tp78_v2\mounriver_project\RF_CH582M\obj/../StdPeriphDriver/CH58x_usbdev.c:47
    R16_PIN_ANALOG_IE |= RB_PIN_USB_IE | RB_PIN_USB_DP_PU;         // 防止USB端口浮空及上拉电阻
    1e80:	400016b7          	lui	a3,0x40001
    1e84:	01a6d703          	lhu	a4,26(a3) # 4000101a <_eusrstack+0x1fff901a>
    1e88:	0c076713          	ori	a4,a4,192
    1e8c:	00e69d23          	sh	a4,26(a3)
E:\tp78_v2\mounriver_project\RF_CH582M\obj/../StdPeriphDriver/CH58x_usbdev.c:48
    R8_USB_INT_FG = 0xFF;                                          // 清中断标志
    1e90:	577d                	li	a4,-1
    1e92:	00e78323          	sb	a4,6(a5)
E:\tp78_v2\mounriver_project\RF_CH582M\obj/../StdPeriphDriver/CH58x_usbdev.c:49
    R8_UDEV_CTRL = RB_UD_PD_DIS | RB_UD_PORT_EN;                   // 允许USB端口
    1e96:	f8100713          	li	a4,-127
    1e9a:	00e780a3          	sb	a4,1(a5)
E:\tp78_v2\mounriver_project\RF_CH582M\obj/../StdPeriphDriver/CH58x_usbdev.c:50
    R8_USB_INT_EN = RB_UIE_SUSPEND | RB_UIE_BUS_RST | RB_UIE_TRANSFER;
    1e9e:	471d                	li	a4,7
    1ea0:	00e78123          	sb	a4,2(a5)
E:\tp78_v2\mounriver_project\RF_CH582M\obj/../StdPeriphDriver/CH58x_usbdev.c:51
}
    1ea4:	8082                	ret

00001ea6 <DevEP1_IN_Deal>:
DevEP1_IN_Deal():
E:\tp78_v2\mounriver_project\RF_CH582M\obj/../StdPeriphDriver/CH58x_usbdev.c:64
 *
 * @return  none
 */
void DevEP1_IN_Deal(uint8_t l)
{
    R8_UEP1_T_LEN = l;
    1ea6:	400087b7          	lui	a5,0x40008
    1eaa:	02a78223          	sb	a0,36(a5) # 40008024 <_eusrstack+0x20000024>
E:\tp78_v2\mounriver_project\RF_CH582M\obj/../StdPeriphDriver/CH58x_usbdev.c:65
    R8_UEP1_CTRL = (R8_UEP1_CTRL & ~MASK_UEP_T_RES) | UEP_T_RES_ACK;
    1eae:	0267c703          	lbu	a4,38(a5)
    1eb2:	0fc77713          	andi	a4,a4,252
    1eb6:	02e78323          	sb	a4,38(a5)
E:\tp78_v2\mounriver_project\RF_CH582M\obj/../StdPeriphDriver/CH58x_usbdev.c:66
}
    1eba:	8082                	ret

00001ebc <DevEP2_IN_Deal>:
DevEP2_IN_Deal():
E:\tp78_v2\mounriver_project\RF_CH582M\obj/../StdPeriphDriver/CH58x_usbdev.c:79
 *
 * @return  none
 */
void DevEP2_IN_Deal(uint8_t l)
{
    R8_UEP2_T_LEN = l;
    1ebc:	400087b7          	lui	a5,0x40008
    1ec0:	02a78423          	sb	a0,40(a5) # 40008028 <_eusrstack+0x20000028>
E:\tp78_v2\mounriver_project\RF_CH582M\obj/../StdPeriphDriver/CH58x_usbdev.c:80
    R8_UEP2_CTRL = (R8_UEP2_CTRL & ~MASK_UEP_T_RES) | UEP_T_RES_ACK;
    1ec4:	02a7c703          	lbu	a4,42(a5)
    1ec8:	0fc77713          	andi	a4,a4,252
    1ecc:	02e78523          	sb	a4,42(a5)
E:\tp78_v2\mounriver_project\RF_CH582M\obj/../StdPeriphDriver/CH58x_usbdev.c:81
}
    1ed0:	8082                	ret

00001ed2 <DevEP3_IN_Deal>:
DevEP3_IN_Deal():
E:\tp78_v2\mounriver_project\RF_CH582M\obj/../StdPeriphDriver/CH58x_usbdev.c:94
 *
 * @return  none
 */
void DevEP3_IN_Deal(uint8_t l)
{
    R8_UEP3_T_LEN = l;
    1ed2:	400087b7          	lui	a5,0x40008
    1ed6:	02a78623          	sb	a0,44(a5) # 4000802c <_eusrstack+0x2000002c>
E:\tp78_v2\mounriver_project\RF_CH582M\obj/../StdPeriphDriver/CH58x_usbdev.c:95
    R8_UEP3_CTRL = (R8_UEP3_CTRL & ~MASK_UEP_T_RES) | UEP_T_RES_ACK;
    1eda:	02e7c703          	lbu	a4,46(a5)
    1ede:	0fc77713          	andi	a4,a4,252
    1ee2:	02e78723          	sb	a4,46(a5)
E:\tp78_v2\mounriver_project\RF_CH582M\obj/../StdPeriphDriver/CH58x_usbdev.c:96
}
    1ee6:	8082                	ret

00001ee8 <DevEP4_IN_Deal>:
DevEP4_IN_Deal():
E:\tp78_v2\mounriver_project\RF_CH582M\obj/../StdPeriphDriver/CH58x_usbdev.c:109
 *
 * @return  none
 */
void DevEP4_IN_Deal(uint8_t l)
{
    R8_UEP4_T_LEN = l;
    1ee8:	400087b7          	lui	a5,0x40008
    1eec:	02a78823          	sb	a0,48(a5) # 40008030 <_eusrstack+0x20000030>
E:\tp78_v2\mounriver_project\RF_CH582M\obj/../StdPeriphDriver/CH58x_usbdev.c:110
    R8_UEP4_CTRL = (R8_UEP4_CTRL & ~MASK_UEP_T_RES) | UEP_T_RES_ACK;
    1ef0:	0327c703          	lbu	a4,50(a5)
    1ef4:	0fc77713          	andi	a4,a4,252
    1ef8:	02e78923          	sb	a4,50(a5)
E:\tp78_v2\mounriver_project\RF_CH582M\obj/../StdPeriphDriver/CH58x_usbdev.c:111
}
    1efc:	8082                	ret

00001efe <HalLedBlink.part.2>:
HalLedBlink():
E:\tp78_v2\mounriver_project\RF_CH582M\obj/../HAL/LED.c:146
 * @param   percent     - the percentage in each period where the led will be on
 * @param   period      - length of each cycle in milliseconds
 *
 * @return  none
 */
void HalLedBlink(uint8_t leds, uint8_t numBlinks, uint8_t percent, uint16_t period)
    1efe:	7179                	addi	sp,sp,-48
    1f00:	d422                	sw	s0,40(sp)
    1f02:	d226                	sw	s1,36(sp)
    1f04:	d04a                	sw	s2,32(sp)
    1f06:	ce4e                	sw	s3,28(sp)
    1f08:	cc52                	sw	s4,24(sp)
    1f0a:	ca56                	sw	s5,20(sp)
    1f0c:	d606                	sw	ra,44(sp)
E:\tp78_v2\mounriver_project\RF_CH582M\obj/../HAL/LED.c:156
    if(leds && percent && period)
    {
        if(percent < 100)
        {
            led = HAL_LED_1;
            leds &= HAL_LED_ALL;
    1f0e:	00f57913          	andi	s2,a0,15
E:\tp78_v2\mounriver_project\RF_CH582M\obj/../HAL/LED.c:157
            sts = HalLedStatusControl.HalLedControlTable;
    1f12:	81818413          	addi	s0,gp,-2024 # 20001830 <HalLedStatusControl>
E:\tp78_v2\mounriver_project\RF_CH582M\obj/../HAL/LED.c:155
            led = HAL_LED_1;
    1f16:	4485                	li	s1,1
E:\tp78_v2\mounriver_project\RF_CH582M\obj/../HAL/LED.c:163
            while(leds)
            {
                if(leds & led)
                {
                    /* Store the current state of the led before going to blinking */
                    preBlinkState |= (led & HalLedState);
    1f18:	80918993          	addi	s3,gp,-2039 # 20001821 <preBlinkState>
    1f1c:	80818a13          	addi	s4,gp,-2040 # 20001820 <_edata>
E:\tp78_v2\mounriver_project\RF_CH582M\obj/../HAL/LED.c:170
                    sts->time = period;           /* Time for one on/off cycle */
                    sts->onPct = percent;         /* % of cycle LED is on */
                    sts->todo = numBlinks;        /* Number of blink cycles */
                    if(!numBlinks)
                    {
                        sts->mode |= HAL_LED_MODE_FLASH; /* Continuous */
    1f20:	4a91                	li	s5,4
E:\tp78_v2\mounriver_project\RF_CH582M\obj/../HAL/LED.c:158
            while(leds)
    1f22:	02091063          	bnez	s2,1f42 <HalLedBlink.part.2+0x44>
E:\tp78_v2\mounriver_project\RF_CH582M\obj/../HAL/LED.c:190
    }
    else
    {
        HalLedSet(leds, HAL_LED_MODE_OFF); /* No on time, turn off */
    }
}
    1f26:	5422                	lw	s0,40(sp)
    1f28:	50b2                	lw	ra,44(sp)
    1f2a:	5492                	lw	s1,36(sp)
    1f2c:	5902                	lw	s2,32(sp)
    1f2e:	49f2                	lw	s3,28(sp)
    1f30:	4a62                	lw	s4,24(sp)
    1f32:	4ad2                	lw	s5,20(sp)
E:\tp78_v2\mounriver_project\RF_CH582M\obj/../HAL/LED.c:179
            tmos_start_task(halTaskID, LED_BLINK_EVENT, 0);
    1f34:	85c1c503          	lbu	a0,-1956(gp) # 20001874 <halTaskID>
    1f38:	4601                	li	a2,0
    1f3a:	4585                	li	a1,1
E:\tp78_v2\mounriver_project\RF_CH582M\obj/../HAL/LED.c:190
}
    1f3c:	6145                	addi	sp,sp,48
E:\tp78_v2\mounriver_project\RF_CH582M\obj/../HAL/LED.c:179
            tmos_start_task(halTaskID, LED_BLINK_EVENT, 0);
    1f3e:	2220106f          	j	3160 <tmos_start_task>
E:\tp78_v2\mounriver_project\RF_CH582M\obj/../HAL/LED.c:160
                if(leds & led)
    1f42:	009977b3          	and	a5,s2,s1
    1f46:	c7a9                	beqz	a5,1f90 <HalLedBlink.part.2+0x92>
E:\tp78_v2\mounriver_project\RF_CH582M\obj/../HAL/LED.c:163
                    preBlinkState |= (led & HalLedState);
    1f48:	000a4783          	lbu	a5,0(s4) # a8c00000 <_eusrstack+0x88bf8000>
    1f4c:	0009c703          	lbu	a4,0(s3)
E:\tp78_v2\mounriver_project\RF_CH582M\obj/../HAL/LED.c:164
                    sts->mode = HAL_LED_MODE_OFF; /* Stop previous blink */
    1f50:	00040023          	sb	zero,0(s0)
E:\tp78_v2\mounriver_project\RF_CH582M\obj/../HAL/LED.c:163
                    preBlinkState |= (led & HalLedState);
    1f54:	8fe5                	and	a5,a5,s1
    1f56:	8fd9                	or	a5,a5,a4
    1f58:	80f184a3          	sb	a5,-2039(gp) # 20001821 <preBlinkState>
E:\tp78_v2\mounriver_project\RF_CH582M\obj/../HAL/LED.c:165
                    sts->time = period;           /* Time for one on/off cycle */
    1f5c:	00d41223          	sh	a3,4(s0)
E:\tp78_v2\mounriver_project\RF_CH582M\obj/../HAL/LED.c:166
                    sts->onPct = percent;         /* % of cycle LED is on */
    1f60:	00c40123          	sb	a2,2(s0)
E:\tp78_v2\mounriver_project\RF_CH582M\obj/../HAL/LED.c:167
                    sts->todo = numBlinks;        /* Number of blink cycles */
    1f64:	00b400a3          	sb	a1,1(s0)
E:\tp78_v2\mounriver_project\RF_CH582M\obj/../HAL/LED.c:168
                    if(!numBlinks)
    1f68:	e199                	bnez	a1,1f6e <HalLedBlink.part.2+0x70>
E:\tp78_v2\mounriver_project\RF_CH582M\obj/../HAL/LED.c:170
                        sts->mode |= HAL_LED_MODE_FLASH; /* Continuous */
    1f6a:	01540023          	sb	s5,0(s0)
    1f6e:	c636                	sw	a3,12(sp)
    1f70:	c432                	sw	a2,8(sp)
    1f72:	c22e                	sw	a1,4(sp)
E:\tp78_v2\mounriver_project\RF_CH582M\obj/../HAL/LED.c:172
                    sts->next = TMOS_GetSystemClock(); /* Start now */
    1f74:	15a010ef          	jal	ra,30ce <TMOS_GetSystemClock>
E:\tp78_v2\mounriver_project\RF_CH582M\obj/../HAL/LED.c:173
                    sts->mode |= HAL_LED_MODE_BLINK;   /* Enable blinking */
    1f78:	00044783          	lbu	a5,0(s0)
E:\tp78_v2\mounriver_project\RF_CH582M\obj/../HAL/LED.c:174
                    leds ^= led;
    1f7c:	46b2                	lw	a3,12(sp)
    1f7e:	4622                	lw	a2,8(sp)
    1f80:	4592                	lw	a1,4(sp)
E:\tp78_v2\mounriver_project\RF_CH582M\obj/../HAL/LED.c:173
                    sts->mode |= HAL_LED_MODE_BLINK;   /* Enable blinking */
    1f82:	0027e793          	ori	a5,a5,2
E:\tp78_v2\mounriver_project\RF_CH582M\obj/../HAL/LED.c:172
                    sts->next = TMOS_GetSystemClock(); /* Start now */
    1f86:	c408                	sw	a0,8(s0)
E:\tp78_v2\mounriver_project\RF_CH582M\obj/../HAL/LED.c:173
                    sts->mode |= HAL_LED_MODE_BLINK;   /* Enable blinking */
    1f88:	00f40023          	sb	a5,0(s0)
E:\tp78_v2\mounriver_project\RF_CH582M\obj/../HAL/LED.c:174
                    leds ^= led;
    1f8c:	00994933          	xor	s2,s2,s1
E:\tp78_v2\mounriver_project\RF_CH582M\obj/../HAL/LED.c:176
                led <<= 1;
    1f90:	0486                	slli	s1,s1,0x1
    1f92:	0ff4f493          	andi	s1,s1,255
E:\tp78_v2\mounriver_project\RF_CH582M\obj/../HAL/LED.c:177
                sts++;
    1f96:	0431                	addi	s0,s0,12
    1f98:	b769                	j	1f22 <HalLedBlink.part.2+0x24>

00001f9a <HalLedOnOff>:
HalLedOnOff():
E:\tp78_v2\mounriver_project\RF_CH582M\obj/../HAL/LED.c:294
 *
 * @return  none
 */
void HalLedOnOff(uint8_t leds, uint8_t mode)
{
    if(leds & HAL_LED_1)
    1f9a:	00157793          	andi	a5,a0,1
    1f9e:	80818693          	addi	a3,gp,-2040 # 20001820 <_edata>
    1fa2:	cb9d                	beqz	a5,1fd8 <HalLedOnOff+0x3e>
E:\tp78_v2\mounriver_project\RF_CH582M\obj/../HAL/LED.c:296
    {
        if(mode == HAL_LED_MODE_ON)
    1fa4:	4785                	li	a5,1
    1fa6:	02f59163          	bne	a1,a5,1fc8 <HalLedOnOff+0x2e>
E:\tp78_v2\mounriver_project\RF_CH582M\obj/../HAL/LED.c:298
        {
            HAL_TURN_ON_LED1();
    1faa:	40001637          	lui	a2,0x40001
    1fae:	0c862783          	lw	a5,200(a2) # 400010c8 <_eusrstack+0x1fff90c8>
    1fb2:	777d                	lui	a4,0xfffff
    1fb4:	177d                	addi	a4,a4,-1
    1fb6:	8ff9                	and	a5,a5,a4
    1fb8:	0cf62423          	sw	a5,200(a2)
E:\tp78_v2\mounriver_project\RF_CH582M\obj/../HAL/LED.c:341
        }
    }
    /* Remember current state */
    if(mode)
    {
        HalLedState |= leds;
    1fbc:	0006c783          	lbu	a5,0(a3)
    1fc0:	8d5d                	or	a0,a0,a5
    1fc2:	80a18423          	sb	a0,-2040(gp) # 20001820 <_edata>
E:\tp78_v2\mounriver_project\RF_CH582M\obj/../HAL/LED.c:347
    }
    else
    {
        HalLedState &= (leds ^ 0xFF);
    }
}
    1fc6:	8082                	ret
E:\tp78_v2\mounriver_project\RF_CH582M\obj/../HAL/LED.c:302
            HAL_TURN_OFF_LED1();
    1fc8:	40001737          	lui	a4,0x40001
    1fcc:	0c872783          	lw	a5,200(a4) # 400010c8 <_eusrstack+0x1fff90c8>
    1fd0:	6605                	lui	a2,0x1
    1fd2:	8fd1                	or	a5,a5,a2
    1fd4:	0cf72423          	sw	a5,200(a4)
E:\tp78_v2\mounriver_project\RF_CH582M\obj/../HAL/LED.c:339
    if(mode)
    1fd8:	f1f5                	bnez	a1,1fbc <HalLedOnOff+0x22>
E:\tp78_v2\mounriver_project\RF_CH582M\obj/../HAL/LED.c:345
        HalLedState &= (leds ^ 0xFF);
    1fda:	0006c783          	lbu	a5,0(a3)
    1fde:	fff54513          	not	a0,a0
    1fe2:	8d7d                	and	a0,a0,a5
    1fe4:	bff9                	j	1fc2 <HalLedOnOff+0x28>

00001fe6 <HalLedSet.part.1>:
HalLedSet():
E:\tp78_v2\mounriver_project\RF_CH582M\obj/../HAL/LED.c:79
uint8_t HalLedSet(uint8_t leds, uint8_t mode)
    1fe6:	1101                	addi	sp,sp,-32
    1fe8:	cc22                	sw	s0,24(sp)
    1fea:	ca26                	sw	s1,20(sp)
    1fec:	c84a                	sw	s2,16(sp)
    1fee:	c64e                	sw	s3,12(sp)
    1ff0:	c452                	sw	s4,8(sp)
    1ff2:	ce06                	sw	ra,28(sp)
    1ff4:	89ae                	mv	s3,a1
E:\tp78_v2\mounriver_project\RF_CH582M\obj/../HAL/LED.c:105
            leds &= HAL_LED_ALL;
    1ff6:	00f57493          	andi	s1,a0,15
E:\tp78_v2\mounriver_project\RF_CH582M\obj/../HAL/LED.c:106
            sts = HalLedStatusControl.HalLedControlTable;
    1ffa:	81818913          	addi	s2,gp,-2024 # 20001830 <HalLedStatusControl>
E:\tp78_v2\mounriver_project\RF_CH582M\obj/../HAL/LED.c:104
            led = HAL_LED_1;
    1ffe:	4405                	li	s0,1
E:\tp78_v2\mounriver_project\RF_CH582M\obj/../HAL/LED.c:111
                    if(mode != HAL_LED_MODE_TOGGLE)
    2000:	4a21                	li	s4,8
E:\tp78_v2\mounriver_project\RF_CH582M\obj/../HAL/LED.c:107
            while(leds)
    2002:	e889                	bnez	s1,2014 <HalLedSet.part.1+0x2e>
E:\tp78_v2\mounriver_project\RF_CH582M\obj/../HAL/LED.c:132
}
    2004:	40f2                	lw	ra,28(sp)
    2006:	4462                	lw	s0,24(sp)
    2008:	44d2                	lw	s1,20(sp)
    200a:	4942                	lw	s2,16(sp)
    200c:	49b2                	lw	s3,12(sp)
    200e:	4a22                	lw	s4,8(sp)
    2010:	6105                	addi	sp,sp,32
    2012:	8082                	ret
E:\tp78_v2\mounriver_project\RF_CH582M\obj/../HAL/LED.c:109
                if(leds & led)
    2014:	0084f7b3          	and	a5,s1,s0
    2018:	cf89                	beqz	a5,2032 <HalLedSet.part.1+0x4c>
E:\tp78_v2\mounriver_project\RF_CH582M\obj/../HAL/LED.c:111
                    if(mode != HAL_LED_MODE_TOGGLE)
    201a:	85ce                	mv	a1,s3
    201c:	01499663          	bne	s3,s4,2028 <HalLedSet.part.1+0x42>
E:\tp78_v2\mounriver_project\RF_CH582M\obj/../HAL/LED.c:117
                        sts->mode ^= HAL_LED_MODE_ON; /* Toggle */
    2020:	00094583          	lbu	a1,0(s2)
    2024:	0015c593          	xori	a1,a1,1
E:\tp78_v2\mounriver_project\RF_CH582M\obj/../HAL/LED.c:119
                    HalLedOnOff(led, sts->mode);
    2028:	8522                	mv	a0,s0
    202a:	00b90023          	sb	a1,0(s2)
E:\tp78_v2\mounriver_project\RF_CH582M\obj/../HAL/LED.c:120
                    leds ^= led;
    202e:	8ca1                	xor	s1,s1,s0
E:\tp78_v2\mounriver_project\RF_CH582M\obj/../HAL/LED.c:119
                    HalLedOnOff(led, sts->mode);
    2030:	37ad                	jal	1f9a <HalLedOnOff>
E:\tp78_v2\mounriver_project\RF_CH582M\obj/../HAL/LED.c:122
                led <<= 1;
    2032:	0406                	slli	s0,s0,0x1
    2034:	0ff47413          	andi	s0,s0,255
E:\tp78_v2\mounriver_project\RF_CH582M\obj/../HAL/LED.c:123
                sts++;
    2038:	0931                	addi	s2,s2,12
    203a:	b7e1                	j	2002 <HalLedSet.part.1+0x1c>

0000203c <HalLedBlink>:
HalLedBlink():
E:\tp78_v2\mounriver_project\RF_CH582M\obj/../HAL/LED.c:147
{
    203c:	87aa                	mv	a5,a0
E:\tp78_v2\mounriver_project\RF_CH582M\obj/../HAL/LED.c:151
    if(leds && percent && period)
    203e:	c911                	beqz	a0,2052 <HalLedBlink+0x16>
E:\tp78_v2\mounriver_project\RF_CH582M\obj/../HAL/LED.c:151 (discriminator 1)
    2040:	ca09                	beqz	a2,2052 <HalLedBlink+0x16>
E:\tp78_v2\mounriver_project\RF_CH582M\obj/../HAL/LED.c:151 (discriminator 2)
    2042:	ca81                	beqz	a3,2052 <HalLedBlink+0x16>
E:\tp78_v2\mounriver_project\RF_CH582M\obj/../HAL/LED.c:153
        if(percent < 100)
    2044:	06300793          	li	a5,99
    2048:	00c7e363          	bltu	a5,a2,204e <HalLedBlink+0x12>
    204c:	bd4d                	j	1efe <HalLedBlink.part.2>
HalLedSet():
E:\tp78_v2\mounriver_project\RF_CH582M\obj/../HAL/LED.c:84
    switch(mode)
    204e:	4585                	li	a1,1
    2050:	bf59                	j	1fe6 <HalLedSet.part.1>
    2052:	4581                	li	a1,0
    2054:	853e                	mv	a0,a5
    2056:	bfed                	j	2050 <HalLedBlink+0x14>

00002058 <HalLedSet>:
    2058:	47a1                	li	a5,8
    205a:	02b7ef63          	bltu	a5,a1,2098 <HalLedSet+0x40>
    205e:	00004697          	auipc	a3,0x4
    2062:	46a68693          	addi	a3,a3,1130 # 64c8 <memcpy+0xca>
    2066:	00259713          	slli	a4,a1,0x2
    206a:	9736                	add	a4,a4,a3
    206c:	431c                	lw	a5,0(a4)
E:\tp78_v2\mounriver_project\RF_CH582M\obj/../HAL/LED.c:80
{
    206e:	1141                	addi	sp,sp,-16
    2070:	c606                	sw	ra,12(sp)
E:\tp78_v2\mounriver_project\RF_CH582M\obj/../HAL/LED.c:84
    switch(mode)
    2072:	97b6                	add	a5,a5,a3
    2074:	8782                	jr	a5
E:\tp78_v2\mounriver_project\RF_CH582M\obj/../HAL/LED.c:89
            HalLedBlink(leds, 1, HAL_LED_DEFAULT_DUTY_CYCLE, HAL_LED_DEFAULT_FLASH_TIME);
    2076:	3e800693          	li	a3,1000
    207a:	4615                	li	a2,5
    207c:	4585                	li	a1,1
E:\tp78_v2\mounriver_project\RF_CH582M\obj/../HAL/LED.c:96
            HalLedBlink(leds, HAL_LED_DEFAULT_FLASH_COUNT, HAL_LED_DEFAULT_DUTY_CYCLE, HAL_LED_DEFAULT_FLASH_TIME);
    207e:	3f7d                	jal	203c <HalLedBlink>
E:\tp78_v2\mounriver_project\RF_CH582M\obj/../HAL/LED.c:132
}
    2080:	40b2                	lw	ra,12(sp)
    2082:	4501                	li	a0,0
    2084:	0141                	addi	sp,sp,16
    2086:	8082                	ret
E:\tp78_v2\mounriver_project\RF_CH582M\obj/../HAL/LED.c:96
            HalLedBlink(leds, HAL_LED_DEFAULT_FLASH_COUNT, HAL_LED_DEFAULT_DUTY_CYCLE, HAL_LED_DEFAULT_FLASH_TIME);
    2088:	3e800693          	li	a3,1000
    208c:	4615                	li	a2,5
    208e:	03200593          	li	a1,50
    2092:	b7f5                	j	207e <HalLedSet+0x26>
    2094:	3f89                	jal	1fe6 <HalLedSet.part.1>
    2096:	b7ed                	j	2080 <HalLedSet+0x28>
E:\tp78_v2\mounriver_project\RF_CH582M\obj/../HAL/LED.c:132
}
    2098:	4501                	li	a0,0
    209a:	8082                	ret

0000209c <HAL_LedInit>:
HAL_LedInit():
E:\tp78_v2\mounriver_project\RF_CH582M\obj/../HAL/LED.c:59
    GPIOB_SetBits(LED1_BV);
    209c:	40001737          	lui	a4,0x40001
    20a0:	0c872783          	lw	a5,200(a4) # 400010c8 <_eusrstack+0x1fff90c8>
E:\tp78_v2\mounriver_project\RF_CH582M\obj/../HAL/LED.c:57
{
    20a4:	1141                	addi	sp,sp,-16
E:\tp78_v2\mounriver_project\RF_CH582M\obj/../HAL/LED.c:59
    GPIOB_SetBits(LED1_BV);
    20a6:	6685                	lui	a3,0x1
E:\tp78_v2\mounriver_project\RF_CH582M\obj/../HAL/LED.c:57
{
    20a8:	c606                	sw	ra,12(sp)
E:\tp78_v2\mounriver_project\RF_CH582M\obj/../HAL/LED.c:59
    GPIOB_SetBits(LED1_BV);
    20aa:	8fd5                	or	a5,a5,a3
    20ac:	0cf72423          	sw	a5,200(a4)
E:\tp78_v2\mounriver_project\RF_CH582M\obj/../HAL/LED.c:60
    GPIOB_ModeCfg(LED1_BV, GPIO_ModeOut_PP_5mA);
    20b0:	458d                	li	a1,3
    20b2:	6505                	lui	a0,0x1
    20b4:	31bd                	jal	1d22 <GPIOB_ModeCfg>
HalLedSet():
E:\tp78_v2\mounriver_project\RF_CH582M\obj/../HAL/LED.c:84
    switch(mode)
    20b6:	4581                	li	a1,0
    20b8:	453d                	li	a0,15
    20ba:	3735                	jal	1fe6 <HalLedSet.part.1>
HalLedBlink():
E:\tp78_v2\mounriver_project\RF_CH582M\obj/../HAL/LED.c:153
        if(percent < 100)
    20bc:	2ee00693          	li	a3,750
    20c0:	4679                	li	a2,30
    20c2:	4595                	li	a1,5
    20c4:	4505                	li	a0,1
    20c6:	3d25                	jal	1efe <HalLedBlink.part.2>
HAL_LedInit():
E:\tp78_v2\mounriver_project\RF_CH582M\obj/../HAL/LED.c:67
}
    20c8:	40b2                	lw	ra,12(sp)
E:\tp78_v2\mounriver_project\RF_CH582M\obj/../HAL/LED.c:66
    HalLedStatusControl.sleepActive = FALSE;
    20ca:	84018423          	sb	zero,-1976(gp) # 20001860 <HalLedStatusControl+0x30>
E:\tp78_v2\mounriver_project\RF_CH582M\obj/../HAL/LED.c:67
}
    20ce:	0141                	addi	sp,sp,16
    20d0:	8082                	ret

000020d2 <HalLedUpdate>:
HalLedUpdate():
E:\tp78_v2\mounriver_project\RF_CH582M\obj/../HAL/LED.c:212
    if(!HalLedStatusControl.sleepActive)
    20d2:	8481c783          	lbu	a5,-1976(gp) # 20001860 <HalLedStatusControl+0x30>
    20d6:	16079363          	bnez	a5,223c <HalLedUpdate+0x16a>
E:\tp78_v2\mounriver_project\RF_CH582M\obj/../HAL/LED.c:200
{
    20da:	7179                	addi	sp,sp,-48
    20dc:	ce4e                	sw	s3,28(sp)
E:\tp78_v2\mounriver_project\RF_CH582M\obj/../HAL/LED.c:249
                            sts->next = time + wait;
    20de:	69c1                	lui	s3,0x10
E:\tp78_v2\mounriver_project\RF_CH582M\obj/../HAL/LED.c:200
{
    20e0:	d422                	sw	s0,40(sp)
    20e2:	d226                	sw	s1,36(sp)
    20e4:	d04a                	sw	s2,32(sp)
    20e6:	cc52                	sw	s4,24(sp)
    20e8:	ca56                	sw	s5,20(sp)
    20ea:	c85a                	sw	s6,16(sp)
    20ec:	c65e                	sw	s7,12(sp)
    20ee:	c462                	sw	s8,8(sp)
    20f0:	d606                	sw	ra,44(sp)
    20f2:	c266                	sw	s9,4(sp)
    20f4:	c06a                	sw	s10,0(sp)
E:\tp78_v2\mounriver_project\RF_CH582M\obj/../HAL/LED.c:209
    sts = HalLedStatusControl.HalLedControlTable;
    20f6:	81818413          	addi	s0,gp,-2024 # 20001830 <HalLedStatusControl>
E:\tp78_v2\mounriver_project\RF_CH582M\obj/../HAL/LED.c:206
    next = 0;
    20fa:	4c01                	li	s8,0
E:\tp78_v2\mounriver_project\RF_CH582M\obj/../HAL/LED.c:208
    leds = HAL_LED_ALL;
    20fc:	493d                	li	s2,15
E:\tp78_v2\mounriver_project\RF_CH582M\obj/../HAL/LED.c:207
    led = HAL_LED_1;
    20fe:	4485                	li	s1,1
E:\tp78_v2\mounriver_project\RF_CH582M\obj/../HAL/LED.c:256
                            HalLedSet(led, ((preBlinkState & led) != 0) ? HAL_LED_MODE_ON : HAL_LED_MODE_OFF);
    2100:	80918a13          	addi	s4,gp,-2039 # 20001821 <preBlinkState>
E:\tp78_v2\mounriver_project\RF_CH582M\obj/../HAL/LED.c:248
                            wait = (((uint32_t)pct * (uint32_t)sts->time) / 100);
    2104:	06400a93          	li	s5,100
E:\tp78_v2\mounriver_project\RF_CH582M\obj/../HAL/LED.c:249
                            sts->next = time + wait;
    2108:	19fd                	addi	s3,s3,-1
E:\tp78_v2\mounriver_project\RF_CH582M\obj/../HAL/LED.c:225
                            pct = 100 - sts->onPct;             /* Percentage of cycle for off */
    210a:	06400b13          	li	s6,100
E:\tp78_v2\mounriver_project\RF_CH582M\obj/../HAL/LED.c:230
                                if(sts->todo != 0xff)
    210e:	0ff00b93          	li	s7,255
E:\tp78_v2\mounriver_project\RF_CH582M\obj/../HAL/LED.c:216
            if(leds & led)
    2112:	0124f7b3          	and	a5,s1,s2
    2116:	c7e1                	beqz	a5,21de <HalLedUpdate+0x10c>
E:\tp78_v2\mounriver_project\RF_CH582M\obj/../HAL/LED.c:218
                if(sts->mode & HAL_LED_MODE_BLINK)
    2118:	00044783          	lbu	a5,0(s0)
    211c:	8b89                	andi	a5,a5,2
    211e:	cfd5                	beqz	a5,21da <HalLedUpdate+0x108>
E:\tp78_v2\mounriver_project\RF_CH582M\obj/../HAL/LED.c:220
                    time = TMOS_GetSystemClock();
    2120:	7af000ef          	jal	ra,30ce <TMOS_GetSystemClock>
E:\tp78_v2\mounriver_project\RF_CH582M\obj/../HAL/LED.c:221
                    if(time >= sts->next)
    2124:	441c                	lw	a5,8(s0)
E:\tp78_v2\mounriver_project\RF_CH582M\obj/../HAL/LED.c:220
                    time = TMOS_GetSystemClock();
    2126:	8d2a                	mv	s10,a0
E:\tp78_v2\mounriver_project\RF_CH582M\obj/../HAL/LED.c:221
                    if(time >= sts->next)
    2128:	0ef56663          	bltu	a0,a5,2214 <HalLedUpdate+0x142>
E:\tp78_v2\mounriver_project\RF_CH582M\obj/../HAL/LED.c:223
                        if(sts->mode & HAL_LED_MODE_ON)
    212c:	00044683          	lbu	a3,0(s0)
    2130:	00244c83          	lbu	s9,2(s0)
    2134:	0016f793          	andi	a5,a3,1
    2138:	cbbd                	beqz	a5,21ae <HalLedUpdate+0xdc>
E:\tp78_v2\mounriver_project\RF_CH582M\obj/../HAL/LED.c:225
                            pct = 100 - sts->onPct;             /* Percentage of cycle for off */
    213a:	419b0733          	sub	a4,s6,s9
E:\tp78_v2\mounriver_project\RF_CH582M\obj/../HAL/LED.c:226
                            sts->mode &= ~HAL_LED_MODE_ON;      /* Say it's not on */
    213e:	9af9                	andi	a3,a3,-2
E:\tp78_v2\mounriver_project\RF_CH582M\obj/../HAL/LED.c:227
                            HalLedOnOff(led, HAL_LED_MODE_OFF); /* Turn it off */
    2140:	4581                	li	a1,0
    2142:	8526                	mv	a0,s1
E:\tp78_v2\mounriver_project\RF_CH582M\obj/../HAL/LED.c:225
                            pct = 100 - sts->onPct;             /* Percentage of cycle for off */
    2144:	0ff77c93          	andi	s9,a4,255
E:\tp78_v2\mounriver_project\RF_CH582M\obj/../HAL/LED.c:226
                            sts->mode &= ~HAL_LED_MODE_ON;      /* Say it's not on */
    2148:	00d40023          	sb	a3,0(s0)
E:\tp78_v2\mounriver_project\RF_CH582M\obj/../HAL/LED.c:227
                            HalLedOnOff(led, HAL_LED_MODE_OFF); /* Turn it off */
    214c:	35b9                	jal	1f9a <HalLedOnOff>
E:\tp78_v2\mounriver_project\RF_CH582M\obj/../HAL/LED.c:228
                            if(!(sts->mode & HAL_LED_MODE_FLASH))
    214e:	00044603          	lbu	a2,0(s0)
    2152:	00467793          	andi	a5,a2,4
    2156:	ef99                	bnez	a5,2174 <HalLedUpdate+0xa2>
E:\tp78_v2\mounriver_project\RF_CH582M\obj/../HAL/LED.c:230
                                if(sts->todo != 0xff)
    2158:	00144683          	lbu	a3,1(s0)
    215c:	01768c63          	beq	a3,s7,2174 <HalLedUpdate+0xa2>
E:\tp78_v2\mounriver_project\RF_CH582M\obj/../HAL/LED.c:232
                                    sts->todo--; /* Not continuous, reduce count */
    2160:	16fd                	addi	a3,a3,-1
    2162:	0ff6f693          	andi	a3,a3,255
    2166:	00d400a3          	sb	a3,1(s0)
E:\tp78_v2\mounriver_project\RF_CH582M\obj/../HAL/LED.c:234
                                if(!sts->todo)
    216a:	e689                	bnez	a3,2174 <HalLedUpdate+0xa2>
E:\tp78_v2\mounriver_project\RF_CH582M\obj/../HAL/LED.c:236
                                    sts->mode ^= HAL_LED_MODE_BLINK; /* No more blinks */
    216c:	00264613          	xori	a2,a2,2
    2170:	00c40023          	sb	a2,0(s0)
E:\tp78_v2\mounriver_project\RF_CH582M\obj/../HAL/LED.c:246
                        if(sts->mode & HAL_LED_MODE_BLINK)
    2174:	00044783          	lbu	a5,0(s0)
    2178:	8b89                	andi	a5,a5,2
    217a:	c3b1                	beqz	a5,21be <HalLedUpdate+0xec>
E:\tp78_v2\mounriver_project\RF_CH582M\obj/../HAL/LED.c:248
                            wait = (((uint32_t)pct * (uint32_t)sts->time) / 100);
    217c:	00445703          	lhu	a4,4(s0)
    2180:	03970733          	mul	a4,a4,s9
    2184:	03575733          	divu	a4,a4,s5
    2188:	01071793          	slli	a5,a4,0x10
E:\tp78_v2\mounriver_project\RF_CH582M\obj/../HAL/LED.c:249
                            sts->next = time + wait;
    218c:	01377733          	and	a4,a4,s3
    2190:	976a                	add	a4,a4,s10
E:\tp78_v2\mounriver_project\RF_CH582M\obj/../HAL/LED.c:248
                            wait = (((uint32_t)pct * (uint32_t)sts->time) / 100);
    2192:	83c1                	srli	a5,a5,0x10
E:\tp78_v2\mounriver_project\RF_CH582M\obj/../HAL/LED.c:249
                            sts->next = time + wait;
    2194:	c418                	sw	a4,8(s0)
E:\tp78_v2\mounriver_project\RF_CH582M\obj/../HAL/LED.c:265
                    if(!next || (wait && (wait < next)))
    2196:	080c0363          	beqz	s8,221c <HalLedUpdate+0x14a>
E:\tp78_v2\mounriver_project\RF_CH582M\obj/../HAL/LED.c:265 (discriminator 1)
    219a:	c3a1                	beqz	a5,21da <HalLedUpdate+0x108>
    219c:	873e                	mv	a4,a5
    219e:	00fc7363          	bgeu	s8,a5,21a4 <HalLedUpdate+0xd2>
    21a2:	8762                	mv	a4,s8
    21a4:	01071c13          	slli	s8,a4,0x10
    21a8:	010c5c13          	srli	s8,s8,0x10
    21ac:	a03d                	j	21da <HalLedUpdate+0x108>
E:\tp78_v2\mounriver_project\RF_CH582M\obj/../HAL/LED.c:243
                            sts->mode |= HAL_LED_MODE_ON;      /* Say it's on */
    21ae:	0016e693          	ori	a3,a3,1
E:\tp78_v2\mounriver_project\RF_CH582M\obj/../HAL/LED.c:244
                            HalLedOnOff(led, HAL_LED_MODE_ON); /* Turn it on */
    21b2:	4585                	li	a1,1
    21b4:	8526                	mv	a0,s1
E:\tp78_v2\mounriver_project\RF_CH582M\obj/../HAL/LED.c:243
                            sts->mode |= HAL_LED_MODE_ON;      /* Say it's on */
    21b6:	00d40023          	sb	a3,0(s0)
E:\tp78_v2\mounriver_project\RF_CH582M\obj/../HAL/LED.c:244
                            HalLedOnOff(led, HAL_LED_MODE_ON); /* Turn it on */
    21ba:	33c5                	jal	1f9a <HalLedOnOff>
    21bc:	bf65                	j	2174 <HalLedUpdate+0xa2>
E:\tp78_v2\mounriver_project\RF_CH582M\obj/../HAL/LED.c:256
                            HalLedSet(led, ((preBlinkState & led) != 0) ? HAL_LED_MODE_ON : HAL_LED_MODE_OFF);
    21be:	000a4583          	lbu	a1,0(s4)
    21c2:	8526                	mv	a0,s1
    21c4:	8de5                	and	a1,a1,s1
    21c6:	00b035b3          	snez	a1,a1
    21ca:	3579                	jal	2058 <HalLedSet>
E:\tp78_v2\mounriver_project\RF_CH582M\obj/../HAL/LED.c:258
                            preBlinkState &= (led ^ 0xFF);
    21cc:	000a4703          	lbu	a4,0(s4)
    21d0:	fff4c793          	not	a5,s1
    21d4:	8ff9                	and	a5,a5,a4
    21d6:	80f184a3          	sb	a5,-2039(gp) # 20001821 <preBlinkState>
E:\tp78_v2\mounriver_project\RF_CH582M\obj/../HAL/LED.c:270
                leds ^= led;
    21da:	0124c933          	xor	s2,s1,s2
E:\tp78_v2\mounriver_project\RF_CH582M\obj/../HAL/LED.c:272
            led <<= 1;
    21de:	0486                	slli	s1,s1,0x1
    21e0:	0ff4f493          	andi	s1,s1,255
E:\tp78_v2\mounriver_project\RF_CH582M\obj/../HAL/LED.c:273
            sts++;
    21e4:	0431                	addi	s0,s0,12
E:\tp78_v2\mounriver_project\RF_CH582M\obj/../HAL/LED.c:214
        while(leds)
    21e6:	f20916e3          	bnez	s2,2112 <HalLedUpdate+0x40>
E:\tp78_v2\mounriver_project\RF_CH582M\obj/../HAL/LED.c:275
        if(next)
    21ea:	020c0b63          	beqz	s8,2220 <HalLedUpdate+0x14e>
E:\tp78_v2\mounriver_project\RF_CH582M\obj/../HAL/LED.c:280
}
    21ee:	5422                	lw	s0,40(sp)
    21f0:	50b2                	lw	ra,44(sp)
    21f2:	5492                	lw	s1,36(sp)
    21f4:	5902                	lw	s2,32(sp)
    21f6:	49f2                	lw	s3,28(sp)
    21f8:	4a62                	lw	s4,24(sp)
    21fa:	4ad2                	lw	s5,20(sp)
    21fc:	4b42                	lw	s6,16(sp)
    21fe:	4bb2                	lw	s7,12(sp)
    2200:	4c92                	lw	s9,4(sp)
    2202:	4d02                	lw	s10,0(sp)
E:\tp78_v2\mounriver_project\RF_CH582M\obj/../HAL/LED.c:277
            tmos_start_task(halTaskID, LED_BLINK_EVENT, next); /* Schedule event */
    2204:	8662                	mv	a2,s8
E:\tp78_v2\mounriver_project\RF_CH582M\obj/../HAL/LED.c:280
}
    2206:	4c22                	lw	s8,8(sp)
E:\tp78_v2\mounriver_project\RF_CH582M\obj/../HAL/LED.c:277
            tmos_start_task(halTaskID, LED_BLINK_EVENT, next); /* Schedule event */
    2208:	85c1c503          	lbu	a0,-1956(gp) # 20001874 <halTaskID>
    220c:	4585                	li	a1,1
E:\tp78_v2\mounriver_project\RF_CH582M\obj/../HAL/LED.c:280
}
    220e:	6145                	addi	sp,sp,48
E:\tp78_v2\mounriver_project\RF_CH582M\obj/../HAL/LED.c:277
            tmos_start_task(halTaskID, LED_BLINK_EVENT, next); /* Schedule event */
    2210:	7510006f          	j	3160 <tmos_start_task>
E:\tp78_v2\mounriver_project\RF_CH582M\obj/../HAL/LED.c:263
                        wait = sts->next - time; /* Time left */
    2214:	8f89                	sub	a5,a5,a0
    2216:	07c2                	slli	a5,a5,0x10
    2218:	83c1                	srli	a5,a5,0x10
    221a:	bfb5                	j	2196 <HalLedUpdate+0xc4>
    221c:	8c3e                	mv	s8,a5
    221e:	bf75                	j	21da <HalLedUpdate+0x108>
E:\tp78_v2\mounriver_project\RF_CH582M\obj/../HAL/LED.c:280
}
    2220:	50b2                	lw	ra,44(sp)
    2222:	5422                	lw	s0,40(sp)
    2224:	5492                	lw	s1,36(sp)
    2226:	5902                	lw	s2,32(sp)
    2228:	49f2                	lw	s3,28(sp)
    222a:	4a62                	lw	s4,24(sp)
    222c:	4ad2                	lw	s5,20(sp)
    222e:	4b42                	lw	s6,16(sp)
    2230:	4bb2                	lw	s7,12(sp)
    2232:	4c22                	lw	s8,8(sp)
    2234:	4c92                	lw	s9,4(sp)
    2236:	4d02                	lw	s10,0(sp)
    2238:	6145                	addi	sp,sp,48
    223a:	8082                	ret
    223c:	8082                	ret

0000223e <Lib_Calibration_LSI>:
Lib_Calibration_LSI():
E:\tp78_v2\mounriver_project\RF_CH582M\obj/../HAL/MCU.c:28
 *
 * @return  None.
 */
void Lib_Calibration_LSI(void)
{
    Calibration_LSI(Level_64);
    223e:	4511                	li	a0,4
    2240:	eaeff06f          	j	18ee <Calibration_LSI>

00002244 <Lib_Read_Flash>:
Lib_Read_Flash():
E:\tp78_v2\mounriver_project\RF_CH582M\obj/../HAL/MCU.c:44
 * @param   pBuf - Buffer to store read data
 *
 * @return  None.
 */
uint32_t Lib_Read_Flash(uint32_t addr, uint32_t num, uint32_t *pBuf)
{
    2244:	1141                	addi	sp,sp,-16
E:\tp78_v2\mounriver_project\RF_CH582M\obj/../HAL/MCU.c:45
    EEPROM_READ(addr, pBuf, num * 4);
    2246:	00259693          	slli	a3,a1,0x2
    224a:	85aa                	mv	a1,a0
    224c:	452d                	li	a0,11
E:\tp78_v2\mounriver_project\RF_CH582M\obj/../HAL/MCU.c:44
{
    224e:	c606                	sw	ra,12(sp)
E:\tp78_v2\mounriver_project\RF_CH582M\obj/../HAL/MCU.c:45
    EEPROM_READ(addr, pBuf, num * 4);
    2250:	1fffe097          	auipc	ra,0x1fffe
    2254:	2b8080e7          	jalr	696(ra) # 20000508 <FLASH_EEPROM_CMD>
E:\tp78_v2\mounriver_project\RF_CH582M\obj/../HAL/MCU.c:47
    return 0;
}
    2258:	40b2                	lw	ra,12(sp)
    225a:	4501                	li	a0,0
    225c:	0141                	addi	sp,sp,16
    225e:	8082                	ret

00002260 <Lib_Write_Flash>:
Lib_Write_Flash():
E:\tp78_v2\mounriver_project\RF_CH582M\obj/../HAL/MCU.c:61
 * @param   pBuf - Buffer with data to be written
 *
 * @return  None.
 */
uint32_t Lib_Write_Flash(uint32_t addr, uint32_t num, uint32_t *pBuf)
{
    2260:	1141                	addi	sp,sp,-16
    2262:	c226                	sw	s1,4(sp)
E:\tp78_v2\mounriver_project\RF_CH582M\obj/../HAL/MCU.c:62
    EEPROM_ERASE(addr, num * 4);
    2264:	00259493          	slli	s1,a1,0x2
E:\tp78_v2\mounriver_project\RF_CH582M\obj/../HAL/MCU.c:61
{
    2268:	c422                	sw	s0,8(sp)
    226a:	c04a                	sw	s2,0(sp)
    226c:	842a                	mv	s0,a0
    226e:	8932                	mv	s2,a2
E:\tp78_v2\mounriver_project\RF_CH582M\obj/../HAL/MCU.c:62
    EEPROM_ERASE(addr, num * 4);
    2270:	86a6                	mv	a3,s1
    2272:	85aa                	mv	a1,a0
    2274:	4601                	li	a2,0
    2276:	4525                	li	a0,9
E:\tp78_v2\mounriver_project\RF_CH582M\obj/../HAL/MCU.c:61
{
    2278:	c606                	sw	ra,12(sp)
E:\tp78_v2\mounriver_project\RF_CH582M\obj/../HAL/MCU.c:62
    EEPROM_ERASE(addr, num * 4);
    227a:	1fffe097          	auipc	ra,0x1fffe
    227e:	28e080e7          	jalr	654(ra) # 20000508 <FLASH_EEPROM_CMD>
E:\tp78_v2\mounriver_project\RF_CH582M\obj/../HAL/MCU.c:63
    EEPROM_WRITE(addr, pBuf, num * 4);
    2282:	86a6                	mv	a3,s1
    2284:	864a                	mv	a2,s2
    2286:	85a2                	mv	a1,s0
    2288:	4529                	li	a0,10
    228a:	1fffe097          	auipc	ra,0x1fffe
    228e:	27e080e7          	jalr	638(ra) # 20000508 <FLASH_EEPROM_CMD>
E:\tp78_v2\mounriver_project\RF_CH582M\obj/../HAL/MCU.c:65
    return 0;
}
    2292:	40b2                	lw	ra,12(sp)
    2294:	4422                	lw	s0,8(sp)
    2296:	4492                	lw	s1,4(sp)
    2298:	4902                	lw	s2,0(sp)
    229a:	4501                	li	a0,0
    229c:	0141                	addi	sp,sp,16
    229e:	8082                	ret

000022a0 <HAL_GetInterTempValue>:
HAL_GetInterTempValue():
E:\tp78_v2\mounriver_project\RF_CH582M\obj/../HAL/MCU.c:239
 * @brief   获取内部温感采样值，如果使用了ADC中断采样，需在此函数中暂时屏蔽中断.
 *
 * @return  内部温感采样值.
 */
uint16_t HAL_GetInterTempValue(void)
{
    22a0:	1101                	addi	sp,sp,-32
    22a2:	cc22                	sw	s0,24(sp)
    22a4:	ce06                	sw	ra,28(sp)
E:\tp78_v2\mounriver_project\RF_CH582M\obj/../HAL/MCU.c:243
    uint8_t  sensor, channel, config, tkey_cfg;
    uint16_t adc_data;

    tkey_cfg = R8_TKEY_CFG;
    22a6:	40001437          	lui	s0,0x40001
E:\tp78_v2\mounriver_project\RF_CH582M\obj/../HAL/MCU.c:239
{
    22aa:	ca26                	sw	s1,20(sp)
    22ac:	c84a                	sw	s2,16(sp)
    22ae:	c64e                	sw	s3,12(sp)
    22b0:	c452                	sw	s4,8(sp)
E:\tp78_v2\mounriver_project\RF_CH582M\obj/../HAL/MCU.c:243
    tkey_cfg = R8_TKEY_CFG;
    22b2:	05744483          	lbu	s1,87(s0) # 40001057 <_eusrstack+0x1fff9057>
E:\tp78_v2\mounriver_project\RF_CH582M\obj/../HAL/MCU.c:244
    sensor = R8_TEM_SENSOR;
    22b6:	05b44a03          	lbu	s4,91(s0)
E:\tp78_v2\mounriver_project\RF_CH582M\obj/../HAL/MCU.c:245
    channel = R8_ADC_CHANNEL;
    22ba:	05844983          	lbu	s3,88(s0)
E:\tp78_v2\mounriver_project\RF_CH582M\obj/../HAL/MCU.c:246
    config = R8_ADC_CFG;
    22be:	05944903          	lbu	s2,89(s0)
E:\tp78_v2\mounriver_project\RF_CH582M\obj/../HAL/MCU.c:247
    ADC_InterTSSampInit();
    22c2:	e04ff0ef          	jal	ra,18c6 <ADC_InterTSSampInit>
E:\tp78_v2\mounriver_project\RF_CH582M\obj/../HAL/MCU.c:248
    R8_ADC_CONVERT |= RB_ADC_START;
    22c6:	05a44783          	lbu	a5,90(s0)
E:\tp78_v2\mounriver_project\RF_CH582M\obj/../HAL/MCU.c:243
    tkey_cfg = R8_TKEY_CFG;
    22ca:	0ff4f493          	andi	s1,s1,255
E:\tp78_v2\mounriver_project\RF_CH582M\obj/../HAL/MCU.c:244
    sensor = R8_TEM_SENSOR;
    22ce:	0ffa7a13          	andi	s4,s4,255
E:\tp78_v2\mounriver_project\RF_CH582M\obj/../HAL/MCU.c:248
    R8_ADC_CONVERT |= RB_ADC_START;
    22d2:	0017e793          	ori	a5,a5,1
    22d6:	04f40d23          	sb	a5,90(s0)
E:\tp78_v2\mounriver_project\RF_CH582M\obj/../HAL/MCU.c:245
    channel = R8_ADC_CHANNEL;
    22da:	0ff9f993          	andi	s3,s3,255
E:\tp78_v2\mounriver_project\RF_CH582M\obj/../HAL/MCU.c:246
    config = R8_ADC_CFG;
    22de:	0ff97913          	andi	s2,s2,255
E:\tp78_v2\mounriver_project\RF_CH582M\obj/../HAL/MCU.c:249
    while(R8_ADC_CONVERT & RB_ADC_START);
    22e2:	400017b7          	lui	a5,0x40001
E:\tp78_v2\mounriver_project\RF_CH582M\obj/../HAL/MCU.c:249 (discriminator 1)
    22e6:	05a7c703          	lbu	a4,90(a5) # 4000105a <_eusrstack+0x1fff905a>
    22ea:	8b05                	andi	a4,a4,1
    22ec:	ff6d                	bnez	a4,22e6 <HAL_GetInterTempValue+0x46>
E:\tp78_v2\mounriver_project\RF_CH582M\obj/../HAL/MCU.c:250
    adc_data = R16_ADC_DATA;
    22ee:	05c7d503          	lhu	a0,92(a5)
E:\tp78_v2\mounriver_project\RF_CH582M\obj/../HAL/MCU.c:251
    R8_TEM_SENSOR = sensor;
    22f2:	05478da3          	sb	s4,91(a5)
E:\tp78_v2\mounriver_project\RF_CH582M\obj/../HAL/MCU.c:252
    R8_ADC_CHANNEL = channel;
    22f6:	05378c23          	sb	s3,88(a5)
E:\tp78_v2\mounriver_project\RF_CH582M\obj/../HAL/MCU.c:253
    R8_ADC_CFG = config;
    22fa:	05278ca3          	sb	s2,89(a5)
E:\tp78_v2\mounriver_project\RF_CH582M\obj/../HAL/MCU.c:254
    R8_TKEY_CFG = tkey_cfg;
    22fe:	04978ba3          	sb	s1,87(a5)
E:\tp78_v2\mounriver_project\RF_CH582M\obj/../HAL/MCU.c:256
    return (adc_data);
}
    2302:	40f2                	lw	ra,28(sp)
    2304:	4462                	lw	s0,24(sp)
    2306:	44d2                	lw	s1,20(sp)
    2308:	4942                	lw	s2,16(sp)
    230a:	49b2                	lw	s3,12(sp)
    230c:	4a22                	lw	s4,8(sp)
    230e:	6105                	addi	sp,sp,32
    2310:	8082                	ret

00002312 <HAL_ProcessEvent>:
HAL_ProcessEvent():
E:\tp78_v2\mounriver_project\RF_CH582M\obj/../HAL/MCU.c:155
{
    2312:	1141                	addi	sp,sp,-16
E:\tp78_v2\mounriver_project\RF_CH582M\obj/../HAL/MCU.c:158
    if(events & SYS_EVENT_MSG)
    2314:	01059793          	slli	a5,a1,0x10
E:\tp78_v2\mounriver_project\RF_CH582M\obj/../HAL/MCU.c:155
{
    2318:	c422                	sw	s0,8(sp)
    231a:	c606                	sw	ra,12(sp)
E:\tp78_v2\mounriver_project\RF_CH582M\obj/../HAL/MCU.c:158
    if(events & SYS_EVENT_MSG)
    231c:	87c1                	srai	a5,a5,0x10
E:\tp78_v2\mounriver_project\RF_CH582M\obj/../HAL/MCU.c:155
{
    231e:	842e                	mv	s0,a1
E:\tp78_v2\mounriver_project\RF_CH582M\obj/../HAL/MCU.c:158
    if(events & SYS_EVENT_MSG)
    2320:	0007da63          	bgez	a5,2334 <HAL_ProcessEvent+0x22>
E:\tp78_v2\mounriver_project\RF_CH582M\obj/../HAL/MCU.c:160
        msgPtr = tmos_msg_receive(task_id);
    2324:	2d5000ef          	jal	ra,2df8 <tmos_msg_receive>
E:\tp78_v2\mounriver_project\RF_CH582M\obj/../HAL/MCU.c:161
        if(msgPtr)
    2328:	c119                	beqz	a0,232e <HAL_ProcessEvent+0x1c>
E:\tp78_v2\mounriver_project\RF_CH582M\obj/../HAL/MCU.c:164
            tmos_msg_deallocate(msgPtr);
    232a:	2a3000ef          	jal	ra,2dcc <tmos_msg_deallocate>
E:\tp78_v2\mounriver_project\RF_CH582M\obj/../HAL/MCU.c:166
        return events ^ SYS_EVENT_MSG;
    232e:	6521                	lui	a0,0x8
E:\tp78_v2\mounriver_project\RF_CH582M\obj/../HAL/MCU.c:198
        return events ^ HAL_TEST_EVENT;
    2330:	8d21                	xor	a0,a0,s0
    2332:	a039                	j	2340 <HAL_ProcessEvent+0x2e>
E:\tp78_v2\mounriver_project\RF_CH582M\obj/../HAL/MCU.c:168
    if(events & LED_BLINK_EVENT)
    2334:	0015f793          	andi	a5,a1,1
    2338:	cb81                	beqz	a5,2348 <HAL_ProcessEvent+0x36>
E:\tp78_v2\mounriver_project\RF_CH582M\obj/../HAL/MCU.c:171
        HalLedUpdate();
    233a:	3b61                	jal	20d2 <HalLedUpdate>
E:\tp78_v2\mounriver_project\RF_CH582M\obj/../HAL/MCU.c:173
        return events ^ LED_BLINK_EVENT;
    233c:	00144513          	xori	a0,s0,1
E:\tp78_v2\mounriver_project\RF_CH582M\obj/../HAL/MCU.c:201
}
    2340:	40b2                	lw	ra,12(sp)
    2342:	4422                	lw	s0,8(sp)
    2344:	0141                	addi	sp,sp,16
    2346:	8082                	ret
E:\tp78_v2\mounriver_project\RF_CH582M\obj/../HAL/MCU.c:183
    if(events & HAL_REG_INIT_EVENT)
    2348:	01259793          	slli	a5,a1,0x12
    234c:	0207d063          	bgez	a5,236c <HAL_ProcessEvent+0x5a>
E:\tp78_v2\mounriver_project\RF_CH582M\obj/../HAL/MCU.c:186
        BLE_RegInit();                                                  // 校准RF
    2350:	38d010ef          	jal	ra,3edc <BLE_RegInit>
E:\tp78_v2\mounriver_project\RF_CH582M\obj/../HAL/MCU.c:188
        Lib_Calibration_LSI(); // 校准内部RC
    2354:	35ed                	jal	223e <Lib_Calibration_LSI>
E:\tp78_v2\mounriver_project\RF_CH582M\obj/../HAL/MCU.c:190
        tmos_start_task(halTaskID, HAL_REG_INIT_EVENT, MS1_TO_SYSTEM_TIME(BLE_CALIBRATION_PERIOD));
    2356:	0002f637          	lui	a2,0x2f
    235a:	e0060613          	addi	a2,a2,-512 # 2ee00 <_data_lma+0x28788>
    235e:	6589                	lui	a1,0x2
    2360:	85c1c503          	lbu	a0,-1956(gp) # 20001874 <halTaskID>
    2364:	5fd000ef          	jal	ra,3160 <tmos_start_task>
E:\tp78_v2\mounriver_project\RF_CH582M\obj/../HAL/MCU.c:191
        return events ^ HAL_REG_INIT_EVENT;
    2368:	6509                	lui	a0,0x2
    236a:	b7d9                	j	2330 <HAL_ProcessEvent+0x1e>
E:\tp78_v2\mounriver_project\RF_CH582M\obj/../HAL/MCU.c:194
    if(events & HAL_TEST_EVENT)
    236c:	01159793          	slli	a5,a1,0x11
E:\tp78_v2\mounriver_project\RF_CH582M\obj/../HAL/MCU.c:200
    return 0;
    2370:	4501                	li	a0,0
E:\tp78_v2\mounriver_project\RF_CH582M\obj/../HAL/MCU.c:194
    if(events & HAL_TEST_EVENT)
    2372:	fc07d7e3          	bgez	a5,2340 <HAL_ProcessEvent+0x2e>
E:\tp78_v2\mounriver_project\RF_CH582M\obj/../HAL/MCU.c:197
        tmos_start_task(halTaskID, HAL_TEST_EVENT, MS1_TO_SYSTEM_TIME(1000));
    2376:	64000613          	li	a2,1600
    237a:	6591                	lui	a1,0x4
    237c:	85c1c503          	lbu	a0,-1956(gp) # 20001874 <halTaskID>
    2380:	5e1000ef          	jal	ra,3160 <tmos_start_task>
E:\tp78_v2\mounriver_project\RF_CH582M\obj/../HAL/MCU.c:198
        return events ^ HAL_TEST_EVENT;
    2384:	6511                	lui	a0,0x4
    2386:	b76d                	j	2330 <HAL_ProcessEvent+0x1e>

00002388 <CH58X_BLEInit>:
CH58X_BLEInit():
E:\tp78_v2\mounriver_project\RF_CH582M\obj/../HAL/MCU.c:78
{
    2388:	711d                	addi	sp,sp,-96
E:\tp78_v2\mounriver_project\RF_CH582M\obj/../HAL/MCU.c:81
    if(tmos_memcmp(VER_LIB, VER_FILE, strlen(VER_FILE)) == FALSE)
    238a:	4649                	li	a2,18
    238c:	00004597          	auipc	a1,0x4
    2390:	16058593          	addi	a1,a1,352 # 64ec <memcpy+0xee>
    2394:	00004517          	auipc	a0,0x4
    2398:	2cc50513          	addi	a0,a0,716 # 6660 <VER_LIB>
E:\tp78_v2\mounriver_project\RF_CH582M\obj/../HAL/MCU.c:78
{
    239c:	ce86                	sw	ra,92(sp)
E:\tp78_v2\mounriver_project\RF_CH582M\obj/../HAL/MCU.c:81
    if(tmos_memcmp(VER_LIB, VER_FILE, strlen(VER_FILE)) == FALSE)
    239e:	1fffe097          	auipc	ra,0x1fffe
    23a2:	564080e7          	jalr	1380(ra) # 20000902 <tmos_memcmp>
    23a6:	e111                	bnez	a0,23aa <CH58X_BLEInit+0x22>
E:\tp78_v2\mounriver_project\RF_CH582M\obj/../HAL/MCU.c:84 (discriminator 1)
        while(1);
    23a8:	a001                	j	23a8 <CH58X_BLEInit+0x20>
SysTick_Config():
E:\tp78_v2\mounriver_project\RF_CH582M\RVMSIS/core_riscv.h:365
RV_STATIC_INLINE uint32_t SysTick_Config(uint64_t ticks)
{
    if((ticks - 1) > SysTick_LOAD_RELOAD_Msk)
        return (1); /* Reload value impossible */

    SysTick->CMP = ticks - 1; /* set reload register */
    23aa:	e000f6b7          	lui	a3,0xe000f
    23ae:	5779                	li	a4,-2
    23b0:	ca98                	sw	a4,16(a3)
    23b2:	57fd                	li	a5,-1
    23b4:	cadc                	sw	a5,20(a3)
PFIC_EnableIRQ():
E:\tp78_v2\mounriver_project\RF_CH582M\RVMSIS/core_riscv.h:110
    PFIC->IENR[((uint32_t)(IRQn) >> 5)] = (1 << ((uint32_t)(IRQn)&0x1F));
    23b6:	6705                	lui	a4,0x1
    23b8:	e000e7b7          	lui	a5,0xe000e
    23bc:	10e7a023          	sw	a4,256(a5) # e000e100 <_eusrstack+0xc0006100>
SysTick_Config():
E:\tp78_v2\mounriver_project\RF_CH582M\RVMSIS/core_riscv.h:367
    PFIC_EnableIRQ(SysTick_IRQn);
    SysTick->CTLR = SysTick_CTLR_INIT |
    23c0:	02f00613          	li	a2,47
    23c4:	c290                	sw	a2,0(a3)
PFIC_DisableIRQ():
E:\tp78_v2\mounriver_project\RF_CH582M\RVMSIS/core_riscv.h:122
    PFIC->IRER[((uint32_t)(IRQn) >> 5)] = (1 << ((uint32_t)(IRQn)&0x1F));
    23c6:	18e7a023          	sw	a4,384(a5)
E:\tp78_v2\mounriver_project\RF_CH582M\RVMSIS/core_riscv.h:123
    __nop();
    23ca:	0001                	nop
E:\tp78_v2\mounriver_project\RF_CH582M\RVMSIS/core_riscv.h:124
    __nop();
    23cc:	0001                	nop
CH58X_BLEInit():
E:\tp78_v2\mounriver_project\RF_CH582M\obj/../HAL/MCU.c:89
    tmos_memset(&cfg, 0, sizeof(bleConfig_t));
    23ce:	03c00613          	li	a2,60
    23d2:	4581                	li	a1,0
    23d4:	0848                	addi	a0,sp,20
    23d6:	1fffe097          	auipc	ra,0x1fffe
    23da:	4d4080e7          	jalr	1236(ra) # 200008aa <tmos_memset>
E:\tp78_v2\mounriver_project\RF_CH582M\obj/../HAL/MCU.c:90
    cfg.MEMAddr = (uint32_t)MEM_BUF;
    23de:	1ffff797          	auipc	a5,0x1ffff
    23e2:	6fa78793          	addi	a5,a5,1786 # 20001ad8 <MEM_BUF>
    23e6:	ca3e                	sw	a5,20(sp)
E:\tp78_v2\mounriver_project\RF_CH582M\obj/../HAL/MCU.c:91
    cfg.MEMLen = (uint32_t)BLE_MEMHEAP_SIZE;
    23e8:	6789                	lui	a5,0x2
    23ea:	80078793          	addi	a5,a5,-2048 # 1800 <_einit+0x17fc>
    23ee:	00f11c23          	sh	a5,24(sp)
E:\tp78_v2\mounriver_project\RF_CH582M\obj/../HAL/MCU.c:92
    cfg.BufMaxLen = (uint32_t)BLE_BUFF_MAX_LEN;
    23f2:	47ed                	li	a5,27
    23f4:	02f11223          	sh	a5,36(sp)
E:\tp78_v2\mounriver_project\RF_CH582M\obj/../HAL/MCU.c:93
    cfg.BufNumber = (uint32_t)BLE_BUFF_NUM;
    23f8:	4795                	li	a5,5
    23fa:	02f101a3          	sb	a5,35(sp)
E:\tp78_v2\mounriver_project\RF_CH582M\obj/../HAL/MCU.c:94
    cfg.TxNumEvent = (uint32_t)BLE_TX_NUM_EVENT;
    23fe:	4785                	li	a5,1
    2400:	02f10323          	sb	a5,38(sp)
E:\tp78_v2\mounriver_project\RF_CH582M\obj/../HAL/MCU.c:95
    cfg.TxPower = (uint32_t)BLE_TX_POWER;
    2404:	47b5                	li	a5,13
    2406:	02f10423          	sb	a5,40(sp)
E:\tp78_v2\mounriver_project\RF_CH582M\obj/../HAL/MCU.c:97
    cfg.SNVAddr = (uint32_t)BLE_SNV_ADDR;
    240a:	67a1                	lui	a5,0x8
    240c:	e0078793          	addi	a5,a5,-512 # 7e00 <_data_lma+0x1788>
    2410:	ce3e                	sw	a5,28(sp)
E:\tp78_v2\mounriver_project\RF_CH582M\obj/../HAL/MCU.c:98
    cfg.readFlashCB = Lib_Read_Flash;
    2412:	00000797          	auipc	a5,0x0
    2416:	e3278793          	addi	a5,a5,-462 # 2244 <Lib_Read_Flash>
    241a:	c4be                	sw	a5,72(sp)
E:\tp78_v2\mounriver_project\RF_CH582M\obj/../HAL/MCU.c:99
    cfg.writeFlashCB = Lib_Write_Flash;
    241c:	00000797          	auipc	a5,0x0
    2420:	e4478793          	addi	a5,a5,-444 # 2260 <Lib_Write_Flash>
    2424:	c6be                	sw	a5,76(sp)
E:\tp78_v2\mounriver_project\RF_CH582M\obj/../HAL/MCU.c:102
    cfg.SelRTCClock = (uint32_t)CLK_OSC32K;
    2426:	6785                	lui	a5,0x1
    2428:	d0178793          	addi	a5,a5,-767 # d01 <_einit+0xcfd>
    242c:	02f11523          	sh	a5,42(sp)
E:\tp78_v2\mounriver_project\RF_CH582M\obj/../HAL/MCU.c:105
    cfg.srandCB = SYS_GetSysTickCnt;
    2430:	00000797          	auipc	a5,0x0
    2434:	9da78793          	addi	a5,a5,-1574 # 1e0a <SYS_GetSysTickCnt>
    2438:	da3e                	sw	a5,52(sp)
E:\tp78_v2\mounriver_project\RF_CH582M\obj/../HAL/MCU.c:124
        GetMACAddress(MacAddr);
    243a:	0007f5b7          	lui	a1,0x7f
E:\tp78_v2\mounriver_project\RF_CH582M\obj/../HAL/MCU.c:107
    cfg.tsCB = HAL_GetInterTempValue; // 根据温度变化校准RF和内部RC( 大于7摄氏度 )
    243e:	00000797          	auipc	a5,0x0
    2442:	e6278793          	addi	a5,a5,-414 # 22a0 <HAL_GetInterTempValue>
    2446:	de3e                	sw	a5,60(sp)
E:\tp78_v2\mounriver_project\RF_CH582M\obj/../HAL/MCU.c:124
        GetMACAddress(MacAddr);
    2448:	4681                	li	a3,0
E:\tp78_v2\mounriver_project\RF_CH582M\obj/../HAL/MCU.c:109
    cfg.rcCB = Lib_Calibration_LSI; // 内部32K时钟校准
    244a:	00000797          	auipc	a5,0x0
    244e:	df478793          	addi	a5,a5,-524 # 223e <Lib_Calibration_LSI>
E:\tp78_v2\mounriver_project\RF_CH582M\obj/../HAL/MCU.c:124
        GetMACAddress(MacAddr);
    2452:	0070                	addi	a2,sp,12
    2454:	05e1                	addi	a1,a1,24
    2456:	4519                	li	a0,6
E:\tp78_v2\mounriver_project\RF_CH582M\obj/../HAL/MCU.c:109
    cfg.rcCB = Lib_Calibration_LSI; // 内部32K时钟校准
    2458:	c0be                	sw	a5,64(sp)
E:\tp78_v2\mounriver_project\RF_CH582M\obj/../HAL/MCU.c:124
        GetMACAddress(MacAddr);
    245a:	1fffe097          	auipc	ra,0x1fffe
    245e:	0ae080e7          	jalr	174(ra) # 20000508 <FLASH_EEPROM_CMD>
E:\tp78_v2\mounriver_project\RF_CH582M\obj/../HAL/MCU.c:125
        for(i = 0; i < 6; i++)
    2462:	0858                	addi	a4,sp,20
E:\tp78_v2\mounriver_project\RF_CH582M\obj/../HAL/MCU.c:124
        GetMACAddress(MacAddr);
    2464:	4781                	li	a5,0
E:\tp78_v2\mounriver_project\RF_CH582M\obj/../HAL/MCU.c:125
        for(i = 0; i < 6; i++)
    2466:	4699                	li	a3,6
E:\tp78_v2\mounriver_project\RF_CH582M\obj/../HAL/MCU.c:127 (discriminator 3)
            cfg.MacAddr[i] = MacAddr[i]; // 使用芯片mac地址
    2468:	0070                	addi	a2,sp,12
    246a:	963e                	add	a2,a2,a5
    246c:	00064603          	lbu	a2,0(a2)
    2470:	0785                	addi	a5,a5,1
    2472:	0705                	addi	a4,a4,1
    2474:	00c70ca3          	sb	a2,25(a4) # 1019 <_einit+0x1015>
E:\tp78_v2\mounriver_project\RF_CH582M\obj/../HAL/MCU.c:125 (discriminator 3)
        for(i = 0; i < 6; i++)
    2478:	fed798e3          	bne	a5,a3,2468 <CH58X_BLEInit+0xe0>
E:\tp78_v2\mounriver_project\RF_CH582M\obj/../HAL/MCU.c:131
    if(!cfg.MEMAddr || cfg.MEMLen < 4 * 1024)
    247c:	47d2                	lw	a5,20(sp)
    247e:	c791                	beqz	a5,248a <CH58X_BLEInit+0x102>
E:\tp78_v2\mounriver_project\RF_CH582M\obj/../HAL/MCU.c:131 (discriminator 1)
    2480:	01815703          	lhu	a4,24(sp)
    2484:	6785                	lui	a5,0x1
    2486:	00f77363          	bgeu	a4,a5,248c <CH58X_BLEInit+0x104>
E:\tp78_v2\mounriver_project\RF_CH582M\obj/../HAL/MCU.c:133 (discriminator 2)
        while(1);
    248a:	a001                	j	248a <CH58X_BLEInit+0x102>
E:\tp78_v2\mounriver_project\RF_CH582M\obj/../HAL/MCU.c:135
    i = BLE_LibInit(&cfg);
    248c:	0848                	addi	a0,sp,20
    248e:	767000ef          	jal	ra,33f4 <BLE_LibInit>
E:\tp78_v2\mounriver_project\RF_CH582M\obj/../HAL/MCU.c:136
    if(i)
    2492:	c111                	beqz	a0,2496 <CH58X_BLEInit+0x10e>
E:\tp78_v2\mounriver_project\RF_CH582M\obj/../HAL/MCU.c:139 (discriminator 3)
        while(1);
    2494:	a001                	j	2494 <CH58X_BLEInit+0x10c>
E:\tp78_v2\mounriver_project\RF_CH582M\obj/../HAL/MCU.c:141
}
    2496:	40f6                	lw	ra,92(sp)
    2498:	6125                	addi	sp,sp,96
    249a:	8082                	ret

0000249c <HAL_Init>:
HAL_Init():
E:\tp78_v2\mounriver_project\RF_CH582M\obj/../HAL/MCU.c:213
{
    249c:	1141                	addi	sp,sp,-16
E:\tp78_v2\mounriver_project\RF_CH582M\obj/../HAL/MCU.c:214
    halTaskID = TMOS_ProcessEventRegister(HAL_ProcessEvent);
    249e:	00000517          	auipc	a0,0x0
    24a2:	e7450513          	addi	a0,a0,-396 # 2312 <HAL_ProcessEvent>
E:\tp78_v2\mounriver_project\RF_CH582M\obj/../HAL/MCU.c:213
{
    24a6:	c606                	sw	ra,12(sp)
    24a8:	c422                	sw	s0,8(sp)
E:\tp78_v2\mounriver_project\RF_CH582M\obj/../HAL/MCU.c:214
    halTaskID = TMOS_ProcessEventRegister(HAL_ProcessEvent);
    24aa:	70f000ef          	jal	ra,33b8 <TMOS_ProcessEventRegister>
    24ae:	85c18413          	addi	s0,gp,-1956 # 20001874 <halTaskID>
    24b2:	00a40023          	sb	a0,0(s0)
E:\tp78_v2\mounriver_project\RF_CH582M\obj/../HAL/MCU.c:215
    HAL_TimeInit();
    24b6:	2831                	jal	24d2 <HAL_TimeInit>
E:\tp78_v2\mounriver_project\RF_CH582M\obj/../HAL/MCU.c:220
    HAL_LedInit();
    24b8:	36d5                	jal	209c <HAL_LedInit>
E:\tp78_v2\mounriver_project\RF_CH582M\obj/../HAL/MCU.c:226
    tmos_start_task(halTaskID, HAL_REG_INIT_EVENT, MS1_TO_SYSTEM_TIME(BLE_CALIBRATION_PERIOD)); // 添加校准任务，单次校准耗时小于10ms
    24ba:	00044503          	lbu	a0,0(s0)
E:\tp78_v2\mounriver_project\RF_CH582M\obj/../HAL/MCU.c:229
}
    24be:	4422                	lw	s0,8(sp)
    24c0:	40b2                	lw	ra,12(sp)
E:\tp78_v2\mounriver_project\RF_CH582M\obj/../HAL/MCU.c:226
    tmos_start_task(halTaskID, HAL_REG_INIT_EVENT, MS1_TO_SYSTEM_TIME(BLE_CALIBRATION_PERIOD)); // 添加校准任务，单次校准耗时小于10ms
    24c2:	0002f637          	lui	a2,0x2f
    24c6:	e0060613          	addi	a2,a2,-512 # 2ee00 <_data_lma+0x28788>
    24ca:	6589                	lui	a1,0x2
E:\tp78_v2\mounriver_project\RF_CH582M\obj/../HAL/MCU.c:229
}
    24cc:	0141                	addi	sp,sp,16
E:\tp78_v2\mounriver_project\RF_CH582M\obj/../HAL/MCU.c:226
    tmos_start_task(halTaskID, HAL_REG_INIT_EVENT, MS1_TO_SYSTEM_TIME(BLE_CALIBRATION_PERIOD)); // 添加校准任务，单次校准耗时小于10ms
    24ce:	4930006f          	j	3160 <tmos_start_task>

000024d2 <HAL_TimeInit>:
HAL_TimeInit():
E:\tp78_v2\mounriver_project\RF_CH582M\obj/../HAL/RTC.c:72
 * @param   None.
 *
 * @return  None.
 */
void HAL_TimeInit(void)
{
    24d2:	1141                	addi	sp,sp,-16
    24d4:	c606                	sw	ra,12(sp)
E:\tp78_v2\mounriver_project\RF_CH582M\obj/../HAL/RTC.c:74
#if(CLK_OSC32K)
    R8_SAFE_ACCESS_SIG = SAFE_ACCESS_SIG1;
    24d6:	400017b7          	lui	a5,0x40001
    24da:	05700713          	li	a4,87
    24de:	04e78023          	sb	a4,64(a5) # 40001040 <_eusrstack+0x1fff9040>
E:\tp78_v2\mounriver_project\RF_CH582M\obj/../HAL/RTC.c:75
    R8_SAFE_ACCESS_SIG = SAFE_ACCESS_SIG2;
    24e2:	fa800713          	li	a4,-88
    24e6:	04e78023          	sb	a4,64(a5)
E:\tp78_v2\mounriver_project\RF_CH582M\obj/../HAL/RTC.c:76
    SAFEOPERATE;
    24ea:	0001                	nop
    24ec:	0001                	nop
E:\tp78_v2\mounriver_project\RF_CH582M\obj/../HAL/RTC.c:77
    R8_CK32K_CONFIG &= ~(RB_CLK_OSC32K_XT | RB_CLK_XT32K_PON);
    24ee:	02f7c703          	lbu	a4,47(a5)
    24f2:	0fa77713          	andi	a4,a4,250
    24f6:	02e787a3          	sb	a4,47(a5)
E:\tp78_v2\mounriver_project\RF_CH582M\obj/../HAL/RTC.c:78
    R8_CK32K_CONFIG |= RB_CLK_INT32K_PON;
    24fa:	02f7c703          	lbu	a4,47(a5)
    24fe:	00276713          	ori	a4,a4,2
    2502:	02e787a3          	sb	a4,47(a5)
E:\tp78_v2\mounriver_project\RF_CH582M\obj/../HAL/RTC.c:79
    R8_SAFE_ACCESS_SIG = 0;
    2506:	04078023          	sb	zero,64(a5)
E:\tp78_v2\mounriver_project\RF_CH582M\obj/../HAL/RTC.c:80
    Lib_Calibration_LSI();
    250a:	3b15                	jal	223e <Lib_Calibration_LSI>
E:\tp78_v2\mounriver_project\RF_CH582M\obj/../HAL/RTC.c:88
    R8_SAFE_ACCESS_SIG = SAFE_ACCESS_SIG2;
    SAFEOPERATE;
    R8_CK32K_CONFIG |= RB_CLK_OSC32K_XT | RB_CLK_INT32K_PON | RB_CLK_XT32K_PON;
    R8_SAFE_ACCESS_SIG = 0;
#endif
    RTC_InitTime(2020, 1, 1, 0, 0, 0); //RTC时钟初始化当前时间
    250c:	7e400513          	li	a0,2020
    2510:	4781                	li	a5,0
    2512:	4701                	li	a4,0
    2514:	4681                	li	a3,0
    2516:	4605                	li	a2,1
    2518:	4585                	li	a1,1
    251a:	e7aff0ef          	jal	ra,1b94 <RTC_InitTime>
E:\tp78_v2\mounriver_project\RF_CH582M\obj/../HAL/RTC.c:90
    TMOS_TimerInit(0);
}
    251e:	40b2                	lw	ra,12(sp)
E:\tp78_v2\mounriver_project\RF_CH582M\obj/../HAL/RTC.c:89
    TMOS_TimerInit(0);
    2520:	4501                	li	a0,0
E:\tp78_v2\mounriver_project\RF_CH582M\obj/../HAL/RTC.c:90
}
    2522:	0141                	addi	sp,sp,16
E:\tp78_v2\mounriver_project\RF_CH582M\obj/../HAL/RTC.c:89
    TMOS_TimerInit(0);
    2524:	0fe0106f          	j	3622 <TMOS_TimerInit>

00002528 <USB_ProcessEvent>:
USB_ProcessEvent():
E:\tp78_v2\mounriver_project\RF_CH582M\obj/../HAL/USB.c:85
  if ( events & START_USB_EVENT )
    2528:	0085f793          	andi	a5,a1,8
    252c:	cb91                	beqz	a5,2540 <USB_ProcessEvent+0x18>
PFIC_EnableIRQ():
E:\tp78_v2\mounriver_project\RF_CH582M\RVMSIS/core_riscv.h:110
    PFIC->IENR[((uint32_t)(IRQn) >> 5)] = (1 << ((uint32_t)(IRQn)&0x1F));
    252e:	e000e7b7          	lui	a5,0xe000e
    2532:	00400737          	lui	a4,0x400
    2536:	10e7a023          	sw	a4,256(a5) # e000e100 <_eusrstack+0xc0006100>
USB_ProcessEvent():
E:\tp78_v2\mounriver_project\RF_CH582M\obj/../HAL/USB.c:88
    return events ^ START_USB_EVENT;
    253a:	0085c513          	xori	a0,a1,8
E:\tp78_v2\mounriver_project\RF_CH582M\obj/../HAL/USB.c:123
}
    253e:	8082                	ret
E:\tp78_v2\mounriver_project\RF_CH582M\obj/../HAL/USB.c:84
{
    2540:	1141                	addi	sp,sp,-16
    2542:	c422                	sw	s0,8(sp)
    2544:	c606                	sw	ra,12(sp)
E:\tp78_v2\mounriver_project\RF_CH582M\obj/../HAL/USB.c:91
  if ( events & USB_MOUSE_EVENT )
    2546:	0015f793          	andi	a5,a1,1
    254a:	842e                	mv	s0,a1
    254c:	c39d                	beqz	a5,2572 <USB_ProcessEvent+0x4a>
E:\tp78_v2\mounriver_project\RF_CH582M\obj/../HAL/USB.c:93
    memcpy(pEP2_IN_DataBuf, &HID_dat.Mouse[0], 4);
    254e:	84c18793          	addi	a5,gp,-1972 # 20001864 <pEP2_RAM_Addr>
    2552:	4388                	lw	a0,0(a5)
    2554:	4611                	li	a2,4
    2556:	9b118593          	addi	a1,gp,-1615 # 200019c9 <HID_dat+0x1>
    255a:	04050513          	addi	a0,a0,64
    255e:	6a1030ef          	jal	ra,63fe <memcpy>
E:\tp78_v2\mounriver_project\RF_CH582M\obj/../HAL/USB.c:94
    DevEP2_IN_Deal( 4 );
    2562:	4511                	li	a0,4
    2564:	3aa1                	jal	1ebc <DevEP2_IN_Deal>
E:\tp78_v2\mounriver_project\RF_CH582M\obj/../HAL/USB.c:95
    return events ^ USB_MOUSE_EVENT;
    2566:	00144513          	xori	a0,s0,1
E:\tp78_v2\mounriver_project\RF_CH582M\obj/../HAL/USB.c:123
}
    256a:	40b2                	lw	ra,12(sp)
    256c:	4422                	lw	s0,8(sp)
    256e:	0141                	addi	sp,sp,16
    2570:	8082                	ret
E:\tp78_v2\mounriver_project\RF_CH582M\obj/../HAL/USB.c:98
  if ( events & USB_KEYBOARD_EVENT )
    2572:	0025f793          	andi	a5,a1,2
    2576:	c385                	beqz	a5,2596 <USB_ProcessEvent+0x6e>
E:\tp78_v2\mounriver_project\RF_CH582M\obj/../HAL/USB.c:100
    memcpy(pEP1_IN_DataBuf, &HID_dat.Keyboard[0], 8);
    2578:	85818793          	addi	a5,gp,-1960 # 20001870 <pEP1_RAM_Addr>
    257c:	4388                	lw	a0,0(a5)
    257e:	4621                	li	a2,8
    2580:	9b118593          	addi	a1,gp,-1615 # 200019c9 <HID_dat+0x1>
    2584:	04050513          	addi	a0,a0,64
    2588:	677030ef          	jal	ra,63fe <memcpy>
E:\tp78_v2\mounriver_project\RF_CH582M\obj/../HAL/USB.c:101
    DevEP1_IN_Deal( 8 );
    258c:	4521                	li	a0,8
    258e:	3a21                	jal	1ea6 <DevEP1_IN_Deal>
E:\tp78_v2\mounriver_project\RF_CH582M\obj/../HAL/USB.c:102
    return events ^ USB_KEYBOARD_EVENT;
    2590:	00244513          	xori	a0,s0,2
    2594:	bfd9                	j	256a <USB_ProcessEvent+0x42>
E:\tp78_v2\mounriver_project\RF_CH582M\obj/../HAL/USB.c:105
  if ( events & USB_VOL_EVENT )
    2596:	0045f793          	andi	a5,a1,4
    259a:	cf99                	beqz	a5,25b8 <USB_ProcessEvent+0x90>
E:\tp78_v2\mounriver_project\RF_CH582M\obj/../HAL/USB.c:107
    memcpy(pEP3_IN_DataBuf, &HID_dat.Volume[0], 1);
    259c:	85018793          	addi	a5,gp,-1968 # 20001868 <pEP3_RAM_Addr>
    25a0:	9b018713          	addi	a4,gp,-1616 # 200019c8 <HID_dat>
    25a4:	439c                	lw	a5,0(a5)
    25a6:	00174703          	lbu	a4,1(a4) # 400001 <_data_lma+0x3f9989>
E:\tp78_v2\mounriver_project\RF_CH582M\obj/../HAL/USB.c:108
    DevEP3_IN_Deal( 1 );
    25aa:	4505                	li	a0,1
E:\tp78_v2\mounriver_project\RF_CH582M\obj/../HAL/USB.c:107
    memcpy(pEP3_IN_DataBuf, &HID_dat.Volume[0], 1);
    25ac:	04e78023          	sb	a4,64(a5)
E:\tp78_v2\mounriver_project\RF_CH582M\obj/../HAL/USB.c:108
    DevEP3_IN_Deal( 1 );
    25b0:	320d                	jal	1ed2 <DevEP3_IN_Deal>
E:\tp78_v2\mounriver_project\RF_CH582M\obj/../HAL/USB.c:109
    return events ^ USB_VOL_EVENT;
    25b2:	00444513          	xori	a0,s0,4
    25b6:	bf55                	j	256a <USB_ProcessEvent+0x42>
E:\tp78_v2\mounriver_project\RF_CH582M\obj/../HAL/USB.c:112
  if ( events & USB_TEST_EVENT )
    25b8:	01359793          	slli	a5,a1,0x13
E:\tp78_v2\mounriver_project\RF_CH582M\obj/../HAL/USB.c:122
  return 0;
    25bc:	4501                	li	a0,0
E:\tp78_v2\mounriver_project\RF_CH582M\obj/../HAL/USB.c:112
  if ( events & USB_TEST_EVENT )
    25be:	fa07d6e3          	bgez	a5,256a <USB_ProcessEvent+0x42>
E:\tp78_v2\mounriver_project\RF_CH582M\obj/../HAL/USB.c:114
    HID_dat.Mouse[1] = 2;
    25c2:	4789                	li	a5,2
    25c4:	9af18923          	sb	a5,-1614(gp) # 200019ca <HID_dat+0x2>
E:\tp78_v2\mounriver_project\RF_CH582M\obj/../HAL/USB.c:115
    HID_dat.Mouse[2] = 2;
    25c8:	9af189a3          	sb	a5,-1613(gp) # 200019cb <HID_dat+0x3>
E:\tp78_v2\mounriver_project\RF_CH582M\obj/../HAL/USB.c:116
    memcpy(pEP2_IN_DataBuf, &HID_dat.Mouse[0], 4);
    25cc:	84c18793          	addi	a5,gp,-1972 # 20001864 <pEP2_RAM_Addr>
    25d0:	4388                	lw	a0,0(a5)
    25d2:	4611                	li	a2,4
    25d4:	9b118593          	addi	a1,gp,-1615 # 200019c9 <HID_dat+0x1>
    25d8:	04050513          	addi	a0,a0,64
    25dc:	623030ef          	jal	ra,63fe <memcpy>
E:\tp78_v2\mounriver_project\RF_CH582M\obj/../HAL/USB.c:117
    DevEP2_IN_Deal( 4 );
    25e0:	4511                	li	a0,4
    25e2:	8dbff0ef          	jal	ra,1ebc <DevEP2_IN_Deal>
E:\tp78_v2\mounriver_project\RF_CH582M\obj/../HAL/USB.c:118
    tmos_start_task(usbTaskID, USB_TEST_EVENT, MS1_TO_SYSTEM_TIME(500));
    25e6:	6585                	lui	a1,0x1
    25e8:	32000613          	li	a2,800
    25ec:	1ffff517          	auipc	a0,0x1ffff
    25f0:	22c54503          	lbu	a0,556(a0) # 20001818 <usbTaskID>
    25f4:	36d000ef          	jal	ra,3160 <tmos_start_task>
E:\tp78_v2\mounriver_project\RF_CH582M\obj/../HAL/USB.c:119
    return events ^ USB_TEST_EVENT;
    25f8:	6585                	lui	a1,0x1
    25fa:	00b44533          	xor	a0,s0,a1
    25fe:	b7b5                	j	256a <USB_ProcessEvent+0x42>

00002600 <HAL_USBInit>:
HAL_USBInit():
E:\tp78_v2\mounriver_project\RF_CH582M\obj/../HAL/USB.c:132
{
    2600:	1141                	addi	sp,sp,-16
E:\tp78_v2\mounriver_project\RF_CH582M\obj/../HAL/USB.c:133
  usbTaskID = TMOS_ProcessEventRegister( USB_ProcessEvent );
    2602:	00000517          	auipc	a0,0x0
    2606:	f2650513          	addi	a0,a0,-218 # 2528 <USB_ProcessEvent>
E:\tp78_v2\mounriver_project\RF_CH582M\obj/../HAL/USB.c:132
{
    260a:	c606                	sw	ra,12(sp)
    260c:	c422                	sw	s0,8(sp)
E:\tp78_v2\mounriver_project\RF_CH582M\obj/../HAL/USB.c:133
  usbTaskID = TMOS_ProcessEventRegister( USB_ProcessEvent );
    260e:	5ab000ef          	jal	ra,33b8 <TMOS_ProcessEventRegister>
E:\tp78_v2\mounriver_project\RF_CH582M\obj/../HAL/USB.c:134
  pEP0_RAM_Addr = EP0_Databuf;
    2612:	1ffff797          	auipc	a5,0x1ffff
    2616:	27678793          	addi	a5,a5,630 # 20001888 <EP0_Databuf>
    261a:	84f1aa23          	sw	a5,-1964(gp) # 2000186c <pEP0_RAM_Addr>
E:\tp78_v2\mounriver_project\RF_CH582M\obj/../HAL/USB.c:135
  pEP1_RAM_Addr = EP1_Databuf;
    261e:	93018793          	addi	a5,gp,-1744 # 20001948 <EP1_Databuf>
    2622:	84f1ac23          	sw	a5,-1960(gp) # 20001870 <pEP1_RAM_Addr>
E:\tp78_v2\mounriver_project\RF_CH582M\obj/../HAL/USB.c:136
  pEP2_RAM_Addr = EP2_Databuf;
    2626:	9bc18793          	addi	a5,gp,-1604 # 200019d4 <EP2_Databuf>
E:\tp78_v2\mounriver_project\RF_CH582M\obj/../HAL/USB.c:133
  usbTaskID = TMOS_ProcessEventRegister( USB_ProcessEvent );
    262a:	1ffff417          	auipc	s0,0x1ffff
    262e:	1ee40413          	addi	s0,s0,494 # 20001818 <usbTaskID>
E:\tp78_v2\mounriver_project\RF_CH582M\obj/../HAL/USB.c:136
  pEP2_RAM_Addr = EP2_Databuf;
    2632:	84f1a623          	sw	a5,-1972(gp) # 20001864 <pEP2_RAM_Addr>
E:\tp78_v2\mounriver_project\RF_CH582M\obj/../HAL/USB.c:137
  pEP3_RAM_Addr = EP3_Databuf;
    2636:	a3c18793          	addi	a5,gp,-1476 # 20001a54 <EP3_Databuf>
E:\tp78_v2\mounriver_project\RF_CH582M\obj/../HAL/USB.c:133
  usbTaskID = TMOS_ProcessEventRegister( USB_ProcessEvent );
    263a:	00a40023          	sb	a0,0(s0)
E:\tp78_v2\mounriver_project\RF_CH582M\obj/../HAL/USB.c:137
  pEP3_RAM_Addr = EP3_Databuf;
    263e:	84f1a823          	sw	a5,-1968(gp) # 20001868 <pEP3_RAM_Addr>
E:\tp78_v2\mounriver_project\RF_CH582M\obj/../HAL/USB.c:138
  USB_DeviceInit();
    2642:	fe6ff0ef          	jal	ra,1e28 <USB_DeviceInit>
E:\tp78_v2\mounriver_project\RF_CH582M\obj/../HAL/USB.c:139
  tmos_start_task( usbTaskID, START_USB_EVENT, 0 );
    2646:	00044503          	lbu	a0,0(s0)
E:\tp78_v2\mounriver_project\RF_CH582M\obj/../HAL/USB.c:140
}
    264a:	4422                	lw	s0,8(sp)
    264c:	40b2                	lw	ra,12(sp)
E:\tp78_v2\mounriver_project\RF_CH582M\obj/../HAL/USB.c:139
  tmos_start_task( usbTaskID, START_USB_EVENT, 0 );
    264e:	4601                	li	a2,0
    2650:	45a1                	li	a1,8
E:\tp78_v2\mounriver_project\RF_CH582M\obj/../HAL/USB.c:140
}
    2652:	0141                	addi	sp,sp,16
E:\tp78_v2\mounriver_project\RF_CH582M\obj/../HAL/USB.c:139
  tmos_start_task( usbTaskID, START_USB_EVENT, 0 );
    2654:	30d0006f          	j	3160 <tmos_start_task>

00002658 <DevEP1_OUT_Deal>:
DevEP1_OUT_Deal():
E:\tp78_v2\mounriver_project\RF_CH582M\obj/../HAL/USB.c:489
  for ( i = 0; i < l; i++ )
    2658:	4781                	li	a5,0
E:\tp78_v2\mounriver_project\RF_CH582M\obj/../HAL/USB.c:491
    pEP1_IN_DataBuf[i] = ~pEP1_OUT_DataBuf[i];
    265a:	85818613          	addi	a2,gp,-1960 # 20001870 <pEP1_RAM_Addr>
E:\tp78_v2\mounriver_project\RF_CH582M\obj/../HAL/USB.c:489 (discriminator 1)
  for ( i = 0; i < l; i++ )
    265e:	0ff7f713          	andi	a4,a5,255
    2662:	00a76463          	bltu	a4,a0,266a <DevEP1_OUT_Deal+0x12>
E:\tp78_v2\mounriver_project\RF_CH582M\obj/../HAL/USB.c:493
  DevEP1_IN_Deal( l );
    2666:	841ff06f          	j	1ea6 <DevEP1_IN_Deal>
E:\tp78_v2\mounriver_project\RF_CH582M\obj/../HAL/USB.c:491 (discriminator 3)
    pEP1_IN_DataBuf[i] = ~pEP1_OUT_DataBuf[i];
    266a:	4218                	lw	a4,0(a2)
    266c:	973e                	add	a4,a4,a5
    266e:	00074683          	lbu	a3,0(a4)
    2672:	0785                	addi	a5,a5,1
    2674:	fff6c693          	not	a3,a3
    2678:	04d70023          	sb	a3,64(a4)
    267c:	b7cd                	j	265e <DevEP1_OUT_Deal+0x6>

0000267e <DevEP2_OUT_Deal>:
DevEP2_OUT_Deal():
E:\tp78_v2\mounriver_project\RF_CH582M\obj/../HAL/USB.c:506
  for ( i = 0; i < l; i++ )
    267e:	4781                	li	a5,0
E:\tp78_v2\mounriver_project\RF_CH582M\obj/../HAL/USB.c:508
    pEP2_IN_DataBuf[i] = ~pEP2_OUT_DataBuf[i];
    2680:	84c18613          	addi	a2,gp,-1972 # 20001864 <pEP2_RAM_Addr>
E:\tp78_v2\mounriver_project\RF_CH582M\obj/../HAL/USB.c:506 (discriminator 1)
  for ( i = 0; i < l; i++ )
    2684:	0ff7f713          	andi	a4,a5,255
    2688:	00a76463          	bltu	a4,a0,2690 <DevEP2_OUT_Deal+0x12>
E:\tp78_v2\mounriver_project\RF_CH582M\obj/../HAL/USB.c:510
  DevEP2_IN_Deal( l );
    268c:	831ff06f          	j	1ebc <DevEP2_IN_Deal>
E:\tp78_v2\mounriver_project\RF_CH582M\obj/../HAL/USB.c:508 (discriminator 3)
    pEP2_IN_DataBuf[i] = ~pEP2_OUT_DataBuf[i];
    2690:	4218                	lw	a4,0(a2)
    2692:	973e                	add	a4,a4,a5
    2694:	00074683          	lbu	a3,0(a4)
    2698:	0785                	addi	a5,a5,1
    269a:	fff6c693          	not	a3,a3
    269e:	04d70023          	sb	a3,64(a4)
    26a2:	b7cd                	j	2684 <DevEP2_OUT_Deal+0x6>

000026a4 <DevEP3_OUT_Deal>:
DevEP3_OUT_Deal():
E:\tp78_v2\mounriver_project\RF_CH582M\obj/../HAL/USB.c:523
  for ( i = 0; i < l; i++ )
    26a4:	4781                	li	a5,0
E:\tp78_v2\mounriver_project\RF_CH582M\obj/../HAL/USB.c:525
    pEP3_IN_DataBuf[i] = ~pEP3_OUT_DataBuf[i];
    26a6:	85018613          	addi	a2,gp,-1968 # 20001868 <pEP3_RAM_Addr>
E:\tp78_v2\mounriver_project\RF_CH582M\obj/../HAL/USB.c:523 (discriminator 1)
  for ( i = 0; i < l; i++ )
    26aa:	0ff7f713          	andi	a4,a5,255
    26ae:	00a76463          	bltu	a4,a0,26b6 <DevEP3_OUT_Deal+0x12>
E:\tp78_v2\mounriver_project\RF_CH582M\obj/../HAL/USB.c:527
  DevEP3_IN_Deal( l );
    26b2:	821ff06f          	j	1ed2 <DevEP3_IN_Deal>
E:\tp78_v2\mounriver_project\RF_CH582M\obj/../HAL/USB.c:525 (discriminator 3)
    pEP3_IN_DataBuf[i] = ~pEP3_OUT_DataBuf[i];
    26b6:	4218                	lw	a4,0(a2)
    26b8:	973e                	add	a4,a4,a5
    26ba:	00074683          	lbu	a3,0(a4)
    26be:	0785                	addi	a5,a5,1
    26c0:	fff6c693          	not	a3,a3
    26c4:	04d70023          	sb	a3,64(a4)
    26c8:	b7cd                	j	26aa <DevEP3_OUT_Deal+0x6>

000026ca <DevEP4_OUT_Deal>:
DevEP4_OUT_Deal():
E:\tp78_v2\mounriver_project\RF_CH582M\obj/../HAL/USB.c:540
  for ( i = 0; i < l; i++ )
    26ca:	4781                	li	a5,0
E:\tp78_v2\mounriver_project\RF_CH582M\obj/../HAL/USB.c:542
    pEP4_IN_DataBuf[i] = ~pEP4_OUT_DataBuf[i];
    26cc:	85418613          	addi	a2,gp,-1964 # 2000186c <pEP0_RAM_Addr>
E:\tp78_v2\mounriver_project\RF_CH582M\obj/../HAL/USB.c:540 (discriminator 1)
  for ( i = 0; i < l; i++ )
    26d0:	0ff7f713          	andi	a4,a5,255
    26d4:	00a76463          	bltu	a4,a0,26dc <DevEP4_OUT_Deal+0x12>
E:\tp78_v2\mounriver_project\RF_CH582M\obj/../HAL/USB.c:544
  DevEP4_IN_Deal( l );
    26d8:	811ff06f          	j	1ee8 <DevEP4_IN_Deal>
E:\tp78_v2\mounriver_project\RF_CH582M\obj/../HAL/USB.c:542 (discriminator 3)
    pEP4_IN_DataBuf[i] = ~pEP4_OUT_DataBuf[i];
    26dc:	4218                	lw	a4,0(a2)
    26de:	973e                	add	a4,a4,a5
    26e0:	04074683          	lbu	a3,64(a4)
    26e4:	0785                	addi	a5,a5,1
    26e6:	fff6c693          	not	a3,a3
    26ea:	08d70023          	sb	a3,128(a4)
    26ee:	b7cd                	j	26d0 <DevEP4_OUT_Deal+0x6>

000026f0 <USB_DevTransProcess>:
USB_DevTransProcess():
E:\tp78_v2\mounriver_project\RF_CH582M\obj/../HAL/USB.c:153
  intflag = R8_USB_INT_FG;
    26f0:	400087b7          	lui	a5,0x40008
    26f4:	0067c703          	lbu	a4,6(a5) # 40008006 <_eusrstack+0x20000006>
    26f8:	0ff77713          	andi	a4,a4,255
E:\tp78_v2\mounriver_project\RF_CH582M\obj/../HAL/USB.c:154
  if ( intflag & RB_UIF_TRANSFER )
    26fc:	00277693          	andi	a3,a4,2
    2700:	48068f63          	beqz	a3,2b9e <USB_DevTransProcess+0x4ae>
E:\tp78_v2\mounriver_project\RF_CH582M\obj/../HAL/USB.c:149
{
    2704:	1101                	addi	sp,sp,-32
    2706:	ce06                	sw	ra,28(sp)
    2708:	cc22                	sw	s0,24(sp)
    270a:	ca26                	sw	s1,20(sp)
    270c:	c84a                	sw	s2,16(sp)
    270e:	c64e                	sw	s3,12(sp)
E:\tp78_v2\mounriver_project\RF_CH582M\obj/../HAL/USB.c:156
    if ( ( R8_USB_INT_ST & MASK_UIS_TOKEN ) != MASK_UIS_TOKEN )    // 非空闲
    2710:	0077c703          	lbu	a4,7(a5)
    2714:	03000693          	li	a3,48
    2718:	03077713          	andi	a4,a4,48
    271c:	02d70b63          	beq	a4,a3,2752 <USB_DevTransProcess+0x62>
E:\tp78_v2\mounriver_project\RF_CH582M\obj/../HAL/USB.c:158
      switch ( R8_USB_INT_ST & ( MASK_UIS_TOKEN | MASK_UIS_ENDP ) )
    2720:	0077c703          	lbu	a4,7(a5)
    2724:	4691                	li	a3,4
    2726:	03f77713          	andi	a4,a4,63
    272a:	22d70263          	beq	a4,a3,294e <USB_DevTransProcess+0x25e>
    272e:	0ae6e463          	bltu	a3,a4,27d6 <USB_DevTransProcess+0xe6>
    2732:	4685                	li	a3,1
    2734:	1ad70d63          	beq	a4,a3,28ee <USB_DevTransProcess+0x1fe>
    2738:	18070163          	beqz	a4,28ba <USB_DevTransProcess+0x1ca>
    273c:	4689                	li	a3,2
    273e:	1cd70263          	beq	a4,a3,2902 <USB_DevTransProcess+0x212>
    2742:	468d                	li	a3,3
    2744:	1ed70263          	beq	a4,a3,2928 <USB_DevTransProcess+0x238>
E:\tp78_v2\mounriver_project\RF_CH582M\obj/../HAL/USB.c:264
      R8_USB_INT_FG = RB_UIF_TRANSFER;
    2748:	400087b7          	lui	a5,0x40008
    274c:	4709                	li	a4,2
    274e:	00e78323          	sb	a4,6(a5) # 40008006 <_eusrstack+0x20000006>
E:\tp78_v2\mounriver_project\RF_CH582M\obj/../HAL/USB.c:266
    if ( R8_USB_INT_ST & RB_UIS_SETUP_ACT )                  // Setup包处理
    2752:	40008737          	lui	a4,0x40008
    2756:	00774783          	lbu	a5,7(a4) # 40008007 <_eusrstack+0x20000007>
    275a:	07e2                	slli	a5,a5,0x18
    275c:	87e1                	srai	a5,a5,0x18
    275e:	2e07d263          	bgez	a5,2a42 <USB_DevTransProcess+0x352>
E:\tp78_v2\mounriver_project\RF_CH582M\obj/../HAL/USB.c:268
      R8_UEP0_CTRL = RB_UEP_R_TOG | RB_UEP_T_TOG | UEP_R_RES_ACK | UEP_T_RES_NAK;
    2762:	fc200793          	li	a5,-62
    2766:	02f70123          	sb	a5,34(a4)
E:\tp78_v2\mounriver_project\RF_CH582M\obj/../HAL/USB.c:269
      SetupReqLen = pSetupReqPak->wLength;
    276a:	85418693          	addi	a3,gp,-1964 # 2000186c <pEP0_RAM_Addr>
    276e:	4288                	lw	a0,0(a3)
    2770:	00754703          	lbu	a4,7(a0)
    2774:	00654783          	lbu	a5,6(a0)
    2778:	0722                	slli	a4,a4,0x8
    277a:	8f5d                	or	a4,a4,a5
    277c:	86e19323          	sh	a4,-1946(gp) # 2000187e <SetupReqLen>
E:\tp78_v2\mounriver_project\RF_CH582M\obj/../HAL/USB.c:270
      SetupReqCode = pSetupReqPak->bRequest;
    2780:	00154783          	lbu	a5,1(a0)
    2784:	86f18423          	sb	a5,-1944(gp) # 20001880 <SetupReqCode>
E:\tp78_v2\mounriver_project\RF_CH582M\obj/../HAL/USB.c:271
      chtype = pSetupReqPak->bRequestType;
    2788:	00054903          	lbu	s2,0(a0)
E:\tp78_v2\mounriver_project\RF_CH582M\obj/../HAL/USB.c:275
      if ( ( pSetupReqPak->bRequestType & USB_REQ_TYP_MASK ) != USB_REQ_TYP_STANDARD )
    278c:	06097613          	andi	a2,s2,96
    2790:	1c060f63          	beqz	a2,296e <USB_DevTransProcess+0x27e>
E:\tp78_v2\mounriver_project\RF_CH582M\obj/../HAL/USB.c:277
        switch ( SetupReqCode )
    2794:	17dd                	addi	a5,a5,-9
    2796:	4705                	li	a4,1
    2798:	28f76a63          	bltu	a4,a5,2a2c <USB_DevTransProcess+0x33c>
E:\tp78_v2\mounriver_project\RF_CH582M\obj/../HAL/USB.c:437
        if ( chtype & 0x80 )     // 上传
    279c:	0962                	slli	s2,s2,0x18
    279e:	41895913          	srai	s2,s2,0x18
E:\tp78_v2\mounriver_project\RF_CH582M\obj/../HAL/USB.c:444
          len = 0;        // 下传
    27a2:	4681                	li	a3,0
E:\tp78_v2\mounriver_project\RF_CH582M\obj/../HAL/USB.c:437
        if ( chtype & 0x80 )     // 上传
    27a4:	02095263          	bgez	s2,27c8 <USB_DevTransProcess+0xd8>
E:\tp78_v2\mounriver_project\RF_CH582M\obj/../HAL/USB.c:440
              DevEP0SIZE : SetupReqLen;
    27a8:	8661d783          	lhu	a5,-1946(gp) # 2000187e <SetupReqLen>
    27ac:	04000693          	li	a3,64
    27b0:	873e                	mv	a4,a5
    27b2:	00f6f463          	bgeu	a3,a5,27ba <USB_DevTransProcess+0xca>
    27b6:	04000713          	li	a4,64
    27ba:	0742                	slli	a4,a4,0x10
    27bc:	8341                	srli	a4,a4,0x10
E:\tp78_v2\mounriver_project\RF_CH582M\obj/../HAL/USB.c:441
          SetupReqLen -= len;
    27be:	8f99                	sub	a5,a5,a4
E:\tp78_v2\mounriver_project\RF_CH582M\obj/../HAL/USB.c:439
          len = ( SetupReqLen > DevEP0SIZE ) ?
    27c0:	0ff77693          	andi	a3,a4,255
E:\tp78_v2\mounriver_project\RF_CH582M\obj/../HAL/USB.c:441
          SetupReqLen -= len;
    27c4:	86f19323          	sh	a5,-1946(gp) # 2000187e <SetupReqLen>
E:\tp78_v2\mounriver_project\RF_CH582M\obj/../HAL/USB.c:445
        R8_UEP0_T_LEN = len;
    27c8:	400087b7          	lui	a5,0x40008
    27cc:	02d78023          	sb	a3,32(a5) # 40008020 <_eusrstack+0x20000020>
E:\tp78_v2\mounriver_project\RF_CH582M\obj/../HAL/USB.c:446
        R8_UEP0_CTRL = RB_UEP_R_TOG | RB_UEP_T_TOG | UEP_R_RES_ACK | UEP_T_RES_ACK;    // 默认数据包是DATA1
    27d0:	fc000713          	li	a4,-64
    27d4:	a485                	j	2a34 <USB_DevTransProcess+0x344>
    27d6:	02200693          	li	a3,34
    27da:	12d70e63          	beq	a4,a3,2916 <USB_DevTransProcess+0x226>
    27de:	02e6e363          	bltu	a3,a4,2804 <USB_DevTransProcess+0x114>
    27e2:	02000693          	li	a3,32
    27e6:	04d70663          	beq	a4,a3,2832 <USB_DevTransProcess+0x142>
    27ea:	02100693          	li	a3,33
    27ee:	f4d71de3          	bne	a4,a3,2748 <USB_DevTransProcess+0x58>
E:\tp78_v2\mounriver_project\RF_CH582M\obj/../HAL/USB.c:214
          R8_UEP1_CTRL = ( R8_UEP1_CTRL & ~MASK_UEP_T_RES ) | UEP_T_RES_NAK;
    27f2:	0267c703          	lbu	a4,38(a5)
    27f6:	0fc77713          	andi	a4,a4,252
    27fa:	00276713          	ori	a4,a4,2
    27fe:	02e78323          	sb	a4,38(a5)
E:\tp78_v2\mounriver_project\RF_CH582M\obj/../HAL/USB.c:215
          break;
    2802:	b799                	j	2748 <USB_DevTransProcess+0x58>
    2804:	02300693          	li	a3,35
    2808:	12d70a63          	beq	a4,a3,293c <USB_DevTransProcess+0x24c>
    280c:	02400693          	li	a3,36
    2810:	f2d71ce3          	bne	a4,a3,2748 <USB_DevTransProcess+0x58>
E:\tp78_v2\mounriver_project\RF_CH582M\obj/../HAL/USB.c:257
          R8_UEP4_CTRL ^= RB_UEP_T_TOG;
    2814:	0327c703          	lbu	a4,50(a5)
    2818:	04074713          	xori	a4,a4,64
    281c:	02e78923          	sb	a4,50(a5)
E:\tp78_v2\mounriver_project\RF_CH582M\obj/../HAL/USB.c:258
          R8_UEP4_CTRL = ( R8_UEP4_CTRL & ~MASK_UEP_T_RES ) | UEP_T_RES_NAK;
    2820:	0327c703          	lbu	a4,50(a5)
    2824:	0fc77713          	andi	a4,a4,252
    2828:	00276713          	ori	a4,a4,2
    282c:	02e78923          	sb	a4,50(a5)
E:\tp78_v2\mounriver_project\RF_CH582M\obj/../HAL/USB.c:259
          break;
    2830:	bf21                	j	2748 <USB_DevTransProcess+0x58>
E:\tp78_v2\mounriver_project\RF_CH582M\obj/../HAL/USB.c:163
          switch ( SetupReqCode )
    2832:	8681c703          	lbu	a4,-1944(gp) # 20001880 <SetupReqCode>
    2836:	4695                	li	a3,5
    2838:	06d70363          	beq	a4,a3,289e <USB_DevTransProcess+0x1ae>
    283c:	4699                	li	a3,6
    283e:	06d71b63          	bne	a4,a3,28b4 <USB_DevTransProcess+0x1c4>
E:\tp78_v2\mounriver_project\RF_CH582M\obj/../HAL/USB.c:167
                  DevEP0SIZE : SetupReqLen;    // 本次传输长度
    2842:	86618793          	addi	a5,gp,-1946 # 2000187e <SetupReqLen>
    2846:	0007d403          	lhu	s0,0(a5)
    284a:	04000713          	li	a4,64
    284e:	84be                	mv	s1,a5
    2850:	00877463          	bgeu	a4,s0,2858 <USB_DevTransProcess+0x168>
    2854:	04000413          	li	s0,64
E:\tp78_v2\mounriver_project\RF_CH582M\obj/../HAL/USB.c:168
              memcpy( pEP0_DataBuf, pDescr, len ); /* 加载上传数据 */
    2858:	85418793          	addi	a5,gp,-1964 # 2000186c <pEP0_RAM_Addr>
    285c:	86c18913          	addi	s2,gp,-1940 # 20001884 <pDescr>
    2860:	4388                	lw	a0,0(a5)
E:\tp78_v2\mounriver_project\RF_CH582M\obj/../HAL/USB.c:167
                  DevEP0SIZE : SetupReqLen;    // 本次传输长度
    2862:	0442                	slli	s0,s0,0x10
E:\tp78_v2\mounriver_project\RF_CH582M\obj/../HAL/USB.c:168
              memcpy( pEP0_DataBuf, pDescr, len ); /* 加载上传数据 */
    2864:	00092583          	lw	a1,0(s2)
E:\tp78_v2\mounriver_project\RF_CH582M\obj/../HAL/USB.c:167
                  DevEP0SIZE : SetupReqLen;    // 本次传输长度
    2868:	8041                	srli	s0,s0,0x10
E:\tp78_v2\mounriver_project\RF_CH582M\obj/../HAL/USB.c:168
              memcpy( pEP0_DataBuf, pDescr, len ); /* 加载上传数据 */
    286a:	8622                	mv	a2,s0
    286c:	393030ef          	jal	ra,63fe <memcpy>
E:\tp78_v2\mounriver_project\RF_CH582M\obj/../HAL/USB.c:169
              SetupReqLen -= len;
    2870:	0004d783          	lhu	a5,0(s1)
E:\tp78_v2\mounriver_project\RF_CH582M\obj/../HAL/USB.c:166
              len = SetupReqLen >= DevEP0SIZE ?
    2874:	0ff47993          	andi	s3,s0,255
E:\tp78_v2\mounriver_project\RF_CH582M\obj/../HAL/USB.c:169
              SetupReqLen -= len;
    2878:	8f81                	sub	a5,a5,s0
    287a:	86f19323          	sh	a5,-1946(gp) # 2000187e <SetupReqLen>
E:\tp78_v2\mounriver_project\RF_CH582M\obj/../HAL/USB.c:170
              pDescr += len;
    287e:	00092783          	lw	a5,0(s2)
    2882:	943e                	add	s0,s0,a5
    2884:	8681a623          	sw	s0,-1940(gp) # 20001884 <pDescr>
E:\tp78_v2\mounriver_project\RF_CH582M\obj/../HAL/USB.c:171
              R8_UEP0_T_LEN = len;
    2888:	400087b7          	lui	a5,0x40008
    288c:	03378023          	sb	s3,32(a5) # 40008020 <_eusrstack+0x20000020>
E:\tp78_v2\mounriver_project\RF_CH582M\obj/../HAL/USB.c:172
              R8_UEP0_CTRL ^= RB_UEP_T_TOG;                             // 翻转
    2890:	0227c703          	lbu	a4,34(a5)
    2894:	04074713          	xori	a4,a4,64
E:\tp78_v2\mounriver_project\RF_CH582M\obj/../HAL/USB.c:176
              R8_UEP0_CTRL = UEP_R_RES_ACK | UEP_T_RES_NAK;
    2898:	02e78123          	sb	a4,34(a5)
E:\tp78_v2\mounriver_project\RF_CH582M\obj/../HAL/USB.c:177
              break;
    289c:	b575                	j	2748 <USB_DevTransProcess+0x58>
E:\tp78_v2\mounriver_project\RF_CH582M\obj/../HAL/USB.c:175
              R8_USB_DEV_AD = ( R8_USB_DEV_AD & RB_UDA_GP_BIT ) | SetupReqLen;
    289e:	0037c703          	lbu	a4,3(a5)
    28a2:	8661c683          	lbu	a3,-1946(gp) # 2000187e <SetupReqLen>
    28a6:	08077713          	andi	a4,a4,128
    28aa:	8f55                	or	a4,a4,a3
    28ac:	00e781a3          	sb	a4,3(a5)
E:\tp78_v2\mounriver_project\RF_CH582M\obj/../HAL/USB.c:176
              R8_UEP0_CTRL = UEP_R_RES_ACK | UEP_T_RES_NAK;
    28b0:	4709                	li	a4,2
    28b2:	b7dd                	j	2898 <USB_DevTransProcess+0x1a8>
E:\tp78_v2\mounriver_project\RF_CH582M\obj/../HAL/USB.c:179
              R8_UEP0_T_LEN = 0;                                      // 状态阶段完成中断或者是强制上传0长度数据包结束控制传输
    28b4:	02078023          	sb	zero,32(a5)
E:\tp78_v2\mounriver_project\RF_CH582M\obj/../HAL/USB.c:180
              R8_UEP0_CTRL = UEP_R_RES_ACK | UEP_T_RES_NAK;
    28b8:	bfe5                	j	28b0 <USB_DevTransProcess+0x1c0>
E:\tp78_v2\mounriver_project\RF_CH582M\obj/../HAL/USB.c:188
          len = R8_USB_RX_LEN;
    28ba:	0087c783          	lbu	a5,8(a5)
E:\tp78_v2\mounriver_project\RF_CH582M\obj/../HAL/USB.c:189
          if ( SetupReqCode == 0x09 )
    28be:	8681c703          	lbu	a4,-1944(gp) # 20001880 <SetupReqCode>
    28c2:	47a5                	li	a5,9
    28c4:	e8f712e3          	bne	a4,a5,2748 <USB_DevTransProcess+0x58>
E:\tp78_v2\mounriver_project\RF_CH582M\obj/../HAL/USB.c:191
            if ( (pEP0_DataBuf[0] & (1<<1)) == 0 ) {
    28c8:	85418793          	addi	a5,gp,-1964 # 2000186c <pEP0_RAM_Addr>
    28cc:	439c                	lw	a5,0(a5)
    28ce:	abc1c503          	lbu	a0,-1348(gp) # 20001ad4 <RFtaskID>
    28d2:	0007c783          	lbu	a5,0(a5)
    28d6:	8b89                	andi	a5,a5,2
    28d8:	eb81                	bnez	a5,28e8 <USB_DevTransProcess+0x1f8>
E:\tp78_v2\mounriver_project\RF_CH582M\obj/../HAL/USB.c:192
                CAPSLOCK_DATA[1] = 0;    // Light off Caps Lock LED
    28da:	800182a3          	sb	zero,-2043(gp) # 2000181d <CAPSLOCK_DATA+0x1>
E:\tp78_v2\mounriver_project\RF_CH582M\obj/../HAL/USB.c:197
                tmos_start_task(RFtaskID, SBP_RF_CAPSLOCK_TX_EVT, 10);
    28de:	4629                	li	a2,10
    28e0:	45a1                	li	a1,8
    28e2:	07f000ef          	jal	ra,3160 <tmos_start_task>
    28e6:	b58d                	j	2748 <USB_DevTransProcess+0x58>
E:\tp78_v2\mounriver_project\RF_CH582M\obj/../HAL/USB.c:196
                CAPSLOCK_DATA[1] = 1;     // Light on Caps Lock LED
    28e8:	80d182a3          	sb	a3,-2043(gp) # 2000181d <CAPSLOCK_DATA+0x1>
    28ec:	bfcd                	j	28de <USB_DevTransProcess+0x1ee>
E:\tp78_v2\mounriver_project\RF_CH582M\obj/../HAL/USB.c:205
          if ( R8_USB_INT_ST & RB_UIS_TOG_OK )
    28ee:	0077c703          	lbu	a4,7(a5)
    28f2:	04077713          	andi	a4,a4,64
    28f6:	e40709e3          	beqz	a4,2748 <USB_DevTransProcess+0x58>
E:\tp78_v2\mounriver_project\RF_CH582M\obj/../HAL/USB.c:207
            len = R8_USB_RX_LEN;
    28fa:	0087c503          	lbu	a0,8(a5)
E:\tp78_v2\mounriver_project\RF_CH582M\obj/../HAL/USB.c:208
            DevEP1_OUT_Deal( len );
    28fe:	3ba9                	jal	2658 <DevEP1_OUT_Deal>
    2900:	b5a1                	j	2748 <USB_DevTransProcess+0x58>
E:\tp78_v2\mounriver_project\RF_CH582M\obj/../HAL/USB.c:219
          if ( R8_USB_INT_ST & RB_UIS_TOG_OK )
    2902:	0077c703          	lbu	a4,7(a5)
    2906:	04077713          	andi	a4,a4,64
    290a:	e2070fe3          	beqz	a4,2748 <USB_DevTransProcess+0x58>
E:\tp78_v2\mounriver_project\RF_CH582M\obj/../HAL/USB.c:221
            len = R8_USB_RX_LEN;
    290e:	0087c503          	lbu	a0,8(a5)
E:\tp78_v2\mounriver_project\RF_CH582M\obj/../HAL/USB.c:222
            DevEP2_OUT_Deal( len );
    2912:	33b5                	jal	267e <DevEP2_OUT_Deal>
    2914:	bd15                	j	2748 <USB_DevTransProcess+0x58>
E:\tp78_v2\mounriver_project\RF_CH582M\obj/../HAL/USB.c:228
          R8_UEP2_CTRL = ( R8_UEP2_CTRL & ~MASK_UEP_T_RES ) | UEP_T_RES_NAK;
    2916:	02a7c703          	lbu	a4,42(a5)
    291a:	0fc77713          	andi	a4,a4,252
    291e:	00276713          	ori	a4,a4,2
    2922:	02e78523          	sb	a4,42(a5)
E:\tp78_v2\mounriver_project\RF_CH582M\obj/../HAL/USB.c:229
          break;
    2926:	b50d                	j	2748 <USB_DevTransProcess+0x58>
E:\tp78_v2\mounriver_project\RF_CH582M\obj/../HAL/USB.c:233
          if ( R8_USB_INT_ST & RB_UIS_TOG_OK )
    2928:	0077c703          	lbu	a4,7(a5)
    292c:	04077713          	andi	a4,a4,64
    2930:	e0070ce3          	beqz	a4,2748 <USB_DevTransProcess+0x58>
E:\tp78_v2\mounriver_project\RF_CH582M\obj/../HAL/USB.c:235
            len = R8_USB_RX_LEN;
    2934:	0087c503          	lbu	a0,8(a5)
E:\tp78_v2\mounriver_project\RF_CH582M\obj/../HAL/USB.c:236
            DevEP3_OUT_Deal( len );
    2938:	33b5                	jal	26a4 <DevEP3_OUT_Deal>
    293a:	b539                	j	2748 <USB_DevTransProcess+0x58>
E:\tp78_v2\mounriver_project\RF_CH582M\obj/../HAL/USB.c:242
          R8_UEP3_CTRL = ( R8_UEP3_CTRL & ~MASK_UEP_T_RES ) | UEP_T_RES_NAK;
    293c:	02e7c703          	lbu	a4,46(a5)
    2940:	0fc77713          	andi	a4,a4,252
    2944:	00276713          	ori	a4,a4,2
    2948:	02e78723          	sb	a4,46(a5)
E:\tp78_v2\mounriver_project\RF_CH582M\obj/../HAL/USB.c:243
          break;
    294c:	bbf5                	j	2748 <USB_DevTransProcess+0x58>
E:\tp78_v2\mounriver_project\RF_CH582M\obj/../HAL/USB.c:247
          if ( R8_USB_INT_ST & RB_UIS_TOG_OK )
    294e:	0077c703          	lbu	a4,7(a5)
    2952:	04077713          	andi	a4,a4,64
    2956:	de0709e3          	beqz	a4,2748 <USB_DevTransProcess+0x58>
E:\tp78_v2\mounriver_project\RF_CH582M\obj/../HAL/USB.c:249
            R8_UEP4_CTRL ^= RB_UEP_R_TOG;
    295a:	0327c703          	lbu	a4,50(a5)
    295e:	08074713          	xori	a4,a4,128
    2962:	02e78923          	sb	a4,50(a5)
E:\tp78_v2\mounriver_project\RF_CH582M\obj/../HAL/USB.c:250
            len = R8_USB_RX_LEN;
    2966:	0087c503          	lbu	a0,8(a5)
E:\tp78_v2\mounriver_project\RF_CH582M\obj/../HAL/USB.c:251
            DevEP4_OUT_Deal( len );
    296a:	3385                	jal	26ca <DevEP4_OUT_Deal>
    296c:	bbf1                	j	2748 <USB_DevTransProcess+0x58>
E:\tp78_v2\mounriver_project\RF_CH582M\obj/../HAL/USB.c:289
        switch ( SetupReqCode )
    296e:	4629                	li	a2,10
    2970:	0af66e63          	bltu	a2,a5,2a2c <USB_DevTransProcess+0x33c>
    2974:	00004617          	auipc	a2,0x4
    2978:	b8c60613          	addi	a2,a2,-1140 # 6500 <memcpy+0x102>
    297c:	078a                	slli	a5,a5,0x2
    297e:	97b2                	add	a5,a5,a2
    2980:	439c                	lw	a5,0(a5)
    2982:	97b2                	add	a5,a5,a2
    2984:	8782                	jr	a5
E:\tp78_v2\mounriver_project\RF_CH582M\obj/../HAL/USB.c:293
            switch ( ( ( pSetupReqPak->wValue ) >> 8 ) )
    2986:	00354783          	lbu	a5,3(a0)
    298a:	00254683          	lbu	a3,2(a0)
    298e:	4609                	li	a2,2
    2990:	07a2                	slli	a5,a5,0x8
    2992:	8fd5                	or	a5,a5,a3
    2994:	0087d693          	srli	a3,a5,0x8
    2998:	0ac68c63          	beq	a3,a2,2a50 <USB_DevTransProcess+0x360>
    299c:	00d66963          	bltu	a2,a3,29ae <USB_DevTransProcess+0x2be>
    29a0:	4785                	li	a5,1
    29a2:	02f68a63          	beq	a3,a5,29d6 <USB_DevTransProcess+0x2e6>
E:\tp78_v2\mounriver_project\RF_CH582M\obj/../HAL/USB.c:358
                errflag = 0xff;
    29a6:	0ff00413          	li	s0,255
E:\tp78_v2\mounriver_project\RF_CH582M\obj/../HAL/USB.c:273
      len = 0;
    29aa:	4781                	li	a5,0
    29ac:	a82d                	j	29e6 <USB_DevTransProcess+0x2f6>
    29ae:	458d                	li	a1,3
    29b0:	0eb68363          	beq	a3,a1,2a96 <USB_DevTransProcess+0x3a6>
    29b4:	02200793          	li	a5,34
    29b8:	fef697e3          	bne	a3,a5,29a6 <USB_DevTransProcess+0x2b6>
E:\tp78_v2\mounriver_project\RF_CH582M\obj/../HAL/USB.c:311
                if ( ( ( pSetupReqPak->wIndex ) & 0xff ) == 0 )         //接口0报表描述符
    29bc:	00454783          	lbu	a5,4(a0)
    29c0:	e3d5                	bnez	a5,2a64 <USB_DevTransProcess+0x374>
E:\tp78_v2\mounriver_project\RF_CH582M\obj/../HAL/USB.c:313
                  pDescr = KeyRepDesc;                                  //数据准备上传
    29c2:	00004797          	auipc	a5,0x4
    29c6:	b6a78793          	addi	a5,a5,-1174 # 652c <KeyRepDesc>
    29ca:	86f1a623          	sw	a5,-1940(gp) # 20001884 <pDescr>
E:\tp78_v2\mounriver_project\RF_CH582M\obj/../HAL/USB.c:274
      errflag = 0;
    29ce:	4401                	li	s0,0
E:\tp78_v2\mounriver_project\RF_CH582M\obj/../HAL/USB.c:314
                  len = sizeof( KeyRepDesc );
    29d0:	03e00793          	li	a5,62
    29d4:	a809                	j	29e6 <USB_DevTransProcess+0x2f6>
E:\tp78_v2\mounriver_project\RF_CH582M\obj/../HAL/USB.c:297
                pDescr = MyDevDescr;
    29d6:	00004797          	auipc	a5,0x4
    29da:	c3678793          	addi	a5,a5,-970 # 660c <MyDevDescr>
    29de:	86f1a623          	sw	a5,-1940(gp) # 20001884 <pDescr>
E:\tp78_v2\mounriver_project\RF_CH582M\obj/../HAL/USB.c:274
      errflag = 0;
    29e2:	4401                	li	s0,0
E:\tp78_v2\mounriver_project\RF_CH582M\obj/../HAL/USB.c:298
                len = MyDevDescr[0];
    29e4:	47c9                	li	a5,18
E:\tp78_v2\mounriver_project\RF_CH582M\obj/../HAL/USB.c:361
            if ( SetupReqLen > len )
    29e6:	07c2                	slli	a5,a5,0x10
    29e8:	83c1                	srli	a5,a5,0x10
    29ea:	00e7f463          	bgeu	a5,a4,29f2 <USB_DevTransProcess+0x302>
E:\tp78_v2\mounriver_project\RF_CH582M\obj/../HAL/USB.c:362
              SetupReqLen = len;      //实际需上传总长度
    29ee:	86f19323          	sh	a5,-1946(gp) # 2000187e <SetupReqLen>
E:\tp78_v2\mounriver_project\RF_CH582M\obj/../HAL/USB.c:364
                DevEP0SIZE : SetupReqLen;
    29f2:	86618793          	addi	a5,gp,-1946 # 2000187e <SetupReqLen>
    29f6:	0007d603          	lhu	a2,0(a5)
    29fa:	04000793          	li	a5,64
    29fe:	00c7f463          	bgeu	a5,a2,2a06 <USB_DevTransProcess+0x316>
    2a02:	04000613          	li	a2,64
E:\tp78_v2\mounriver_project\RF_CH582M\obj/../HAL/USB.c:365
            memcpy( pEP0_DataBuf, pDescr, len );
    2a06:	86c18993          	addi	s3,gp,-1940 # 20001884 <pDescr>
    2a0a:	01061493          	slli	s1,a2,0x10
    2a0e:	0009a583          	lw	a1,0(s3) # 10000 <_data_lma+0x9988>
    2a12:	80c1                	srli	s1,s1,0x10
    2a14:	8626                	mv	a2,s1
    2a16:	1e9030ef          	jal	ra,63fe <memcpy>
E:\tp78_v2\mounriver_project\RF_CH582M\obj/../HAL/USB.c:366
            pDescr += len;
    2a1a:	0009a603          	lw	a2,0(s3)
    2a1e:	9626                	add	a2,a2,s1
    2a20:	86c1a623          	sw	a2,-1940(gp) # 20001884 <pDescr>
E:\tp78_v2\mounriver_project\RF_CH582M\obj/../HAL/USB.c:430
      if ( errflag == 0xff )        // 错误或不支持
    2a24:	0ff00793          	li	a5,255
    2a28:	d6f41ae3          	bne	s0,a5,279c <USB_DevTransProcess+0xac>
E:\tp78_v2\mounriver_project\RF_CH582M\obj/../HAL/USB.c:433
        R8_UEP0_CTRL = RB_UEP_R_TOG | RB_UEP_T_TOG | UEP_R_RES_STALL | UEP_T_RES_STALL;    // STALL
    2a2c:	400087b7          	lui	a5,0x40008
    2a30:	fcf00713          	li	a4,-49
E:\tp78_v2\mounriver_project\RF_CH582M\obj/../HAL/USB.c:446
        R8_UEP0_CTRL = RB_UEP_R_TOG | RB_UEP_T_TOG | UEP_R_RES_ACK | UEP_T_RES_ACK;    // 默认数据包是DATA1
    2a34:	02e78123          	sb	a4,34(a5) # 40008022 <_eusrstack+0x20000022>
E:\tp78_v2\mounriver_project\RF_CH582M\obj/../HAL/USB.c:449
      R8_USB_INT_FG = RB_UIF_TRANSFER;
    2a38:	400087b7          	lui	a5,0x40008
    2a3c:	4709                	li	a4,2
    2a3e:	00e78323          	sb	a4,6(a5) # 40008006 <_eusrstack+0x20000006>
E:\tp78_v2\mounriver_project\RF_CH582M\obj/../HAL/USB.c:477
}
    2a42:	40f2                	lw	ra,28(sp)
    2a44:	4462                	lw	s0,24(sp)
    2a46:	44d2                	lw	s1,20(sp)
    2a48:	4942                	lw	s2,16(sp)
    2a4a:	49b2                	lw	s3,12(sp)
    2a4c:	6105                	addi	sp,sp,32
    2a4e:	8082                	ret
E:\tp78_v2\mounriver_project\RF_CH582M\obj/../HAL/USB.c:304
                pDescr = MyCfgDescr;
    2a50:	00004797          	auipc	a5,0x4
    2a54:	b5078793          	addi	a5,a5,-1200 # 65a0 <MyCfgDescr>
    2a58:	86f1a623          	sw	a5,-1940(gp) # 20001884 <pDescr>
E:\tp78_v2\mounriver_project\RF_CH582M\obj/../HAL/USB.c:274
      errflag = 0;
    2a5c:	4401                	li	s0,0
E:\tp78_v2\mounriver_project\RF_CH582M\obj/../HAL/USB.c:305
                len = MyCfgDescr[2];
    2a5e:	06b00793          	li	a5,107
    2a62:	b751                	j	29e6 <USB_DevTransProcess+0x2f6>
E:\tp78_v2\mounriver_project\RF_CH582M\obj/../HAL/USB.c:316
                else if ( ( ( pSetupReqPak->wIndex ) & 0xff ) == 1 )    //接口1报表描述符
    2a64:	4685                	li	a3,1
    2a66:	00d79c63          	bne	a5,a3,2a7e <USB_DevTransProcess+0x38e>
E:\tp78_v2\mounriver_project\RF_CH582M\obj/../HAL/USB.c:318
                  pDescr = MouseRepDesc;                                //数据准备上传
    2a6a:	00004797          	auipc	a5,0x4
    2a6e:	b0278793          	addi	a5,a5,-1278 # 656c <MouseRepDesc>
    2a72:	86f1a623          	sw	a5,-1940(gp) # 20001884 <pDescr>
E:\tp78_v2\mounriver_project\RF_CH582M\obj/../HAL/USB.c:274
      errflag = 0;
    2a76:	4401                	li	s0,0
E:\tp78_v2\mounriver_project\RF_CH582M\obj/../HAL/USB.c:319
                  len = sizeof( MouseRepDesc );
    2a78:	03400793          	li	a5,52
    2a7c:	b7ad                	j	29e6 <USB_DevTransProcess+0x2f6>
E:\tp78_v2\mounriver_project\RF_CH582M\obj/../HAL/USB.c:321
                else if ( ( ( pSetupReqPak->wIndex ) & 0xff ) == 2 )    //接口2报表描述符
    2a7e:	04c79f63          	bne	a5,a2,2adc <USB_DevTransProcess+0x3ec>
E:\tp78_v2\mounriver_project\RF_CH582M\obj/../HAL/USB.c:323
                  pDescr = VolumeRepDesc;                               //数据准备上传
    2a82:	00004797          	auipc	a5,0x4
    2a86:	bba78793          	addi	a5,a5,-1094 # 663c <VolumeRepDesc>
    2a8a:	86f1a623          	sw	a5,-1940(gp) # 20001884 <pDescr>
E:\tp78_v2\mounriver_project\RF_CH582M\obj/../HAL/USB.c:274
      errflag = 0;
    2a8e:	4401                	li	s0,0
E:\tp78_v2\mounriver_project\RF_CH582M\obj/../HAL/USB.c:324
                  len = sizeof( VolumeRepDesc );                        //如果有更多接口，该标准位应该在最后一个接口配置完成后有效
    2a90:	02100793          	li	a5,33
    2a94:	bf89                	j	29e6 <USB_DevTransProcess+0x2f6>
E:\tp78_v2\mounriver_project\RF_CH582M\obj/../HAL/USB.c:336
                switch ( ( pSetupReqPak->wValue ) & 0xff )
    2a96:	0ff7f793          	andi	a5,a5,255
    2a9a:	4685                	li	a3,1
    2a9c:	00d78e63          	beq	a5,a3,2ab8 <USB_DevTransProcess+0x3c8>
    2aa0:	c78d                	beqz	a5,2aca <USB_DevTransProcess+0x3da>
    2aa2:	f0c792e3          	bne	a5,a2,29a6 <USB_DevTransProcess+0x2b6>
E:\tp78_v2\mounriver_project\RF_CH582M\obj/../HAL/USB.c:343
                    pDescr = MyProdInfo;
    2aa6:	00004797          	auipc	a5,0x4
    2aaa:	b8a78793          	addi	a5,a5,-1142 # 6630 <MyProdInfo>
    2aae:	86f1a623          	sw	a5,-1940(gp) # 20001884 <pDescr>
E:\tp78_v2\mounriver_project\RF_CH582M\obj/../HAL/USB.c:274
      errflag = 0;
    2ab2:	4401                	li	s0,0
E:\tp78_v2\mounriver_project\RF_CH582M\obj/../HAL/USB.c:344
                    len = MyProdInfo[0];
    2ab4:	47a9                	li	a5,10
    2ab6:	bf05                	j	29e6 <USB_DevTransProcess+0x2f6>
E:\tp78_v2\mounriver_project\RF_CH582M\obj/../HAL/USB.c:339
                    pDescr = MyManuInfo;
    2ab8:	00004797          	auipc	a5,0x4
    2abc:	b6878793          	addi	a5,a5,-1176 # 6620 <MyManuInfo>
    2ac0:	86f1a623          	sw	a5,-1940(gp) # 20001884 <pDescr>
E:\tp78_v2\mounriver_project\RF_CH582M\obj/../HAL/USB.c:274
      errflag = 0;
    2ac4:	4401                	li	s0,0
E:\tp78_v2\mounriver_project\RF_CH582M\obj/../HAL/USB.c:340
                    len = MyManuInfo[0];
    2ac6:	47b9                	li	a5,14
    2ac8:	bf39                	j	29e6 <USB_DevTransProcess+0x2f6>
E:\tp78_v2\mounriver_project\RF_CH582M\obj/../HAL/USB.c:347
                    pDescr = MyLangDescr;
    2aca:	00004797          	auipc	a5,0x4
    2ace:	baa78793          	addi	a5,a5,-1110 # 6674 <MyLangDescr>
    2ad2:	86f1a623          	sw	a5,-1940(gp) # 20001884 <pDescr>
E:\tp78_v2\mounriver_project\RF_CH582M\obj/../HAL/USB.c:274
      errflag = 0;
    2ad6:	4401                	li	s0,0
E:\tp78_v2\mounriver_project\RF_CH582M\obj/../HAL/USB.c:348
                    len = MyLangDescr[0];
    2ad8:	4791                	li	a5,4
    2ada:	b731                	j	29e6 <USB_DevTransProcess+0x2f6>
E:\tp78_v2\mounriver_project\RF_CH582M\obj/../HAL/USB.c:274
      errflag = 0;
    2adc:	4401                	li	s0,0
E:\tp78_v2\mounriver_project\RF_CH582M\obj/../HAL/USB.c:329
                  len = 0xff;                                           //本程序只有4个接口，这句话正常不可能执行
    2ade:	0ff00793          	li	a5,255
    2ae2:	b711                	j	29e6 <USB_DevTransProcess+0x2f6>
E:\tp78_v2\mounriver_project\RF_CH582M\obj/../HAL/USB.c:371
            SetupReqLen = ( pSetupReqPak->wValue ) & 0xff;
    2ae4:	00254783          	lbu	a5,2(a0)
E:\tp78_v2\mounriver_project\RF_CH582M\obj/../HAL/USB.c:422
              SetupReqLen = 2;
    2ae8:	86f19323          	sh	a5,-1946(gp) # 2000187e <SetupReqLen>
E:\tp78_v2\mounriver_project\RF_CH582M\obj/../HAL/USB.c:430
      if ( errflag == 0xff )        // 错误或不支持
    2aec:	b945                	j	279c <USB_DevTransProcess+0xac>
E:\tp78_v2\mounriver_project\RF_CH582M\obj/../HAL/USB.c:375
            pEP0_DataBuf[0] = DevConfig;
    2aee:	8641c783          	lbu	a5,-1948(gp) # 2000187c <DevConfig>
    2af2:	00f50023          	sb	a5,0(a0)
E:\tp78_v2\mounriver_project\RF_CH582M\obj/../HAL/USB.c:376
            if ( SetupReqLen > 1 )
    2af6:	8661d703          	lhu	a4,-1946(gp) # 2000187e <SetupReqLen>
    2afa:	4785                	li	a5,1
    2afc:	cae7f0e3          	bgeu	a5,a4,279c <USB_DevTransProcess+0xac>
E:\tp78_v2\mounriver_project\RF_CH582M\obj/../HAL/USB.c:377
              SetupReqLen = 1;
    2b00:	4785                	li	a5,1
    2b02:	b7dd                	j	2ae8 <USB_DevTransProcess+0x3f8>
E:\tp78_v2\mounriver_project\RF_CH582M\obj/../HAL/USB.c:381
            DevConfig = ( pSetupReqPak->wValue ) & 0xff;
    2b04:	00254783          	lbu	a5,2(a0)
    2b08:	86f18223          	sb	a5,-1948(gp) # 2000187c <DevConfig>
E:\tp78_v2\mounriver_project\RF_CH582M\obj/../HAL/USB.c:430
      if ( errflag == 0xff )        // 错误或不支持
    2b0c:	b941                	j	279c <USB_DevTransProcess+0xac>
E:\tp78_v2\mounriver_project\RF_CH582M\obj/../HAL/USB.c:386
            if ( ( pSetupReqPak->bRequestType & USB_REQ_RECIP_MASK ) == USB_REQ_RECIP_ENDP )    // 端点
    2b0e:	01f97713          	andi	a4,s2,31
    2b12:	4789                	li	a5,2
    2b14:	f0f71ce3          	bne	a4,a5,2a2c <USB_DevTransProcess+0x33c>
E:\tp78_v2\mounriver_project\RF_CH582M\obj/../HAL/USB.c:388
              switch ( ( pSetupReqPak->wIndex ) & 0xff )
    2b18:	00454783          	lbu	a5,4(a0)
    2b1c:	04e78163          	beq	a5,a4,2b5e <USB_DevTransProcess+0x46e>
    2b20:	00f76c63          	bltu	a4,a5,2b38 <USB_DevTransProcess+0x448>
    2b24:	4705                	li	a4,1
    2b26:	f0e793e3          	bne	a5,a4,2a2c <USB_DevTransProcess+0x33c>
E:\tp78_v2\mounriver_project\RF_CH582M\obj/../HAL/USB.c:400
                  R8_UEP1_CTRL = ( R8_UEP1_CTRL & ~( RB_UEP_R_TOG | MASK_UEP_R_RES ) ) | UEP_R_RES_ACK;
    2b2a:	40008737          	lui	a4,0x40008
    2b2e:	02674783          	lbu	a5,38(a4) # 40008026 <_eusrstack+0x20000026>
    2b32:	0737f793          	andi	a5,a5,115
    2b36:	a099                	j	2b7c <USB_DevTransProcess+0x48c>
    2b38:	08100713          	li	a4,129
    2b3c:	02e78863          	beq	a5,a4,2b6c <USB_DevTransProcess+0x47c>
    2b40:	08200713          	li	a4,130
    2b44:	eee794e3          	bne	a5,a4,2a2c <USB_DevTransProcess+0x33c>
E:\tp78_v2\mounriver_project\RF_CH582M\obj/../HAL/USB.c:391
                  R8_UEP2_CTRL = ( R8_UEP2_CTRL & ~( RB_UEP_T_TOG | MASK_UEP_T_RES ) ) | UEP_T_RES_NAK;
    2b48:	40008737          	lui	a4,0x40008
    2b4c:	02a74783          	lbu	a5,42(a4) # 4000802a <_eusrstack+0x2000002a>
    2b50:	0bc7f793          	andi	a5,a5,188
    2b54:	0027e793          	ori	a5,a5,2
E:\tp78_v2\mounriver_project\RF_CH582M\obj/../HAL/USB.c:394
                  R8_UEP2_CTRL = ( R8_UEP2_CTRL & ~( RB_UEP_R_TOG | MASK_UEP_R_RES ) ) | UEP_R_RES_ACK;
    2b58:	02f70523          	sb	a5,42(a4)
E:\tp78_v2\mounriver_project\RF_CH582M\obj/../HAL/USB.c:430
      if ( errflag == 0xff )        // 错误或不支持
    2b5c:	b181                	j	279c <USB_DevTransProcess+0xac>
E:\tp78_v2\mounriver_project\RF_CH582M\obj/../HAL/USB.c:394
                  R8_UEP2_CTRL = ( R8_UEP2_CTRL & ~( RB_UEP_R_TOG | MASK_UEP_R_RES ) ) | UEP_R_RES_ACK;
    2b5e:	40008737          	lui	a4,0x40008
    2b62:	02a74783          	lbu	a5,42(a4) # 4000802a <_eusrstack+0x2000002a>
    2b66:	0737f793          	andi	a5,a5,115
    2b6a:	b7fd                	j	2b58 <USB_DevTransProcess+0x468>
E:\tp78_v2\mounriver_project\RF_CH582M\obj/../HAL/USB.c:397
                  R8_UEP1_CTRL = ( R8_UEP1_CTRL & ~( RB_UEP_T_TOG | MASK_UEP_T_RES ) ) | UEP_T_RES_NAK;
    2b6c:	40008737          	lui	a4,0x40008
    2b70:	02674783          	lbu	a5,38(a4) # 40008026 <_eusrstack+0x20000026>
    2b74:	0bc7f793          	andi	a5,a5,188
    2b78:	0027e793          	ori	a5,a5,2
E:\tp78_v2\mounriver_project\RF_CH582M\obj/../HAL/USB.c:400
                  R8_UEP1_CTRL = ( R8_UEP1_CTRL & ~( RB_UEP_R_TOG | MASK_UEP_R_RES ) ) | UEP_R_RES_ACK;
    2b7c:	02f70323          	sb	a5,38(a4)
E:\tp78_v2\mounriver_project\RF_CH582M\obj/../HAL/USB.c:430
      if ( errflag == 0xff )        // 错误或不支持
    2b80:	b931                	j	279c <USB_DevTransProcess+0xac>
E:\tp78_v2\mounriver_project\RF_CH582M\obj/../HAL/USB.c:413
            pEP0_DataBuf[0] = 0x00;
    2b82:	00050023          	sb	zero,0(a0)
E:\tp78_v2\mounriver_project\RF_CH582M\obj/../HAL/USB.c:414
            if ( SetupReqLen > 1 )
    2b86:	bf85                	j	2af6 <USB_DevTransProcess+0x406>
E:\tp78_v2\mounriver_project\RF_CH582M\obj/../HAL/USB.c:419
            pEP0_DataBuf[0] = 0x00;
    2b88:	00050023          	sb	zero,0(a0)
E:\tp78_v2\mounriver_project\RF_CH582M\obj/../HAL/USB.c:420
            pEP0_DataBuf[1] = 0x00;
    2b8c:	429c                	lw	a5,0(a3)
    2b8e:	000780a3          	sb	zero,1(a5)
E:\tp78_v2\mounriver_project\RF_CH582M\obj/../HAL/USB.c:421
            if ( SetupReqLen > 2 )
    2b92:	8661d703          	lhu	a4,-1946(gp) # 2000187e <SetupReqLen>
    2b96:	4789                	li	a5,2
    2b98:	c0e7f2e3          	bgeu	a5,a4,279c <USB_DevTransProcess+0xac>
    2b9c:	b7b1                	j	2ae8 <USB_DevTransProcess+0x3f8>
E:\tp78_v2\mounriver_project\RF_CH582M\obj/../HAL/USB.c:452
  else if ( intflag & RB_UIF_BUS_RST )
    2b9e:	00177693          	andi	a3,a4,1
    2ba2:	c28d                	beqz	a3,2bc4 <USB_DevTransProcess+0x4d4>
E:\tp78_v2\mounriver_project\RF_CH582M\obj/../HAL/USB.c:454
    R8_USB_DEV_AD = 0;
    2ba4:	000781a3          	sb	zero,3(a5)
E:\tp78_v2\mounriver_project\RF_CH582M\obj/../HAL/USB.c:455
    R8_UEP0_CTRL = UEP_R_RES_ACK | UEP_T_RES_NAK;
    2ba8:	4709                	li	a4,2
    2baa:	02e78123          	sb	a4,34(a5)
E:\tp78_v2\mounriver_project\RF_CH582M\obj/../HAL/USB.c:456
    R8_UEP1_CTRL = UEP_R_RES_ACK | UEP_T_RES_NAK | RB_UEP_AUTO_TOG;
    2bae:	4749                	li	a4,18
    2bb0:	02e78323          	sb	a4,38(a5)
E:\tp78_v2\mounriver_project\RF_CH582M\obj/../HAL/USB.c:457
    R8_UEP2_CTRL = UEP_R_RES_ACK | UEP_T_RES_NAK | RB_UEP_AUTO_TOG;
    2bb4:	02e78523          	sb	a4,42(a5)
E:\tp78_v2\mounriver_project\RF_CH582M\obj/../HAL/USB.c:458
    R8_UEP3_CTRL = UEP_R_RES_ACK | UEP_T_RES_NAK | RB_UEP_AUTO_TOG;
    2bb8:	02e78723          	sb	a4,46(a5)
E:\tp78_v2\mounriver_project\RF_CH582M\obj/../HAL/USB.c:459
    R8_USB_INT_FG = RB_UIF_BUS_RST;
    2bbc:	4705                	li	a4,1
E:\tp78_v2\mounriver_project\RF_CH582M\obj/../HAL/USB.c:475
    R8_USB_INT_FG = intflag;
    2bbe:	00e78323          	sb	a4,6(a5)
    2bc2:	8082                	ret
E:\tp78_v2\mounriver_project\RF_CH582M\obj/../HAL/USB.c:461
  else if ( intflag & RB_UIF_SUSPEND )
    2bc4:	00477693          	andi	a3,a4,4
    2bc8:	dafd                	beqz	a3,2bbe <USB_DevTransProcess+0x4ce>
E:\tp78_v2\mounriver_project\RF_CH582M\obj/../HAL/USB.c:463
    if ( R8_USB_MIS_ST & RB_UMS_SUSPEND )
    2bca:	0057c703          	lbu	a4,5(a5)
    2bce:	8309                	srli	a4,a4,0x2
    2bd0:	00174713          	xori	a4,a4,1
    2bd4:	8b05                	andi	a4,a4,1
    2bd6:	80e18523          	sb	a4,-2038(gp) # 20001822 <USB_Ready>
E:\tp78_v2\mounriver_project\RF_CH582M\obj/../HAL/USB.c:471
    R8_USB_INT_FG = RB_UIF_SUSPEND;
    2bda:	4711                	li	a4,4
    2bdc:	b7cd                	j	2bbe <USB_DevTransProcess+0x4ce>

00002bde <RF_2G4StatusCallBack>:
RF_2G4StatusCallBack():
E:\tp78_v2\mounriver_project\RF_CH582M\obj/../APP/RF_PHY.c:38
    switch(sta)
    2bde:	478d                	li	a5,3
    2be0:	00f50a63          	beq	a0,a5,2bf4 <RF_2G4StatusCallBack+0x16>
    2be4:	4791                	li	a5,4
    2be6:	0af50463          	beq	a0,a5,2c8e <RF_2G4StatusCallBack+0xb0>
    2bea:	4789                	li	a5,2
    2bec:	0af51063          	bne	a0,a5,2c8c <RF_2G4StatusCallBack+0xae>
E:\tp78_v2\mounriver_project\RF_CH582M\obj/../APP/RF_PHY.c:50
            RF_Shut();
    2bf0:	2d20206f          	j	4ec2 <RF_Shut>
E:\tp78_v2\mounriver_project\RF_CH582M\obj/../APP/RF_PHY.c:92
            if(crc == 1)
    2bf4:	15fd                	addi	a1,a1,-1
    2bf6:	0ff5f593          	andi	a1,a1,255
    2bfa:	4785                	li	a5,1
    2bfc:	08b7f963          	bgeu	a5,a1,2c8e <RF_2G4StatusCallBack+0xb0>
E:\tp78_v2\mounriver_project\RF_CH582M\obj/../APP/RF_PHY.c:105
                if (rxBuf[1] <= sizeof(HID_dat)) {
    2c00:	00164703          	lbu	a4,1(a2)
    2c04:	47a5                	li	a5,9
    2c06:	08e7e463          	bltu	a5,a4,2c8e <RF_2G4StatusCallBack+0xb0>
E:\tp78_v2\mounriver_project\RF_CH582M\obj/../APP/RF_PHY.c:106
                    if (rxBuf[2] == 0x7A) {   //jump to boot
    2c0a:	00264703          	lbu	a4,2(a2)
E:\tp78_v2\mounriver_project\RF_CH582M\obj/../APP/RF_PHY.c:37
{
    2c0e:	1141                	addi	sp,sp,-16
    2c10:	c606                	sw	ra,12(sp)
E:\tp78_v2\mounriver_project\RF_CH582M\obj/../APP/RF_PHY.c:106
                    if (rxBuf[2] == 0x7A) {   //jump to boot
    2c12:	07a00793          	li	a5,122
    2c16:	00f71c63          	bne	a4,a5,2c2e <RF_2G4StatusCallBack+0x50>
E:\tp78_v2\mounriver_project\RF_CH582M\obj/../APP/RF_PHY.c:108
                        APPJumpBoot();
    2c1a:	1fffd097          	auipc	ra,0x1fffd
    2c1e:	6c8080e7          	jalr	1736(ra) # 200002e2 <APPJumpBoot>
E:\tp78_v2\mounriver_project\RF_CH582M\obj/../APP/RF_PHY.c:140
}
    2c22:	40b2                	lw	ra,12(sp)
E:\tp78_v2\mounriver_project\RF_CH582M\obj/../APP/RF_PHY.c:126
            tmos_set_event(RFtaskID, SBP_RF_RF_RX_EVT);
    2c24:	abc1c503          	lbu	a0,-1348(gp) # 20001ad4 <RFtaskID>
    2c28:	4591                	li	a1,4
E:\tp78_v2\mounriver_project\RF_CH582M\obj/../APP/RF_PHY.c:140
}
    2c2a:	0141                	addi	sp,sp,16
E:\tp78_v2\mounriver_project\RF_CH582M\obj/../APP/RF_PHY.c:126
            tmos_set_event(RFtaskID, SBP_RF_RF_RX_EVT);
    2c2c:	a9d1                	j	3100 <tmos_set_event>
E:\tp78_v2\mounriver_project\RF_CH582M\obj/../APP/RF_PHY.c:109
                    } else if (rxBuf[2] == 0x78) {   //heartbeat
    2c2e:	07800593          	li	a1,120
E:\tp78_v2\mounriver_project\RF_CH582M\obj/../APP/RF_PHY.c:112
                        for(i = 0; i < rxBuf[1]; i++) {
    2c32:	4781                	li	a5,0
E:\tp78_v2\mounriver_project\RF_CH582M\obj/../APP/RF_PHY.c:114
                            *((uint8_t*)&HID_dat + i) = rxBuf[i + 2];
    2c34:	9b018693          	addi	a3,gp,-1616 # 200019c8 <HID_dat>
E:\tp78_v2\mounriver_project\RF_CH582M\obj/../APP/RF_PHY.c:109
                    } else if (rxBuf[2] == 0x78) {   //heartbeat
    2c38:	02b71063          	bne	a4,a1,2c58 <RF_2G4StatusCallBack+0x7a>
E:\tp78_v2\mounriver_project\RF_CH582M\obj/../APP/RF_PHY.c:110
                        heartbeat_cnt = 0;
    2c3c:	8001a623          	sw	zero,-2036(gp) # 20001824 <heartbeat_cnt>
    2c40:	b7cd                	j	2c22 <RF_2G4StatusCallBack+0x44>
E:\tp78_v2\mounriver_project\RF_CH582M\obj/../APP/RF_PHY.c:114
                            *((uint8_t*)&HID_dat + i) = rxBuf[i + 2];
    2c42:	00f60733          	add	a4,a2,a5
    2c46:	00274583          	lbu	a1,2(a4)
    2c4a:	00d78733          	add	a4,a5,a3
E:\tp78_v2\mounriver_project\RF_CH582M\obj/../APP/RF_PHY.c:112
                        for(i = 0; i < rxBuf[1]; i++) {
    2c4e:	0785                	addi	a5,a5,1
E:\tp78_v2\mounriver_project\RF_CH582M\obj/../APP/RF_PHY.c:114
                            *((uint8_t*)&HID_dat + i) = rxBuf[i + 2];
    2c50:	00b70023          	sb	a1,0(a4)
E:\tp78_v2\mounriver_project\RF_CH582M\obj/../APP/RF_PHY.c:112
                        for(i = 0; i < rxBuf[1]; i++) {
    2c54:	0ff7f793          	andi	a5,a5,255
    2c58:	00164703          	lbu	a4,1(a2)
    2c5c:	fee7e3e3          	bltu	a5,a4,2c42 <RF_2G4StatusCallBack+0x64>
E:\tp78_v2\mounriver_project\RF_CH582M\obj/../APP/RF_PHY.c:116
                        if (USB_Ready == TRUE) {
    2c60:	80a1c703          	lbu	a4,-2038(gp) # 20001822 <USB_Ready>
    2c64:	4785                	li	a5,1
    2c66:	faf71ee3          	bne	a4,a5,2c22 <RF_2G4StatusCallBack+0x44>
E:\tp78_v2\mounriver_project\RF_CH582M\obj/../APP/RF_PHY.c:117
                            lastevent[1<<HID_dat.label] = TRUE;
    2c6a:	9b01c583          	lbu	a1,-1616(gp) # 200019c8 <HID_dat>
    2c6e:	00b715b3          	sll	a1,a4,a1
    2c72:	81018793          	addi	a5,gp,-2032 # 20001828 <lastevent>
    2c76:	97ae                	add	a5,a5,a1
E:\tp78_v2\mounriver_project\RF_CH582M\obj/../APP/RF_PHY.c:118
                            tmos_set_event(usbTaskID, 1<<HID_dat.label);
    2c78:	05c2                	slli	a1,a1,0x10
    2c7a:	81c1                	srli	a1,a1,0x10
    2c7c:	1ffff517          	auipc	a0,0x1ffff
    2c80:	b9c54503          	lbu	a0,-1124(a0) # 20001818 <usbTaskID>
E:\tp78_v2\mounriver_project\RF_CH582M\obj/../APP/RF_PHY.c:117
                            lastevent[1<<HID_dat.label] = TRUE;
    2c84:	00e78023          	sb	a4,0(a5)
E:\tp78_v2\mounriver_project\RF_CH582M\obj/../APP/RF_PHY.c:118
                            tmos_set_event(usbTaskID, 1<<HID_dat.label);
    2c88:	29a5                	jal	3100 <tmos_set_event>
    2c8a:	bf61                	j	2c22 <RF_2G4StatusCallBack+0x44>
    2c8c:	8082                	ret
E:\tp78_v2\mounriver_project\RF_CH582M\obj/../APP/RF_PHY.c:126
            tmos_set_event(RFtaskID, SBP_RF_RF_RX_EVT);
    2c8e:	4591                	li	a1,4
    2c90:	abc1c503          	lbu	a0,-1348(gp) # 20001ad4 <RFtaskID>
    2c94:	bf61                	j	2c2c <RF_2G4StatusCallBack+0x4e>

00002c96 <RF_ProcessEvent>:
RF_ProcessEvent():
E:\tp78_v2\mounriver_project\RF_CH582M\obj/../APP/RF_PHY.c:153
{
    2c96:	1141                	addi	sp,sp,-16
E:\tp78_v2\mounriver_project\RF_CH582M\obj/../APP/RF_PHY.c:154
    if(events & SYS_EVENT_MSG)
    2c98:	01059793          	slli	a5,a1,0x10
E:\tp78_v2\mounriver_project\RF_CH582M\obj/../APP/RF_PHY.c:153
{
    2c9c:	c422                	sw	s0,8(sp)
    2c9e:	c606                	sw	ra,12(sp)
E:\tp78_v2\mounriver_project\RF_CH582M\obj/../APP/RF_PHY.c:154
    if(events & SYS_EVENT_MSG)
    2ca0:	87c1                	srai	a5,a5,0x10
E:\tp78_v2\mounriver_project\RF_CH582M\obj/../APP/RF_PHY.c:153
{
    2ca2:	842e                	mv	s0,a1
E:\tp78_v2\mounriver_project\RF_CH582M\obj/../APP/RF_PHY.c:154
    if(events & SYS_EVENT_MSG)
    2ca4:	0007db63          	bgez	a5,2cba <RF_ProcessEvent+0x24>
E:\tp78_v2\mounriver_project\RF_CH582M\obj/../APP/RF_PHY.c:158
        if((pMsg = tmos_msg_receive(task_id)) != NULL)
    2ca8:	2a81                	jal	2df8 <tmos_msg_receive>
    2caa:	c111                	beqz	a0,2cae <RF_ProcessEvent+0x18>
E:\tp78_v2\mounriver_project\RF_CH582M\obj/../APP/RF_PHY.c:161
            tmos_msg_deallocate(pMsg);
    2cac:	2205                	jal	2dcc <tmos_msg_deallocate>
E:\tp78_v2\mounriver_project\RF_CH582M\obj/../APP/RF_PHY.c:164
        return (events ^ SYS_EVENT_MSG);
    2cae:	6521                	lui	a0,0x8
    2cb0:	8d21                	xor	a0,a0,s0
E:\tp78_v2\mounriver_project\RF_CH582M\obj/../APP/RF_PHY.c:195
}
    2cb2:	40b2                	lw	ra,12(sp)
    2cb4:	4422                	lw	s0,8(sp)
    2cb6:	0141                	addi	sp,sp,16
    2cb8:	8082                	ret
E:\tp78_v2\mounriver_project\RF_CH582M\obj/../APP/RF_PHY.c:178
    if(events & SBP_RF_RF_RX_EVT)
    2cba:	0045f793          	andi	a5,a1,4
    2cbe:	cf99                	beqz	a5,2cdc <RF_ProcessEvent+0x46>
E:\tp78_v2\mounriver_project\RF_CH582M\obj/../APP/RF_PHY.c:181
        RF_Shut();
    2cc0:	202020ef          	jal	ra,4ec2 <RF_Shut>
E:\tp78_v2\mounriver_project\RF_CH582M\obj/../APP/RF_PHY.c:182
        state = RF_Rx(CAPSLOCK_DATA, 2, 0xFF, 0xFF);
    2cc4:	0ff00693          	li	a3,255
    2cc8:	0ff00613          	li	a2,255
    2ccc:	4589                	li	a1,2
    2cce:	80418513          	addi	a0,gp,-2044 # 2000181c <CAPSLOCK_DATA>
    2cd2:	26b010ef          	jal	ra,473c <RF_Rx>
E:\tp78_v2\mounriver_project\RF_CH582M\obj/../APP/RF_PHY.c:184
        return events ^ SBP_RF_RF_RX_EVT;
    2cd6:	00444513          	xori	a0,s0,4
    2cda:	bfe1                	j	2cb2 <RF_ProcessEvent+0x1c>
E:\tp78_v2\mounriver_project\RF_CH582M\obj/../APP/RF_PHY.c:186
    if(events & SBP_RF_CAPSLOCK_TX_EVT)
    2cdc:	0085f793          	andi	a5,a1,8
E:\tp78_v2\mounriver_project\RF_CH582M\obj/../APP/RF_PHY.c:194
    return 0;
    2ce0:	4501                	li	a0,0
E:\tp78_v2\mounriver_project\RF_CH582M\obj/../APP/RF_PHY.c:186
    if(events & SBP_RF_CAPSLOCK_TX_EVT)
    2ce2:	dbe1                	beqz	a5,2cb2 <RF_ProcessEvent+0x1c>
E:\tp78_v2\mounriver_project\RF_CH582M\obj/../APP/RF_PHY.c:189
        RF_Shut();
    2ce4:	1de020ef          	jal	ra,4ec2 <RF_Shut>
E:\tp78_v2\mounriver_project\RF_CH582M\obj/../APP/RF_PHY.c:190
        state = RF_Rx(CAPSLOCK_DATA, 2, 0xFF, 0xFF);
    2ce8:	0ff00693          	li	a3,255
    2cec:	0ff00613          	li	a2,255
    2cf0:	4589                	li	a1,2
    2cf2:	80418513          	addi	a0,gp,-2044 # 2000181c <CAPSLOCK_DATA>
    2cf6:	247010ef          	jal	ra,473c <RF_Rx>
E:\tp78_v2\mounriver_project\RF_CH582M\obj/../APP/RF_PHY.c:192
        return events ^ SBP_RF_CAPSLOCK_TX_EVT;
    2cfa:	00844513          	xori	a0,s0,8
    2cfe:	bf55                	j	2cb2 <RF_ProcessEvent+0x1c>

00002d00 <RF_Init>:
RF_Init():
E:\tp78_v2\mounriver_project\RF_CH582M\obj/../APP/RF_PHY.c:205
{
    2d00:	7179                	addi	sp,sp,-48
E:\tp78_v2\mounriver_project\RF_CH582M\obj/../APP/RF_PHY.c:209
    tmos_memset(&rfConfig, 0, sizeof(rfConfig_t));
    2d02:	02000613          	li	a2,32
    2d06:	4581                	li	a1,0
    2d08:	850a                	mv	a0,sp
E:\tp78_v2\mounriver_project\RF_CH582M\obj/../APP/RF_PHY.c:205
{
    2d0a:	d606                	sw	ra,44(sp)
E:\tp78_v2\mounriver_project\RF_CH582M\obj/../APP/RF_PHY.c:209
    tmos_memset(&rfConfig, 0, sizeof(rfConfig_t));
    2d0c:	1fffe097          	auipc	ra,0x1fffe
    2d10:	b9e080e7          	jalr	-1122(ra) # 200008aa <tmos_memset>
E:\tp78_v2\mounriver_project\RF_CH582M\obj/../APP/RF_PHY.c:210
    RFtaskID = TMOS_ProcessEventRegister(RF_ProcessEvent);
    2d14:	00000517          	auipc	a0,0x0
    2d18:	f8250513          	addi	a0,a0,-126 # 2c96 <RF_ProcessEvent>
    2d1c:	2d71                	jal	33b8 <TMOS_ProcessEventRegister>
    2d1e:	aaa18e23          	sb	a0,-1348(gp) # 20001ad4 <RFtaskID>
E:\tp78_v2\mounriver_project\RF_CH582M\obj/../APP/RF_PHY.c:211
    rfConfig.accessAddress = 0x71764129; // 禁止使用0x55555555以及0xAAAAAAAA ( 建议不超过24次位反转，且不超过连续的6个0或1 )
    2d22:	717647b7          	lui	a5,0x71764
    2d26:	12978793          	addi	a5,a5,297 # 71764129 <_eusrstack+0x5175c129>
    2d2a:	c43e                	sw	a5,8(sp)
E:\tp78_v2\mounriver_project\RF_CH582M\obj/../APP/RF_PHY.c:212
    rfConfig.CRCInit = 0x555555;
    2d2c:	005557b7          	lui	a5,0x555
    2d30:	55578793          	addi	a5,a5,1365 # 555555 <_data_lma+0x54eedd>
    2d34:	c63e                	sw	a5,12(sp)
E:\tp78_v2\mounriver_project\RF_CH582M\obj/../APP/RF_PHY.c:214
    rfConfig.Frequency = 2405000;
    2d36:	0024b7b7          	lui	a5,0x24b
    2d3a:	28878793          	addi	a5,a5,648 # 24b288 <_data_lma+0x244c10>
    2d3e:	c23e                	sw	a5,4(sp)
E:\tp78_v2\mounriver_project\RF_CH582M\obj/../APP/RF_PHY.c:215
    rfConfig.LLEMode = LLE_MODE_AUTO | LLE_MODE_EX_CHANNEL; // 使能 LLE_MODE_EX_CHANNEL 表示 选择 rfConfig.Frequency 作为通信频点
    2d40:	6785                	lui	a5,0x1
    2d42:	84178793          	addi	a5,a5,-1983 # 841 <_einit+0x83d>
    2d46:	00f11023          	sh	a5,0(sp)
E:\tp78_v2\mounriver_project\RF_CH582M\obj/../APP/RF_PHY.c:216
    rfConfig.rfStatusCB = RF_2G4StatusCallBack;
    2d4a:	00000797          	auipc	a5,0x0
    2d4e:	e9478793          	addi	a5,a5,-364 # 2bde <RF_2G4StatusCallBack>
    2d52:	c83e                	sw	a5,16(sp)
E:\tp78_v2\mounriver_project\RF_CH582M\obj/../APP/RF_PHY.c:218
    state = RF_Config(&rfConfig);
    2d54:	850a                	mv	a0,sp
E:\tp78_v2\mounriver_project\RF_CH582M\obj/../APP/RF_PHY.c:217
    rfConfig.RxMaxlen = 251;
    2d56:	57ed                	li	a5,-5
    2d58:	00f10e23          	sb	a5,28(sp)
E:\tp78_v2\mounriver_project\RF_CH582M\obj/../APP/RF_PHY.c:218
    state = RF_Config(&rfConfig);
    2d5c:	5fc010ef          	jal	ra,4358 <RF_Config>
E:\tp78_v2\mounriver_project\RF_CH582M\obj/../APP/RF_PHY.c:221
        state = RF_Rx(CAPSLOCK_DATA, 2, 0xFF, 0xFF);
    2d60:	0ff00693          	li	a3,255
    2d64:	0ff00613          	li	a2,255
    2d68:	4589                	li	a1,2
    2d6a:	80418513          	addi	a0,gp,-2044 # 2000181c <CAPSLOCK_DATA>
    2d6e:	1cf010ef          	jal	ra,473c <RF_Rx>
E:\tp78_v2\mounriver_project\RF_CH582M\obj/../APP/RF_PHY.c:226
    TMR0_TimerInit(FREQ_SYS / 1000);
    2d72:	653d                	lui	a0,0xf
    2d74:	a6050513          	addi	a0,a0,-1440 # ea60 <_data_lma+0x83e8>
    2d78:	89cff0ef          	jal	ra,1e14 <TMR0_TimerInit>
E:\tp78_v2\mounriver_project\RF_CH582M\obj/../APP/RF_PHY.c:227
    TMR0_ITCfg(ENABLE, TMR0_3_IT_CYC_END);
    2d7c:	40002737          	lui	a4,0x40002
    2d80:	00274783          	lbu	a5,2(a4) # 40002002 <_eusrstack+0x1fffa002>
    2d84:	0017e793          	ori	a5,a5,1
    2d88:	00f70123          	sb	a5,2(a4)
PFIC_EnableIRQ():
E:\tp78_v2\mounriver_project\RF_CH582M\RVMSIS/core_riscv.h:110
    2d8c:	e000e7b7          	lui	a5,0xe000e
    2d90:	6741                	lui	a4,0x10
    2d92:	10e7a023          	sw	a4,256(a5) # e000e100 <_eusrstack+0xc0006100>
PFIC_SetPriority():
E:\tp78_v2\mounriver_project\RF_CH582M\RVMSIS/core_riscv.h:207
    PFIC->IPRIOR[(uint32_t)(IRQn)] = priority;
    2d96:	4751                	li	a4,20
    2d98:	40e78823          	sb	a4,1040(a5)
RF_Init():
E:\tp78_v2\mounriver_project\RF_CH582M\obj/../APP/RF_PHY.c:234
}
    2d9c:	50b2                	lw	ra,44(sp)
    2d9e:	6145                	addi	sp,sp,48
    2da0:	8082                	ret

00002da2 <main>:
main():
E:\tp78_v2\mounriver_project\RF_CH582M\obj/../APP/RF_main.c:56
 * @brief   主函数
 *
 * @return  none
 */
int main(void)
{
    2da2:	1141                	addi	sp,sp,-16
E:\tp78_v2\mounriver_project\RF_CH582M\obj/../APP/RF_main.c:60
#if(defined(DCDC_ENABLE)) && (DCDC_ENABLE == TRUE)
    PWR_DCDCCfg(ENABLE);
#endif
    SetSysClock(CLK_SOURCE_PLL_60MHz);
    2da4:	04800513          	li	a0,72
E:\tp78_v2\mounriver_project\RF_CH582M\obj/../APP/RF_main.c:56
{
    2da8:	c606                	sw	ra,12(sp)
E:\tp78_v2\mounriver_project\RF_CH582M\obj/../APP/RF_main.c:60
    SetSysClock(CLK_SOURCE_PLL_60MHz);
    2daa:	1fffd097          	auipc	ra,0x1fffd
    2dae:	31c080e7          	jalr	796(ra) # 200000c6 <SetSysClock>
E:\tp78_v2\mounriver_project\RF_CH582M\obj/../APP/RF_main.c:72
    GPIOA_ModeCfg(bTXD1, GPIO_ModeOut_PP_5mA);
    UART1_DefInit();
#endif
    PRINT("start.\n");
    PRINT("%s\n", VER_LIB);
    CH58X_BLEInit();
    2db2:	dd6ff0ef          	jal	ra,2388 <CH58X_BLEInit>
E:\tp78_v2\mounriver_project\RF_CH582M\obj/../APP/RF_main.c:73
    HAL_Init();
    2db6:	ee6ff0ef          	jal	ra,249c <HAL_Init>
E:\tp78_v2\mounriver_project\RF_CH582M\obj/../APP/RF_main.c:74
    RF_RoleInit();
    2dba:	45a020ef          	jal	ra,5214 <RF_RoleInit>
E:\tp78_v2\mounriver_project\RF_CH582M\obj/../APP/RF_main.c:75
    RF_Init();
    2dbe:	3789                	jal	2d00 <RF_Init>
E:\tp78_v2\mounriver_project\RF_CH582M\obj/../APP/RF_main.c:76
    HAL_USBInit();
    2dc0:	841ff0ef          	jal	ra,2600 <HAL_USBInit>
E:\tp78_v2\mounriver_project\RF_CH582M\obj/../APP/RF_main.c:77
    Main_Circulation();
    2dc4:	1fffd097          	auipc	ra,0x1fffd
    2dc8:	680080e7          	jalr	1664(ra) # 20000444 <Main_Circulation>

00002dcc <tmos_msg_deallocate>:
tmos_msg_deallocate():
    2dcc:	c11d                	beqz	a0,2df2 <tmos_msg_deallocate+0x26>
    2dce:	ffe54683          	lbu	a3,-2(a0)
    2dd2:	0ff00713          	li	a4,255
    2dd6:	4791                	li	a5,4
    2dd8:	00e69e63          	bne	a3,a4,2df4 <tmos_msg_deallocate+0x28>
    2ddc:	1141                	addi	sp,sp,-16
    2dde:	c606                	sw	ra,12(sp)
    2de0:	1ffff097          	auipc	ra,0x1ffff
    2de4:	94a080e7          	jalr	-1718(ra) # 2000172a <tmos_memory_free>
    2de8:	40b2                	lw	ra,12(sp)
    2dea:	4781                	li	a5,0
    2dec:	853e                	mv	a0,a5
    2dee:	0141                	addi	sp,sp,16
    2df0:	8082                	ret
    2df2:	4795                	li	a5,5
    2df4:	853e                	mv	a0,a5
    2df6:	8082                	ret

00002df8 <tmos_msg_receive>:
tmos_msg_receive():
    2df8:	20000717          	auipc	a4,0x20000
    2dfc:	4e070713          	addi	a4,a4,1248 # 200032d8 <msg_qHead>
    2e00:	431c                	lw	a5,0(a4)
    2e02:	1141                	addi	sp,sp,-16
    2e04:	c422                	sw	s0,8(sp)
    2e06:	c226                	sw	s1,4(sp)
    2e08:	c04a                	sw	s2,0(sp)
    2e0a:	c606                	sw	ra,12(sp)
    2e0c:	4401                	li	s0,0
    2e0e:	4901                	li	s2,0
    2e10:	84ba                	mv	s1,a4
    2e12:	e789                	bnez	a5,2e1c <tmos_msg_receive+0x24>
    2e14:	65a1                	lui	a1,0x8
    2e16:	212d                	jal	3240 <tmos_stop_task>
    2e18:	c41d                	beqz	s0,2e46 <tmos_msg_receive+0x4e>
    2e1a:	a801                	j	2e2a <tmos_msg_receive+0x32>
    2e1c:	ffe7c703          	lbu	a4,-2(a5)
    2e20:	02a71a63          	bne	a4,a0,2e54 <tmos_msg_receive+0x5c>
    2e24:	cc0d                	beqz	s0,2e5e <tmos_msg_receive+0x66>
    2e26:	65a1                	lui	a1,0x8
    2e28:	2ce1                	jal	3100 <tmos_set_event>
    2e2a:	4098                	lw	a4,0(s1)
    2e2c:	ff842783          	lw	a5,-8(s0)
    2e30:	02e41963          	bne	s0,a4,2e62 <tmos_msg_receive+0x6a>
    2e34:	20000717          	auipc	a4,0x20000
    2e38:	4af72223          	sw	a5,1188(a4) # 200032d8 <msg_qHead>
    2e3c:	57fd                	li	a5,-1
    2e3e:	fe042c23          	sw	zero,-8(s0)
    2e42:	fef40f23          	sb	a5,-2(s0)
    2e46:	8522                	mv	a0,s0
    2e48:	40b2                	lw	ra,12(sp)
    2e4a:	4422                	lw	s0,8(sp)
    2e4c:	4492                	lw	s1,4(sp)
    2e4e:	4902                	lw	s2,0(sp)
    2e50:	0141                	addi	sp,sp,16
    2e52:	8082                	ret
    2e54:	e011                	bnez	s0,2e58 <tmos_msg_receive+0x60>
    2e56:	893e                	mv	s2,a5
    2e58:	ff87a783          	lw	a5,-8(a5)
    2e5c:	bf5d                	j	2e12 <tmos_msg_receive+0x1a>
    2e5e:	843e                	mv	s0,a5
    2e60:	bfe5                	j	2e58 <tmos_msg_receive+0x60>
    2e62:	fef92c23          	sw	a5,-8(s2)
    2e66:	bfd9                	j	2e3c <tmos_msg_receive+0x44>

00002e68 <tmos_msg_init>:
tmos_msg_init():
    2e68:	20000797          	auipc	a5,0x20000
    2e6c:	4607a823          	sw	zero,1136(a5) # 200032d8 <msg_qHead>
    2e70:	8082                	ret

00002e72 <tmosFindTask>:
tmosFindTask():
    2e72:	20000797          	auipc	a5,0x20000
    2e76:	4be78793          	addi	a5,a5,1214 # 20003330 <taskHead>
    2e7a:	439c                	lw	a5,0(a5)
    2e7c:	e399                	bnez	a5,2e82 <tmosFindTask+0x10>
    2e7e:	853e                	mv	a0,a5
    2e80:	8082                	ret
    2e82:	0027d703          	lhu	a4,2(a5)
    2e86:	00b71663          	bne	a4,a1,2e92 <tmosFindTask+0x20>
    2e8a:	0007c703          	lbu	a4,0(a5)
    2e8e:	fea708e3          	beq	a4,a0,2e7e <tmosFindTask+0xc>
    2e92:	47dc                	lw	a5,12(a5)
    2e94:	b7e5                	j	2e7c <tmosFindTask+0xa>

00002e96 <TMOS_CB_PeriodicProcessEvent>:
TMOS_CB_PeriodicProcessEvent():
    2e96:	c1c9                	beqz	a1,2f18 <TMOS_CB_PeriodicProcessEvent+0x82>
    2e98:	7179                	addi	sp,sp,-48
    2e9a:	d422                	sw	s0,40(sp)
    2e9c:	d606                	sw	ra,44(sp)
    2e9e:	d226                	sw	s1,36(sp)
    2ea0:	d04a                	sw	s2,32(sp)
    2ea2:	ce4e                	sw	s3,28(sp)
    2ea4:	4401                	li	s0,0
    2ea6:	4741                	li	a4,16
    2ea8:	4085d7b3          	sra	a5,a1,s0
    2eac:	8b85                	andi	a5,a5,1
    2eae:	c3a5                	beqz	a5,2f0e <TMOS_CB_PeriodicProcessEvent+0x78>
    2eb0:	0512                	slli	a0,a0,0x4
    2eb2:	4731                	li	a4,12
    2eb4:	9522                	add	a0,a0,s0
    2eb6:	02e50533          	mul	a0,a0,a4
    2eba:	20000797          	auipc	a5,0x20000
    2ebe:	4b678793          	addi	a5,a5,1206 # 20003370 <cbTimersHead>
    2ec2:	0007a903          	lw	s2,0(a5)
    2ec6:	4485                	li	s1,1
    2ec8:	008494b3          	sll	s1,s1,s0
    2ecc:	04c2                	slli	s1,s1,0x10
    2ece:	80c1                	srli	s1,s1,0x10
    2ed0:	89be                	mv	s3,a5
    2ed2:	992a                	add	s2,s2,a0
    2ed4:	00092703          	lw	a4,0(s2)
    2ed8:	c711                	beqz	a4,2ee4 <TMOS_CB_PeriodicProcessEvent+0x4e>
    2eda:	00492503          	lw	a0,4(s2)
    2ede:	c62e                	sw	a1,12(sp)
    2ee0:	9702                	jalr	a4
    2ee2:	45b2                	lw	a1,12(sp)
    2ee4:	4731                	li	a4,12
    2ee6:	02e40433          	mul	s0,s0,a4
    2eea:	0009a783          	lw	a5,0(s3)
    2eee:	943e                	add	s0,s0,a5
    2ef0:	441c                	lw	a5,8(s0)
    2ef2:	e789                	bnez	a5,2efc <TMOS_CB_PeriodicProcessEvent+0x66>
    2ef4:	00092023          	sw	zero,0(s2)
    2ef8:	00092223          	sw	zero,4(s2)
    2efc:	50b2                	lw	ra,44(sp)
    2efe:	5422                	lw	s0,40(sp)
    2f00:	8da5                	xor	a1,a1,s1
    2f02:	5902                	lw	s2,32(sp)
    2f04:	5492                	lw	s1,36(sp)
    2f06:	49f2                	lw	s3,28(sp)
    2f08:	852e                	mv	a0,a1
    2f0a:	6145                	addi	sp,sp,48
    2f0c:	8082                	ret
    2f0e:	0405                	addi	s0,s0,1
    2f10:	f8e41ce3          	bne	s0,a4,2ea8 <TMOS_CB_PeriodicProcessEvent+0x12>
    2f14:	4481                	li	s1,0
    2f16:	b7dd                	j	2efc <TMOS_CB_PeriodicProcessEvent+0x66>
    2f18:	852e                	mv	a0,a1
    2f1a:	8082                	ret

00002f1c <TMOS_CB_ProcessEvent>:
TMOS_CB_ProcessEvent():
    2f1c:	1141                	addi	sp,sp,-16
    2f1e:	01059713          	slli	a4,a1,0x10
    2f22:	c422                	sw	s0,8(sp)
    2f24:	c606                	sw	ra,12(sp)
    2f26:	c226                	sw	s1,4(sp)
    2f28:	c04a                	sw	s2,0(sp)
    2f2a:	8741                	srai	a4,a4,0x10
    2f2c:	842e                	mv	s0,a1
    2f2e:	00075e63          	bgez	a4,2f4a <TMOS_CB_ProcessEvent+0x2e>
    2f32:	35d9                	jal	2df8 <tmos_msg_receive>
    2f34:	c111                	beqz	a0,2f38 <TMOS_CB_ProcessEvent+0x1c>
    2f36:	3d59                	jal	2dcc <tmos_msg_deallocate>
    2f38:	67a1                	lui	a5,0x8
    2f3a:	8c3d                	xor	s0,s0,a5
    2f3c:	8522                	mv	a0,s0
    2f3e:	40b2                	lw	ra,12(sp)
    2f40:	4422                	lw	s0,8(sp)
    2f42:	4492                	lw	s1,4(sp)
    2f44:	4902                	lw	s2,0(sp)
    2f46:	0141                	addi	sp,sp,16
    2f48:	8082                	ret
    2f4a:	d9ed                	beqz	a1,2f3c <TMOS_CB_ProcessEvent+0x20>
    2f4c:	87aa                	mv	a5,a0
    2f4e:	4701                	li	a4,0
    2f50:	4641                	li	a2,16
    2f52:	40e456b3          	sra	a3,s0,a4
    2f56:	8a85                	andi	a3,a3,1
    2f58:	ce8d                	beqz	a3,2f92 <TMOS_CB_ProcessEvent+0x76>
    2f5a:	0792                	slli	a5,a5,0x4
    2f5c:	97ba                	add	a5,a5,a4
    2f5e:	46b1                	li	a3,12
    2f60:	02d787b3          	mul	a5,a5,a3
    2f64:	20000697          	auipc	a3,0x20000
    2f68:	40c68693          	addi	a3,a3,1036 # 20003370 <cbTimersHead>
    2f6c:	0006a903          	lw	s2,0(a3)
    2f70:	4485                	li	s1,1
    2f72:	00e494b3          	sll	s1,s1,a4
    2f76:	04c2                	slli	s1,s1,0x10
    2f78:	80c1                	srli	s1,s1,0x10
    2f7a:	993e                	add	s2,s2,a5
    2f7c:	00092783          	lw	a5,0(s2)
    2f80:	00492503          	lw	a0,4(s2)
    2f84:	9782                	jalr	a5
    2f86:	00092023          	sw	zero,0(s2)
    2f8a:	00092223          	sw	zero,4(s2)
    2f8e:	8c25                	xor	s0,s0,s1
    2f90:	b775                	j	2f3c <TMOS_CB_ProcessEvent+0x20>
    2f92:	0705                	addi	a4,a4,1
    2f94:	fac71fe3          	bne	a4,a2,2f52 <TMOS_CB_ProcessEvent+0x36>
    2f98:	4481                	li	s1,0
    2f9a:	bfd5                	j	2f8e <TMOS_CB_ProcessEvent+0x72>

00002f9c <tmos_proces_sleep>:
tmos_proces_sleep():
    2f9c:	1101                	addi	sp,sp,-32
    2f9e:	0068                	addi	a0,sp,12
    2fa0:	ce06                	sw	ra,28(sp)
    2fa2:	cc22                	sw	s0,24(sp)
    2fa4:	ca26                	sw	s1,20(sp)
    2fa6:	005000ef          	jal	ra,37aa <LL_GetNextConnectEventTime>
    2faa:	57fd                	li	a5,-1
    2fac:	0ef50063          	beq	a0,a5,308c <tmos_proces_sleep+0xf0>
    2fb0:	4732                	lw	a4,12(sp)
    2fb2:	20000697          	auipc	a3,0x20000
    2fb6:	38268693          	addi	a3,a3,898 # 20003334 <ble>
    2fba:	20000797          	auipc	a5,0x20000
    2fbe:	38f7c783          	lbu	a5,911(a5) # 20003349 <ble+0x15>
    2fc2:	84b6                	mv	s1,a3
    2fc4:	0ae7f963          	bgeu	a5,a4,3076 <tmos_proces_sleep+0xda>
    2fc8:	20000417          	auipc	s0,0x20000
    2fcc:	31440413          	addi	s0,s0,788 # 200032dc <gTmosPara>
    2fd0:	4818                	lw	a4,16(s0)
    2fd2:	a8c00637          	lui	a2,0xa8c00
    2fd6:	02c70e63          	beq	a4,a2,3012 <tmos_proces_sleep+0x76>
    2fda:	20000797          	auipc	a5,0x20000
    2fde:	39e78793          	addi	a5,a5,926 # 20003378 <fnGetClockCBs>
    2fe2:	439c                	lw	a5,0(a5)
    2fe4:	9782                	jalr	a5
    2fe6:	4732                	lw	a4,12(sp)
    2fe8:	481c                	lw	a5,16(s0)
    2fea:	00f77363          	bgeu	a4,a5,2ff0 <tmos_proces_sleep+0x54>
    2fee:	87ba                	mv	a5,a4
    2ff0:	20000717          	auipc	a4,0x20000
    2ff4:	35974703          	lbu	a4,857(a4) # 20003349 <ble+0x15>
    2ff8:	8f99                	sub	a5,a5,a4
    2ffa:	953e                	add	a0,a0,a5
    2ffc:	01648783          	lb	a5,22(s1)
    3000:	0007ce63          	bltz	a5,301c <tmos_proces_sleep+0x80>
    3004:	a8c007b7          	lui	a5,0xa8c00
    3008:	00f56a63          	bltu	a0,a5,301c <tmos_proces_sleep+0x80>
    300c:	574007b7          	lui	a5,0x57400
    3010:	a8a5                	j	3088 <tmos_proces_sleep+0xec>
    3012:	01668683          	lb	a3,22(a3)
    3016:	0606d563          	bgez	a3,3080 <tmos_proces_sleep+0xe4>
    301a:	8d1d                	sub	a0,a0,a5
    301c:	20000417          	auipc	s0,0x20000
    3020:	36c40413          	addi	s0,s0,876 # 20003388 <gBleIPPara>
    3024:	4c1c                	lw	a5,24(s0)
    3026:	cf81                	beqz	a5,303e <tmos_proces_sleep+0xa2>
    3028:	20000797          	auipc	a5,0x20000
    302c:	3c078793          	addi	a5,a5,960 # 200033e8 <gptrRFENDReg>
    3030:	4394                	lw	a3,0(a5)
    3032:	ffcd0737          	lui	a4,0xffcd0
    3036:	177d                	addi	a4,a4,-1
    3038:	469c                	lw	a5,8(a3)
    303a:	8ff9                	and	a5,a5,a4
    303c:	c69c                	sw	a5,8(a3)
    303e:	e119                	bnez	a0,3044 <tmos_proces_sleep+0xa8>
    3040:	a8c00537          	lui	a0,0xa8c00
    3044:	20000797          	auipc	a5,0x20000
    3048:	2f078793          	addi	a5,a5,752 # 20003334 <ble>
    304c:	53dc                	lw	a5,36(a5)
    304e:	9782                	jalr	a5
    3050:	e519                	bnez	a0,305e <tmos_proces_sleep+0xc2>
    3052:	4c1c                	lw	a5,24(s0)
    3054:	c38d                	beqz	a5,3076 <tmos_proces_sleep+0xda>
    3056:	7bd000ef          	jal	ra,4012 <LLE_DevInit>
    305a:	23f000ef          	jal	ra,3a98 <BB_DevInit>
    305e:	4c1c                	lw	a5,24(s0)
    3060:	cb99                	beqz	a5,3076 <tmos_proces_sleep+0xda>
    3062:	20000797          	auipc	a5,0x20000
    3066:	38678793          	addi	a5,a5,902 # 200033e8 <gptrRFENDReg>
    306a:	4398                	lw	a4,0(a5)
    306c:	003306b7          	lui	a3,0x330
    3070:	471c                	lw	a5,8(a4)
    3072:	8fd5                	or	a5,a5,a3
    3074:	c71c                	sw	a5,8(a4)
    3076:	40f2                	lw	ra,28(sp)
    3078:	4462                	lw	s0,24(sp)
    307a:	44d2                	lw	s1,20(sp)
    307c:	6105                	addi	sp,sp,32
    307e:	8082                	ret
    3080:	f8f57de3          	bgeu	a0,a5,301a <tmos_proces_sleep+0x7e>
    3084:	40f707b3          	sub	a5,a4,a5
    3088:	953e                	add	a0,a0,a5
    308a:	bf49                	j	301c <tmos_proces_sleep+0x80>
    308c:	20000497          	auipc	s1,0x20000
    3090:	25048493          	addi	s1,s1,592 # 200032dc <gTmosPara>
    3094:	489c                	lw	a5,16(s1)
    3096:	a8c00437          	lui	s0,0xa8c00
    309a:	fc878ee3          	beq	a5,s0,3076 <tmos_proces_sleep+0xda>
    309e:	20000797          	auipc	a5,0x20000
    30a2:	2da78793          	addi	a5,a5,730 # 20003378 <fnGetClockCBs>
    30a6:	439c                	lw	a5,0(a5)
    30a8:	9782                	jalr	a5
    30aa:	489c                	lw	a5,16(s1)
    30ac:	20000717          	auipc	a4,0x20000
    30b0:	29d74703          	lbu	a4,669(a4) # 20003349 <ble+0x15>
    30b4:	8f99                	sub	a5,a5,a4
    30b6:	953e                	add	a0,a0,a5
    30b8:	20000797          	auipc	a5,0x20000
    30bc:	27c78793          	addi	a5,a5,636 # 20003334 <ble>
    30c0:	01678783          	lb	a5,22(a5)
    30c4:	f407cce3          	bltz	a5,301c <tmos_proces_sleep+0x80>
    30c8:	f4856ae3          	bltu	a0,s0,301c <tmos_proces_sleep+0x80>
    30cc:	b781                	j	300c <tmos_proces_sleep+0x70>

000030ce <TMOS_GetSystemClock>:
TMOS_GetSystemClock():
    30ce:	20000797          	auipc	a5,0x20000
    30d2:	2a678793          	addi	a5,a5,678 # 20003374 <pfnTimerCBs>
    30d6:	439c                	lw	a5,0(a5)
    30d8:	1141                	addi	sp,sp,-16
    30da:	c422                	sw	s0,8(sp)
    30dc:	c606                	sw	ra,12(sp)
    30de:	20000417          	auipc	s0,0x20000
    30e2:	1fe40413          	addi	s0,s0,510 # 200032dc <gTmosPara>
    30e6:	cb81                	beqz	a5,30f6 <TMOS_GetSystemClock+0x28>
    30e8:	9782                	jalr	a5
    30ea:	485c                	lw	a5,20(s0)
    30ec:	953e                	add	a0,a0,a5
    30ee:	20000797          	auipc	a5,0x20000
    30f2:	20a7a123          	sw	a0,514(a5) # 200032f0 <gTmosPara+0x14>
    30f6:	4848                	lw	a0,20(s0)
    30f8:	40b2                	lw	ra,12(sp)
    30fa:	4422                	lw	s0,8(sp)
    30fc:	0141                	addi	sp,sp,16
    30fe:	8082                	ret

00003100 <tmos_set_event>:
tmos_set_event():
    3100:	20000797          	auipc	a5,0x20000
    3104:	1dd7c783          	lbu	a5,477(a5) # 200032dd <gTmosPara+0x1>
    3108:	02f57163          	bgeu	a0,a5,312a <tmos_set_event+0x2a>
    310c:	20000717          	auipc	a4,0x20000
    3110:	22070713          	addi	a4,a4,544 # 2000332c <EventsArr>
    3114:	00151793          	slli	a5,a0,0x1
    3118:	4308                	lw	a0,0(a4)
    311a:	953e                	add	a0,a0,a5
    311c:	00055783          	lhu	a5,0(a0) # a8c00000 <_eusrstack+0x88bf8000>
    3120:	8ddd                	or	a1,a1,a5
    3122:	00b51023          	sh	a1,0(a0)
    3126:	4501                	li	a0,0
    3128:	8082                	ret
    312a:	450d                	li	a0,3
    312c:	8082                	ret

0000312e <tmos_clear_event>:
tmos_clear_event():
    312e:	20000797          	auipc	a5,0x20000
    3132:	1af7c783          	lbu	a5,431(a5) # 200032dd <gTmosPara+0x1>
    3136:	02f57363          	bgeu	a0,a5,315c <tmos_clear_event+0x2e>
    313a:	20000717          	auipc	a4,0x20000
    313e:	1f270713          	addi	a4,a4,498 # 2000332c <EventsArr>
    3142:	00151793          	slli	a5,a0,0x1
    3146:	4308                	lw	a0,0(a4)
    3148:	fff5c593          	not	a1,a1
    314c:	953e                	add	a0,a0,a5
    314e:	00055783          	lhu	a5,0(a0)
    3152:	8dfd                	and	a1,a1,a5
    3154:	00b51023          	sh	a1,0(a0)
    3158:	4501                	li	a0,0
    315a:	8082                	ret
    315c:	450d                	li	a0,3
    315e:	8082                	ret

00003160 <tmos_start_task>:
tmos_start_task():
    3160:	20000797          	auipc	a5,0x20000
    3164:	17d7c783          	lbu	a5,381(a5) # 200032dd <gTmosPara+0x1>
    3168:	00f56463          	bltu	a0,a5,3170 <tmos_start_task+0x10>
    316c:	4501                	li	a0,0
    316e:	8082                	ret
    3170:	20000797          	auipc	a5,0x20000
    3174:	20878793          	addi	a5,a5,520 # 20003378 <fnGetClockCBs>
    3178:	439c                	lw	a5,0(a5)
    317a:	dbed                	beqz	a5,316c <tmos_start_task+0xc>
    317c:	1101                	addi	sp,sp,-32
    317e:	cc22                	sw	s0,24(sp)
    3180:	ca26                	sw	s1,20(sp)
    3182:	c84a                	sw	s2,16(sp)
    3184:	c64e                	sw	s3,12(sp)
    3186:	ce06                	sw	ra,28(sp)
    3188:	89b2                	mv	s3,a2
    318a:	892e                	mv	s2,a1
    318c:	84aa                	mv	s1,a0
    318e:	9782                	jalr	a5
    3190:	20000417          	auipc	s0,0x20000
    3194:	17445403          	lhu	s0,372(s0) # 20003304 <gTmosPara+0x28>
    3198:	03340433          	mul	s0,s0,s3
    319c:	64000793          	li	a5,1600
    31a0:	32040413          	addi	s0,s0,800
    31a4:	02f45433          	divu	s0,s0,a5
    31a8:	20000797          	auipc	a5,0x20000
    31ac:	18c78793          	addi	a5,a5,396 # 20003334 <ble>
    31b0:	01678703          	lb	a4,22(a5)
    31b4:	89be                	mv	s3,a5
    31b6:	942a                	add	s0,s0,a0
    31b8:	00074963          	bltz	a4,31ca <tmos_start_task+0x6a>
    31bc:	a8c007b7          	lui	a5,0xa8c00
    31c0:	00f46563          	bltu	s0,a5,31ca <tmos_start_task+0x6a>
    31c4:	574007b7          	lui	a5,0x57400
    31c8:	943e                	add	s0,s0,a5
    31ca:	85ca                	mv	a1,s2
    31cc:	8526                	mv	a0,s1
    31ce:	3155                	jal	2e72 <tmosFindTask>
    31d0:	c501                	beqz	a0,31d8 <tmos_start_task+0x78>
    31d2:	c500                	sw	s0,8(a0)
    31d4:	4505                	li	a0,1
    31d6:	a015                	j	31fa <tmos_start_task+0x9a>
    31d8:	f004e593          	ori	a1,s1,-256
    31dc:	05c2                	slli	a1,a1,0x10
    31de:	81c1                	srli	a1,a1,0x10
    31e0:	4541                	li	a0,16
    31e2:	1fffe097          	auipc	ra,0x1fffe
    31e6:	476080e7          	jalr	1142(ra) # 20001658 <tmos_memory_allocate>
    31ea:	ed19                	bnez	a0,3208 <tmos_start_task+0xa8>
    31ec:	0309a783          	lw	a5,48(s3)
    31f0:	c781                	beqz	a5,31f8 <tmos_start_task+0x98>
    31f2:	85a6                	mv	a1,s1
    31f4:	4511                	li	a0,4
    31f6:	9782                	jalr	a5
    31f8:	4501                	li	a0,0
    31fa:	40f2                	lw	ra,28(sp)
    31fc:	4462                	lw	s0,24(sp)
    31fe:	44d2                	lw	s1,20(sp)
    3200:	4942                	lw	s2,16(sp)
    3202:	49b2                	lw	s3,12(sp)
    3204:	6105                	addi	sp,sp,32
    3206:	8082                	ret
    3208:	20000797          	auipc	a5,0x20000
    320c:	12878793          	addi	a5,a5,296 # 20003330 <taskHead>
    3210:	439c                	lw	a5,0(a5)
    3212:	e39d                	bnez	a5,3238 <tmos_start_task+0xd8>
    3214:	20000797          	auipc	a5,0x20000
    3218:	10a7ae23          	sw	a0,284(a5) # 20003330 <taskHead>
    321c:	4785                	li	a5,1
    321e:	00052623          	sw	zero,12(a0)
    3222:	c500                	sw	s0,8(a0)
    3224:	01251123          	sh	s2,2(a0)
    3228:	00950023          	sb	s1,0(a0)
    322c:	00f500a3          	sb	a5,1(a0)
    3230:	00052223          	sw	zero,4(a0)
    3234:	b745                	j	31d4 <tmos_start_task+0x74>
    3236:	87ba                	mv	a5,a4
    3238:	47d8                	lw	a4,12(a5)
    323a:	ff75                	bnez	a4,3236 <tmos_start_task+0xd6>
    323c:	c7c8                	sw	a0,12(a5)
    323e:	bff9                	j	321c <tmos_start_task+0xbc>

00003240 <tmos_stop_task>:
tmos_stop_task():
    3240:	1141                	addi	sp,sp,-16
    3242:	c422                	sw	s0,8(sp)
    3244:	c226                	sw	s1,4(sp)
    3246:	c04a                	sw	s2,0(sp)
    3248:	c606                	sw	ra,12(sp)
    324a:	892a                	mv	s2,a0
    324c:	842e                	mv	s0,a1
    324e:	3115                	jal	2e72 <tmosFindTask>
    3250:	84aa                	mv	s1,a0
    3252:	c119                	beqz	a0,3258 <tmos_stop_task+0x18>
    3254:	00051123          	sh	zero,2(a0)
    3258:	85a2                	mv	a1,s0
    325a:	854a                	mv	a0,s2
    325c:	3dc9                	jal	312e <tmos_clear_event>
    325e:	20000797          	auipc	a5,0x20000
    3262:	07e7c783          	lbu	a5,126(a5) # 200032dc <gTmosPara>
    3266:	01279b63          	bne	a5,s2,327c <tmos_stop_task+0x3c>
    326a:	20000797          	auipc	a5,0x20000
    326e:	0be7d783          	lhu	a5,190(a5) # 20003328 <eventsClear>
    3272:	8c5d                	or	s0,s0,a5
    3274:	20000797          	auipc	a5,0x20000
    3278:	0a879a23          	sh	s0,180(a5) # 20003328 <eventsClear>
    327c:	4501                	li	a0,0
    327e:	e091                	bnez	s1,3282 <tmos_stop_task+0x42>
    3280:	4519                	li	a0,6
    3282:	40b2                	lw	ra,12(sp)
    3284:	4422                	lw	s0,8(sp)
    3286:	4492                	lw	s1,4(sp)
    3288:	4902                	lw	s2,0(sp)
    328a:	0141                	addi	sp,sp,16
    328c:	8082                	ret

0000328e <TMOS_TimerRegister>:
TMOS_TimerRegister():
    328e:	1141                	addi	sp,sp,-16
    3290:	c606                	sw	ra,12(sp)
    3292:	20000797          	auipc	a5,0x20000
    3296:	0ea7a123          	sw	a0,226(a5) # 20003374 <pfnTimerCBs>
    329a:	9502                	jalr	a0
    329c:	40b2                	lw	ra,12(sp)
    329e:	20000797          	auipc	a5,0x20000
    32a2:	04a7ab23          	sw	a0,86(a5) # 200032f4 <gTmosPara+0x18>
    32a6:	4501                	li	a0,0
    32a8:	0141                	addi	sp,sp,16
    32aa:	8082                	ret

000032ac <TMOS_ProcessRegister>:
TMOS_ProcessRegister():
    32ac:	4799                	li	a5,6
    32ae:	00b7e963          	bltu	a5,a1,32c0 <TMOS_ProcessRegister+0x14>
    32b2:	058a                	slli	a1,a1,0x2
    32b4:	20000797          	auipc	a5,0x20000
    32b8:	05878793          	addi	a5,a5,88 # 2000330c <pfnProcessCBs>
    32bc:	95be                	add	a1,a1,a5
    32be:	c188                	sw	a0,0(a1)
    32c0:	8082                	ret

000032c2 <TMOS_Init>:
TMOS_Init():
    32c2:	1141                	addi	sp,sp,-16
    32c4:	4671                	li	a2,28
    32c6:	4581                	li	a1,0
    32c8:	20000517          	auipc	a0,0x20000
    32cc:	04450513          	addi	a0,a0,68 # 2000330c <pfnProcessCBs>
    32d0:	c606                	sw	ra,12(sp)
    32d2:	c422                	sw	s0,8(sp)
    32d4:	c226                	sw	s1,4(sp)
    32d6:	1fffd097          	auipc	ra,0x1fffd
    32da:	5d4080e7          	jalr	1492(ra) # 200008aa <tmos_memset>
    32de:	02c00613          	li	a2,44
    32e2:	4581                	li	a1,0
    32e4:	20000517          	auipc	a0,0x20000
    32e8:	ff850513          	addi	a0,a0,-8 # 200032dc <gTmosPara>
    32ec:	1fffd097          	auipc	ra,0x1fffd
    32f0:	5be080e7          	jalr	1470(ra) # 200008aa <tmos_memset>
    32f4:	72b020ef          	jal	ra,621e <tmos_memory_init>
    32f8:	20000797          	auipc	a5,0x20000
    32fc:	0207ac23          	sw	zero,56(a5) # 20003330 <taskHead>
    3300:	20000797          	auipc	a5,0x20000
    3304:	0607aa23          	sw	zero,116(a5) # 20003374 <pfnTimerCBs>
    3308:	20000797          	auipc	a5,0x20000
    330c:	0437c783          	lbu	a5,67(a5) # 2000334b <ble+0x17>
    3310:	0027d513          	srli	a0,a5,0x2
    3314:	8b8d                	andi	a5,a5,3
    3316:	953e                	add	a0,a0,a5
    3318:	478d                	li	a5,3
    331a:	02f50533          	mul	a0,a0,a5
    331e:	20000417          	auipc	s0,0x20000
    3322:	fbe40413          	addi	s0,s0,-66 # 200032dc <gTmosPara>
    3326:	4799                	li	a5,6
    3328:	4585                	li	a1,1
    332a:	20000497          	auipc	s1,0x20000
    332e:	fde48493          	addi	s1,s1,-34 # 20003308 <tasksArr>
    3332:	0539                	addi	a0,a0,14
    3334:	0ff57513          	andi	a0,a0,255
    3338:	00a40123          	sb	a0,2(s0)
    333c:	02f50533          	mul	a0,a0,a5
    3340:	24050513          	addi	a0,a0,576
    3344:	1fffe097          	auipc	ra,0x1fffe
    3348:	314080e7          	jalr	788(ra) # 20001658 <tmos_memory_allocate>
    334c:	20000797          	auipc	a5,0x20000
    3350:	02a7a223          	sw	a0,36(a5) # 20003370 <cbTimersHead>
    3354:	00244783          	lbu	a5,2(s0)
    3358:	24050513          	addi	a0,a0,576
    335c:	c088                	sw	a0,0(s1)
    335e:	078a                	slli	a5,a5,0x2
    3360:	953e                	add	a0,a0,a5
    3362:	20000797          	auipc	a5,0x20000
    3366:	fca7a523          	sw	a0,-54(a5) # 2000332c <EventsArr>
    336a:	3cfd                	jal	2e68 <tmos_msg_init>
    336c:	2ebd                	jal	36ea <tmos_snv_init>
    336e:	00144783          	lbu	a5,1(s0)
    3372:	4094                	lw	a3,0(s1)
    3374:	00000617          	auipc	a2,0x0
    3378:	b2260613          	addi	a2,a2,-1246 # 2e96 <TMOS_CB_PeriodicProcessEvent>
    337c:	00279713          	slli	a4,a5,0x2
    3380:	9736                	add	a4,a4,a3
    3382:	c310                	sw	a2,0(a4)
    3384:	00178713          	addi	a4,a5,1
    3388:	0ff77713          	andi	a4,a4,255
    338c:	070a                	slli	a4,a4,0x2
    338e:	9736                	add	a4,a4,a3
    3390:	00000617          	auipc	a2,0x0
    3394:	b8c60613          	addi	a2,a2,-1140 # 2f1c <TMOS_CB_ProcessEvent>
    3398:	c310                	sw	a2,0(a4)
    339a:	00378713          	addi	a4,a5,3
    339e:	0789                	addi	a5,a5,2
    33a0:	0ff7f793          	andi	a5,a5,255
    33a4:	00e400a3          	sb	a4,1(s0)
    33a8:	40b2                	lw	ra,12(sp)
    33aa:	4422                	lw	s0,8(sp)
    33ac:	078a                	slli	a5,a5,0x2
    33ae:	97b6                	add	a5,a5,a3
    33b0:	c390                	sw	a2,0(a5)
    33b2:	4492                	lw	s1,4(sp)
    33b4:	0141                	addi	sp,sp,16
    33b6:	8082                	ret

000033b8 <TMOS_ProcessEventRegister>:
TMOS_ProcessEventRegister():
    33b8:	20000797          	auipc	a5,0x20000
    33bc:	f257c783          	lbu	a5,-219(a5) # 200032dd <gTmosPara+0x1>
    33c0:	20000717          	auipc	a4,0x20000
    33c4:	f1e74703          	lbu	a4,-226(a4) # 200032de <gTmosPara+0x2>
    33c8:	02e7f363          	bgeu	a5,a4,33ee <TMOS_ProcessEventRegister+0x36>
    33cc:	20000717          	auipc	a4,0x20000
    33d0:	f3c70713          	addi	a4,a4,-196 # 20003308 <tasksArr>
    33d4:	4318                	lw	a4,0(a4)
    33d6:	00178693          	addi	a3,a5,1
    33da:	20000617          	auipc	a2,0x20000
    33de:	f0d601a3          	sb	a3,-253(a2) # 200032dd <gTmosPara+0x1>
    33e2:	00279693          	slli	a3,a5,0x2
    33e6:	9736                	add	a4,a4,a3
    33e8:	c308                	sw	a0,0(a4)
    33ea:	853e                	mv	a0,a5
    33ec:	8082                	ret
    33ee:	0ff00793          	li	a5,255
    33f2:	bfe5                	j	33ea <TMOS_ProcessEventRegister+0x32>

000033f4 <BLE_LibInit>:
BLE_LibInit():
    33f4:	411c                	lw	a5,0(a0)
    33f6:	16078763          	beqz	a5,3564 <BLE_LibInit+0x170>
    33fa:	7741                	lui	a4,0xffff0
    33fc:	8f7d                	and	a4,a4,a5
    33fe:	200006b7          	lui	a3,0x20000
    3402:	4789                	li	a5,2
    3404:	16d71163          	bne	a4,a3,3566 <BLE_LibInit+0x172>
    3408:	00455703          	lhu	a4,4(a0)
    340c:	14070d63          	beqz	a4,3566 <BLE_LibInit+0x172>
    3410:	1141                	addi	sp,sp,-16
    3412:	c226                	sw	s1,4(sp)
    3414:	4619                	li	a2,6
    3416:	84aa                	mv	s1,a0
    3418:	0ff00593          	li	a1,255
    341c:	0569                	addi	a0,a0,26
    341e:	c606                	sw	ra,12(sp)
    3420:	c422                	sw	s0,8(sp)
    3422:	1fffd097          	auipc	ra,0x1fffd
    3426:	52a080e7          	jalr	1322(ra) # 2000094c <tmos_isbufset>
    342a:	4705                	li	a4,1
    342c:	478d                	li	a5,3
    342e:	12e50563          	beq	a0,a4,3558 <BLE_LibInit+0x164>
    3432:	20000417          	auipc	s0,0x20000
    3436:	f0240413          	addi	s0,s0,-254 # 20003334 <ble>
    343a:	441c                	lw	a5,8(s0)
    343c:	cb81                	beqz	a5,344c <BLE_LibInit+0x58>
    343e:	5858                	lw	a4,52(s0)
    3440:	4799                	li	a5,6
    3442:	10071b63          	bnez	a4,3558 <BLE_LibInit+0x164>
    3446:	5c18                	lw	a4,56(s0)
    3448:	10071863          	bnez	a4,3558 <BLE_LibInit+0x164>
    344c:	03c00613          	li	a2,60
    3450:	4581                	li	a1,0
    3452:	20000517          	auipc	a0,0x20000
    3456:	ee250513          	addi	a0,a0,-286 # 20003334 <ble>
    345a:	1fffd097          	auipc	ra,0x1fffd
    345e:	450080e7          	jalr	1104(ra) # 200008aa <tmos_memset>
    3462:	03c00613          	li	a2,60
    3466:	85a6                	mv	a1,s1
    3468:	20000517          	auipc	a0,0x20000
    346c:	ecc50513          	addi	a0,a0,-308 # 20003334 <ble>
    3470:	1fffd097          	auipc	ra,0x1fffd
    3474:	402080e7          	jalr	1026(ra) # 20000872 <tmos_memcpy>
    3478:	20000797          	auipc	a5,0x20000
    347c:	ec87d783          	lhu	a5,-312(a5) # 20003340 <ble+0xc>
    3480:	e799                	bnez	a5,348e <BLE_LibInit+0x9a>
    3482:	10000793          	li	a5,256
    3486:	20000717          	auipc	a4,0x20000
    348a:	eaf71d23          	sh	a5,-326(a4) # 20003340 <ble+0xc>
    348e:	20000797          	auipc	a5,0x20000
    3492:	eb47c783          	lbu	a5,-332(a5) # 20003342 <ble+0xe>
    3496:	e791                	bnez	a5,34a2 <BLE_LibInit+0xae>
    3498:	4785                	li	a5,1
    349a:	20000717          	auipc	a4,0x20000
    349e:	eaf70423          	sb	a5,-344(a4) # 20003342 <ble+0xe>
    34a2:	20000797          	auipc	a5,0x20000
    34a6:	ea27d783          	lhu	a5,-350(a5) # 20003344 <ble+0x10>
    34aa:	e791                	bnez	a5,34b6 <BLE_LibInit+0xc2>
    34ac:	47ed                	li	a5,27
    34ae:	20000717          	auipc	a4,0x20000
    34b2:	e8f71b23          	sh	a5,-362(a4) # 20003344 <ble+0x10>
    34b6:	20000797          	auipc	a5,0x20000
    34ba:	e8d7c783          	lbu	a5,-371(a5) # 20003343 <ble+0xf>
    34be:	e791                	bnez	a5,34ca <BLE_LibInit+0xd6>
    34c0:	4795                	li	a5,5
    34c2:	20000717          	auipc	a4,0x20000
    34c6:	e8f700a3          	sb	a5,-383(a4) # 20003343 <ble+0xf>
    34ca:	20000797          	auipc	a5,0x20000
    34ce:	e7c7c783          	lbu	a5,-388(a5) # 20003346 <ble+0x12>
    34d2:	e791                	bnez	a5,34de <BLE_LibInit+0xea>
    34d4:	4785                	li	a5,1
    34d6:	20000717          	auipc	a4,0x20000
    34da:	e6f70823          	sb	a5,-400(a4) # 20003346 <ble+0x12>
    34de:	20000797          	auipc	a5,0x20000
    34e2:	e697c783          	lbu	a5,-407(a5) # 20003347 <ble+0x13>
    34e6:	e799                	bnez	a5,34f4 <BLE_LibInit+0x100>
    34e8:	00f44783          	lbu	a5,15(s0)
    34ec:	20000717          	auipc	a4,0x20000
    34f0:	e4f70da3          	sb	a5,-421(a4) # 20003347 <ble+0x13>
    34f4:	20000797          	auipc	a5,0x20000
    34f8:	e547c783          	lbu	a5,-428(a5) # 20003348 <ble+0x14>
    34fc:	e791                	bnez	a5,3508 <BLE_LibInit+0x114>
    34fe:	47b5                	li	a5,13
    3500:	20000717          	auipc	a4,0x20000
    3504:	e4f70423          	sb	a5,-440(a4) # 20003348 <ble+0x14>
    3508:	20000797          	auipc	a5,0x20000
    350c:	e457c783          	lbu	a5,-443(a5) # 2000334d <ble+0x19>
    3510:	e799                	bnez	a5,351e <BLE_LibInit+0x12a>
    3512:	02800793          	li	a5,40
    3516:	20000717          	auipc	a4,0x20000
    351a:	e2f70ba3          	sb	a5,-457(a4) # 2000334d <ble+0x19>
    351e:	20000797          	auipc	a5,0x20000
    3522:	e2b7c783          	lbu	a5,-469(a5) # 20003349 <ble+0x15>
    3526:	e799                	bnez	a5,3534 <BLE_LibInit+0x140>
    3528:	02d00793          	li	a5,45
    352c:	20000717          	auipc	a4,0x20000
    3530:	e0f70ea3          	sb	a5,-483(a4) # 20003349 <ble+0x15>
    3534:	0184c783          	lbu	a5,24(s1)
    3538:	e799                	bnez	a5,3546 <BLE_LibInit+0x152>
    353a:	03c00793          	li	a5,60
    353e:	20000717          	auipc	a4,0x20000
    3542:	e0f70723          	sb	a5,-498(a4) # 2000334c <ble+0x18>
    3546:	541c                	lw	a5,40(s0)
    3548:	c791                	beqz	a5,3554 <BLE_LibInit+0x160>
    354a:	9782                	jalr	a5
    354c:	20000797          	auipc	a5,0x20000
    3550:	d8a79c23          	sh	a0,-616(a5) # 200032e4 <gTmosPara+0x8>
    3554:	33bd                	jal	32c2 <TMOS_Init>
    3556:	4781                	li	a5,0
    3558:	40b2                	lw	ra,12(sp)
    355a:	4422                	lw	s0,8(sp)
    355c:	4492                	lw	s1,4(sp)
    355e:	853e                	mv	a0,a5
    3560:	0141                	addi	sp,sp,16
    3562:	8082                	ret
    3564:	4789                	li	a5,2
    3566:	853e                	mv	a0,a5
    3568:	8082                	ret

0000356a <clockGetTickValve>:
clockGetTickValve():
    356a:	20000797          	auipc	a5,0x20000
    356e:	e0e78793          	addi	a5,a5,-498 # 20003378 <fnGetClockCBs>
    3572:	439c                	lw	a5,0(a5)
    3574:	1141                	addi	sp,sp,-16
    3576:	c606                	sw	ra,12(sp)
    3578:	9782                	jalr	a5
    357a:	64000793          	li	a5,1600
    357e:	02f507b3          	mul	a5,a0,a5
    3582:	20000697          	auipc	a3,0x20000
    3586:	d826d683          	lhu	a3,-638(a3) # 20003304 <gTmosPara+0x28>
    358a:	20000717          	auipc	a4,0x20000
    358e:	d5270713          	addi	a4,a4,-686 # 200032dc <gTmosPara>
    3592:	4f18                	lw	a4,24(a4)
    3594:	4501                	li	a0,0
    3596:	02d7d7b3          	divu	a5,a5,a3
    359a:	02f70063          	beq	a4,a5,35ba <clockGetTickValve+0x50>
    359e:	40e78533          	sub	a0,a5,a4
    35a2:	00f76863          	bltu	a4,a5,35b2 <clockGetTickValve+0x48>
    35a6:	b0000537          	lui	a0,0xb0000
    35aa:	02d55533          	divu	a0,a0,a3
    35ae:	8d19                	sub	a0,a0,a4
    35b0:	953e                	add	a0,a0,a5
    35b2:	20000717          	auipc	a4,0x20000
    35b6:	d4f72123          	sw	a5,-702(a4) # 200032f4 <gTmosPara+0x18>
    35ba:	40b2                	lw	ra,12(sp)
    35bc:	0141                	addi	sp,sp,16
    35be:	8082                	ret

000035c0 <TMOS_TempSample>:
TMOS_TempSample():
    35c0:	20000797          	auipc	a5,0x20000
    35c4:	d7478793          	addi	a5,a5,-652 # 20003334 <ble>
    35c8:	5798                	lw	a4,40(a5)
    35ca:	cb39                	beqz	a4,3620 <TMOS_TempSample+0x60>
    35cc:	1141                	addi	sp,sp,-16
    35ce:	c422                	sw	s0,8(sp)
    35d0:	c226                	sw	s1,4(sp)
    35d2:	c606                	sw	ra,12(sp)
    35d4:	84be                	mv	s1,a5
    35d6:	9702                	jalr	a4
    35d8:	20000717          	auipc	a4,0x20000
    35dc:	d0c75703          	lhu	a4,-756(a4) # 200032e4 <gTmosPara+0x8>
    35e0:	842a                	mv	s0,a0
    35e2:	cb15                	beqz	a4,3616 <TMOS_TempSample+0x56>
    35e4:	87ba                	mv	a5,a4
    35e6:	00a77363          	bgeu	a4,a0,35ec <TMOS_TempSample+0x2c>
    35ea:	87aa                	mv	a5,a0
    35ec:	07c2                	slli	a5,a5,0x10
    35ee:	83c1                	srli	a5,a5,0x10
    35f0:	86ba                	mv	a3,a4
    35f2:	00e47363          	bgeu	s0,a4,35f8 <TMOS_TempSample+0x38>
    35f6:	86a2                	mv	a3,s0
    35f8:	06c2                	slli	a3,a3,0x10
    35fa:	82c1                	srli	a3,a3,0x10
    35fc:	8f95                	sub	a5,a5,a3
    35fe:	4751                	li	a4,20
    3600:	00f75b63          	bge	a4,a5,3616 <TMOS_TempSample+0x56>
    3604:	54dc                	lw	a5,44(s1)
    3606:	c391                	beqz	a5,360a <TMOS_TempSample+0x4a>
    3608:	9782                	jalr	a5
    360a:	0d3000ef          	jal	ra,3edc <BLE_RegInit>
    360e:	20000797          	auipc	a5,0x20000
    3612:	cc879b23          	sh	s0,-810(a5) # 200032e4 <gTmosPara+0x8>
    3616:	40b2                	lw	ra,12(sp)
    3618:	4422                	lw	s0,8(sp)
    361a:	4492                	lw	s1,4(sp)
    361c:	0141                	addi	sp,sp,16
    361e:	8082                	ret
    3620:	8082                	ret

00003622 <TMOS_TimerInit>:
TMOS_TimerInit():
    3622:	20000797          	auipc	a5,0x20000
    3626:	d1278793          	addi	a5,a5,-750 # 20003334 <ble>
    362a:	57dc                	lw	a5,44(a5)
    362c:	1101                	addi	sp,sp,-32
    362e:	ce06                	sw	ra,28(sp)
    3630:	c781                	beqz	a5,3638 <TMOS_TimerInit+0x16>
    3632:	c62a                	sw	a0,12(sp)
    3634:	9782                	jalr	a5
    3636:	4532                	lw	a0,12(sp)
    3638:	c515                	beqz	a0,3664 <TMOS_TimerInit+0x42>
    363a:	003287b7          	lui	a5,0x328
    363e:	a1278793          	addi	a5,a5,-1518 # 327a12 <_data_lma+0x32139a>
    3642:	20000717          	auipc	a4,0x20000
    3646:	ccf72123          	sw	a5,-830(a4) # 20003304 <gTmosPara+0x28>
    364a:	20000797          	auipc	a5,0x20000
    364e:	d2a7a723          	sw	a0,-722(a5) # 20003378 <fnGetClockCBs>
    3652:	00000517          	auipc	a0,0x0
    3656:	f1850513          	addi	a0,a0,-232 # 356a <clockGetTickValve>
    365a:	3915                	jal	328e <TMOS_TimerRegister>
    365c:	40f2                	lw	ra,28(sp)
    365e:	4501                	li	a0,0
    3660:	6105                	addi	sp,sp,32
    3662:	8082                	ret
    3664:	20000797          	auipc	a5,0x20000
    3668:	ce67c783          	lbu	a5,-794(a5) # 2000334a <ble+0x16>
    366c:	01879713          	slli	a4,a5,0x18
    3670:	8761                	srai	a4,a4,0x18
    3672:	02075c63          	bgez	a4,36aa <TMOS_TimerInit+0x88>
    3676:	20000797          	auipc	a5,0x20000
    367a:	c807a123          	sw	zero,-894(a5) # 200032f8 <gTmosPara+0x1c>
    367e:	003287b7          	lui	a5,0x328
    3682:	a1278793          	addi	a5,a5,-1518 # 327a12 <_data_lma+0x32139a>
    3686:	20000717          	auipc	a4,0x20000
    368a:	c6f72f23          	sw	a5,-898(a4) # 20003304 <gTmosPara+0x28>
    368e:	577d                	li	a4,-1
    3690:	4000c7b7          	lui	a5,0x4000c
    3694:	26e7a423          	sw	a4,616(a5) # 4000c268 <_eusrstack+0x20004268>
    3698:	1fffd797          	auipc	a5,0x1fffd
    369c:	62478793          	addi	a5,a5,1572 # 20000cbc <clockGetHSEValue>
    36a0:	20000717          	auipc	a4,0x20000
    36a4:	ccf72c23          	sw	a5,-808(a4) # 20003378 <fnGetClockCBs>
    36a8:	b76d                	j	3652 <TMOS_TimerInit+0x30>
    36aa:	0017f713          	andi	a4,a5,1
    36ae:	cf11                	beqz	a4,36ca <TMOS_TimerInit+0xa8>
    36b0:	032087b7          	lui	a5,0x3208
    36b4:	d0078793          	addi	a5,a5,-768 # 3207d00 <_data_lma+0x3201688>
    36b8:	20000717          	auipc	a4,0x20000
    36bc:	c4f72623          	sw	a5,-948(a4) # 20003304 <gTmosPara+0x28>
    36c0:	1fffd797          	auipc	a5,0x1fffd
    36c4:	62e78793          	addi	a5,a5,1582 # 20000cee <clockGetLSEValue>
    36c8:	bfe1                	j	36a0 <TMOS_TimerInit+0x7e>
    36ca:	7761                	lui	a4,0xffff8
    36cc:	20000697          	auipc	a3,0x20000
    36d0:	c2e69c23          	sh	a4,-968(a3) # 20003304 <gTmosPara+0x28>
    36d4:	cb81                	beqz	a5,36e4 <TMOS_TimerInit+0xc2>
    36d6:	32000793          	li	a5,800
    36da:	20000717          	auipc	a4,0x20000
    36de:	c2f71623          	sh	a5,-980(a4) # 20003306 <gTmosPara+0x2a>
    36e2:	bff9                	j	36c0 <TMOS_TimerInit+0x9e>
    36e4:	03200793          	li	a5,50
    36e8:	bfcd                	j	36da <TMOS_TimerInit+0xb8>

000036ea <tmos_snv_init>:
tmos_snv_init():
    36ea:	1101                	addi	sp,sp,-32
    36ec:	cc22                	sw	s0,24(sp)
    36ee:	20000417          	auipc	s0,0x20000
    36f2:	c4640413          	addi	s0,s0,-954 # 20003334 <ble>
    36f6:	4408                	lw	a0,8(s0)
    36f8:	ce06                	sw	ra,28(sp)
    36fa:	ca26                	sw	s1,20(sp)
    36fc:	c84a                	sw	s2,16(sp)
    36fe:	e901                	bnez	a0,370e <tmos_snv_init+0x24>
    3700:	4505                	li	a0,1
    3702:	40f2                	lw	ra,28(sp)
    3704:	4462                	lw	s0,24(sp)
    3706:	44d2                	lw	s1,20(sp)
    3708:	4942                	lw	s2,16(sp)
    370a:	6105                	addi	sp,sp,32
    370c:	8082                	ret
    370e:	585c                	lw	a5,52(s0)
    3710:	dbe5                	beqz	a5,3700 <tmos_snv_init+0x16>
    3712:	5c18                	lw	a4,56(s0)
    3714:	d775                	beqz	a4,3700 <tmos_snv_init+0x16>
    3716:	0070                	addi	a2,sp,12
    3718:	4585                	li	a1,1
    371a:	9782                	jalr	a5
    371c:	4418                	lw	a4,8(s0)
    371e:	47b2                	lw	a5,12(sp)
    3720:	fef700e3          	beq	a4,a5,3700 <tmos_snv_init+0x16>
    3724:	04e00593          	li	a1,78
    3728:	20000517          	auipc	a0,0x20000
    372c:	c1855503          	lhu	a0,-1000(a0) # 20003340 <ble+0xc>
    3730:	1fffe097          	auipc	ra,0x1fffe
    3734:	f28080e7          	jalr	-216(ra) # 20001658 <tmos_memory_allocate>
    3738:	20000717          	auipc	a4,0x20000
    373c:	bca72223          	sw	a0,-1084(a4) # 200032fc <gTmosPara+0x20>
    3740:	d161                	beqz	a0,3700 <tmos_snv_init+0x16>
    3742:	20000617          	auipc	a2,0x20000
    3746:	bfe65603          	lhu	a2,-1026(a2) # 20003340 <ble+0xc>
    374a:	0ff00593          	li	a1,255
    374e:	1fffd097          	auipc	ra,0x1fffd
    3752:	15c080e7          	jalr	348(ra) # 200008aa <tmos_memset>
    3756:	4481                	li	s1,0
    3758:	20000917          	auipc	s2,0x20000
    375c:	b8490913          	addi	s2,s2,-1148 # 200032dc <gTmosPara>
    3760:	20000797          	auipc	a5,0x20000
    3764:	be27c783          	lbu	a5,-1054(a5) # 20003342 <ble+0xe>
    3768:	02092603          	lw	a2,32(s2)
    376c:	02f4c163          	blt	s1,a5,378e <tmos_snv_init+0xa4>
    3770:	8532                	mv	a0,a2
    3772:	1fffe097          	auipc	ra,0x1fffe
    3776:	fb8080e7          	jalr	-72(ra) # 2000172a <tmos_memory_free>
    377a:	4501                	li	a0,0
    377c:	20000797          	auipc	a5,0x20000
    3780:	b807a023          	sw	zero,-1152(a5) # 200032fc <gTmosPara+0x20>
    3784:	20000797          	auipc	a5,0x20000
    3788:	b607ae23          	sw	zero,-1156(a5) # 20003300 <gTmosPara+0x24>
    378c:	bf9d                	j	3702 <tmos_snv_init+0x18>
    378e:	20000597          	auipc	a1,0x20000
    3792:	bb25d583          	lhu	a1,-1102(a1) # 20003340 <ble+0xc>
    3796:	029587b3          	mul	a5,a1,s1
    379a:	4408                	lw	a0,8(s0)
    379c:	5c18                	lw	a4,56(s0)
    379e:	8189                	srli	a1,a1,0x2
    37a0:	0485                	addi	s1,s1,1
    37a2:	953e                	add	a0,a0,a5
    37a4:	c208                	sw	a0,0(a2)
    37a6:	9702                	jalr	a4
    37a8:	bf65                	j	3760 <tmos_snv_init+0x76>

000037aa <LL_GetNextConnectEventTime>:
LL_GetNextConnectEventTime():
    37aa:	20000797          	auipc	a5,0x20000
    37ae:	b357c783          	lbu	a5,-1227(a5) # 200032df <gTmosPara+0x3>
    37b2:	18078263          	beqz	a5,3936 <LL_GetNextConnectEventTime+0x18c>
    37b6:	1141                	addi	sp,sp,-16
    37b8:	c04a                	sw	s2,0(sp)
    37ba:	c606                	sw	ra,12(sp)
    37bc:	892a                	mv	s2,a0
    37be:	c422                	sw	s0,8(sp)
    37c0:	c226                	sw	s1,4(sp)
    37c2:	557d                	li	a0,-1
    37c4:	0e090c63          	beqz	s2,38bc <LL_GetNextConnectEventTime+0x112>
    37c8:	20000797          	auipc	a5,0x20000
    37cc:	c3878793          	addi	a5,a5,-968 # 20003400 <gBleLlPara>
    37d0:	08c7a683          	lw	a3,140(a5)
    37d4:	c6e5                	beqz	a3,38bc <LL_GetNextConnectEventTime+0x112>
    37d6:	20000497          	auipc	s1,0x20000
    37da:	b5e48493          	addi	s1,s1,-1186 # 20003334 <ble>
    37de:	01648883          	lb	a7,22(s1)
    37e2:	000f4537          	lui	a0,0xf4
    37e6:	23f50f13          	addi	t5,a0,575 # f423f <_data_lma+0xedbc7>
    37ea:	20000317          	auipc	t1,0x20000
    37ee:	b1a35303          	lhu	t1,-1254(t1) # 20003304 <gTmosPara+0x28>
    37f2:	20000f97          	auipc	t6,0x20000
    37f6:	b5afcf83          	lbu	t6,-1190(t6) # 2000334c <ble+0x18>
    37fa:	547d                	li	s0,-1
    37fc:	4e85                	li	t4,1
    37fe:	24050513          	addi	a0,a0,576
    3802:	a8c00e37          	lui	t3,0xa8c00
    3806:	429d                	li	t0,7
    3808:	4e200393          	li	t2,1250
    380c:	574000b7          	lui	ra,0x57400
    3810:	00b6c703          	lbu	a4,11(a3)
    3814:	0906a783          	lw	a5,144(a3)
    3818:	07d71a63          	bne	a4,t4,388c <LL_GetNextConnectEventTime+0xe2>
    381c:	07e6d703          	lhu	a4,126(a3)
    3820:	03a6d603          	lhu	a2,58(a3)
    3824:	0ac77863          	bgeu	a4,a2,38d4 <LL_GetNextConnectEventTime+0x12a>
    3828:	0106c583          	lbu	a1,16(a3)
    382c:	0bd59463          	bne	a1,t4,38d4 <LL_GetNextConnectEventTime+0x12a>
    3830:	1186a583          	lw	a1,280(a3)
    3834:	e1c5                	bnez	a1,38d4 <LL_GetNextConnectEventTime+0x12a>
    3836:	0a46a583          	lw	a1,164(a3)
    383a:	edc9                	bnez	a1,38d4 <LL_GetNextConnectEventTime+0x12a>
    383c:	00f6c583          	lbu	a1,15(a3)
    3840:	08559a63          	bne	a1,t0,38d4 <LL_GetNextConnectEventTime+0x12a>
    3844:	0386d583          	lhu	a1,56(a3)
    3848:	8e19                	sub	a2,a2,a4
    384a:	0946a703          	lw	a4,148(a3)
    384e:	02c585b3          	mul	a1,a1,a2
    3852:	02654633          	div	a2,a0,t1
    3856:	027585b3          	mul	a1,a1,t2
    385a:	02e5d733          	divu	a4,a1,a4
    385e:	02c5d5b3          	divu	a1,a1,a2
    3862:	977e                	add	a4,a4,t6
    3864:	0742                	slli	a4,a4,0x10
    3866:	8341                	srli	a4,a4,0x10
    3868:	08e69223          	sh	a4,132(a3)
    386c:	00f58633          	add	a2,a1,a5
    3870:	0008c563          	bltz	a7,387a <LL_GetNextConnectEventTime+0xd0>
    3874:	01c66363          	bltu	a2,t3,387a <LL_GetNextConnectEventTime+0xd0>
    3878:	9606                	add	a2,a2,ra
    387a:	026707b3          	mul	a5,a4,t1
    387e:	97fa                	add	a5,a5,t5
    3880:	02a7d7b3          	divu	a5,a5,a0
    3884:	0408d263          	bgez	a7,38c8 <LL_GetNextConnectEventTime+0x11e>
    3888:	40f607b3          	sub	a5,a2,a5
    388c:	0087f363          	bgeu	a5,s0,3892 <LL_GetNextConnectEventTime+0xe8>
    3890:	843e                	mv	s0,a5
    3892:	4294                	lw	a3,0(a3)
    3894:	feb5                	bnez	a3,3810 <LL_GetNextConnectEventTime+0x66>
    3896:	20000797          	auipc	a5,0x20000
    389a:	ae278793          	addi	a5,a5,-1310 # 20003378 <fnGetClockCBs>
    389e:	439c                	lw	a5,0(a5)
    38a0:	9782                	jalr	a5
    38a2:	04a46863          	bltu	s0,a0,38f2 <LL_GetNextConnectEventTime+0x148>
    38a6:	40a407b3          	sub	a5,s0,a0
    38aa:	00f92023          	sw	a5,0(s2)
    38ae:	00092783          	lw	a5,0(s2)
    38b2:	4729                	li	a4,10
    38b4:	04f76f63          	bltu	a4,a5,3912 <LL_GetNextConnectEventTime+0x168>
    38b8:	00092023          	sw	zero,0(s2)
    38bc:	40b2                	lw	ra,12(sp)
    38be:	4422                	lw	s0,8(sp)
    38c0:	4492                	lw	s1,4(sp)
    38c2:	4902                	lw	s2,0(sp)
    38c4:	0141                	addi	sp,sp,16
    38c6:	8082                	ret
    38c8:	fcf670e3          	bgeu	a2,a5,3888 <LL_GetNextConnectEventTime+0xde>
    38cc:	40fe07b3          	sub	a5,t3,a5
    38d0:	97b2                	add	a5,a5,a2
    38d2:	bf6d                	j	388c <LL_GetNextConnectEventTime+0xe2>
    38d4:	0846d703          	lhu	a4,132(a3)
    38d8:	02670733          	mul	a4,a4,t1
    38dc:	977a                	add	a4,a4,t5
    38de:	02a75733          	divu	a4,a4,a0
    38e2:	0008d463          	bgez	a7,38ea <LL_GetNextConnectEventTime+0x140>
    38e6:	8f99                	sub	a5,a5,a4
    38e8:	b755                	j	388c <LL_GetNextConnectEventTime+0xe2>
    38ea:	fee7fee3          	bgeu	a5,a4,38e6 <LL_GetNextConnectEventTime+0x13c>
    38ee:	97f2                	add	a5,a5,t3
    38f0:	bfdd                	j	38e6 <LL_GetNextConnectEventTime+0x13c>
    38f2:	408507b3          	sub	a5,a0,s0
    38f6:	0007db63          	bgez	a5,390c <LL_GetNextConnectEventTime+0x162>
    38fa:	01648783          	lb	a5,22(s1)
    38fe:	fa07c4e3          	bltz	a5,38a6 <LL_GetNextConnectEventTime+0xfc>
    3902:	a8c007b7          	lui	a5,0xa8c00
    3906:	97a2                	add	a5,a5,s0
    3908:	8f89                	sub	a5,a5,a0
    390a:	b745                	j	38aa <LL_GetNextConnectEventTime+0x100>
    390c:	00092023          	sw	zero,0(s2)
    3910:	bf79                	j	38ae <LL_GetNextConnectEventTime+0x104>
    3912:	17d9                	addi	a5,a5,-10
    3914:	00f92023          	sw	a5,0(s2)
    3918:	01648783          	lb	a5,22(s1)
    391c:	0007d563          	bgez	a5,3926 <LL_GetNextConnectEventTime+0x17c>
    3920:	ff640513          	addi	a0,s0,-10
    3924:	bf61                	j	38bc <LL_GetNextConnectEventTime+0x112>
    3926:	47a5                	li	a5,9
    3928:	fe87ece3          	bltu	a5,s0,3920 <LL_GetNextConnectEventTime+0x176>
    392c:	a8c00537          	lui	a0,0xa8c00
    3930:	1559                	addi	a0,a0,-10
    3932:	9522                	add	a0,a0,s0
    3934:	b761                	j	38bc <LL_GetNextConnectEventTime+0x112>
    3936:	557d                	li	a0,-1
    3938:	8082                	ret

0000393a <LL_ScanSetRF>:
LL_ScanSetRF():
    393a:	1141                	addi	sp,sp,-16
    393c:	20000797          	auipc	a5,0x20000
    3940:	ac478793          	addi	a5,a5,-1340 # 20003400 <gBleLlPara>
    3944:	c226                	sw	s1,4(sp)
    3946:	20000497          	auipc	s1,0x20000
    394a:	a5e48493          	addi	s1,s1,-1442 # 200033a4 <gptrLLEReg>
    394e:	c422                	sw	s0,8(sp)
    3950:	5be0                	lw	s0,116(a5)
    3952:	409c                	lw	a5,0(s1)
    3954:	c606                	sw	ra,12(sp)
    3956:	c04a                	sw	s2,0(sp)
    3958:	4398                	lw	a4,0(a5)
    395a:	8b0d                	andi	a4,a4,3
    395c:	c305                	beqz	a4,397c <LL_ScanSetRF+0x42>
    395e:	4bb8                	lw	a4,80(a5)
    3960:	9b61                	andi	a4,a4,-8
    3962:	cbb8                	sw	a4,80(a5)
    3964:	4398                	lw	a4,0(a5)
    3966:	00876713          	ori	a4,a4,8
    396a:	c398                	sw	a4,0(a5)
    396c:	439c                	lw	a5,0(a5)
    396e:	838d                	srli	a5,a5,0x3
    3970:	8b85                	andi	a5,a5,1
    3972:	c789                	beqz	a5,397c <LL_ScanSetRF+0x42>
    3974:	0001                	nop
    3976:	0001                	nop
    3978:	0001                	nop
    397a:	0001                	nop
    397c:	20000797          	auipc	a5,0x20000
    3980:	a0478793          	addi	a5,a5,-1532 # 20003380 <gptrBBReg>
    3984:	4394                	lw	a3,0(a5)
    3986:	8e89c737          	lui	a4,0x8e89c
    398a:	ed670713          	addi	a4,a4,-298 # 8e89bed6 <_eusrstack+0x6e893ed6>
    398e:	c698                	sw	a4,8(a3)
    3990:	00555737          	lui	a4,0x555
    3994:	55570713          	addi	a4,a4,1365 # 555555 <_data_lma+0x54eedd>
    3998:	c2d8                	sw	a4,4(a3)
    399a:	02244703          	lbu	a4,34(s0)
    399e:	0ff00693          	li	a3,255
    39a2:	893e                	mv	s2,a5
    39a4:	00d70763          	beq	a4,a3,39b2 <LL_ScanSetRF+0x78>
    39a8:	57fd                	li	a5,-1
    39aa:	02e400a3          	sb	a4,33(s0)
    39ae:	02f40123          	sb	a5,34(s0)
    39b2:	02144503          	lbu	a0,33(s0)
    39b6:	4789                	li	a5,2
    39b8:	00f50363          	beq	a0,a5,39be <LL_ScanSetRF+0x84>
    39bc:	4501                	li	a0,0
    39be:	4098                	lw	a4,0(s1)
    39c0:	435c                	lw	a5,4(a4)
    39c2:	0017e793          	ori	a5,a5,1
    39c6:	c35c                	sw	a5,4(a4)
    39c8:	fa100793          	li	a5,-95
    39cc:	00f40523          	sb	a5,10(s0)
    39d0:	20000797          	auipc	a5,0x20000
    39d4:	9c17c783          	lbu	a5,-1599(a5) # 20003391 <gBleIPPara+0x9>
    39d8:	cf81                	beqz	a5,39f0 <LL_ScanSetRF+0xb6>
    39da:	20000717          	auipc	a4,0x20000
    39de:	9b674703          	lbu	a4,-1610(a4) # 20003390 <gBleIPPara+0x8>
    39e2:	4795                	li	a5,5
    39e4:	00f71663          	bne	a4,a5,39f0 <LL_ScanSetRF+0xb6>
    39e8:	20000797          	auipc	a5,0x20000
    39ec:	9a0784a3          	sb	zero,-1623(a5) # 20003391 <gBleIPPara+0x9>
    39f0:	20000717          	auipc	a4,0x20000
    39f4:	99f74703          	lbu	a4,-1633(a4) # 2000338f <gBleIPPara+0x7>
    39f8:	479d                	li	a5,7
    39fa:	00f71863          	bne	a4,a5,3a0a <LL_ScanSetRF+0xd0>
    39fe:	10700793          	li	a5,263
    3a02:	20000717          	auipc	a4,0x20000
    3a06:	98f71723          	sh	a5,-1650(a4) # 20003390 <gBleIPPara+0x8>
    3a0a:	4795                	li	a5,5
    3a0c:	20000717          	auipc	a4,0x20000
    3a10:	98f701a3          	sb	a5,-1661(a4) # 2000338f <gBleIPPara+0x7>
    3a14:	4601                	li	a2,0
    3a16:	20000797          	auipc	a5,0x20000
    3a1a:	96078923          	sb	zero,-1678(a5) # 20003388 <gBleIPPara>
    3a1e:	0ff00593          	li	a1,255
    3a22:	20000797          	auipc	a5,0x20000
    3a26:	96078523          	sb	zero,-1686(a5) # 2000338c <gBleIPPara+0x4>
    3a2a:	24b9                	jal	3c78 <BLE_SetPHYRxMode>
    3a2c:	4090                	lw	a2,0(s1)
    3a2e:	20000797          	auipc	a5,0x20000
    3a32:	94078fa3          	sb	zero,-1697(a5) # 2000338d <gBleIPPara+0x5>
    3a36:	20000797          	auipc	a5,0x20000
    3a3a:	940789a3          	sb	zero,-1709(a5) # 20003389 <gBleIPPara+0x1>
    3a3e:	4785                	li	a5,1
    3a40:	c21c                	sw	a5,0(a2)
    3a42:	00092783          	lw	a5,0(s2)
    3a46:	003305b7          	lui	a1,0x330
    3a4a:	4398                	lw	a4,0(a5)
    3a4c:	e7f77713          	andi	a4,a4,-385
    3a50:	c398                	sw	a4,0(a5)
    3a52:	4398                	lw	a4,0(a5)
    3a54:	e7f77713          	andi	a4,a4,-385
    3a58:	10076713          	ori	a4,a4,256
    3a5c:	c398                	sw	a4,0(a5)
    3a5e:	20000717          	auipc	a4,0x20000
    3a62:	98a70713          	addi	a4,a4,-1654 # 200033e8 <gptrRFENDReg>
    3a66:	4318                	lw	a4,0(a4)
    3a68:	4714                	lw	a3,8(a4)
    3a6a:	8ecd                	or	a3,a3,a1
    3a6c:	c714                	sw	a3,8(a4)
    3a6e:	0d900693          	li	a3,217
    3a72:	ca34                	sw	a3,80(a2)
    3a74:	5754                	lw	a3,44(a4)
    3a76:	9af5                	andi	a3,a3,-3
    3a78:	d754                	sw	a3,44(a4)
    3a7a:	00944703          	lbu	a4,9(s0)
    3a7e:	07f77693          	andi	a3,a4,127
    3a82:	4398                	lw	a4,0(a5)
    3a84:	f8077713          	andi	a4,a4,-128
    3a88:	8f55                	or	a4,a4,a3
    3a8a:	c398                	sw	a4,0(a5)
    3a8c:	40b2                	lw	ra,12(sp)
    3a8e:	4422                	lw	s0,8(sp)
    3a90:	4492                	lw	s1,4(sp)
    3a92:	4902                	lw	s2,0(sp)
    3a94:	0141                	addi	sp,sp,16
    3a96:	8082                	ret

00003a98 <BB_DevInit>:
BB_DevInit():
    3a98:	20000617          	auipc	a2,0x20000
    3a9c:	8e860613          	addi	a2,a2,-1816 # 20003380 <gptrBBReg>
    3aa0:	421c                	lw	a5,0(a2)
    3aa2:	008006b7          	lui	a3,0x800
    3aa6:	800115b7          	lui	a1,0x80011
    3aaa:	4398                	lw	a4,0(a5)
    3aac:	e7858593          	addi	a1,a1,-392 # 80010e78 <_eusrstack+0x60008e78>
    3ab0:	8f55                	or	a4,a4,a3
    3ab2:	c398                	sw	a4,0(a5)
    3ab4:	4398                	lw	a4,0(a5)
    3ab6:	100006b7          	lui	a3,0x10000
    3aba:	8f55                	or	a4,a4,a3
    3abc:	c398                	sw	a4,0(a5)
    3abe:	1d000713          	li	a4,464
    3ac2:	dbd8                	sw	a4,52(a5)
    3ac4:	20000717          	auipc	a4,0x20000
    3ac8:	88474703          	lbu	a4,-1916(a4) # 20003348 <ble+0x14>
    3acc:	01971693          	slli	a3,a4,0x19
    3ad0:	8ecd                	or	a3,a3,a1
    3ad2:	d7d4                	sw	a3,44(a5)
    3ad4:	57d4                	lw	a3,44(a5)
    3ad6:	820005b7          	lui	a1,0x82000
    3ada:	03f77713          	andi	a4,a4,63
    3ade:	15fd                	addi	a1,a1,-1
    3ae0:	8eed                	and	a3,a3,a1
    3ae2:	0766                	slli	a4,a4,0x19
    3ae4:	8f55                	or	a4,a4,a3
    3ae6:	d7d8                	sw	a4,44(a5)
    3ae8:	40001737          	lui	a4,0x40001
    3aec:	05700793          	li	a5,87
    3af0:	04f70023          	sb	a5,64(a4) # 40001040 <_eusrstack+0x1fff9040>
    3af4:	fa800793          	li	a5,-88
    3af8:	04f70023          	sb	a5,64(a4)
    3afc:	20000697          	auipc	a3,0x20000
    3b00:	84c6c683          	lbu	a3,-1972(a3) # 20003348 <ble+0x14>
    3b04:	47b5                	li	a5,13
    3b06:	02d7fb63          	bgeu	a5,a3,3b3c <BB_DevInit+0xa4>
    3b0a:	02275783          	lhu	a5,34(a4)
    3b0e:	0107e793          	ori	a5,a5,16
    3b12:	02f71123          	sh	a5,34(a4)
    3b16:	4218                	lw	a4,0(a2)
    3b18:	000907b7          	lui	a5,0x90
    3b1c:	08378793          	addi	a5,a5,131 # 90083 <_data_lma+0x89a0b>
    3b20:	d31c                	sw	a5,32(a4)
    3b22:	e000e737          	lui	a4,0xe000e
    3b26:	47d1                	li	a5,20
    3b28:	04f709a3          	sb	a5,83(a4) # e000e053 <_eusrstack+0xc0006053>
    3b2c:	1fffd797          	auipc	a5,0x1fffd
    3b30:	1dc78793          	addi	a5,a5,476 # 20000d08 <BB_IRQLibHandler>
    3b34:	0017e793          	ori	a5,a5,1
    3b38:	d77c                	sw	a5,108(a4)
    3b3a:	8082                	ret
    3b3c:	02275783          	lhu	a5,34(a4)
    3b40:	07c2                	slli	a5,a5,0x10
    3b42:	83c1                	srli	a5,a5,0x10
    3b44:	9bbd                	andi	a5,a5,-17
    3b46:	07c2                	slli	a5,a5,0x10
    3b48:	83c1                	srli	a5,a5,0x10
    3b4a:	b7e1                	j	3b12 <BB_DevInit+0x7a>

00003b4c <BLE_SetPHYTxMode>:
BLE_SetPHYTxMode():
    3b4c:	20000797          	auipc	a5,0x20000
    3b50:	83878793          	addi	a5,a5,-1992 # 20003384 <gPaControl>
    3b54:	439c                	lw	a5,0(a5)
    3b56:	cb99                	beqz	a5,3b6c <BLE_SetPHYTxMode+0x20>
    3b58:	4b94                	lw	a3,16(a5)
    3b5a:	4bd0                	lw	a2,20(a5)
    3b5c:	4298                	lw	a4,0(a3)
    3b5e:	8f51                	or	a4,a4,a2
    3b60:	c298                	sw	a4,0(a3)
    3b62:	4394                	lw	a3,0(a5)
    3b64:	479c                	lw	a5,8(a5)
    3b66:	4298                	lw	a4,0(a3)
    3b68:	8fd9                	or	a5,a5,a4
    3b6a:	c29c                	sw	a5,0(a3)
    3b6c:	20000797          	auipc	a5,0x20000
    3b70:	81478793          	addi	a5,a5,-2028 # 20003380 <gptrBBReg>
    3b74:	20000617          	auipc	a2,0x20000
    3b78:	83060613          	addi	a2,a2,-2000 # 200033a4 <gptrLLEReg>
    3b7c:	00257693          	andi	a3,a0,2
    3b80:	4398                	lw	a4,0(a5)
    3b82:	00062803          	lw	a6,0(a2)
    3b86:	20000797          	auipc	a5,0x20000
    3b8a:	80c7c783          	lbu	a5,-2036(a5) # 20003392 <gBleIPPara+0xa>
    3b8e:	c6c1                	beqz	a3,3c16 <BLE_SetPHYTxMode+0xca>
    3b90:	4314                	lw	a3,0(a4)
    3b92:	78f5                	lui	a7,0xffffd
    3b94:	18fd                	addi	a7,a7,-1
    3b96:	0116f6b3          	and	a3,a3,a7
    3b9a:	6309                	lui	t1,0x2
    3b9c:	0066e6b3          	or	a3,a3,t1
    3ba0:	c314                	sw	a3,0(a4)
    3ba2:	76d1                	lui	a3,0xffff4
    3ba4:	fff68893          	addi	a7,a3,-1 # ffff3fff <_eusrstack+0xdffebfff>
    3ba8:	4314                	lw	a3,0(a4)
    3baa:	058e                	slli	a1,a1,0x3
    3bac:	4e0d                	li	t3,3
    3bae:	02b58593          	addi	a1,a1,43 # 8200002b <_eusrstack+0x61ff802b>
    3bb2:	23678793          	addi	a5,a5,566
    3bb6:	0116f6b3          	and	a3,a3,a7
    3bba:	03c51c63          	bne	a0,t3,3bf2 <BLE_SetPHYTxMode+0xa6>
    3bbe:	6511                	lui	a0,0x4
    3bc0:	8ec9                	or	a3,a3,a0
    3bc2:	c314                	sw	a3,0(a4)
    3bc4:	6735                	lui	a4,0xd
    3bc6:	073d                	addi	a4,a4,15
    3bc8:	00e82623          	sw	a4,12(a6)
    3bcc:	0000100f          	fence.i
    3bd0:	4218                	lw	a4,0(a2)
    3bd2:	f8000693          	li	a3,-128
    3bd6:	0586                	slli	a1,a1,0x1
    3bd8:	00672423          	sw	t1,8(a4) # d008 <_data_lma+0x6990>
    3bdc:	1ffff617          	auipc	a2,0x1ffff
    3be0:	7ad60823          	sb	a3,1968(a2) # 2000338c <gBleIPPara+0x4>
    3be4:	95be                	add	a1,a1,a5
    3be6:	0586                	slli	a1,a1,0x1
    3be8:	67bd                	lui	a5,0xf
    3bea:	d36c                	sw	a1,100(a4)
    3bec:	07bd                	addi	a5,a5,15
    3bee:	c75c                	sw	a5,12(a4)
    3bf0:	8082                	ret
    3bf2:	c314                	sw	a3,0(a4)
    3bf4:	6735                	lui	a4,0xd
    3bf6:	073d                	addi	a4,a4,15
    3bf8:	00e82623          	sw	a4,12(a6)
    3bfc:	0000100f          	fence.i
    3c00:	4218                	lw	a4,0(a2)
    3c02:	f8000693          	li	a3,-128
    3c06:	00672423          	sw	t1,8(a4) # d008 <_data_lma+0x6990>
    3c0a:	1ffff617          	auipc	a2,0x1ffff
    3c0e:	78d60123          	sb	a3,1922(a2) # 2000338c <gBleIPPara+0x4>
    3c12:	058e                	slli	a1,a1,0x3
    3c14:	bfc1                	j	3be4 <BLE_SetPHYTxMode+0x98>
    3c16:	76f5                	lui	a3,0xffffd
    3c18:	fff68893          	addi	a7,a3,-1 # ffffcfff <_eusrstack+0xdfff4fff>
    3c1c:	4314                	lw	a3,0(a4)
    3c1e:	8905                	andi	a0,a0,1
    3c20:	09e78793          	addi	a5,a5,158 # f09e <_data_lma+0x8a26>
    3c24:	0116f6b3          	and	a3,a3,a7
    3c28:	c505                	beqz	a0,3c50 <BLE_SetPHYTxMode+0x104>
    3c2a:	c314                	sw	a3,0(a4)
    3c2c:	6735                	lui	a4,0xd
    3c2e:	073d                	addi	a4,a4,15
    3c30:	00e82623          	sw	a4,12(a6)
    3c34:	0000100f          	fence.i
    3c38:	4218                	lw	a4,0(a2)
    3c3a:	6689                	lui	a3,0x2
    3c3c:	05ad                	addi	a1,a1,11
    3c3e:	c714                	sw	a3,8(a4)
    3c40:	f8000693          	li	a3,-128
    3c44:	1ffff617          	auipc	a2,0x1ffff
    3c48:	74d60423          	sb	a3,1864(a2) # 2000338c <gBleIPPara+0x4>
    3c4c:	058a                	slli	a1,a1,0x2
    3c4e:	bf59                	j	3be4 <BLE_SetPHYTxMode+0x98>
    3c50:	6505                	lui	a0,0x1
    3c52:	8ec9                	or	a3,a3,a0
    3c54:	c314                	sw	a3,0(a4)
    3c56:	6735                	lui	a4,0xd
    3c58:	073d                	addi	a4,a4,15
    3c5a:	00e82623          	sw	a4,12(a6)
    3c5e:	0000100f          	fence.i
    3c62:	4218                	lw	a4,0(a2)
    3c64:	6689                	lui	a3,0x2
    3c66:	05a9                	addi	a1,a1,10
    3c68:	c714                	sw	a3,8(a4)
    3c6a:	f8000693          	li	a3,-128
    3c6e:	1ffff617          	auipc	a2,0x1ffff
    3c72:	70d60f23          	sb	a3,1822(a2) # 2000338c <gBleIPPara+0x4>
    3c76:	bf71                	j	3c12 <BLE_SetPHYTxMode+0xc6>

00003c78 <BLE_SetPHYRxMode>:
BLE_SetPHYRxMode():
    3c78:	1ffff797          	auipc	a5,0x1ffff
    3c7c:	70c78793          	addi	a5,a5,1804 # 20003384 <gPaControl>
    3c80:	439c                	lw	a5,0(a5)
    3c82:	cf89                	beqz	a5,3c9c <BLE_SetPHYRxMode+0x24>
    3c84:	43d4                	lw	a3,4(a5)
    3c86:	0087a803          	lw	a6,8(a5)
    3c8a:	4298                	lw	a4,0(a3)
    3c8c:	01076733          	or	a4,a4,a6
    3c90:	c298                	sw	a4,0(a3)
    3c92:	47d4                	lw	a3,12(a5)
    3c94:	4bdc                	lw	a5,20(a5)
    3c96:	4298                	lw	a4,0(a3)
    3c98:	8fd9                	or	a5,a5,a4
    3c9a:	c29c                	sw	a5,0(a3)
    3c9c:	1ffff797          	auipc	a5,0x1ffff
    3ca0:	6e478793          	addi	a5,a5,1764 # 20003380 <gptrBBReg>
    3ca4:	00257713          	andi	a4,a0,2
    3ca8:	439c                	lw	a5,0(a5)
    3caa:	c335                	beqz	a4,3d0e <BLE_SetPHYRxMode+0x96>
    3cac:	4398                	lw	a4,0(a5)
    3cae:	76f5                	lui	a3,0xffffd
    3cb0:	16fd                	addi	a3,a3,-1
    3cb2:	8f75                	and	a4,a4,a3
    3cb4:	6689                	lui	a3,0x2
    3cb6:	8f55                	or	a4,a4,a3
    3cb8:	c398                	sw	a4,0(a5)
    3cba:	00090737          	lui	a4,0x90
    3cbe:	08670713          	addi	a4,a4,134 # 90086 <_data_lma+0x89a0e>
    3cc2:	d398                	sw	a4,32(a5)
    3cc4:	00372737          	lui	a4,0x372
    3cc8:	2df70713          	addi	a4,a4,735 # 3722df <_data_lma+0x36bc67>
    3ccc:	cb98                	sw	a4,16(a5)
    3cce:	08302737          	lui	a4,0x8302
    3cd2:	1745                	addi	a4,a4,-15
    3cd4:	cbd8                	sw	a4,20(a5)
    3cd6:	00031737          	lui	a4,0x31
    3cda:	61970713          	addi	a4,a4,1561 # 31619 <_data_lma+0x2afa1>
    3cde:	cf98                	sw	a4,24(a5)
    3ce0:	670d                	lui	a4,0x3
    3ce2:	8de70713          	addi	a4,a4,-1826 # 28de <USB_DevTransProcess+0x1ee>
    3ce6:	d798                	sw	a4,40(a5)
    3ce8:	01006737          	lui	a4,0x1006
    3cec:	31070713          	addi	a4,a4,784 # 1006310 <_data_lma+0xfffc98>
    3cf0:	059e                	slli	a1,a1,0x7
    3cf2:	d3d8                	sw	a4,36(a5)
    3cf4:	36458593          	addi	a1,a1,868
    3cf8:	1ffff797          	auipc	a5,0x1ffff
    3cfc:	68b7ae23          	sw	a1,1692(a5) # 20003394 <gBleIPPara+0xc>
    3d00:	c611                	beqz	a2,3d0c <BLE_SetPHYRxMode+0x94>
    3d02:	0606                	slli	a2,a2,0x1
    3d04:	1ffff797          	auipc	a5,0x1ffff
    3d08:	68c7a823          	sw	a2,1680(a5) # 20003394 <gBleIPPara+0xc>
    3d0c:	8082                	ret
    3d0e:	00090737          	lui	a4,0x90
    3d12:	08370713          	addi	a4,a4,131 # 90083 <_data_lma+0x89a0b>
    3d16:	d398                	sw	a4,32(a5)
    3d18:	08102737          	lui	a4,0x8102
    3d1c:	90170713          	addi	a4,a4,-1791 # 8101901 <_data_lma+0x80fb289>
    3d20:	cbd8                	sw	a4,20(a5)
    3d22:	00031737          	lui	a4,0x31
    3d26:	62470713          	addi	a4,a4,1572 # 31624 <_data_lma+0x2afac>
    3d2a:	cf98                	sw	a4,24(a5)
    3d2c:	670d                	lui	a4,0x3
    3d2e:	8be70713          	addi	a4,a4,-1858 # 28be <USB_DevTransProcess+0x1ce>
    3d32:	d798                	sw	a4,40(a5)
    3d34:	01006737          	lui	a4,0x1006
    3d38:	31070713          	addi	a4,a4,784 # 1006310 <_data_lma+0xfffc98>
    3d3c:	d3d8                	sw	a4,36(a5)
    3d3e:	7775                	lui	a4,0xffffd
    3d40:	fff70693          	addi	a3,a4,-1 # ffffcfff <_eusrstack+0xdfff4fff>
    3d44:	4398                	lw	a4,0(a5)
    3d46:	4805                	li	a6,1
    3d48:	0595                	addi	a1,a1,5
    3d4a:	8f75                	and	a4,a4,a3
    3d4c:	01051c63          	bne	a0,a6,3d64 <BLE_SetPHYRxMode+0xec>
    3d50:	c398                	sw	a4,0(a5)
    3d52:	002d2737          	lui	a4,0x2d2
    3d56:	2d070713          	addi	a4,a4,720 # 2d22d0 <_data_lma+0x2cbc58>
    3d5a:	cb98                	sw	a4,16(a5)
    3d5c:	058e                	slli	a1,a1,0x3
    3d5e:	03c58593          	addi	a1,a1,60
    3d62:	bf59                	j	3cf8 <BLE_SetPHYRxMode+0x80>
    3d64:	6685                	lui	a3,0x1
    3d66:	8f55                	or	a4,a4,a3
    3d68:	c398                	sw	a4,0(a5)
    3d6a:	00372737          	lui	a4,0x372
    3d6e:	2d070713          	addi	a4,a4,720 # 3722d0 <_data_lma+0x36bc58>
    3d72:	cb98                	sw	a4,16(a5)
    3d74:	0592                	slli	a1,a1,0x4
    3d76:	b7e5                	j	3d5e <BLE_SetPHYRxMode+0xe6>

00003d78 <ll_multi_states_check>:
ll_multi_states_check():
    3d78:	1ffff797          	auipc	a5,0x1ffff
    3d7c:	6197c783          	lbu	a5,1561(a5) # 20003391 <gBleIPPara+0x9>
    3d80:	e78d                	bnez	a5,3daa <ll_multi_states_check+0x32>
    3d82:	1ffff717          	auipc	a4,0x1ffff
    3d86:	60d74703          	lbu	a4,1549(a4) # 2000338f <gBleIPPara+0x7>
    3d8a:	ffb70793          	addi	a5,a4,-5
    3d8e:	0ff7f793          	andi	a5,a5,255
    3d92:	4689                	li	a3,2
    3d94:	00f6eb63          	bltu	a3,a5,3daa <ll_multi_states_check+0x32>
    3d98:	1ffff797          	auipc	a5,0x1ffff
    3d9c:	5ee78c23          	sb	a4,1528(a5) # 20003390 <gBleIPPara+0x8>
    3da0:	4785                	li	a5,1
    3da2:	1ffff717          	auipc	a4,0x1ffff
    3da6:	5ef707a3          	sb	a5,1519(a4) # 20003391 <gBleIPPara+0x9>
    3daa:	8082                	ret

00003dac <ll_multi_states_process>:
ll_multi_states_process():
    3dac:	1141                	addi	sp,sp,-16
    3dae:	c606                	sw	ra,12(sp)
    3db0:	1ffff717          	auipc	a4,0x1ffff
    3db4:	5e074703          	lbu	a4,1504(a4) # 20003390 <gBleIPPara+0x8>
    3db8:	479d                	li	a5,7
    3dba:	04f71163          	bne	a4,a5,3dfc <ll_multi_states_process+0x50>
    3dbe:	1ffff797          	auipc	a5,0x1ffff
    3dc2:	5ea7c783          	lbu	a5,1514(a5) # 200033a8 <rfConfig>
    3dc6:	8b85                	andi	a5,a5,1
    3dc8:	1ffff617          	auipc	a2,0x1ffff
    3dcc:	60364603          	lbu	a2,1539(a2) # 200033cb <rfInfo+0x3>
    3dd0:	1ffff697          	auipc	a3,0x1ffff
    3dd4:	5fa6c683          	lbu	a3,1530(a3) # 200033ca <rfInfo+0x2>
    3dd8:	c7b5                	beqz	a5,3e44 <ll_multi_states_process+0x98>
    3dda:	1ffff797          	auipc	a5,0x1ffff
    3dde:	5ee78793          	addi	a5,a5,1518 # 200033c8 <rfInfo>
    3de2:	43c8                	lw	a0,4(a5)
    3de4:	c125                	beqz	a0,3e44 <ll_multi_states_process+0x98>
    3de6:	00154583          	lbu	a1,1(a0) # 1001 <_einit+0xffd>
    3dea:	0509                	addi	a0,a0,2
    3dec:	151000ef          	jal	ra,473c <RF_Rx>
    3df0:	c511                	beqz	a0,3dfc <ll_multi_states_process+0x50>
    3df2:	4785                	li	a5,1
    3df4:	1ffff717          	auipc	a4,0x1ffff
    3df8:	58f70ea3          	sb	a5,1437(a4) # 20003391 <gBleIPPara+0x9>
    3dfc:	1ffff717          	auipc	a4,0x1ffff
    3e00:	59474703          	lbu	a4,1428(a4) # 20003390 <gBleIPPara+0x8>
    3e04:	4795                	li	a5,5
    3e06:	00f71b63          	bne	a4,a5,3e1c <ll_multi_states_process+0x70>
    3e0a:	1ffff797          	auipc	a5,0x1ffff
    3e0e:	5f678793          	addi	a5,a5,1526 # 20003400 <gBleLlPara>
    3e12:	5bfc                	lw	a5,116(a5)
    3e14:	00b7c783          	lbu	a5,11(a5)
    3e18:	cb8d                	beqz	a5,3e4a <ll_multi_states_process+0x9e>
    3e1a:	3605                	jal	393a <LL_ScanSetRF>
    3e1c:	1ffff717          	auipc	a4,0x1ffff
    3e20:	57474703          	lbu	a4,1396(a4) # 20003390 <gBleIPPara+0x8>
    3e24:	4799                	li	a5,6
    3e26:	02f71263          	bne	a4,a5,3e4a <ll_multi_states_process+0x9e>
    3e2a:	1ffff797          	auipc	a5,0x1ffff
    3e2e:	5d678793          	addi	a5,a5,1494 # 20003400 <gBleLlPara>
    3e32:	0847a783          	lw	a5,132(a5)
    3e36:	0077c783          	lbu	a5,7(a5)
    3e3a:	cb81                	beqz	a5,3e4a <ll_multi_states_process+0x9e>
    3e3c:	40b2                	lw	ra,12(sp)
    3e3e:	0141                	addi	sp,sp,16
    3e40:	4560206f          	j	6296 <LL_InitiateSetRF>
    3e44:	4581                	li	a1,0
    3e46:	4501                	li	a0,0
    3e48:	b755                	j	3dec <ll_multi_states_process+0x40>
    3e4a:	40b2                	lw	ra,12(sp)
    3e4c:	0141                	addi	sp,sp,16
    3e4e:	8082                	ret

00003e50 <ble_ll_hw_api_shut>:
ble_ll_hw_api_shut():
    3e50:	1ffff717          	auipc	a4,0x1ffff
    3e54:	55470713          	addi	a4,a4,1364 # 200033a4 <gptrLLEReg>
    3e58:	431c                	lw	a5,0(a4)
    3e5a:	4394                	lw	a3,0(a5)
    3e5c:	8a8d                	andi	a3,a3,3
    3e5e:	c285                	beqz	a3,3e7e <ble_ll_hw_api_shut+0x2e>
    3e60:	4bb4                	lw	a3,80(a5)
    3e62:	9ae1                	andi	a3,a3,-8
    3e64:	cbb4                	sw	a3,80(a5)
    3e66:	4394                	lw	a3,0(a5)
    3e68:	0086e693          	ori	a3,a3,8
    3e6c:	c394                	sw	a3,0(a5)
    3e6e:	439c                	lw	a5,0(a5)
    3e70:	838d                	srli	a5,a5,0x3
    3e72:	8b85                	andi	a5,a5,1
    3e74:	c789                	beqz	a5,3e7e <ble_ll_hw_api_shut+0x2e>
    3e76:	0001                	nop
    3e78:	0001                	nop
    3e7a:	0001                	nop
    3e7c:	0001                	nop
    3e7e:	1ffff797          	auipc	a5,0x1ffff
    3e82:	50278793          	addi	a5,a5,1282 # 20003380 <gptrBBReg>
    3e86:	4394                	lw	a3,0(a5)
    3e88:	429c                	lw	a5,0(a3)
    3e8a:	e7f7f793          	andi	a5,a5,-385
    3e8e:	0807e793          	ori	a5,a5,128
    3e92:	c29c                	sw	a5,0(a3)
    3e94:	1ffff797          	auipc	a5,0x1ffff
    3e98:	55478793          	addi	a5,a5,1364 # 200033e8 <gptrRFENDReg>
    3e9c:	4390                	lw	a2,0(a5)
    3e9e:	ffce06b7          	lui	a3,0xffce0
    3ea2:	16fd                	addi	a3,a3,-1
    3ea4:	461c                	lw	a5,8(a2)
    3ea6:	8ff5                	and	a5,a5,a3
    3ea8:	c61c                	sw	a5,8(a2)
    3eaa:	431c                	lw	a5,0(a4)
    3eac:	08000713          	li	a4,128
    3eb0:	cbb8                	sw	a4,80(a5)
    3eb2:	1ffff797          	auipc	a5,0x1ffff
    3eb6:	4d278793          	addi	a5,a5,1234 # 20003384 <gPaControl>
    3eba:	439c                	lw	a5,0(a5)
    3ebc:	cb99                	beqz	a5,3ed2 <ble_ll_hw_api_shut+0x82>
    3ebe:	43d4                	lw	a3,4(a5)
    3ec0:	4790                	lw	a2,8(a5)
    3ec2:	4298                	lw	a4,0(a3)
    3ec4:	8f51                	or	a4,a4,a2
    3ec6:	c298                	sw	a4,0(a3)
    3ec8:	4b94                	lw	a3,16(a5)
    3eca:	4bdc                	lw	a5,20(a5)
    3ecc:	4298                	lw	a4,0(a3)
    3ece:	8fd9                	or	a5,a5,a4
    3ed0:	c29c                	sw	a5,0(a3)
    3ed2:	1ffff797          	auipc	a5,0x1ffff
    3ed6:	4a078ea3          	sb	zero,1213(a5) # 2000338f <gBleIPPara+0x7>
    3eda:	8082                	ret

00003edc <BLE_RegInit>:
BLE_RegInit():
    3edc:	1ffff797          	auipc	a5,0x1ffff
    3ee0:	4ac78793          	addi	a5,a5,1196 # 20003388 <gBleIPPara>
    3ee4:	4f9c                	lw	a5,24(a5)
    3ee6:	c7dd                	beqz	a5,3f94 <BLE_RegInit+0xb8>
    3ee8:	1141                	addi	sp,sp,-16
    3eea:	c606                	sw	ra,12(sp)
    3eec:	c422                	sw	s0,8(sp)
    3eee:	c226                	sw	s1,4(sp)
    3ef0:	c04a                	sw	s2,0(sp)
    3ef2:	2205                	jal	4012 <LLE_DevInit>
    3ef4:	1ffff917          	auipc	s2,0x1ffff
    3ef8:	48c90913          	addi	s2,s2,1164 # 20003380 <gptrBBReg>
    3efc:	39e010ef          	jal	ra,529a <RFEND_DevInit>
    3f00:	3e61                	jal	3a98 <BB_DevInit>
    3f02:	00092783          	lw	a5,0(s2)
    3f06:	76f5                	lui	a3,0xffffd
    3f08:	16fd                	addi	a3,a3,-1
    3f0a:	4398                	lw	a4,0(a5)
    3f0c:	1ffff497          	auipc	s1,0x1ffff
    3f10:	4dc48493          	addi	s1,s1,1244 # 200033e8 <gptrRFENDReg>
    3f14:	1ffff417          	auipc	s0,0x1ffff
    3f18:	49040413          	addi	s0,s0,1168 # 200033a4 <gptrLLEReg>
    3f1c:	8f75                	and	a4,a4,a3
    3f1e:	c398                	sw	a4,0(a5)
    3f20:	4398                	lw	a4,0(a5)
    3f22:	003306b7          	lui	a3,0x330
    3f26:	e7f77713          	andi	a4,a4,-385
    3f2a:	c398                	sw	a4,0(a5)
    3f2c:	4398                	lw	a4,0(a5)
    3f2e:	e7f77713          	andi	a4,a4,-385
    3f32:	10076713          	ori	a4,a4,256
    3f36:	c398                	sw	a4,0(a5)
    3f38:	4098                	lw	a4,0(s1)
    3f3a:	471c                	lw	a5,8(a4)
    3f3c:	8fd5                	or	a5,a5,a3
    3f3e:	c71c                	sw	a5,8(a4)
    3f40:	401c                	lw	a5,0(s0)
    3f42:	0dd00713          	li	a4,221
    3f46:	cbb8                	sw	a4,80(a5)
    3f48:	580010ef          	jal	ra,54c8 <RFEND_TXCtune>
    3f4c:	292020ef          	jal	ra,61de <RFEND_TXFtune>
    3f50:	4be010ef          	jal	ra,540e <RFEND_RXFilter>
    3f54:	53a010ef          	jal	ra,548e <RFEND_RXAdc>
    3f58:	00092703          	lw	a4,0(s2)
    3f5c:	431c                	lw	a5,0(a4)
    3f5e:	e7f7f793          	andi	a5,a5,-385
    3f62:	0807e793          	ori	a5,a5,128
    3f66:	c31c                	sw	a5,0(a4)
    3f68:	4094                	lw	a3,0(s1)
    3f6a:	ffce0737          	lui	a4,0xffce0
    3f6e:	177d                	addi	a4,a4,-1
    3f70:	469c                	lw	a5,8(a3)
    3f72:	8ff9                	and	a5,a5,a4
    3f74:	c69c                	sw	a5,8(a3)
    3f76:	401c                	lw	a5,0(s0)
    3f78:	08000713          	li	a4,128
    3f7c:	cbb8                	sw	a4,80(a5)
    3f7e:	3bed                	jal	3d78 <ll_multi_states_check>
    3f80:	40b2                	lw	ra,12(sp)
    3f82:	4422                	lw	s0,8(sp)
    3f84:	1ffff797          	auipc	a5,0x1ffff
    3f88:	400785a3          	sb	zero,1035(a5) # 2000338f <gBleIPPara+0x7>
    3f8c:	4492                	lw	s1,4(sp)
    3f8e:	4902                	lw	s2,0(sp)
    3f90:	0141                	addi	sp,sp,16
    3f92:	8082                	ret
    3f94:	8082                	ret

00003f96 <BLE_IPCoreInit>:
BLE_IPCoreInit():
    3f96:	1ffff797          	auipc	a5,0x1ffff
    3f9a:	3e07a723          	sw	zero,1006(a5) # 20003384 <gPaControl>
    3f9e:	4000c7b7          	lui	a5,0x4000c
    3fa2:	30078713          	addi	a4,a5,768 # 4000c300 <_eusrstack+0x20004300>
    3fa6:	1ffff697          	auipc	a3,0x1ffff
    3faa:	3ce6ab23          	sw	a4,982(a3) # 2000337c <gptrAESReg>
    3fae:	20078713          	addi	a4,a5,512
    3fb2:	1ffff697          	auipc	a3,0x1ffff
    3fb6:	3ee6a923          	sw	a4,1010(a3) # 200033a4 <gptrLLEReg>
    3fba:	10078793          	addi	a5,a5,256
    3fbe:	4000d737          	lui	a4,0x4000d
    3fc2:	1141                	addi	sp,sp,-16
    3fc4:	1ffff697          	auipc	a3,0x1ffff
    3fc8:	42e6a223          	sw	a4,1060(a3) # 200033e8 <gptrRFENDReg>
    3fcc:	1ffff717          	auipc	a4,0x1ffff
    3fd0:	3af72a23          	sw	a5,948(a4) # 20003380 <gptrBBReg>
    3fd4:	c606                	sw	ra,12(sp)
    3fd6:	1ffff717          	auipc	a4,0x1ffff
    3fda:	3b270713          	addi	a4,a4,946 # 20003388 <gBleIPPara>
    3fde:	4785                	li	a5,1
    3fe0:	00f703a3          	sb	a5,7(a4)
    3fe4:	1ffff797          	auipc	a5,0x1ffff
    3fe8:	35078793          	addi	a5,a5,848 # 20003334 <ble>
    3fec:	439c                	lw	a5,0(a5)
    3fee:	cf1c                	sw	a5,24(a4)
    3ff0:	11078793          	addi	a5,a5,272
    3ff4:	cb5c                	sw	a5,20(a4)
    3ff6:	35dd                	jal	3edc <BLE_RegInit>
    3ff8:	e000e7b7          	lui	a5,0xe000e
    3ffc:	00100737          	lui	a4,0x100
    4000:	40b2                	lw	ra,12(sp)
    4002:	10e7a023          	sw	a4,256(a5) # e000e100 <_eusrstack+0xc0006100>
    4006:	00200737          	lui	a4,0x200
    400a:	10e7a023          	sw	a4,256(a5)
    400e:	0141                	addi	sp,sp,16
    4010:	8082                	ret

00004012 <LLE_DevInit>:
LLE_DevInit():
    4012:	1ffff797          	auipc	a5,0x1ffff
    4016:	39278793          	addi	a5,a5,914 # 200033a4 <gptrLLEReg>
    401a:	439c                	lw	a5,0(a5)
    401c:	08c00713          	li	a4,140
    4020:	07600693          	li	a3,118
    4024:	cbd8                	sw	a4,20(a5)
    4026:	cfd4                	sw	a3,28(a5)
    4028:	d3d8                	sw	a4,36(a5)
    402a:	03c00613          	li	a2,60
    402e:	d7d0                	sw	a2,44(a5)
    4030:	dbd8                	sw	a4,52(a5)
    4032:	dfd0                	sw	a2,60(a5)
    4034:	c3f8                	sw	a4,68(a5)
    4036:	1ffff717          	auipc	a4,0x1ffff
    403a:	35270713          	addi	a4,a4,850 # 20003388 <gBleIPPara>
    403e:	4f18                	lw	a4,24(a4)
    4040:	c7f4                	sw	a3,76(a5)
    4042:	dbf8                	sw	a4,116(a5)
    4044:	6741                	lui	a4,0x10
    4046:	177d                	addi	a4,a4,-1
    4048:	c798                	sw	a4,8(a5)
    404a:	673d                	lui	a4,0xf
    404c:	073d                	addi	a4,a4,15
    404e:	c7d8                	sw	a4,12(a5)
    4050:	e000e737          	lui	a4,0xe000e
    4054:	47d5                	li	a5,21
    4056:	04f70923          	sb	a5,82(a4) # e000e052 <_eusrstack+0xc0006052>
    405a:	1fffd797          	auipc	a5,0x1fffd
    405e:	1ea78793          	addi	a5,a5,490 # 20001244 <LLE_IRQLibHandler>
    4062:	0017e793          	ori	a5,a5,1
    4066:	d73c                	sw	a5,104(a4)
    4068:	8082                	ret

0000406a <RF_DevSetChannel>:
RF_DevSetChannel():
    406a:	1ffff797          	auipc	a5,0x1ffff
    406e:	37e78793          	addi	a5,a5,894 # 200033e8 <gptrRFENDReg>
    4072:	4394                	lw	a3,0(a5)
    4074:	1ffff797          	auipc	a5,0x1ffff
    4078:	30c78793          	addi	a5,a5,780 # 20003380 <gptrBBReg>
    407c:	439c                	lw	a5,0(a5)
    407e:	10058763          	beqz	a1,418c <RF_DevSetChannel+0x122>
    4082:	0024b737          	lui	a4,0x24b
    4086:	e9f70713          	addi	a4,a4,-353 # 24ae9f <_data_lma+0x244827>
    408a:	08a76663          	bltu	a4,a0,4116 <RF_DevSetChannel+0xac>
    408e:	4398                	lw	a4,0(a5)
    4090:	f8077713          	andi	a4,a4,-128
    4094:	02576713          	ori	a4,a4,37
    4098:	c398                	sw	a4,0(a5)
    409a:	0015f713          	andi	a4,a1,1
    409e:	cb01                	beqz	a4,40ae <RF_DevSetChannel+0x44>
    40a0:	0305f593          	andi	a1,a1,48
    40a4:	4741                	li	a4,16
    40a6:	0ee59063          	bne	a1,a4,4186 <RF_DevSetChannel+0x11c>
    40aa:	83050513          	addi	a0,a0,-2000
    40ae:	56d8                	lw	a4,44(a3)
    40b0:	fe100837          	lui	a6,0xfe100
    40b4:	187d                	addi	a6,a6,-1
    40b6:	00276713          	ori	a4,a4,2
    40ba:	d6d8                	sw	a4,44(a3)
    40bc:	6741                	lui	a4,0x10
    40be:	a0070713          	addi	a4,a4,-1536 # fa00 <_data_lma+0x9388>
    40c2:	02e55633          	divu	a2,a0,a4
    40c6:	02e57533          	remu	a0,a0,a4
    40ca:	0fa00713          	li	a4,250
    40ce:	8a7d                	andi	a2,a2,31
    40d0:	01461593          	slli	a1,a2,0x14
    40d4:	42f0                	lw	a2,68(a3)
    40d6:	01067633          	and	a2,a2,a6
    40da:	8e4d                	or	a2,a2,a1
    40dc:	c2f0                	sw	a2,68(a3)
    40de:	fffc0637          	lui	a2,0xfffc0
    40e2:	052a                	slli	a0,a0,0xa
    40e4:	02e55533          	divu	a0,a0,a4
    40e8:	42f8                	lw	a4,68(a3)
    40ea:	8f71                	and	a4,a4,a2
    40ec:	053a                	slli	a0,a0,0xe
    40ee:	8139                	srli	a0,a0,0xe
    40f0:	8d59                	or	a0,a0,a4
    40f2:	c2e8                	sw	a0,68(a3)
    40f4:	1ffff717          	auipc	a4,0x1ffff
    40f8:	2b474703          	lbu	a4,692(a4) # 200033a8 <rfConfig>
    40fc:	8b09                	andi	a4,a4,2
    40fe:	cb19                	beqz	a4,4114 <RF_DevSetChannel+0xaa>
    4100:	4398                	lw	a4,0(a5)
    4102:	07f77713          	andi	a4,a4,127
    4106:	04076693          	ori	a3,a4,64
    410a:	4398                	lw	a4,0(a5)
    410c:	f8077713          	andi	a4,a4,-128
    4110:	8f55                	or	a4,a4,a3
    4112:	c398                	sw	a4,0(a5)
    4114:	8082                	ret
    4116:	00250737          	lui	a4,0x250
    411a:	48f70613          	addi	a2,a4,1167 # 25048f <_data_lma+0x249e17>
    411e:	02a66363          	bltu	a2,a0,4144 <RF_DevSetChannel+0xda>
    4122:	ffdb6737          	lui	a4,0xffdb6
    4126:	93070713          	addi	a4,a4,-1744 # ffdb5930 <_eusrstack+0xdfdad930>
    412a:	972a                	add	a4,a4,a0
    412c:	7d000613          	li	a2,2000
    4130:	02c75733          	divu	a4,a4,a2
    4134:	177d                	addi	a4,a4,-1
    4136:	4390                	lw	a2,0(a5)
    4138:	07f77713          	andi	a4,a4,127
    413c:	f8067613          	andi	a2,a2,-128
    4140:	8f51                	or	a4,a4,a2
    4142:	bf99                	j	4098 <RF_DevSetChannel+0x2e>
    4144:	49070713          	addi	a4,a4,1168
    4148:	00e51863          	bne	a0,a4,4158 <RF_DevSetChannel+0xee>
    414c:	4398                	lw	a4,0(a5)
    414e:	f8077713          	andi	a4,a4,-128
    4152:	02676713          	ori	a4,a4,38
    4156:	b789                	j	4098 <RF_DevSetChannel+0x2e>
    4158:	0025d737          	lui	a4,0x25d
    415c:	77f70713          	addi	a4,a4,1919 # 25d77f <_data_lma+0x257107>
    4160:	00a76d63          	bltu	a4,a0,417a <RF_DevSetChannel+0x110>
    4164:	ffdb6737          	lui	a4,0xffdb6
    4168:	93070713          	addi	a4,a4,-1744 # ffdb5930 <_eusrstack+0xdfdad930>
    416c:	972a                	add	a4,a4,a0
    416e:	7d000613          	li	a2,2000
    4172:	02c75733          	divu	a4,a4,a2
    4176:	1779                	addi	a4,a4,-2
    4178:	bf7d                	j	4136 <RF_DevSetChannel+0xcc>
    417a:	4398                	lw	a4,0(a5)
    417c:	f8077713          	andi	a4,a4,-128
    4180:	02776713          	ori	a4,a4,39
    4184:	bf11                	j	4098 <RF_DevSetChannel+0x2e>
    4186:	c1850513          	addi	a0,a0,-1000
    418a:	b715                	j	40ae <RF_DevSetChannel+0x44>
    418c:	56d8                	lw	a4,44(a3)
    418e:	07f57513          	andi	a0,a0,127
    4192:	9b75                	andi	a4,a4,-3
    4194:	d6d8                	sw	a4,44(a3)
    4196:	4398                	lw	a4,0(a5)
    4198:	f8077713          	andi	a4,a4,-128
    419c:	8d59                	or	a0,a0,a4
    419e:	c388                	sw	a0,0(a5)
    41a0:	bf91                	j	40f4 <RF_DevSetChannel+0x8a>

000041a2 <rf_stop>:
rf_stop():
    41a2:	1141                	addi	sp,sp,-16
    41a4:	c606                	sw	ra,12(sp)
    41a6:	1ffff797          	auipc	a5,0x1ffff
    41aa:	22078823          	sb	zero,560(a5) # 200033d6 <rfInfo+0xe>
    41ae:	314d                	jal	3e50 <ble_ll_hw_api_shut>
    41b0:	4501                	li	a0,0
    41b2:	4581                	li	a1,0
    41b4:	8f8ff0ef          	jal	ra,32ac <TMOS_ProcessRegister>
    41b8:	40b2                	lw	ra,12(sp)
    41ba:	4501                	li	a0,0
    41bc:	0141                	addi	sp,sp,16
    41be:	8082                	ret

000041c0 <RF_TxProcess>:
RF_TxProcess():
    41c0:	1ffff797          	auipc	a5,0x1ffff
    41c4:	1e478793          	addi	a5,a5,484 # 200033a4 <gptrLLEReg>
    41c8:	4398                	lw	a4,0(a5)
    41ca:	7179                	addi	sp,sp,-48
    41cc:	1ffff517          	auipc	a0,0x1ffff
    41d0:	1dc54503          	lbu	a0,476(a0) # 200033a8 <rfConfig>
    41d4:	d422                	sw	s0,40(sp)
    41d6:	d226                	sw	s1,36(sp)
    41d8:	d606                	sw	ra,44(sp)
    41da:	d04a                	sw	s2,32(sp)
    41dc:	ce4e                	sw	s3,28(sp)
    41de:	00157693          	andi	a3,a0,1
    41e2:	84be                	mv	s1,a5
    41e4:	1ffff417          	auipc	s0,0x1ffff
    41e8:	1a440413          	addi	s0,s0,420 # 20003388 <gBleIPPara>
    41ec:	12068c63          	beqz	a3,4324 <RF_TxProcess+0x164>
    41f0:	00244783          	lbu	a5,2(s0)
    41f4:	8b85                	andi	a5,a5,1
    41f6:	10078463          	beqz	a5,42fe <RF_TxProcess+0x13e>
    41fa:	8511                	srai	a0,a0,0x4
    41fc:	4601                	li	a2,0
    41fe:	1ffff597          	auipc	a1,0x1ffff
    4202:	1c65c583          	lbu	a1,454(a1) # 200033c4 <rfConfig+0x1c>
    4206:	890d                	andi	a0,a0,3
    4208:	1ffff797          	auipc	a5,0x1ffff
    420c:	18078123          	sb	zero,386(a5) # 2000338a <gBleIPPara+0x2>
    4210:	34a5                	jal	3c78 <BLE_SetPHYRxMode>
    4212:	1ffff597          	auipc	a1,0x1ffff
    4216:	1965c583          	lbu	a1,406(a1) # 200033a8 <rfConfig>
    421a:	8591                	srai	a1,a1,0x4
    421c:	0ff00613          	li	a2,255
    4220:	898d                	andi	a1,a1,3
    4222:	4505                	li	a0,1
    4224:	1fffd097          	auipc	ra,0x1fffd
    4228:	d3a080e7          	jalr	-710(ra) # 20000f5e <ll_tx_wait_finish>
    422c:	3f9d                	jal	41a2 <rf_stop>
    422e:	1ffff917          	auipc	s2,0x1ffff
    4232:	17a90913          	addi	s2,s2,378 # 200033a8 <rfConfig>
    4236:	01092783          	lw	a5,16(s2)
    423a:	4601                	li	a2,0
    423c:	4581                	li	a1,0
    423e:	4505                	li	a0,1
    4240:	9782                	jalr	a5
    4242:	00344783          	lbu	a5,3(s0)
    4246:	89ca                	mv	s3,s2
    4248:	8b85                	andi	a5,a5,1
    424a:	cfc1                	beqz	a5,42e2 <RF_TxProcess+0x122>
    424c:	4c08                	lw	a0,24(s0)
    424e:	1ffff797          	auipc	a5,0x1ffff
    4252:	12078ea3          	sb	zero,317(a5) # 2000338b <gBleIPPara+0x3>
    4256:	4581                	li	a1,0
    4258:	4681                	li	a3,0
    425a:	00f10613          	addi	a2,sp,15
    425e:	000107a3          	sb	zero,15(sp)
    4262:	1ffff797          	auipc	a5,0x1ffff
    4266:	12078523          	sb	zero,298(a5) # 2000338c <gBleIPPara+0x4>
    426a:	1fffd097          	auipc	ra,0x1fffd
    426e:	c2a080e7          	jalr	-982(ra) # 20000e94 <ble_ll_chkcrc>
    4272:	01851593          	slli	a1,a0,0x18
    4276:	85e1                	srai	a1,a1,0x18
    4278:	e18d                	bnez	a1,429a <RF_TxProcess+0xda>
    427a:	4c1c                	lw	a5,24(s0)
    427c:	0ff00693          	li	a3,255
    4280:	0007c703          	lbu	a4,0(a5)
    4284:	00d70b63          	beq	a4,a3,429a <RF_TxProcess+0xda>
    4288:	1ffff797          	auipc	a5,0x1ffff
    428c:	1417c783          	lbu	a5,321(a5) # 200033c9 <rfInfo+0x1>
    4290:	00d78563          	beq	a5,a3,429a <RF_TxProcess+0xda>
    4294:	00f70363          	beq	a4,a5,429a <RF_TxProcess+0xda>
    4298:	4589                	li	a1,2
    429a:	00098783          	lb	a5,0(s3)
    429e:	0007c763          	bltz	a5,42ac <RF_TxProcess+0xec>
    42a2:	4c1c                	lw	a5,24(s0)
    42a4:	00f14703          	lbu	a4,15(sp)
    42a8:	00e78023          	sb	a4,0(a5)
    42ac:	0109a783          	lw	a5,16(s3)
    42b0:	4c10                	lw	a2,24(s0)
    42b2:	0ff5f593          	andi	a1,a1,255
    42b6:	4509                	li	a0,2
    42b8:	9782                	jalr	a5
    42ba:	1ffff797          	auipc	a5,0x1ffff
    42be:	11a7c783          	lbu	a5,282(a5) # 200033d4 <rfInfo+0xc>
    42c2:	8b89                	andi	a5,a5,2
    42c4:	cb81                	beqz	a5,42d4 <RF_TxProcess+0x114>
    42c6:	4585                	li	a1,1
    42c8:	1ffff517          	auipc	a0,0x1ffff
    42cc:	11054503          	lbu	a0,272(a0) # 200033d8 <rfInfo+0x10>
    42d0:	e31fe0ef          	jal	ra,3100 <tmos_set_event>
    42d4:	50b2                	lw	ra,44(sp)
    42d6:	5422                	lw	s0,40(sp)
    42d8:	5492                	lw	s1,36(sp)
    42da:	5902                	lw	s2,32(sp)
    42dc:	49f2                	lw	s3,28(sp)
    42de:	6145                	addi	sp,sp,48
    42e0:	8082                	ret
    42e2:	409c                	lw	a5,0(s1)
    42e4:	53fc                	lw	a5,100(a5)
    42e6:	f7fd                	bnez	a5,42d4 <RF_TxProcess+0x114>
    42e8:	1ffff797          	auipc	a5,0x1ffff
    42ec:	0a078223          	sb	zero,164(a5) # 2000338c <gBleIPPara+0x4>
    42f0:	01092783          	lw	a5,16(s2)
    42f4:	4601                	li	a2,0
    42f6:	4581                	li	a1,0
    42f8:	4549                	li	a0,18
    42fa:	9782                	jalr	a5
    42fc:	bfe1                	j	42d4 <RF_TxProcess+0x114>
    42fe:	537c                	lw	a5,100(a4)
    4300:	ee0796e3          	bnez	a5,41ec <RF_TxProcess+0x2c>
    4304:	3d79                	jal	41a2 <rf_stop>
    4306:	abaff0ef          	jal	ra,35c0 <TMOS_TempSample>
    430a:	1ffff797          	auipc	a5,0x1ffff
    430e:	08078123          	sb	zero,130(a5) # 2000338c <gBleIPPara+0x4>
    4312:	1ffff797          	auipc	a5,0x1ffff
    4316:	09678793          	addi	a5,a5,150 # 200033a8 <rfConfig>
    431a:	4b9c                	lw	a5,16(a5)
    431c:	4601                	li	a2,0
    431e:	4581                	li	a1,0
    4320:	4545                	li	a0,17
    4322:	bfe1                	j	42fa <RF_TxProcess+0x13a>
    4324:	00344783          	lbu	a5,3(s0)
    4328:	8b85                	andi	a5,a5,1
    432a:	c39d                	beqz	a5,4350 <RF_TxProcess+0x190>
    432c:	3d9d                	jal	41a2 <rf_stop>
    432e:	1ffff797          	auipc	a5,0x1ffff
    4332:	04078ea3          	sb	zero,93(a5) # 2000338b <gBleIPPara+0x3>
    4336:	1ffff797          	auipc	a5,0x1ffff
    433a:	04078b23          	sb	zero,86(a5) # 2000338c <gBleIPPara+0x4>
    433e:	1ffff797          	auipc	a5,0x1ffff
    4342:	06a78793          	addi	a5,a5,106 # 200033a8 <rfConfig>
    4346:	4b9c                	lw	a5,16(a5)
    4348:	4601                	li	a2,0
    434a:	4581                	li	a1,0
    434c:	4505                	li	a0,1
    434e:	b775                	j	42fa <RF_TxProcess+0x13a>
    4350:	537c                	lw	a5,100(a4)
    4352:	fbe9                	bnez	a5,4324 <RF_TxProcess+0x164>
    4354:	35b9                	jal	41a2 <rf_stop>
    4356:	bf55                	j	430a <RF_TxProcess+0x14a>

00004358 <RF_Config>:
RF_Config():
    4358:	491c                	lw	a5,16(a0)
    435a:	10078c63          	beqz	a5,4472 <RF_Config+0x11a>
    435e:	1141                	addi	sp,sp,-16
    4360:	c422                	sw	s0,8(sp)
    4362:	c606                	sw	ra,12(sp)
    4364:	00054783          	lbu	a5,0(a0)
    4368:	842a                	mv	s0,a0
    436a:	0407f793          	andi	a5,a5,64
    436e:	c781                	beqz	a5,4376 <RF_Config+0x1e>
    4370:	415c                	lw	a5,4(a0)
    4372:	4509                	li	a0,2
    4374:	cbfd                	beqz	a5,446a <RF_Config+0x112>
    4376:	02000613          	li	a2,32
    437a:	4581                	li	a1,0
    437c:	1ffff517          	auipc	a0,0x1ffff
    4380:	02c50513          	addi	a0,a0,44 # 200033a8 <rfConfig>
    4384:	1fffc097          	auipc	ra,0x1fffc
    4388:	526080e7          	jalr	1318(ra) # 200008aa <tmos_memset>
    438c:	85a2                	mv	a1,s0
    438e:	02000613          	li	a2,32
    4392:	1ffff517          	auipc	a0,0x1ffff
    4396:	01650513          	addi	a0,a0,22 # 200033a8 <rfConfig>
    439a:	1fffc097          	auipc	ra,0x1fffc
    439e:	4d8080e7          	jalr	1240(ra) # 20000872 <tmos_memcpy>
    43a2:	1ffff797          	auipc	a5,0x1ffff
    43a6:	01f7c783          	lbu	a5,31(a5) # 200033c1 <rfConfig+0x19>
    43aa:	1ffff417          	auipc	s0,0x1ffff
    43ae:	ffe40413          	addi	s0,s0,-2 # 200033a8 <rfConfig>
    43b2:	e799                	bnez	a5,43c0 <RF_Config+0x68>
    43b4:	02800793          	li	a5,40
    43b8:	1ffff717          	auipc	a4,0x1ffff
    43bc:	00f704a3          	sb	a5,9(a4) # 200033c1 <rfConfig+0x19>
    43c0:	1ffff797          	auipc	a5,0x1ffff
    43c4:	0027c783          	lbu	a5,2(a5) # 200033c2 <rfConfig+0x1a>
    43c8:	e791                	bnez	a5,43d4 <RF_Config+0x7c>
    43ca:	47a1                	li	a5,8
    43cc:	1ffff717          	auipc	a4,0x1ffff
    43d0:	fef70b23          	sb	a5,-10(a4) # 200033c2 <rfConfig+0x1a>
    43d4:	1ffff797          	auipc	a5,0x1ffff
    43d8:	fef7c783          	lbu	a5,-17(a5) # 200033c3 <rfConfig+0x1b>
    43dc:	e791                	bnez	a5,43e8 <RF_Config+0x90>
    43de:	47c5                	li	a5,17
    43e0:	1ffff717          	auipc	a4,0x1ffff
    43e4:	fef701a3          	sb	a5,-29(a4) # 200033c3 <rfConfig+0x1b>
    43e8:	1ffff797          	auipc	a5,0x1ffff
    43ec:	fdc7c783          	lbu	a5,-36(a5) # 200033c4 <rfConfig+0x1c>
    43f0:	e791                	bnez	a5,43fc <RF_Config+0xa4>
    43f2:	57ed                	li	a5,-5
    43f4:	1ffff717          	auipc	a4,0x1ffff
    43f8:	fcf70823          	sb	a5,-48(a4) # 200033c4 <rfConfig+0x1c>
    43fc:	1ffff797          	auipc	a5,0x1ffff
    4400:	fc97c783          	lbu	a5,-55(a5) # 200033c5 <rfConfig+0x1d>
    4404:	e791                	bnez	a5,4410 <RF_Config+0xb8>
    4406:	57ed                	li	a5,-5
    4408:	1ffff717          	auipc	a4,0x1ffff
    440c:	faf70ea3          	sb	a5,-67(a4) # 200033c5 <rfConfig+0x1d>
    4410:	1ffff797          	auipc	a5,0x1ffff
    4414:	fb878793          	addi	a5,a5,-72 # 200033c8 <rfInfo>
    4418:	43c8                	lw	a0,4(a5)
    441a:	c509                	beqz	a0,4424 <RF_Config+0xcc>
    441c:	1fffd097          	auipc	ra,0x1fffd
    4420:	30e080e7          	jalr	782(ra) # 2000172a <tmos_memory_free>
    4424:	1ffff797          	auipc	a5,0x1ffff
    4428:	fa07a423          	sw	zero,-88(a5) # 200033cc <rfInfo+0x4>
    442c:	00044783          	lbu	a5,0(s0)
    4430:	8b85                	andi	a5,a5,1
    4432:	c385                	beqz	a5,4452 <RF_Config+0xfa>
    4434:	1ffff517          	auipc	a0,0x1ffff
    4438:	f9154503          	lbu	a0,-111(a0) # 200033c5 <rfConfig+0x1d>
    443c:	04900593          	li	a1,73
    4440:	0509                	addi	a0,a0,2
    4442:	1fffd097          	auipc	ra,0x1fffd
    4446:	216080e7          	jalr	534(ra) # 20001658 <tmos_memory_allocate>
    444a:	1ffff797          	auipc	a5,0x1ffff
    444e:	f8a7a123          	sw	a0,-126(a5) # 200033cc <rfInfo+0x4>
    4452:	00144783          	lbu	a5,1(s0)
    4456:	4501                	li	a0,0
    4458:	1ffff717          	auipc	a4,0x1ffff
    445c:	f6f70fa3          	sb	a5,-129(a4) # 200033d7 <rfInfo+0xf>
    4460:	441c                	lw	a5,8(s0)
    4462:	1ffff717          	auipc	a4,0x1ffff
    4466:	f6f72d23          	sw	a5,-134(a4) # 200033dc <rfInfo+0x14>
    446a:	40b2                	lw	ra,12(sp)
    446c:	4422                	lw	s0,8(sp)
    446e:	0141                	addi	sp,sp,16
    4470:	8082                	ret
    4472:	4505                	li	a0,1
    4474:	8082                	ret

00004476 <RF_Tx>:
RF_Tx():
    4476:	7179                	addi	sp,sp,-48
    4478:	d422                	sw	s0,40(sp)
    447a:	1ffff417          	auipc	s0,0x1ffff
    447e:	f2e40413          	addi	s0,s0,-210 # 200033a8 <rfConfig>
    4482:	441c                	lw	a5,8(s0)
    4484:	d606                	sw	ra,44(sp)
    4486:	d226                	sw	s1,36(sp)
    4488:	d04a                	sw	s2,32(sp)
    448a:	ce4e                	sw	s3,28(sp)
    448c:	cc52                	sw	s4,24(sp)
    448e:	ca56                	sw	s5,20(sp)
    4490:	c85a                	sw	s6,16(sp)
    4492:	c65e                	sw	s7,12(sp)
    4494:	c462                	sw	s8,8(sp)
    4496:	c266                	sw	s9,4(sp)
    4498:	2a078063          	beqz	a5,4738 <RF_Tx+0x2c2>
    449c:	1ffffc17          	auipc	s8,0x1ffff
    44a0:	ee4c0c13          	addi	s8,s8,-284 # 20003380 <gptrBBReg>
    44a4:	000c2703          	lw	a4,0(s8)
    44a8:	1ffffa17          	auipc	s4,0x1ffff
    44ac:	f40a0a13          	addi	s4,s4,-192 # 200033e8 <gptrRFENDReg>
    44b0:	8ab6                	mv	s5,a3
    44b2:	431c                	lw	a5,0(a4)
    44b4:	1ffff997          	auipc	s3,0x1ffff
    44b8:	ef098993          	addi	s3,s3,-272 # 200033a4 <gptrLLEReg>
    44bc:	1ffff917          	auipc	s2,0x1ffff
    44c0:	f0c90913          	addi	s2,s2,-244 # 200033c8 <rfInfo>
    44c4:	e7f7f793          	andi	a5,a5,-385
    44c8:	0807e793          	ori	a5,a5,128
    44cc:	c31c                	sw	a5,0(a4)
    44ce:	000a2683          	lw	a3,0(s4)
    44d2:	ffce0737          	lui	a4,0xffce0
    44d6:	177d                	addi	a4,a4,-1
    44d8:	469c                	lw	a5,8(a3)
    44da:	8baa                	mv	s7,a0
    44dc:	84ae                	mv	s1,a1
    44de:	8ff9                	and	a5,a5,a4
    44e0:	c69c                	sw	a5,8(a3)
    44e2:	0009a783          	lw	a5,0(s3)
    44e6:	08000713          	li	a4,128
    44ea:	8b32                	mv	s6,a2
    44ec:	cbb8                	sw	a4,80(a5)
    44ee:	00c94783          	lbu	a5,12(s2)
    44f2:	4cbd                	li	s9,15
    44f4:	8b89                	andi	a5,a5,2
    44f6:	1e079063          	bnez	a5,46d6 <RF_Tx+0x260>
    44fa:	000c2703          	lw	a4,0(s8)
    44fe:	575c                	lw	a5,44(a4)
    4500:	9bf1                	andi	a5,a5,-4
    4502:	0017e793          	ori	a5,a5,1
    4506:	d75c                	sw	a5,44(a4)
    4508:	00c94783          	lbu	a5,12(s2)
    450c:	8b89                	andi	a5,a5,2
    450e:	1e078363          	beqz	a5,46f4 <RF_Tx+0x27e>
    4512:	4581                	li	a1,0
    4514:	1ffff517          	auipc	a0,0x1ffff
    4518:	e9554503          	lbu	a0,-363(a0) # 200033a9 <rfConfig+0x1>
    451c:	36b9                	jal	406a <RF_DevSetChannel>
    451e:	000c2783          	lw	a5,0(s8)
    4522:	00330637          	lui	a2,0x330
    4526:	4398                	lw	a4,0(a5)
    4528:	e7f77713          	andi	a4,a4,-385
    452c:	c398                	sw	a4,0(a5)
    452e:	4398                	lw	a4,0(a5)
    4530:	e7f77713          	andi	a4,a4,-385
    4534:	10076713          	ori	a4,a4,256
    4538:	c398                	sw	a4,0(a5)
    453a:	000a2683          	lw	a3,0(s4)
    453e:	4698                	lw	a4,8(a3)
    4540:	8f51                	or	a4,a4,a2
    4542:	c698                	sw	a4,8(a3)
    4544:	0009a703          	lw	a4,0(s3)
    4548:	0da00693          	li	a3,218
    454c:	cb34                	sw	a3,80(a4)
    454e:	1ffff697          	auipc	a3,0x1ffff
    4552:	e5a6c683          	lbu	a3,-422(a3) # 200033a8 <rfConfig>
    4556:	0406f613          	andi	a2,a3,64
    455a:	1a060663          	beqz	a2,4706 <RF_Tx+0x290>
    455e:	404c                	lw	a1,4(s0)
    4560:	ffdb9637          	lui	a2,0xffdb9
    4564:	81060613          	addi	a2,a2,-2032 # ffdb8810 <_eusrstack+0xdfdb0810>
    4568:	95b2                	add	a1,a1,a2
    456a:	6661                	lui	a2,0x18
    456c:	6a060613          	addi	a2,a2,1696 # 186a0 <_data_lma+0x12028>
    4570:	18b67b63          	bgeu	a2,a1,4706 <RF_Tx+0x290>
    4574:	0c800613          	li	a2,200
    4578:	d370                	sw	a2,100(a4)
    457a:	4410                	lw	a2,8(s0)
    457c:	8a85                	andi	a3,a3,1
    457e:	c790                	sw	a2,8(a5)
    4580:	4450                	lw	a2,12(s0)
    4582:	c3d0                	sw	a2,4(a5)
    4584:	c354                	sw	a3,4(a4)
    4586:	00e94783          	lbu	a5,14(s2)
    458a:	0027e793          	ori	a5,a5,2
    458e:	1ffff717          	auipc	a4,0x1ffff
    4592:	e4f70423          	sb	a5,-440(a4) # 200033d6 <rfInfo+0xe>
    4596:	1ffff797          	auipc	a5,0x1ffff
    459a:	e35789a3          	sb	s5,-461(a5) # 200033c9 <rfInfo+0x1>
    459e:	1ffff797          	auipc	a5,0x1ffff
    45a2:	e3678523          	sb	s6,-470(a5) # 200033c8 <rfInfo>
    45a6:	1ffffa97          	auipc	s5,0x1ffff
    45aa:	de2a8a93          	addi	s5,s5,-542 # 20003388 <gBleIPPara>
    45ae:	014aa503          	lw	a0,20(s5)
    45b2:	140b8d63          	beqz	s7,470c <RF_Tx+0x296>
    45b6:	01650023          	sb	s6,0(a0)
    45ba:	009500a3          	sb	s1,1(a0)
    45be:	8626                	mv	a2,s1
    45c0:	85de                	mv	a1,s7
    45c2:	0509                	addi	a0,a0,2
    45c4:	1fffc097          	auipc	ra,0x1fffc
    45c8:	2ae080e7          	jalr	686(ra) # 20000872 <tmos_memcpy>
    45cc:	0009a783          	lw	a5,0(s3)
    45d0:	014aa703          	lw	a4,20(s5)
    45d4:	4581                	li	a1,0
    45d6:	00000517          	auipc	a0,0x0
    45da:	bea50513          	addi	a0,a0,-1046 # 41c0 <RF_TxProcess>
    45de:	dbb8                	sw	a4,112(a5)
    45e0:	1ffff797          	auipc	a5,0x1ffff
    45e4:	da0785a3          	sb	zero,-597(a5) # 2000338b <gBleIPPara+0x3>
    45e8:	1ffff797          	auipc	a5,0x1ffff
    45ec:	da078223          	sb	zero,-604(a5) # 2000338c <gBleIPPara+0x4>
    45f0:	cbdfe0ef          	jal	ra,32ac <TMOS_ProcessRegister>
    45f4:	f84ff0ef          	jal	ra,3d78 <ll_multi_states_check>
    45f8:	478d                	li	a5,3
    45fa:	1ffff717          	auipc	a4,0x1ffff
    45fe:	d8f70aa3          	sb	a5,-619(a4) # 2000338f <gBleIPPara+0x7>
    4602:	00c94783          	lbu	a5,12(s2)
    4606:	8b89                	andi	a5,a5,2
    4608:	c7a9                	beqz	a5,4652 <RF_Tx+0x1dc>
    460a:	0009a703          	lw	a4,0(s3)
    460e:	537c                	lw	a5,100(a4)
    4610:	fffd                	bnez	a5,460e <RF_Tx+0x198>
    4612:	1ffff797          	auipc	a5,0x1ffff
    4616:	d6678793          	addi	a5,a5,-666 # 20003378 <fnGetClockCBs>
    461a:	439c                	lw	a5,0(a5)
    461c:	9782                	jalr	a5
    461e:	1ffff717          	auipc	a4,0x1ffff
    4622:	d1670713          	addi	a4,a4,-746 # 20003334 <ble>
    4626:	01670703          	lb	a4,22(a4)
    462a:	00892783          	lw	a5,8(s2)
    462e:	0e075263          	bgez	a4,4712 <RF_Tx+0x29c>
    4632:	8d1d                	sub	a0,a0,a5
    4634:	00044703          	lbu	a4,0(s0)
    4638:	810d                	srli	a0,a0,0x3
    463a:	014aa783          	lw	a5,20(s5)
    463e:	8b21                	andi	a4,a4,8
    4640:	c36d                	beqz	a4,4722 <RF_Tx+0x2ac>
    4642:	00800737          	lui	a4,0x800
    4646:	0562                	slli	a0,a0,0x18
    4648:	2ff70713          	addi	a4,a4,767 # 8002ff <_data_lma+0x7f9c87>
    464c:	8d59                	or	a0,a0,a4
    464e:	c388                	sw	a0,0(a5)
    4650:	4489                	li	s1,2
    4652:	1ffff597          	auipc	a1,0x1ffff
    4656:	d565c583          	lbu	a1,-682(a1) # 200033a8 <rfConfig>
    465a:	8591                	srai	a1,a1,0x4
    465c:	4501                	li	a0,0
    465e:	8626                	mv	a2,s1
    4660:	898d                	andi	a1,a1,3
    4662:	1fffd097          	auipc	ra,0x1fffd
    4666:	8fc080e7          	jalr	-1796(ra) # 20000f5e <ll_tx_wait_finish>
    466a:	000a2703          	lw	a4,0(s4)
    466e:	4501                	li	a0,0
    4670:	575c                	lw	a5,44(a4)
    4672:	8385                	srli	a5,a5,0x1
    4674:	8b85                	andi	a5,a5,1
    4676:	c3b9                	beqz	a5,46bc <RF_Tx+0x246>
    4678:	405c                	lw	a5,4(s0)
    467a:	65c1                	lui	a1,0x10
    467c:	a0058593          	addi	a1,a1,-1536 # fa00 <_data_lma+0x9388>
    4680:	c1878793          	addi	a5,a5,-1000
    4684:	02b7d6b3          	divu	a3,a5,a1
    4688:	fe100837          	lui	a6,0xfe100
    468c:	187d                	addi	a6,a6,-1
    468e:	02b7f7b3          	remu	a5,a5,a1
    4692:	8afd                	andi	a3,a3,31
    4694:	01469613          	slli	a2,a3,0x14
    4698:	4374                	lw	a3,68(a4)
    469a:	0106f6b3          	and	a3,a3,a6
    469e:	8ed1                	or	a3,a3,a2
    46a0:	c374                	sw	a3,68(a4)
    46a2:	0fa00693          	li	a3,250
    46a6:	fffc0637          	lui	a2,0xfffc0
    46aa:	07aa                	slli	a5,a5,0xa
    46ac:	02d7d7b3          	divu	a5,a5,a3
    46b0:	4374                	lw	a3,68(a4)
    46b2:	8ef1                	and	a3,a3,a2
    46b4:	07ba                	slli	a5,a5,0xe
    46b6:	83b9                	srli	a5,a5,0xe
    46b8:	8fd5                	or	a5,a5,a3
    46ba:	c37c                	sw	a5,68(a4)
    46bc:	50b2                	lw	ra,44(sp)
    46be:	5422                	lw	s0,40(sp)
    46c0:	5492                	lw	s1,36(sp)
    46c2:	5902                	lw	s2,32(sp)
    46c4:	49f2                	lw	s3,28(sp)
    46c6:	4a62                	lw	s4,24(sp)
    46c8:	4ad2                	lw	s5,20(sp)
    46ca:	4b42                	lw	s6,16(sp)
    46cc:	4bb2                	lw	s7,12(sp)
    46ce:	4c22                	lw	s8,8(sp)
    46d0:	4c92                	lw	s9,4(sp)
    46d2:	6145                	addi	sp,sp,48
    46d4:	8082                	ret
    46d6:	1fffd097          	auipc	ra,0x1fffd
    46da:	e02080e7          	jalr	-510(ra) # 200014d8 <RF_FrequencyHoppingGet>
    46de:	feacfce3          	bgeu	s9,a0,46d6 <RF_Tx+0x260>
    46e2:	1ffff797          	auipc	a5,0x1ffff
    46e6:	ce07c783          	lbu	a5,-800(a5) # 200033c2 <rfConfig+0x1a>
    46ea:	0796                	slli	a5,a5,0x5
    46ec:	17c1                	addi	a5,a5,-16
    46ee:	fea7e4e3          	bltu	a5,a0,46d6 <RF_Tx+0x260>
    46f2:	b521                	j	44fa <RF_Tx+0x84>
    46f4:	00044783          	lbu	a5,0(s0)
    46f8:	0407f793          	andi	a5,a5,64
    46fc:	e0078be3          	beqz	a5,4512 <RF_Tx+0x9c>
    4700:	4589                	li	a1,2
    4702:	4048                	lw	a0,4(s0)
    4704:	bd21                	j	451c <RF_Tx+0xa6>
    4706:	0a000613          	li	a2,160
    470a:	b5bd                	j	4578 <RF_Tx+0x102>
    470c:	01652023          	sw	s6,0(a0)
    4710:	bd75                	j	45cc <RF_Tx+0x156>
    4712:	f2f570e3          	bgeu	a0,a5,4632 <RF_Tx+0x1bc>
    4716:	a8c00737          	lui	a4,0xa8c00
    471a:	40f707b3          	sub	a5,a4,a5
    471e:	953e                	add	a0,a0,a5
    4720:	bf11                	j	4634 <RF_Tx+0x1be>
    4722:	0489                	addi	s1,s1,2
    4724:	0ff4f493          	andi	s1,s1,255
    4728:	009780a3          	sb	s1,1(a5)
    472c:	97a6                	add	a5,a5,s1
    472e:	00078023          	sb	zero,0(a5)
    4732:	00a780a3          	sb	a0,1(a5)
    4736:	bf31                	j	4652 <RF_Tx+0x1dc>
    4738:	4505                	li	a0,1
    473a:	b749                	j	46bc <RF_Tx+0x246>

0000473c <RF_Rx>:
RF_Rx():
    473c:	1ffff797          	auipc	a5,0x1ffff
    4740:	cc478793          	addi	a5,a5,-828 # 20003400 <gBleLlPara>
    4744:	0987a783          	lw	a5,152(a5)
    4748:	cf91                	beqz	a5,4764 <RF_Rx+0x28>
    474a:	4505                	li	a0,1
    474c:	8082                	ret
    474e:	4505                	li	a0,1
    4750:	40f2                	lw	ra,28(sp)
    4752:	4462                	lw	s0,24(sp)
    4754:	44d2                	lw	s1,20(sp)
    4756:	4942                	lw	s2,16(sp)
    4758:	49b2                	lw	s3,12(sp)
    475a:	4a22                	lw	s4,8(sp)
    475c:	4a92                	lw	s5,4(sp)
    475e:	4b02                	lw	s6,0(sp)
    4760:	6105                	addi	sp,sp,32
    4762:	8082                	ret
    4764:	1101                	addi	sp,sp,-32
    4766:	ca26                	sw	s1,20(sp)
    4768:	1ffff497          	auipc	s1,0x1ffff
    476c:	c4048493          	addi	s1,s1,-960 # 200033a8 <rfConfig>
    4770:	449c                	lw	a5,8(s1)
    4772:	ce06                	sw	ra,28(sp)
    4774:	cc22                	sw	s0,24(sp)
    4776:	c84a                	sw	s2,16(sp)
    4778:	c64e                	sw	s3,12(sp)
    477a:	c452                	sw	s4,8(sp)
    477c:	c256                	sw	s5,4(sp)
    477e:	c05a                	sw	s6,0(sp)
    4780:	d7f9                	beqz	a5,474e <RF_Rx+0x12>
    4782:	1ffff917          	auipc	s2,0x1ffff
    4786:	c2290913          	addi	s2,s2,-990 # 200033a4 <gptrLLEReg>
    478a:	00092783          	lw	a5,0(s2)
    478e:	4398                	lw	a4,0(a5)
    4790:	8b0d                	andi	a4,a4,3
    4792:	c305                	beqz	a4,47b2 <RF_Rx+0x76>
    4794:	4bb8                	lw	a4,80(a5)
    4796:	9b61                	andi	a4,a4,-8
    4798:	cbb8                	sw	a4,80(a5)
    479a:	4398                	lw	a4,0(a5)
    479c:	00876713          	ori	a4,a4,8
    47a0:	c398                	sw	a4,0(a5)
    47a2:	439c                	lw	a5,0(a5)
    47a4:	838d                	srli	a5,a5,0x3
    47a6:	8b85                	andi	a5,a5,1
    47a8:	c789                	beqz	a5,47b2 <RF_Rx+0x76>
    47aa:	0001                	nop
    47ac:	0001                	nop
    47ae:	0001                	nop
    47b0:	0001                	nop
    47b2:	1ffff417          	auipc	s0,0x1ffff
    47b6:	c1640413          	addi	s0,s0,-1002 # 200033c8 <rfInfo>
    47ba:	00c44783          	lbu	a5,12(s0)
    47be:	8ab6                	mv	s5,a3
    47c0:	8b32                	mv	s6,a2
    47c2:	8b91                	andi	a5,a5,4
    47c4:	89ae                	mv	s3,a1
    47c6:	8a2a                	mv	s4,a0
    47c8:	eb89                	bnez	a5,47da <RF_Rx+0x9e>
    47ca:	1ffff597          	auipc	a1,0x1ffff
    47ce:	bde5c583          	lbu	a1,-1058(a1) # 200033a8 <rfConfig>
    47d2:	0405f793          	andi	a5,a1,64
    47d6:	14079c63          	bnez	a5,492e <RF_Rx+0x1f2>
    47da:	4581                	li	a1,0
    47dc:	1ffff517          	auipc	a0,0x1ffff
    47e0:	bcd54503          	lbu	a0,-1075(a0) # 200033a9 <rfConfig+0x1>
    47e4:	887ff0ef          	jal	ra,406a <RF_DevSetChannel>
    47e8:	1ffff517          	auipc	a0,0x1ffff
    47ec:	bc054503          	lbu	a0,-1088(a0) # 200033a8 <rfConfig>
    47f0:	8511                	srai	a0,a0,0x4
    47f2:	4601                	li	a2,0
    47f4:	1ffff597          	auipc	a1,0x1ffff
    47f8:	bd05c583          	lbu	a1,-1072(a1) # 200033c4 <rfConfig+0x1c>
    47fc:	890d                	andi	a0,a0,3
    47fe:	c7aff0ef          	jal	ra,3c78 <BLE_SetPHYRxMode>
    4802:	1ffff717          	auipc	a4,0x1ffff
    4806:	b7e70713          	addi	a4,a4,-1154 # 20003380 <gptrBBReg>
    480a:	4494                	lw	a3,8(s1)
    480c:	431c                	lw	a5,0(a4)
    480e:	c794                	sw	a3,8(a5)
    4810:	44d4                	lw	a3,12(s1)
    4812:	c3d4                	sw	a3,4(a5)
    4814:	0004c783          	lbu	a5,0(s1)
    4818:	00092683          	lw	a3,0(s2)
    481c:	84ba                	mv	s1,a4
    481e:	8b85                	andi	a5,a5,1
    4820:	c2dc                	sw	a5,4(a3)
    4822:	1ffff797          	auipc	a5,0x1ffff
    4826:	bb6784a3          	sb	s6,-1111(a5) # 200033cb <rfInfo+0x3>
    482a:	1ffff797          	auipc	a5,0x1ffff
    482e:	bb578023          	sb	s5,-1120(a5) # 200033ca <rfInfo+0x2>
    4832:	42dc                	lw	a5,4(a3)
    4834:	8b85                	andi	a5,a5,1
    4836:	cfb1                	beqz	a5,4892 <RF_Rx+0x156>
    4838:	405c                	lw	a5,4(s0)
    483a:	e385                	bnez	a5,485a <RF_Rx+0x11e>
    483c:	1ffff517          	auipc	a0,0x1ffff
    4840:	b8954503          	lbu	a0,-1143(a0) # 200033c5 <rfConfig+0x1d>
    4844:	04900593          	li	a1,73
    4848:	0509                	addi	a0,a0,2
    484a:	1fffd097          	auipc	ra,0x1fffd
    484e:	e0e080e7          	jalr	-498(ra) # 20001658 <tmos_memory_allocate>
    4852:	1ffff797          	auipc	a5,0x1ffff
    4856:	b6a7ad23          	sw	a0,-1158(a5) # 200033cc <rfInfo+0x4>
    485a:	405c                	lw	a5,4(s0)
    485c:	ee0789e3          	beqz	a5,474e <RF_Rx+0x12>
    4860:	1ffff717          	auipc	a4,0x1ffff
    4864:	b6a74703          	lbu	a4,-1174(a4) # 200033ca <rfInfo+0x2>
    4868:	00e78023          	sb	a4,0(a5)
    486c:	405c                	lw	a5,4(s0)
    486e:	0c0a0663          	beqz	s4,493a <RF_Rx+0x1fe>
    4872:	0c098463          	beqz	s3,493a <RF_Rx+0x1fe>
    4876:	013780a3          	sb	s3,1(a5)
    487a:	4048                	lw	a0,4(s0)
    487c:	864e                	mv	a2,s3
    487e:	85d2                	mv	a1,s4
    4880:	0509                	addi	a0,a0,2
    4882:	1fffc097          	auipc	ra,0x1fffc
    4886:	ff0080e7          	jalr	-16(ra) # 20000872 <tmos_memcpy>
    488a:	00092783          	lw	a5,0(s2)
    488e:	4058                	lw	a4,4(s0)
    4890:	dbb8                	sw	a4,112(a5)
    4892:	ce6ff0ef          	jal	ra,3d78 <ll_multi_states_check>
    4896:	00e44783          	lbu	a5,14(s0)
    489a:	0047e793          	ori	a5,a5,4
    489e:	1ffff717          	auipc	a4,0x1ffff
    48a2:	b2f70c23          	sb	a5,-1224(a4) # 200033d6 <rfInfo+0xe>
    48a6:	04000793          	li	a5,64
    48aa:	1ffff717          	auipc	a4,0x1ffff
    48ae:	acf70f23          	sb	a5,-1314(a4) # 20003388 <gBleIPPara>
    48b2:	1ffff797          	auipc	a5,0x1ffff
    48b6:	ac078d23          	sb	zero,-1318(a5) # 2000338c <gBleIPPara+0x4>
    48ba:	479d                	li	a5,7
    48bc:	1ffff717          	auipc	a4,0x1ffff
    48c0:	acf709a3          	sb	a5,-1325(a4) # 2000338f <gBleIPPara+0x7>
    48c4:	1ffff797          	auipc	a5,0x1ffff
    48c8:	a7078793          	addi	a5,a5,-1424 # 20003334 <ble>
    48cc:	579c                	lw	a5,40(a5)
    48ce:	cb91                	beqz	a5,48e2 <RF_Rx+0x1a6>
    48d0:	64000613          	li	a2,1600
    48d4:	45c1                	li	a1,16
    48d6:	1ffff517          	auipc	a0,0x1ffff
    48da:	b0254503          	lbu	a0,-1278(a0) # 200033d8 <rfInfo+0x10>
    48de:	883fe0ef          	jal	ra,3160 <tmos_start_task>
    48e2:	1ffff797          	auipc	a5,0x1ffff
    48e6:	aa0785a3          	sb	zero,-1365(a5) # 2000338d <gBleIPPara+0x5>
    48ea:	00092683          	lw	a3,0(s2)
    48ee:	1ffff797          	auipc	a5,0x1ffff
    48f2:	a8078da3          	sb	zero,-1381(a5) # 20003389 <gBleIPPara+0x1>
    48f6:	4098                	lw	a4,0(s1)
    48f8:	4785                	li	a5,1
    48fa:	c29c                	sw	a5,0(a3)
    48fc:	431c                	lw	a5,0(a4)
    48fe:	00330637          	lui	a2,0x330
    4902:	4501                	li	a0,0
    4904:	e7f7f793          	andi	a5,a5,-385
    4908:	c31c                	sw	a5,0(a4)
    490a:	431c                	lw	a5,0(a4)
    490c:	e7f7f793          	andi	a5,a5,-385
    4910:	1007e793          	ori	a5,a5,256
    4914:	c31c                	sw	a5,0(a4)
    4916:	1ffff797          	auipc	a5,0x1ffff
    491a:	ad278793          	addi	a5,a5,-1326 # 200033e8 <gptrRFENDReg>
    491e:	4398                	lw	a4,0(a5)
    4920:	471c                	lw	a5,8(a4)
    4922:	8fd1                	or	a5,a5,a2
    4924:	c71c                	sw	a5,8(a4)
    4926:	0d900793          	li	a5,217
    492a:	cabc                	sw	a5,80(a3)
    492c:	b515                	j	4750 <RF_Rx+0x14>
    492e:	0305f593          	andi	a1,a1,48
    4932:	0015e593          	ori	a1,a1,1
    4936:	40c8                	lw	a0,4(s1)
    4938:	b575                	j	47e4 <RF_Rx+0xa8>
    493a:	000780a3          	sb	zero,1(a5)
    493e:	b7b1                	j	488a <RF_Rx+0x14e>

00004940 <rfRxProcess>:
rfRxProcess():
    4940:	7179                	addi	sp,sp,-48
    4942:	d226                	sw	s1,36(sp)
    4944:	1ffff497          	auipc	s1,0x1ffff
    4948:	a6448493          	addi	s1,s1,-1436 # 200033a8 <rfConfig>
    494c:	0004c783          	lbu	a5,0(s1)
    4950:	d422                	sw	s0,40(sp)
    4952:	d606                	sw	ra,44(sp)
    4954:	d04a                	sw	s2,32(sp)
    4956:	ce4e                	sw	s3,28(sp)
    4958:	cc52                	sw	s4,24(sp)
    495a:	8b85                	andi	a5,a5,1
    495c:	1ffff417          	auipc	s0,0x1ffff
    4960:	a2c40413          	addi	s0,s0,-1492 # 20003388 <gBleIPPara>
    4964:	30078463          	beqz	a5,4c6c <rfRxProcess+0x32c>
    4968:	00044783          	lbu	a5,0(s0)
    496c:	8b85                	andi	a5,a5,1
    496e:	2c078663          	beqz	a5,4c3a <rfRxProcess+0x2fa>
    4972:	1ffff797          	auipc	a5,0x1ffff
    4976:	a7678793          	addi	a5,a5,-1418 # 200033e8 <gptrRFENDReg>
    497a:	4398                	lw	a4,0(a5)
    497c:	000107a3          	sb	zero,15(sp)
    4980:	01842903          	lw	s2,24(s0)
    4984:	575c                	lw	a5,44(a4)
    4986:	8385                	srli	a5,a5,0x1
    4988:	8b85                	andi	a5,a5,1
    498a:	c3a1                	beqz	a5,49ca <rfRxProcess+0x8a>
    498c:	40dc                	lw	a5,4(s1)
    498e:	65c1                	lui	a1,0x10
    4990:	a0058593          	addi	a1,a1,-1536 # fa00 <_data_lma+0x9388>
    4994:	02b7d6b3          	divu	a3,a5,a1
    4998:	fe100537          	lui	a0,0xfe100
    499c:	157d                	addi	a0,a0,-1
    499e:	02b7f7b3          	remu	a5,a5,a1
    49a2:	8afd                	andi	a3,a3,31
    49a4:	01469613          	slli	a2,a3,0x14
    49a8:	4374                	lw	a3,68(a4)
    49aa:	8ee9                	and	a3,a3,a0
    49ac:	8ed1                	or	a3,a3,a2
    49ae:	c374                	sw	a3,68(a4)
    49b0:	0fa00693          	li	a3,250
    49b4:	fffc0637          	lui	a2,0xfffc0
    49b8:	07aa                	slli	a5,a5,0xa
    49ba:	02d7d7b3          	divu	a5,a5,a3
    49be:	4374                	lw	a3,68(a4)
    49c0:	8ef1                	and	a3,a3,a2
    49c2:	07ba                	slli	a5,a5,0xe
    49c4:	83b9                	srli	a5,a5,0xe
    49c6:	8fd5                	or	a5,a5,a3
    49c8:	c37c                	sw	a5,68(a4)
    49ca:	4681                	li	a3,0
    49cc:	00f10613          	addi	a2,sp,15
    49d0:	4581                	li	a1,0
    49d2:	854a                	mv	a0,s2
    49d4:	1ffff797          	auipc	a5,0x1ffff
    49d8:	9a078a23          	sb	zero,-1612(a5) # 20003388 <gBleIPPara>
    49dc:	1fffc097          	auipc	ra,0x1fffc
    49e0:	4b8080e7          	jalr	1208(ra) # 20000e94 <ble_ll_chkcrc>
    49e4:	01851a13          	slli	s4,a0,0x18
    49e8:	418a5a13          	srai	s4,s4,0x18
    49ec:	020a1263          	bnez	s4,4a10 <rfRxProcess+0xd0>
    49f0:	1ffff797          	auipc	a5,0x1ffff
    49f4:	9db7c783          	lbu	a5,-1573(a5) # 200033cb <rfInfo+0x3>
    49f8:	0ff00693          	li	a3,255
    49fc:	00d78a63          	beq	a5,a3,4a10 <rfRxProcess+0xd0>
    4a00:	4c18                	lw	a4,24(s0)
    4a02:	00074703          	lbu	a4,0(a4)
    4a06:	00d70563          	beq	a4,a3,4a10 <rfRxProcess+0xd0>
    4a0a:	00f70363          	beq	a4,a5,4a10 <rfRxProcess+0xd0>
    4a0e:	4a09                	li	s4,2
    4a10:	00048783          	lb	a5,0(s1)
    4a14:	1ffff997          	auipc	s3,0x1ffff
    4a18:	9b498993          	addi	s3,s3,-1612 # 200033c8 <rfInfo>
    4a1c:	1207ca63          	bltz	a5,4b50 <rfRxProcess+0x210>
    4a20:	120a1a63          	bnez	s4,4b54 <rfRxProcess+0x214>
    4a24:	00f14783          	lbu	a5,15(sp)
    4a28:	00f90023          	sb	a5,0(s2)
    4a2c:	00c9c783          	lbu	a5,12(s3)
    4a30:	8b91                	andi	a5,a5,4
    4a32:	c795                	beqz	a5,4a5e <rfRxProcess+0x11e>
    4a34:	00194783          	lbu	a5,1(s2)
    4a38:	97ca                	add	a5,a5,s2
    4a3a:	0007c703          	lbu	a4,0(a5)
    4a3e:	08000793          	li	a5,128
    4a42:	00f71e63          	bne	a4,a5,4a5e <rfRxProcess+0x11e>
    4a46:	485c                	lw	a5,20(s0)
    4a48:	0ff00713          	li	a4,255
    4a4c:	c398                	sw	a4,0(a5)
    4a4e:	0004c783          	lbu	a5,0(s1)
    4a52:	0087e793          	ori	a5,a5,8
    4a56:	1ffff717          	auipc	a4,0x1ffff
    4a5a:	94f70923          	sb	a5,-1710(a4) # 200033a8 <rfConfig>
    4a5e:	1ffff797          	auipc	a5,0x1ffff
    4a62:	92278793          	addi	a5,a5,-1758 # 20003380 <gptrBBReg>
    4a66:	439c                	lw	a5,0(a5)
    4a68:	008006b7          	lui	a3,0x800
    4a6c:	4398                	lw	a4,0(a5)
    4a6e:	8f55                	or	a4,a4,a3
    4a70:	c398                	sw	a4,0(a5)
    4a72:	57d8                	lw	a4,44(a5)
    4a74:	9b71                	andi	a4,a4,-4
    4a76:	d7d8                	sw	a4,44(a5)
    4a78:	0049a783          	lw	a5,4(s3)
    4a7c:	1ffff517          	auipc	a0,0x1ffff
    4a80:	92c54503          	lbu	a0,-1748(a0) # 200033a8 <rfConfig>
    4a84:	8511                	srai	a0,a0,0x4
    4a86:	0017c583          	lbu	a1,1(a5)
    4a8a:	890d                	andi	a0,a0,3
    4a8c:	8c0ff0ef          	jal	ra,3b4c <BLE_SetPHYTxMode>
    4a90:	1fffc097          	auipc	ra,0x1fffc
    4a94:	3c6080e7          	jalr	966(ra) # 20000e56 <ll_rx_wait_finish>
    4a98:	bb8ff0ef          	jal	ra,3e50 <ble_ll_hw_api_shut>
    4a9c:	1ffff697          	auipc	a3,0x1ffff
    4aa0:	9386c683          	lbu	a3,-1736(a3) # 200033d4 <rfInfo+0xc>
    4aa4:	0046f793          	andi	a5,a3,4
    4aa8:	14078b63          	beqz	a5,4bfe <rfRxProcess+0x2be>
    4aac:	1ffff717          	auipc	a4,0x1ffff
    4ab0:	88870713          	addi	a4,a4,-1912 # 20003334 <ble>
    4ab4:	01670603          	lb	a2,22(a4)
    4ab8:	481c                	lw	a5,16(s0)
    4aba:	0c065d63          	bgez	a2,4b94 <rfRxProcess+0x254>
    4abe:	17f1                	addi	a5,a5,-4
    4ac0:	1ffff717          	auipc	a4,0x1ffff
    4ac4:	8cf72c23          	sw	a5,-1832(a4) # 20003398 <gBleIPPara+0x10>
    4ac8:	481c                	lw	a5,16(s0)
    4aca:	0089a703          	lw	a4,8(s3)
    4ace:	0c065b63          	bgez	a2,4ba4 <rfRxProcess+0x264>
    4ad2:	40e78733          	sub	a4,a5,a4
    4ad6:	00194783          	lbu	a5,1(s2)
    4ada:	01869593          	slli	a1,a3,0x18
    4ade:	85e1                	srai	a1,a1,0x18
    4ae0:	97ca                	add	a5,a5,s2
    4ae2:	0017c783          	lbu	a5,1(a5)
    4ae6:	078e                	slli	a5,a5,0x3
    4ae8:	0c05dd63          	bgez	a1,4bc2 <rfRxProcess+0x282>
    4aec:	0ce7f263          	bgeu	a5,a4,4bb0 <rfRxProcess+0x270>
    4af0:	8f1d                	sub	a4,a4,a5
    4af2:	02000693          	li	a3,32
    4af6:	00e6eb63          	bltu	a3,a4,4b0c <rfRxProcess+0x1cc>
    4afa:	4818                	lw	a4,16(s0)
    4afc:	0a065d63          	bgez	a2,4bb6 <rfRxProcess+0x276>
    4b00:	40f707b3          	sub	a5,a4,a5
    4b04:	1ffff717          	auipc	a4,0x1ffff
    4b08:	8cf72623          	sw	a5,-1844(a4) # 200033d0 <rfInfo+0x8>
    4b0c:	4589                	li	a1,2
    4b0e:	1ffff517          	auipc	a0,0x1ffff
    4b12:	8ca54503          	lbu	a0,-1846(a0) # 200033d8 <rfInfo+0x10>
    4b16:	deafe0ef          	jal	ra,3100 <tmos_set_event>
    4b1a:	0004c783          	lbu	a5,0(s1)
    4b1e:	8ba1                	andi	a5,a5,8
    4b20:	cbf1                	beqz	a5,4bf4 <rfRxProcess+0x2b4>
    4b22:	0049a503          	lw	a0,4(s3)
    4b26:	1ffff617          	auipc	a2,0x1ffff
    4b2a:	8a564603          	lbu	a2,-1883(a2) # 200033cb <rfInfo+0x3>
    4b2e:	1ffff697          	auipc	a3,0x1ffff
    4b32:	89c6c683          	lbu	a3,-1892(a3) # 200033ca <rfInfo+0x2>
    4b36:	cd45                	beqz	a0,4bee <rfRxProcess+0x2ae>
    4b38:	00154583          	lbu	a1,1(a0)
    4b3c:	0509                	addi	a0,a0,2
    4b3e:	3efd                	jal	473c <RF_Rx>
    4b40:	0004c783          	lbu	a5,0(s1)
    4b44:	9bdd                	andi	a5,a5,-9
    4b46:	1ffff717          	auipc	a4,0x1ffff
    4b4a:	86f70123          	sb	a5,-1950(a4) # 200033a8 <rfConfig>
    4b4e:	a81d                	j	4b84 <rfRxProcess+0x244>
    4b50:	ec0a0ee3          	beqz	s4,4a2c <rfRxProcess+0xec>
    4b54:	afcff0ef          	jal	ra,3e50 <ble_ll_hw_api_shut>
    4b58:	4c10                	lw	a2,24(s0)
    4b5a:	489c                	lw	a5,16(s1)
    4b5c:	450d                	li	a0,3
    4b5e:	0ffa7593          	andi	a1,s4,255
    4b62:	9782                	jalr	a5
    4b64:	0049a503          	lw	a0,4(s3)
    4b68:	1ffff617          	auipc	a2,0x1ffff
    4b6c:	86364603          	lbu	a2,-1949(a2) # 200033cb <rfInfo+0x3>
    4b70:	1ffff697          	auipc	a3,0x1ffff
    4b74:	85a6c683          	lbu	a3,-1958(a3) # 200033ca <rfInfo+0x2>
    4b78:	26050263          	beqz	a0,4ddc <rfRxProcess+0x49c>
    4b7c:	00154583          	lbu	a1,1(a0)
    4b80:	0509                	addi	a0,a0,2
    4b82:	3e6d                	jal	473c <RF_Rx>
    4b84:	50b2                	lw	ra,44(sp)
    4b86:	5422                	lw	s0,40(sp)
    4b88:	5492                	lw	s1,36(sp)
    4b8a:	5902                	lw	s2,32(sp)
    4b8c:	49f2                	lw	s3,28(sp)
    4b8e:	4a62                	lw	s4,24(sp)
    4b90:	6145                	addi	sp,sp,48
    4b92:	8082                	ret
    4b94:	470d                	li	a4,3
    4b96:	f2f764e3          	bltu	a4,a5,4abe <rfRxProcess+0x17e>
    4b9a:	a8c00737          	lui	a4,0xa8c00
    4b9e:	1771                	addi	a4,a4,-4
    4ba0:	97ba                	add	a5,a5,a4
    4ba2:	bf39                	j	4ac0 <rfRxProcess+0x180>
    4ba4:	f2e7f7e3          	bgeu	a5,a4,4ad2 <rfRxProcess+0x192>
    4ba8:	a8c005b7          	lui	a1,0xa8c00
    4bac:	97ae                	add	a5,a5,a1
    4bae:	b715                	j	4ad2 <rfRxProcess+0x192>
    4bb0:	40e78733          	sub	a4,a5,a4
    4bb4:	bf3d                	j	4af2 <rfRxProcess+0x1b2>
    4bb6:	f4f775e3          	bgeu	a4,a5,4b00 <rfRxProcess+0x1c0>
    4bba:	a8c006b7          	lui	a3,0xa8c00
    4bbe:	9736                	add	a4,a4,a3
    4bc0:	b781                	j	4b00 <rfRxProcess+0x1c0>
    4bc2:	4818                	lw	a4,16(s0)
    4bc4:	00065f63          	bgez	a2,4be2 <rfRxProcess+0x2a2>
    4bc8:	40f707b3          	sub	a5,a4,a5
    4bcc:	f806e693          	ori	a3,a3,-128
    4bd0:	1ffff717          	auipc	a4,0x1ffff
    4bd4:	80f72023          	sw	a5,-2048(a4) # 200033d0 <rfInfo+0x8>
    4bd8:	1fffe797          	auipc	a5,0x1fffe
    4bdc:	7ed78e23          	sb	a3,2044(a5) # 200033d4 <rfInfo+0xc>
    4be0:	b735                	j	4b0c <rfRxProcess+0x1cc>
    4be2:	fef773e3          	bgeu	a4,a5,4bc8 <rfRxProcess+0x288>
    4be6:	a8c00637          	lui	a2,0xa8c00
    4bea:	9732                	add	a4,a4,a2
    4bec:	bff1                	j	4bc8 <rfRxProcess+0x288>
    4bee:	4581                	li	a1,0
    4bf0:	4501                	li	a0,0
    4bf2:	b7b1                	j	4b3e <rfRxProcess+0x1fe>
    4bf4:	00194783          	lbu	a5,1(s2)
    4bf8:	17f9                	addi	a5,a5,-2
    4bfa:	00f900a3          	sb	a5,1(s2)
    4bfe:	da4ff0ef          	jal	ra,41a2 <rf_stop>
    4c02:	489c                	lw	a5,16(s1)
    4c04:	4c10                	lw	a2,24(s0)
    4c06:	4581                	li	a1,0
    4c08:	450d                	li	a0,3
    4c0a:	9782                	jalr	a5
    4c0c:	00144783          	lbu	a5,1(s0)
    4c10:	8b85                	andi	a5,a5,1
    4c12:	cb99                	beqz	a5,4c28 <rfRxProcess+0x2e8>
    4c14:	1fffe797          	auipc	a5,0x1fffe
    4c18:	76078aa3          	sb	zero,1909(a5) # 20003389 <gBleIPPara+0x1>
    4c1c:	489c                	lw	a5,16(s1)
    4c1e:	4601                	li	a2,0
    4c20:	4581                	li	a1,0
    4c22:	4511                	li	a0,4
    4c24:	9782                	jalr	a5
    4c26:	bfb9                	j	4b84 <rfRxProcess+0x244>
    4c28:	1fffe797          	auipc	a5,0x1fffe
    4c2c:	76078223          	sb	zero,1892(a5) # 2000338c <gBleIPPara+0x4>
    4c30:	489c                	lw	a5,16(s1)
    4c32:	4601                	li	a2,0
    4c34:	4581                	li	a1,0
    4c36:	4551                	li	a0,20
    4c38:	b7f5                	j	4c24 <rfRxProcess+0x2e4>
    4c3a:	93eff0ef          	jal	ra,3d78 <ll_multi_states_check>
    4c3e:	1fffe797          	auipc	a5,0x1fffe
    4c42:	74278793          	addi	a5,a5,1858 # 20003380 <gptrBBReg>
    4c46:	4398                	lw	a4,0(a5)
    4c48:	008006b7          	lui	a3,0x800
    4c4c:	431c                	lw	a5,0(a4)
    4c4e:	8fd5                	or	a5,a5,a3
    4c50:	c31c                	sw	a5,0(a4)
    4c52:	d50ff0ef          	jal	ra,41a2 <rf_stop>
    4c56:	1fffe797          	auipc	a5,0x1fffe
    4c5a:	6de78793          	addi	a5,a5,1758 # 20003334 <ble>
    4c5e:	5b9c                	lw	a5,48(a5)
    4c60:	4589                	li	a1,2
    4c62:	d38d                	beqz	a5,4b84 <rfRxProcess+0x244>
    4c64:	08100513          	li	a0,129
    4c68:	9782                	jalr	a5
    4c6a:	bf29                	j	4b84 <rfRxProcess+0x244>
    4c6c:	00144783          	lbu	a5,1(s0)
    4c70:	8b85                	andi	a5,a5,1
    4c72:	22078163          	beqz	a5,4e94 <rfRxProcess+0x554>
    4c76:	1fffe797          	auipc	a5,0x1fffe
    4c7a:	700789a3          	sb	zero,1811(a5) # 20003389 <gBleIPPara+0x1>
    4c7e:	01842903          	lw	s2,24(s0)
    4c82:	d20ff0ef          	jal	ra,41a2 <rf_stop>
    4c86:	1fffe697          	auipc	a3,0x1fffe
    4c8a:	74e6c683          	lbu	a3,1870(a3) # 200033d4 <rfInfo+0xc>
    4c8e:	0046f793          	andi	a5,a3,4
    4c92:	1a078a63          	beqz	a5,4e46 <rfRxProcess+0x506>
    4c96:	00194783          	lbu	a5,1(s2)
    4c9a:	97ca                	add	a5,a5,s2
    4c9c:	0007c703          	lbu	a4,0(a5)
    4ca0:	08000793          	li	a5,128
    4ca4:	00f71a63          	bne	a4,a5,4cb8 <rfRxProcess+0x378>
    4ca8:	0004c783          	lbu	a5,0(s1)
    4cac:	0087e793          	ori	a5,a5,8
    4cb0:	1fffe717          	auipc	a4,0x1fffe
    4cb4:	6ef70c23          	sb	a5,1784(a4) # 200033a8 <rfConfig>
    4cb8:	1fffe717          	auipc	a4,0x1fffe
    4cbc:	67c70713          	addi	a4,a4,1660 # 20003334 <ble>
    4cc0:	01670603          	lb	a2,22(a4)
    4cc4:	481c                	lw	a5,16(s0)
    4cc6:	10065e63          	bgez	a2,4de2 <rfRxProcess+0x4a2>
    4cca:	17f1                	addi	a5,a5,-4
    4ccc:	1fffe717          	auipc	a4,0x1fffe
    4cd0:	6cf72623          	sw	a5,1740(a4) # 20003398 <gBleIPPara+0x10>
    4cd4:	481c                	lw	a5,16(s0)
    4cd6:	1fffe717          	auipc	a4,0x1fffe
    4cda:	6f270713          	addi	a4,a4,1778 # 200033c8 <rfInfo>
    4cde:	4718                	lw	a4,8(a4)
    4ce0:	10065963          	bgez	a2,4df2 <rfRxProcess+0x4b2>
    4ce4:	40e78733          	sub	a4,a5,a4
    4ce8:	00194783          	lbu	a5,1(s2)
    4cec:	01869593          	slli	a1,a3,0x18
    4cf0:	85e1                	srai	a1,a1,0x18
    4cf2:	97ca                	add	a5,a5,s2
    4cf4:	0017c783          	lbu	a5,1(a5)
    4cf8:	078e                	slli	a5,a5,0x3
    4cfa:	1005db63          	bgez	a1,4e10 <rfRxProcess+0x4d0>
    4cfe:	10e7f063          	bgeu	a5,a4,4dfe <rfRxProcess+0x4be>
    4d02:	8f1d                	sub	a4,a4,a5
    4d04:	02000693          	li	a3,32
    4d08:	00e6eb63          	bltu	a3,a4,4d1e <rfRxProcess+0x3de>
    4d0c:	4818                	lw	a4,16(s0)
    4d0e:	0e065b63          	bgez	a2,4e04 <rfRxProcess+0x4c4>
    4d12:	40f707b3          	sub	a5,a4,a5
    4d16:	1fffe717          	auipc	a4,0x1fffe
    4d1a:	6af72d23          	sw	a5,1722(a4) # 200033d0 <rfInfo+0x8>
    4d1e:	4589                	li	a1,2
    4d20:	1fffe517          	auipc	a0,0x1fffe
    4d24:	6b854503          	lbu	a0,1720(a0) # 200033d8 <rfInfo+0x10>
    4d28:	bd8fe0ef          	jal	ra,3100 <tmos_set_event>
    4d2c:	0004c783          	lbu	a5,0(s1)
    4d30:	8ba1                	andi	a5,a5,8
    4d32:	10078563          	beqz	a5,4e3c <rfRxProcess+0x4fc>
    4d36:	1fffe797          	auipc	a5,0x1fffe
    4d3a:	66e78793          	addi	a5,a5,1646 # 200033a4 <gptrLLEReg>
    4d3e:	4394                	lw	a3,0(a5)
    4d40:	0c800793          	li	a5,200
    4d44:	0ff00713          	li	a4,255
    4d48:	d2fc                	sw	a5,100(a3)
    4d4a:	485c                	lw	a5,20(s0)
    4d4c:	00330637          	lui	a2,0x330
    4d50:	4501                	li	a0,0
    4d52:	c398                	sw	a4,0(a5)
    4d54:	1fffe797          	auipc	a5,0x1fffe
    4d58:	62078b23          	sb	zero,1590(a5) # 2000338a <gBleIPPara+0x2>
    4d5c:	1fffe797          	auipc	a5,0x1fffe
    4d60:	620787a3          	sb	zero,1583(a5) # 2000338b <gBleIPPara+0x3>
    4d64:	1fffe797          	auipc	a5,0x1fffe
    4d68:	62078423          	sb	zero,1576(a5) # 2000338c <gBleIPPara+0x4>
    4d6c:	1fffe797          	auipc	a5,0x1fffe
    4d70:	620780a3          	sb	zero,1569(a5) # 2000338d <gBleIPPara+0x5>
    4d74:	1fffe797          	auipc	a5,0x1fffe
    4d78:	60c78793          	addi	a5,a5,1548 # 20003380 <gptrBBReg>
    4d7c:	4398                	lw	a4,0(a5)
    4d7e:	431c                	lw	a5,0(a4)
    4d80:	e7f7f793          	andi	a5,a5,-385
    4d84:	c31c                	sw	a5,0(a4)
    4d86:	431c                	lw	a5,0(a4)
    4d88:	e7f7f793          	andi	a5,a5,-385
    4d8c:	1007e793          	ori	a5,a5,256
    4d90:	c31c                	sw	a5,0(a4)
    4d92:	1fffe797          	auipc	a5,0x1fffe
    4d96:	65678793          	addi	a5,a5,1622 # 200033e8 <gptrRFENDReg>
    4d9a:	4398                	lw	a4,0(a5)
    4d9c:	1fffe597          	auipc	a1,0x1fffe
    4da0:	60c5c583          	lbu	a1,1548(a1) # 200033a8 <rfConfig>
    4da4:	8591                	srai	a1,a1,0x4
    4da6:	471c                	lw	a5,8(a4)
    4da8:	898d                	andi	a1,a1,3
    4daa:	8fd1                	or	a5,a5,a2
    4dac:	c71c                	sw	a5,8(a4)
    4dae:	0da00793          	li	a5,218
    4db2:	cabc                	sw	a5,80(a3)
    4db4:	4605                	li	a2,1
    4db6:	1fffc097          	auipc	ra,0x1fffc
    4dba:	1a8080e7          	jalr	424(ra) # 20000f5e <ll_tx_wait_finish>
    4dbe:	0004c783          	lbu	a5,0(s1)
    4dc2:	1fffe697          	auipc	a3,0x1fffe
    4dc6:	6086c683          	lbu	a3,1544(a3) # 200033ca <rfInfo+0x2>
    4dca:	1fffe617          	auipc	a2,0x1fffe
    4dce:	60164603          	lbu	a2,1537(a2) # 200033cb <rfInfo+0x3>
    4dd2:	9bdd                	andi	a5,a5,-9
    4dd4:	1fffe717          	auipc	a4,0x1fffe
    4dd8:	5cf70a23          	sb	a5,1492(a4) # 200033a8 <rfConfig>
    4ddc:	4581                	li	a1,0
    4dde:	4501                	li	a0,0
    4de0:	b34d                	j	4b82 <rfRxProcess+0x242>
    4de2:	470d                	li	a4,3
    4de4:	eef763e3          	bltu	a4,a5,4cca <rfRxProcess+0x38a>
    4de8:	a8c00737          	lui	a4,0xa8c00
    4dec:	1771                	addi	a4,a4,-4
    4dee:	97ba                	add	a5,a5,a4
    4df0:	bdf1                	j	4ccc <rfRxProcess+0x38c>
    4df2:	eee7f9e3          	bgeu	a5,a4,4ce4 <rfRxProcess+0x3a4>
    4df6:	a8c005b7          	lui	a1,0xa8c00
    4dfa:	97ae                	add	a5,a5,a1
    4dfc:	b5e5                	j	4ce4 <rfRxProcess+0x3a4>
    4dfe:	40e78733          	sub	a4,a5,a4
    4e02:	b709                	j	4d04 <rfRxProcess+0x3c4>
    4e04:	f0f777e3          	bgeu	a4,a5,4d12 <rfRxProcess+0x3d2>
    4e08:	a8c006b7          	lui	a3,0xa8c00
    4e0c:	9736                	add	a4,a4,a3
    4e0e:	b711                	j	4d12 <rfRxProcess+0x3d2>
    4e10:	4818                	lw	a4,16(s0)
    4e12:	00065f63          	bgez	a2,4e30 <rfRxProcess+0x4f0>
    4e16:	40f707b3          	sub	a5,a4,a5
    4e1a:	f806e693          	ori	a3,a3,-128
    4e1e:	1fffe717          	auipc	a4,0x1fffe
    4e22:	5af72923          	sw	a5,1458(a4) # 200033d0 <rfInfo+0x8>
    4e26:	1fffe797          	auipc	a5,0x1fffe
    4e2a:	5ad78723          	sb	a3,1454(a5) # 200033d4 <rfInfo+0xc>
    4e2e:	bdc5                	j	4d1e <rfRxProcess+0x3de>
    4e30:	fef773e3          	bgeu	a4,a5,4e16 <rfRxProcess+0x4d6>
    4e34:	a8c00637          	lui	a2,0xa8c00
    4e38:	9732                	add	a4,a4,a2
    4e3a:	bff1                	j	4e16 <rfRxProcess+0x4d6>
    4e3c:	00194783          	lbu	a5,1(s2)
    4e40:	17f9                	addi	a5,a5,-2
    4e42:	00f900a3          	sb	a5,1(s2)
    4e46:	4c08                	lw	a0,24(s0)
    4e48:	0ff00693          	li	a3,255
    4e4c:	4901                	li	s2,0
    4e4e:	00054703          	lbu	a4,0(a0)
    4e52:	00d70b63          	beq	a4,a3,4e68 <rfRxProcess+0x528>
    4e56:	1fffe797          	auipc	a5,0x1fffe
    4e5a:	5757c783          	lbu	a5,1397(a5) # 200033cb <rfInfo+0x3>
    4e5e:	00d78563          	beq	a5,a3,4e68 <rfRxProcess+0x528>
    4e62:	00f70363          	beq	a4,a5,4e68 <rfRxProcess+0x528>
    4e66:	4909                	li	s2,2
    4e68:	00048783          	lb	a5,0(s1)
    4e6c:	4681                	li	a3,0
    4e6e:	0207d063          	bgez	a5,4e8e <rfRxProcess+0x54e>
    4e72:	4601                	li	a2,0
    4e74:	4581                	li	a1,0
    4e76:	1fffc097          	auipc	ra,0x1fffc
    4e7a:	01e080e7          	jalr	30(ra) # 20000e94 <ble_ll_chkcrc>
    4e7e:	00a96533          	or	a0,s2,a0
    4e82:	0ff57593          	andi	a1,a0,255
    4e86:	489c                	lw	a5,16(s1)
    4e88:	4c10                	lw	a2,24(s0)
    4e8a:	450d                	li	a0,3
    4e8c:	bb61                	j	4c24 <rfRxProcess+0x2e4>
    4e8e:	862a                	mv	a2,a0
    4e90:	4581                	li	a1,0
    4e92:	b7d5                	j	4e76 <rfRxProcess+0x536>
    4e94:	ee5fe0ef          	jal	ra,3d78 <ll_multi_states_check>
    4e98:	1fffe797          	auipc	a5,0x1fffe
    4e9c:	4e878793          	addi	a5,a5,1256 # 20003380 <gptrBBReg>
    4ea0:	4398                	lw	a4,0(a5)
    4ea2:	008006b7          	lui	a3,0x800
    4ea6:	431c                	lw	a5,0(a4)
    4ea8:	8fd5                	or	a5,a5,a3
    4eaa:	c31c                	sw	a5,0(a4)
    4eac:	af6ff0ef          	jal	ra,41a2 <rf_stop>
    4eb0:	1fffe797          	auipc	a5,0x1fffe
    4eb4:	48478793          	addi	a5,a5,1156 # 20003334 <ble>
    4eb8:	5b9c                	lw	a5,48(a5)
    4eba:	cc0785e3          	beqz	a5,4b84 <rfRxProcess+0x244>
    4ebe:	4585                	li	a1,1
    4ec0:	b355                	j	4c64 <rfRxProcess+0x324>

00004ec2 <RF_Shut>:
RF_Shut():
    4ec2:	1fffe797          	auipc	a5,0x1fffe
    4ec6:	50078a23          	sb	zero,1300(a5) # 200033d6 <rfInfo+0xe>
    4eca:	1fffe797          	auipc	a5,0x1fffe
    4ece:	4fe78793          	addi	a5,a5,1278 # 200033c8 <rfInfo>
    4ed2:	43c8                	lw	a0,4(a5)
    4ed4:	1141                	addi	sp,sp,-16
    4ed6:	c606                	sw	ra,12(sp)
    4ed8:	c509                	beqz	a0,4ee2 <RF_Shut+0x20>
    4eda:	1fffd097          	auipc	ra,0x1fffd
    4ede:	850080e7          	jalr	-1968(ra) # 2000172a <tmos_memory_free>
    4ee2:	1fffe797          	auipc	a5,0x1fffe
    4ee6:	4e07a523          	sw	zero,1258(a5) # 200033cc <rfInfo+0x4>
    4eea:	1fffe797          	auipc	a5,0x1fffe
    4eee:	4a77c783          	lbu	a5,1191(a5) # 20003391 <gBleIPPara+0x9>
    4ef2:	cf81                	beqz	a5,4f0a <RF_Shut+0x48>
    4ef4:	1fffe717          	auipc	a4,0x1fffe
    4ef8:	49c74703          	lbu	a4,1180(a4) # 20003390 <gBleIPPara+0x8>
    4efc:	479d                	li	a5,7
    4efe:	00f71663          	bne	a4,a5,4f0a <RF_Shut+0x48>
    4f02:	1fffe797          	auipc	a5,0x1fffe
    4f06:	480787a3          	sb	zero,1167(a5) # 20003391 <gBleIPPara+0x9>
    4f0a:	1fffe697          	auipc	a3,0x1fffe
    4f0e:	4856c683          	lbu	a3,1157(a3) # 2000338f <gBleIPPara+0x7>
    4f12:	ffb68793          	addi	a5,a3,-5
    4f16:	0ff7f793          	andi	a5,a5,255
    4f1a:	4705                	li	a4,1
    4f1c:	00f76a63          	bltu	a4,a5,4f30 <RF_Shut+0x6e>
    4f20:	1fffe797          	auipc	a5,0x1fffe
    4f24:	46d78823          	sb	a3,1136(a5) # 20003390 <gBleIPPara+0x8>
    4f28:	1fffe797          	auipc	a5,0x1fffe
    4f2c:	46e784a3          	sb	a4,1129(a5) # 20003391 <gBleIPPara+0x9>
    4f30:	f21fe0ef          	jal	ra,3e50 <ble_ll_hw_api_shut>
    4f34:	45c1                	li	a1,16
    4f36:	1fffe517          	auipc	a0,0x1fffe
    4f3a:	4a254503          	lbu	a0,1186(a0) # 200033d8 <rfInfo+0x10>
    4f3e:	b02fe0ef          	jal	ra,3240 <tmos_stop_task>
    4f42:	4501                	li	a0,0
    4f44:	4581                	li	a1,0
    4f46:	b66fe0ef          	jal	ra,32ac <TMOS_ProcessRegister>
    4f4a:	40b2                	lw	ra,12(sp)
    4f4c:	4501                	li	a0,0
    4f4e:	0141                	addi	sp,sp,16
    4f50:	8082                	ret

00004f52 <RF_FrequencyHoppingShut>:
RF_FrequencyHoppingShut():
    4f52:	1141                	addi	sp,sp,-16
    4f54:	c606                	sw	ra,12(sp)
    4f56:	c422                	sw	s0,8(sp)
    4f58:	37ad                	jal	4ec2 <RF_Shut>
    4f5a:	1fffe797          	auipc	a5,0x1fffe
    4f5e:	46e78793          	addi	a5,a5,1134 # 200033c8 <rfInfo>
    4f62:	00f7c703          	lbu	a4,15(a5)
    4f66:	4bdc                	lw	a5,20(a5)
    4f68:	45a1                	li	a1,8
    4f6a:	1fffe517          	auipc	a0,0x1fffe
    4f6e:	46e54503          	lbu	a0,1134(a0) # 200033d8 <rfInfo+0x10>
    4f72:	1fffe697          	auipc	a3,0x1fffe
    4f76:	42e68ba3          	sb	a4,1079(a3) # 200033a9 <rfConfig+0x1>
    4f7a:	1fffe717          	auipc	a4,0x1fffe
    4f7e:	42f72b23          	sw	a5,1078(a4) # 200033b0 <rfConfig+0x8>
    4f82:	abefe0ef          	jal	ra,3240 <tmos_stop_task>
    4f86:	4591                	li	a1,4
    4f88:	1fffe517          	auipc	a0,0x1fffe
    4f8c:	45054503          	lbu	a0,1104(a0) # 200033d8 <rfInfo+0x10>
    4f90:	ab0fe0ef          	jal	ra,3240 <tmos_stop_task>
    4f94:	1fffe797          	auipc	a5,0x1fffe
    4f98:	4407c783          	lbu	a5,1088(a5) # 200033d4 <rfInfo+0xc>
    4f9c:	0027f713          	andi	a4,a5,2
    4fa0:	1fffe417          	auipc	s0,0x1fffe
    4fa4:	40840413          	addi	s0,s0,1032 # 200033a8 <rfConfig>
    4fa8:	cf19                	beqz	a4,4fc6 <RF_FrequencyHoppingShut+0x74>
    4faa:	481c                	lw	a5,16(s0)
    4fac:	4601                	li	a2,0
    4fae:	4581                	li	a1,0
    4fb0:	02200513          	li	a0,34
    4fb4:	9782                	jalr	a5
    4fb6:	40b2                	lw	ra,12(sp)
    4fb8:	4422                	lw	s0,8(sp)
    4fba:	1fffe797          	auipc	a5,0x1fffe
    4fbe:	40078d23          	sb	zero,1050(a5) # 200033d4 <rfInfo+0xc>
    4fc2:	0141                	addi	sp,sp,16
    4fc4:	8082                	ret
    4fc6:	8b91                	andi	a5,a5,4
    4fc8:	d7fd                	beqz	a5,4fb6 <RF_FrequencyHoppingShut+0x64>
    4fca:	481c                	lw	a5,16(s0)
    4fcc:	4601                	li	a2,0
    4fce:	4581                	li	a1,0
    4fd0:	02400513          	li	a0,36
    4fd4:	b7c5                	j	4fb4 <RF_FrequencyHoppingShut+0x62>

00004fd6 <rf_hop_heart_beat>:
rf_hop_heart_beat():
    4fd6:	7179                	addi	sp,sp,-48
    4fd8:	d226                	sw	s1,36(sp)
    4fda:	1fffe497          	auipc	s1,0x1fffe
    4fde:	3ee48493          	addi	s1,s1,1006 # 200033c8 <rfInfo>
    4fe2:	00c4c783          	lbu	a5,12(s1)
    4fe6:	d606                	sw	ra,44(sp)
    4fe8:	d422                	sw	s0,40(sp)
    4fea:	d04a                	sw	s2,32(sp)
    4fec:	ce4e                	sw	s3,28(sp)
    4fee:	cc52                	sw	s4,24(sp)
    4ff0:	ca56                	sw	s5,20(sp)
    4ff2:	c85a                	sw	s6,16(sp)
    4ff4:	c65e                	sw	s7,12(sp)
    4ff6:	8b89                	andi	a5,a5,2
    4ff8:	cbe1                	beqz	a5,50c8 <rf_hop_heart_beat+0xf2>
    4ffa:	1fffea97          	auipc	s5,0x1fffe
    4ffe:	3aeaca83          	lbu	s5,942(s5) # 200033a8 <rfConfig>
    5002:	009ae793          	ori	a5,s5,9
    5006:	6935                	lui	s2,0xd
    5008:	6985                	lui	s3,0x1
    500a:	6a3d                	lui	s4,0xf
    500c:	1fffe717          	auipc	a4,0x1fffe
    5010:	38f70e23          	sb	a5,924(a4) # 200033a8 <rfConfig>
    5014:	4401                	li	s0,0
    5016:	1fffeb17          	auipc	s6,0x1fffe
    501a:	372b0b13          	addi	s6,s6,882 # 20003388 <gBleIPPara>
    501e:	1fffeb97          	auipc	s7,0x1fffe
    5022:	386b8b93          	addi	s7,s7,902 # 200033a4 <gptrLLEReg>
    5026:	093d                	addi	s2,s2,15
    5028:	f9298993          	addi	s3,s3,-110 # f92 <_einit+0xf8e>
    502c:	0a3d                	addi	s4,s4,15
    502e:	1fffe697          	auipc	a3,0x1fffe
    5032:	39b6c683          	lbu	a3,923(a3) # 200033c9 <rfInfo+0x1>
    5036:	1fffe617          	auipc	a2,0x1fffe
    503a:	39264603          	lbu	a2,914(a2) # 200033c8 <rfInfo>
    503e:	4581                	li	a1,0
    5040:	4501                	li	a0,0
    5042:	c34ff0ef          	jal	ra,4476 <RF_Tx>
    5046:	002b4783          	lbu	a5,2(s6)
    504a:	8b85                	andi	a5,a5,1
    504c:	d3ed                	beqz	a5,502e <rf_hop_heart_beat+0x58>
    504e:	1fffe517          	auipc	a0,0x1fffe
    5052:	35a54503          	lbu	a0,858(a0) # 200033a8 <rfConfig>
    5056:	8511                	srai	a0,a0,0x4
    5058:	4601                	li	a2,0
    505a:	0ff00593          	li	a1,255
    505e:	890d                	andi	a0,a0,3
    5060:	1fffe797          	auipc	a5,0x1fffe
    5064:	32078523          	sb	zero,810(a5) # 2000338a <gBleIPPara+0x2>
    5068:	c11fe0ef          	jal	ra,3c78 <BLE_SetPHYRxMode>
    506c:	47f9                	li	a5,30
    506e:	0001                	nop
    5070:	17fd                	addi	a5,a5,-1
    5072:	fff5                	bnez	a5,506e <rf_hop_heart_beat+0x98>
    5074:	1fffe597          	auipc	a1,0x1fffe
    5078:	3345c583          	lbu	a1,820(a1) # 200033a8 <rfConfig>
    507c:	8591                	srai	a1,a1,0x4
    507e:	0ff00613          	li	a2,255
    5082:	898d                	andi	a1,a1,3
    5084:	4505                	li	a0,1
    5086:	1fffc097          	auipc	ra,0x1fffc
    508a:	ed8080e7          	jalr	-296(ra) # 20000f5e <ll_tx_wait_finish>
    508e:	003b4783          	lbu	a5,3(s6)
    5092:	8b85                	andi	a5,a5,1
    5094:	c7a9                	beqz	a5,50de <rf_hop_heart_beat+0x108>
    5096:	1fffe797          	auipc	a5,0x1fffe
    509a:	2e078aa3          	sb	zero,757(a5) # 2000338b <gBleIPPara+0x3>
    509e:	904ff0ef          	jal	ra,41a2 <rf_stop>
    50a2:	00c4c783          	lbu	a5,12(s1)
    50a6:	4585                	li	a1,1
    50a8:	1fffe517          	auipc	a0,0x1fffe
    50ac:	33054503          	lbu	a0,816(a0) # 200033d8 <rfInfo+0x10>
    50b0:	f807e793          	ori	a5,a5,-128
    50b4:	1fffe717          	auipc	a4,0x1fffe
    50b8:	32f70023          	sb	a5,800(a4) # 200033d4 <rfInfo+0xc>
    50bc:	844fe0ef          	jal	ra,3100 <tmos_set_event>
    50c0:	1fffe797          	auipc	a5,0x1fffe
    50c4:	2f578423          	sb	s5,744(a5) # 200033a8 <rfConfig>
    50c8:	50b2                	lw	ra,44(sp)
    50ca:	5422                	lw	s0,40(sp)
    50cc:	5492                	lw	s1,36(sp)
    50ce:	5902                	lw	s2,32(sp)
    50d0:	49f2                	lw	s3,28(sp)
    50d2:	4a62                	lw	s4,24(sp)
    50d4:	4ad2                	lw	s5,20(sp)
    50d6:	4b42                	lw	s6,16(sp)
    50d8:	4bb2                	lw	s7,12(sp)
    50da:	6145                	addi	sp,sp,48
    50dc:	8082                	ret
    50de:	8c4ff0ef          	jal	ra,41a2 <rf_stop>
    50e2:	0405                	addi	s0,s0,1
    50e4:	0ff47413          	andi	s0,s0,255
    50e8:	47a1                	li	a5,8
    50ea:	00f41463          	bne	s0,a5,50f2 <rf_hop_heart_beat+0x11c>
    50ee:	3595                	jal	4f52 <RF_FrequencyHoppingShut>
    50f0:	bfc1                	j	50c0 <rf_hop_heart_beat+0xea>
    50f2:	000ba783          	lw	a5,0(s7)
    50f6:	0127a623          	sw	s2,12(a5)
    50fa:	0000100f          	fence.i
    50fe:	000ba783          	lw	a5,0(s7)
    5102:	6709                	lui	a4,0x2
    5104:	c798                	sw	a4,8(a5)
    5106:	f8000713          	li	a4,-128
    510a:	1fffe697          	auipc	a3,0x1fffe
    510e:	28e68123          	sb	a4,642(a3) # 2000338c <gBleIPPara+0x4>
    5112:	0737a223          	sw	s3,100(a5)
    5116:	0147a623          	sw	s4,12(a5)
    511a:	53f8                	lw	a4,100(a5)
    511c:	ff7d                	bnez	a4,511a <rf_hop_heart_beat+0x144>
    511e:	bf01                	j	502e <rf_hop_heart_beat+0x58>

00005120 <RFFH_ProcessEvent>:
RFFH_ProcessEvent():
    5120:	1141                	addi	sp,sp,-16
    5122:	c422                	sw	s0,8(sp)
    5124:	c606                	sw	ra,12(sp)
    5126:	0015f793          	andi	a5,a1,1
    512a:	842e                	mv	s0,a1
    512c:	c3b9                	beqz	a5,5172 <RFFH_ProcessEvent+0x52>
    512e:	1fffe797          	auipc	a5,0x1fffe
    5132:	2a67c783          	lbu	a5,678(a5) # 200033d4 <rfInfo+0xc>
    5136:	0027f713          	andi	a4,a5,2
    513a:	c715                	beqz	a4,5166 <RFFH_ProcessEvent+0x46>
    513c:	07e2                	slli	a5,a5,0x18
    513e:	87e1                	srai	a5,a5,0x18
    5140:	1fffe517          	auipc	a0,0x1fffe
    5144:	29854503          	lbu	a0,664(a0) # 200033d8 <rfInfo+0x10>
    5148:	05000613          	li	a2,80
    514c:	0007da63          	bgez	a5,5160 <RFFH_ProcessEvent+0x40>
    5150:	1fffe617          	auipc	a2,0x1fffe
    5154:	27164603          	lbu	a2,625(a2) # 200033c1 <rfConfig+0x19>
    5158:	0a000793          	li	a5,160
    515c:	02f60633          	mul	a2,a2,a5
    5160:	4591                	li	a1,4
    5162:	ffffd0ef          	jal	ra,3160 <tmos_start_task>
    5166:	00144513          	xori	a0,s0,1
    516a:	40b2                	lw	ra,12(sp)
    516c:	4422                	lw	s0,8(sp)
    516e:	0141                	addi	sp,sp,16
    5170:	8082                	ret
    5172:	0025f793          	andi	a5,a1,2
    5176:	c3b1                	beqz	a5,51ba <RFFH_ProcessEvent+0x9a>
    5178:	1fffe797          	auipc	a5,0x1fffe
    517c:	25c7c783          	lbu	a5,604(a5) # 200033d4 <rfInfo+0xc>
    5180:	0047f713          	andi	a4,a5,4
    5184:	cb05                	beqz	a4,51b4 <RFFH_ProcessEvent+0x94>
    5186:	07e2                	slli	a5,a5,0x18
    5188:	87e1                	srai	a5,a5,0x18
    518a:	1fffe517          	auipc	a0,0x1fffe
    518e:	24e54503          	lbu	a0,590(a0) # 200033d8 <rfInfo+0x10>
    5192:	0a000613          	li	a2,160
    5196:	0007dc63          	bgez	a5,51ae <RFFH_ProcessEvent+0x8e>
    519a:	1fffe617          	auipc	a2,0x1fffe
    519e:	22764603          	lbu	a2,551(a2) # 200033c1 <rfConfig+0x19>
    51a2:	0a000793          	li	a5,160
    51a6:	02f60633          	mul	a2,a2,a5
    51aa:	02860613          	addi	a2,a2,40
    51ae:	45a1                	li	a1,8
    51b0:	fb1fd0ef          	jal	ra,3160 <tmos_start_task>
    51b4:	00244513          	xori	a0,s0,2
    51b8:	bf4d                	j	516a <RFFH_ProcessEvent+0x4a>
    51ba:	0045f793          	andi	a5,a1,4
    51be:	c789                	beqz	a5,51c8 <RFFH_ProcessEvent+0xa8>
    51c0:	3d19                	jal	4fd6 <rf_hop_heart_beat>
    51c2:	00444513          	xori	a0,s0,4
    51c6:	b755                	j	516a <RFFH_ProcessEvent+0x4a>
    51c8:	0085f793          	andi	a5,a1,8
    51cc:	cb99                	beqz	a5,51e2 <RFFH_ProcessEvent+0xc2>
    51ce:	1fffe797          	auipc	a5,0x1fffe
    51d2:	2067c783          	lbu	a5,518(a5) # 200033d4 <rfInfo+0xc>
    51d6:	8b91                	andi	a5,a5,4
    51d8:	c391                	beqz	a5,51dc <RFFH_ProcessEvent+0xbc>
    51da:	3ba5                	jal	4f52 <RF_FrequencyHoppingShut>
    51dc:	00844513          	xori	a0,s0,8
    51e0:	b769                	j	516a <RFFH_ProcessEvent+0x4a>
    51e2:	0105f793          	andi	a5,a1,16
    51e6:	4501                	li	a0,0
    51e8:	d3c9                	beqz	a5,516a <RFFH_ProcessEvent+0x4a>
    51ea:	bd6fe0ef          	jal	ra,35c0 <TMOS_TempSample>
    51ee:	1fffe717          	auipc	a4,0x1fffe
    51f2:	1a174703          	lbu	a4,417(a4) # 2000338f <gBleIPPara+0x7>
    51f6:	479d                	li	a5,7
    51f8:	00f71b63          	bne	a4,a5,520e <RFFH_ProcessEvent+0xee>
    51fc:	64000613          	li	a2,1600
    5200:	45c1                	li	a1,16
    5202:	1fffe517          	auipc	a0,0x1fffe
    5206:	1d654503          	lbu	a0,470(a0) # 200033d8 <rfInfo+0x10>
    520a:	f57fd0ef          	jal	ra,3160 <tmos_start_task>
    520e:	01044513          	xori	a0,s0,16
    5212:	bfa1                	j	516a <RFFH_ProcessEvent+0x4a>

00005214 <RF_RoleInit>:
RF_RoleInit():
    5214:	1141                	addi	sp,sp,-16
    5216:	c606                	sw	ra,12(sp)
    5218:	c422                	sw	s0,8(sp)
    521a:	d7dfe0ef          	jal	ra,3f96 <BLE_IPCoreInit>
    521e:	4671                	li	a2,28
    5220:	4581                	li	a1,0
    5222:	1fffe517          	auipc	a0,0x1fffe
    5226:	1a650513          	addi	a0,a0,422 # 200033c8 <rfInfo>
    522a:	1fffb097          	auipc	ra,0x1fffb
    522e:	680080e7          	jalr	1664(ra) # 200008aa <tmos_memset>
    5232:	1fffe417          	auipc	s0,0x1fffe
    5236:	19640413          	addi	s0,s0,406 # 200033c8 <rfInfo>
    523a:	57fd                	li	a5,-1
    523c:	00000517          	auipc	a0,0x0
    5240:	ee450513          	addi	a0,a0,-284 # 5120 <RFFH_ProcessEvent>
    5244:	c01c                	sw	a5,0(s0)
    5246:	972fe0ef          	jal	ra,33b8 <TMOS_ProcessEventRegister>
    524a:	00a40823          	sb	a0,16(s0)
    524e:	4595                	li	a1,5
    5250:	fffff517          	auipc	a0,0xfffff
    5254:	6f050513          	addi	a0,a0,1776 # 4940 <rfRxProcess>
    5258:	854fe0ef          	jal	ra,32ac <TMOS_ProcessRegister>
    525c:	40b2                	lw	ra,12(sp)
    525e:	4422                	lw	s0,8(sp)
    5260:	4501                	li	a0,0
    5262:	0141                	addi	sp,sp,16
    5264:	8082                	ret

00005266 <RFEND_Reset>:
RFEND_Reset():
    5266:	1fffe797          	auipc	a5,0x1fffe
    526a:	18278793          	addi	a5,a5,386 # 200033e8 <gptrRFENDReg>
    526e:	4394                	lw	a3,0(a5)
    5270:	6705                	lui	a4,0x1
    5272:	10170713          	addi	a4,a4,257 # 1101 <_einit+0x10fd>
    5276:	c6d8                	sw	a4,12(a3)
    5278:	4751                	li	a4,20
    527a:	0001                	nop
    527c:	177d                	addi	a4,a4,-1
    527e:	ff75                	bnez	a4,527a <RFEND_Reset+0x14>
    5280:	4398                	lw	a4,0(a5)
    5282:	00072623          	sw	zero,12(a4)
    5286:	4751                	li	a4,20
    5288:	0001                	nop
    528a:	177d                	addi	a4,a4,-1
    528c:	ff75                	bnez	a4,5288 <RFEND_Reset+0x22>
    528e:	4398                	lw	a4,0(a5)
    5290:	6785                	lui	a5,0x1
    5292:	10178793          	addi	a5,a5,257 # 1101 <_einit+0x10fd>
    5296:	c75c                	sw	a5,12(a4)
    5298:	8082                	ret

0000529a <RFEND_DevInit>:
RFEND_DevInit():
    529a:	1141                	addi	sp,sp,-16
    529c:	c606                	sw	ra,12(sp)
    529e:	37e1                	jal	5266 <RFEND_Reset>
    52a0:	1fffe797          	auipc	a5,0x1fffe
    52a4:	14878793          	addi	a5,a5,328 # 200033e8 <gptrRFENDReg>
    52a8:	439c                	lw	a5,0(a5)
    52aa:	48000713          	li	a4,1152
    52ae:	90000337          	lui	t1,0x90000
    52b2:	d798                	sw	a4,40(a5)
    52b4:	47b8                	lw	a4,72(a5)
    52b6:	137d                	addi	t1,t1,-1
    52b8:	20000e37          	lui	t3,0x20000
    52bc:	00677733          	and	a4,a4,t1
    52c0:	01c76733          	or	a4,a4,t3
    52c4:	c7b8                	sw	a4,72(a5)
    52c6:	47b8                	lw	a4,72(a5)
    52c8:	f90006b7          	lui	a3,0xf9000
    52cc:	16fd                	addi	a3,a3,-1
    52ce:	8f75                	and	a4,a4,a3
    52d0:	04000637          	lui	a2,0x4000
    52d4:	8f51                	or	a4,a4,a2
    52d6:	c7b8                	sw	a4,72(a5)
    52d8:	47b8                	lw	a4,72(a5)
    52da:	fff90637          	lui	a2,0xfff90
    52de:	167d                	addi	a2,a2,-1
    52e0:	9b41                	andi	a4,a4,-16
    52e2:	00976713          	ori	a4,a4,9
    52e6:	c7b8                	sw	a4,72(a5)
    52e8:	47b8                	lw	a4,72(a5)
    52ea:	800008b7          	lui	a7,0x80000
    52ee:	02000eb7          	lui	t4,0x2000
    52f2:	8f71                	and	a4,a4,a2
    52f4:	c7b8                	sw	a4,72(a5)
    52f6:	47b8                	lw	a4,72(a5)
    52f8:	ff000637          	lui	a2,0xff000
    52fc:	167d                	addi	a2,a2,-1
    52fe:	01176733          	or	a4,a4,a7
    5302:	c7b8                	sw	a4,72(a5)
    5304:	47f8                	lw	a4,76(a5)
    5306:	7545                	lui	a0,0xffff1
    5308:	1e7d                	addi	t3,t3,-1
    530a:	9b61                	andi	a4,a4,-8
    530c:	00376713          	ori	a4,a4,3
    5310:	c7f8                	sw	a4,76(a5)
    5312:	47f8                	lw	a4,76(a5)
    5314:	f8f77713          	andi	a4,a4,-113
    5318:	03076713          	ori	a4,a4,48
    531c:	c7f8                	sw	a4,76(a5)
    531e:	47ec                	lw	a1,76(a5)
    5320:	8ff5f593          	andi	a1,a1,-1793
    5324:	3005e593          	ori	a1,a1,768
    5328:	c7ec                	sw	a1,76(a5)
    532a:	47f8                	lw	a4,76(a5)
    532c:	8f71                	and	a4,a4,a2
    532e:	c7f8                	sw	a4,76(a5)
    5330:	47f8                	lw	a4,76(a5)
    5332:	6611                	lui	a2,0x4
    5334:	01d76733          	or	a4,a4,t4
    5338:	c7f8                	sw	a4,76(a5)
    533a:	0507a803          	lw	a6,80(a5)
    533e:	fff50713          	addi	a4,a0,-1 # ffff0fff <_eusrstack+0xdffe8fff>
    5342:	757d                	lui	a0,0xfffff
    5344:	00e87833          	and	a6,a6,a4
    5348:	00c86833          	or	a6,a6,a2
    534c:	0507a823          	sw	a6,80(a5)
    5350:	0547a803          	lw	a6,84(a5)
    5354:	157d                	addi	a0,a0,-1
    5356:	ff087813          	andi	a6,a6,-16
    535a:	00486813          	ori	a6,a6,4
    535e:	0507aa23          	sw	a6,84(a5)
    5362:	4bf0                	lw	a2,84(a5)
    5364:	08066613          	ori	a2,a2,128
    5368:	cbf0                	sw	a2,84(a5)
    536a:	4bf0                	lw	a2,84(a5)
    536c:	8e69                	and	a2,a2,a0
    536e:	cbf0                	sw	a2,84(a5)
    5370:	5fc8                	lw	a0,60(a5)
    5372:	8d79                	and	a0,a0,a4
    5374:	6721                	lui	a4,0x8
    5376:	8d59                	or	a0,a0,a4
    5378:	dfc8                	sw	a0,60(a5)
    537a:	5fcc                	lw	a1,60(a5)
    537c:	40000737          	lui	a4,0x40000
    5380:	8df5                	and	a1,a1,a3
    5382:	01d5e5b3          	or	a1,a1,t4
    5386:	dfcc                	sw	a1,60(a5)
    5388:	5fd0                	lw	a2,60(a5)
    538a:	007005b7          	lui	a1,0x700
    538e:	01c67633          	and	a2,a2,t3
    5392:	8e59                	or	a2,a2,a4
    5394:	dfd0                	sw	a2,60(a5)
    5396:	57d0                	lw	a2,44(a5)
    5398:	6709                	lui	a4,0x2
    539a:	8e4d                	or	a2,a2,a1
    539c:	d7d0                	sw	a2,44(a5)
    539e:	57d0                	lw	a2,44(a5)
    53a0:	8ef1                	and	a3,a3,a2
    53a2:	d7d4                	sw	a3,44(a5)
    53a4:	57d4                	lw	a3,44(a5)
    53a6:	7675                	lui	a2,0xffffd
    53a8:	167d                	addi	a2,a2,-1
    53aa:	8ef1                	and	a3,a3,a2
    53ac:	8ed9                	or	a3,a3,a4
    53ae:	d7d4                	sw	a3,44(a5)
    53b0:	57d4                	lw	a3,44(a5)
    53b2:	fffd0637          	lui	a2,0xfffd0
    53b6:	167d                	addi	a2,a2,-1
    53b8:	00020737          	lui	a4,0x20
    53bc:	8ef1                	and	a3,a3,a2
    53be:	8ed9                	or	a3,a3,a4
    53c0:	d7d4                	sw	a3,44(a5)
    53c2:	5b94                	lw	a3,48(a5)
    53c4:	9ac1                	andi	a3,a3,-16
    53c6:	db94                	sw	a3,48(a5)
    53c8:	5b94                	lw	a3,48(a5)
    53ca:	f0f6f693          	andi	a3,a3,-241
    53ce:	db94                	sw	a3,48(a5)
    53d0:	5b94                	lw	a3,48(a5)
    53d2:	8ff6f693          	andi	a3,a3,-1793
    53d6:	db94                	sw	a3,48(a5)
    53d8:	5b98                	lw	a4,48(a5)
    53da:	500006b7          	lui	a3,0x50000
    53de:	8f4d                	or	a4,a4,a1
    53e0:	db98                	sw	a4,48(a5)
    53e2:	5b98                	lw	a4,48(a5)
    53e4:	00677733          	and	a4,a4,t1
    53e8:	8f55                	or	a4,a4,a3
    53ea:	db98                	sw	a4,48(a5)
    53ec:	5f98                	lw	a4,56(a5)
    53ee:	ff0806b7          	lui	a3,0xff080
    53f2:	16fd                	addi	a3,a3,-1
    53f4:	8f75                	and	a4,a4,a3
    53f6:	008806b7          	lui	a3,0x880
    53fa:	8f55                	or	a4,a4,a3
    53fc:	df98                	sw	a4,56(a5)
    53fe:	5f98                	lw	a4,56(a5)
    5400:	011768b3          	or	a7,a4,a7
    5404:	0317ac23          	sw	a7,56(a5)
    5408:	40b2                	lw	ra,12(sp)
    540a:	0141                	addi	sp,sp,16
    540c:	8082                	ret

0000540e <RFEND_RXFilter>:
RFEND_RXFilter():
    540e:	1fffe717          	auipc	a4,0x1fffe
    5412:	fda70713          	addi	a4,a4,-38 # 200033e8 <gptrRFENDReg>
    5416:	431c                	lw	a5,0(a4)
    5418:	7641                	lui	a2,0xffff0
    541a:	167d                	addi	a2,a2,-1
    541c:	4bb4                	lw	a3,80(a5)
    541e:	8ef1                	and	a3,a3,a2
    5420:	cbb4                	sw	a3,80(a5)
    5422:	4794                	lw	a3,8(a5)
    5424:	00200637          	lui	a2,0x200
    5428:	8ed1                	or	a3,a3,a2
    542a:	c794                	sw	a3,8(a5)
    542c:	47d4                	lw	a3,12(a5)
    542e:	0106e693          	ori	a3,a3,16
    5432:	c7d4                	sw	a3,12(a5)
    5434:	47d4                	lw	a3,12(a5)
    5436:	9abd                	andi	a3,a3,-17
    5438:	c7d4                	sw	a3,12(a5)
    543a:	0001                	nop
    543c:	0001                	nop
    543e:	0001                	nop
    5440:	0001                	nop
    5442:	4314                	lw	a3,0(a4)
    5444:	6605                	lui	a2,0x1
    5446:	46dc                	lw	a5,12(a3)
    5448:	0107e793          	ori	a5,a5,16
    544c:	c6dc                	sw	a5,12(a3)
    544e:	42dc                	lw	a5,4(a3)
    5450:	8fd1                	or	a5,a5,a2
    5452:	c2dc                	sw	a5,4(a3)
    5454:	09c6a783          	lw	a5,156(a3) # 88009c <_data_lma+0x879a24>
    5458:	83a1                	srli	a5,a5,0x8
    545a:	8b85                	andi	a5,a5,1
    545c:	dfe5                	beqz	a5,5454 <RFEND_RXFilter+0x46>
    545e:	0001                	nop
    5460:	0001                	nop
    5462:	0001                	nop
    5464:	0001                	nop
    5466:	431c                	lw	a5,0(a4)
    5468:	6641                	lui	a2,0x10
    546a:	09c7a703          	lw	a4,156(a5)
    546e:	4bb4                	lw	a3,80(a5)
    5470:	8ed1                	or	a3,a3,a2
    5472:	cbb4                	sw	a3,80(a5)
    5474:	01f77693          	andi	a3,a4,31
    5478:	4bb8                	lw	a4,80(a5)
    547a:	9b01                	andi	a4,a4,-32
    547c:	8f55                	or	a4,a4,a3
    547e:	cbb8                	sw	a4,80(a5)
    5480:	4798                	lw	a4,8(a5)
    5482:	ffe006b7          	lui	a3,0xffe00
    5486:	16fd                	addi	a3,a3,-1
    5488:	8f75                	and	a4,a4,a3
    548a:	c798                	sw	a4,8(a5)
    548c:	8082                	ret

0000548e <RFEND_RXAdc>:
RFEND_RXAdc():
    548e:	1fffe797          	auipc	a5,0x1fffe
    5492:	f5a78793          	addi	a5,a5,-166 # 200033e8 <gptrRFENDReg>
    5496:	439c                	lw	a5,0(a5)
    5498:	7741                	lui	a4,0xffff0
    549a:	177d                	addi	a4,a4,-1
    549c:	4fb4                	lw	a3,88(a5)
    549e:	6641                	lui	a2,0x10
    54a0:	8ef9                	and	a3,a3,a4
    54a2:	cfb4                	sw	a3,88(a5)
    54a4:	4794                	lw	a3,8(a5)
    54a6:	8ed1                	or	a3,a3,a2
    54a8:	c794                	sw	a3,8(a5)
    54aa:	47d4                	lw	a3,12(a5)
    54ac:	eff6f693          	andi	a3,a3,-257
    54b0:	c7d4                	sw	a3,12(a5)
    54b2:	43d4                	lw	a3,4(a5)
    54b4:	8f75                	and	a4,a4,a3
    54b6:	c3d8                	sw	a4,4(a5)
    54b8:	47d4                	lw	a3,12(a5)
    54ba:	1006e693          	ori	a3,a3,256
    54be:	c7d4                	sw	a3,12(a5)
    54c0:	43d8                	lw	a4,4(a5)
    54c2:	8f51                	or	a4,a4,a2
    54c4:	c3d8                	sw	a4,4(a5)
    54c6:	8082                	ret

000054c8 <RFEND_TXCtune>:
RFEND_TXCtune():
    54c8:	7139                	addi	sp,sp,-64
    54ca:	dc22                	sw	s0,56(sp)
    54cc:	1fffe417          	auipc	s0,0x1fffe
    54d0:	f1c40413          	addi	s0,s0,-228 # 200033e8 <gptrRFENDReg>
    54d4:	401c                	lw	a5,0(s0)
    54d6:	de06                	sw	ra,60(sp)
    54d8:	da26                	sw	s1,52(sp)
    54da:	d84a                	sw	s2,48(sp)
    54dc:	d64e                	sw	s3,44(sp)
    54de:	d452                	sw	s4,40(sp)
    54e0:	d256                	sw	s5,36(sp)
    54e2:	d05a                	sw	s6,32(sp)
    54e4:	ce5e                	sw	s7,28(sp)
    54e6:	cc62                	sw	s8,24(sp)
    54e8:	ca66                	sw	s9,20(sp)
    54ea:	c86a                	sw	s10,16(sp)
    54ec:	c66e                	sw	s11,12(sp)
    54ee:	43d8                	lw	a4,4(a5)
    54f0:	76fd                	lui	a3,0xfffff
    54f2:	16fd                	addi	a3,a3,-1
    54f4:	eff77713          	andi	a4,a4,-257
    54f8:	c3d8                	sw	a4,4(a5)
    54fa:	5798                	lw	a4,40(a5)
    54fc:	8f75                	and	a4,a4,a3
    54fe:	d798                	sw	a4,40(a5)
    5500:	57d8                	lw	a4,44(a5)
    5502:	000206b7          	lui	a3,0x20
    5506:	9b3d                	andi	a4,a4,-17
    5508:	d7d8                	sw	a4,44(a5)
    550a:	4798                	lw	a4,8(a5)
    550c:	8f55                	or	a4,a4,a3
    550e:	c798                	sw	a4,8(a5)
    5510:	43d8                	lw	a4,4(a5)
    5512:	01076713          	ori	a4,a4,16
    5516:	c3d8                	sw	a4,4(a5)
    5518:	8131c703          	lbu	a4,-2029(gp) # 2000182b <nCO2401>
    551c:	8141c683          	lbu	a3,-2028(gp) # 2000182c <nGA2401>
    5520:	8f55                	or	a4,a4,a3
    5522:	ef61                	bnez	a4,55fa <RFEND_TXCtune+0x132>
    5524:	43d8                	lw	a4,4(a5)
    5526:	7481                	lui	s1,0xfffe0
    5528:	0ff48493          	addi	s1,s1,255 # fffe00ff <_eusrstack+0xdffd80ff>
    552c:	9b79                	andi	a4,a4,-2
    552e:	c3d8                	sw	a4,4(a5)
    5530:	5f98                	lw	a4,56(a5)
    5532:	66b1                	lui	a3,0xc
    5534:	f0068693          	addi	a3,a3,-256 # bf00 <_data_lma+0x5888>
    5538:	8f65                	and	a4,a4,s1
    553a:	8f55                	or	a4,a4,a3
    553c:	df98                	sw	a4,56(a5)
    553e:	43d8                	lw	a4,4(a5)
    5540:	00176713          	ori	a4,a4,1
    5544:	c3d8                	sw	a4,4(a5)
    5546:	1fffc097          	auipc	ra,0x1fffc
    554a:	0e2080e7          	jalr	226(ra) # 20001628 <RFEND_WaitTune>
    554e:	401c                	lw	a5,0(s0)
    5550:	0907a703          	lw	a4,144(a5)
    5554:	03f77713          	andi	a4,a4,63
    5558:	80e189a3          	sb	a4,-2029(gp) # 2000182b <nCO2401>
    555c:	0947a703          	lw	a4,148(a5)
    5560:	8329                	srli	a4,a4,0xa
    5562:	07f77713          	andi	a4,a4,127
    5566:	80e18a23          	sb	a4,-2028(gp) # 2000182c <nGA2401>
    556a:	43d8                	lw	a4,4(a5)
    556c:	66b9                	lui	a3,0xe
    556e:	70068693          	addi	a3,a3,1792 # e700 <_data_lma+0x8088>
    5572:	9b79                	andi	a4,a4,-2
    5574:	c3d8                	sw	a4,4(a5)
    5576:	5f98                	lw	a4,56(a5)
    5578:	8f65                	and	a4,a4,s1
    557a:	8f55                	or	a4,a4,a3
    557c:	df98                	sw	a4,56(a5)
    557e:	43d8                	lw	a4,4(a5)
    5580:	00176713          	ori	a4,a4,1
    5584:	c3d8                	sw	a4,4(a5)
    5586:	1fffc097          	auipc	ra,0x1fffc
    558a:	0a2080e7          	jalr	162(ra) # 20001628 <RFEND_WaitTune>
    558e:	401c                	lw	a5,0(s0)
    5590:	0907a703          	lw	a4,144(a5)
    5594:	03f77713          	andi	a4,a4,63
    5598:	1fffe697          	auipc	a3,0x1fffe
    559c:	e4e68aa3          	sb	a4,-427(a3) # 200033ed <nCO2480>
    55a0:	0947a703          	lw	a4,148(a5)
    55a4:	8329                	srli	a4,a4,0xa
    55a6:	07f77713          	andi	a4,a4,127
    55aa:	1fffe697          	auipc	a3,0x1fffe
    55ae:	e2e68da3          	sb	a4,-453(a3) # 200033e5 <nGA2480>
    55b2:	43d8                	lw	a4,4(a5)
    55b4:	66b5                	lui	a3,0xd
    55b6:	30068693          	addi	a3,a3,768 # d300 <_data_lma+0x6c88>
    55ba:	9b79                	andi	a4,a4,-2
    55bc:	c3d8                	sw	a4,4(a5)
    55be:	5f98                	lw	a4,56(a5)
    55c0:	8f65                	and	a4,a4,s1
    55c2:	8f55                	or	a4,a4,a3
    55c4:	df98                	sw	a4,56(a5)
    55c6:	43d8                	lw	a4,4(a5)
    55c8:	00176713          	ori	a4,a4,1
    55cc:	c3d8                	sw	a4,4(a5)
    55ce:	1fffc097          	auipc	ra,0x1fffc
    55d2:	05a080e7          	jalr	90(ra) # 20001628 <RFEND_WaitTune>
    55d6:	4018                	lw	a4,0(s0)
    55d8:	09072783          	lw	a5,144(a4) # ffff0090 <_eusrstack+0xdffe8090>
    55dc:	03f7f793          	andi	a5,a5,63
    55e0:	1fffe697          	auipc	a3,0x1fffe
    55e4:	e0f68623          	sb	a5,-500(a3) # 200033ec <nCO2440>
    55e8:	09472783          	lw	a5,148(a4)
    55ec:	83a9                	srli	a5,a5,0xa
    55ee:	07f7f793          	andi	a5,a5,127
    55f2:	1fffe717          	auipc	a4,0x1fffe
    55f6:	def70923          	sb	a5,-526(a4) # 200033e4 <nGA2440>
    55fa:	401c                	lw	a5,0(s0)
    55fc:	1fffec17          	auipc	s8,0x1fffe
    5600:	df0c4c03          	lbu	s8,-528(s8) # 200033ec <nCO2440>
    5604:	8131c683          	lbu	a3,-2029(gp) # 2000182b <nCO2401>
    5608:	0a07a703          	lw	a4,160(a5)
    560c:	418686b3          	sub	a3,a3,s8
    5610:	00f6f613          	andi	a2,a3,15
    5614:	9b41                	andi	a4,a4,-16
    5616:	8f51                	or	a4,a4,a2
    5618:	0ae7a023          	sw	a4,160(a5)
    561c:	02600713          	li	a4,38
    5620:	02e68733          	mul	a4,a3,a4
    5624:	02700613          	li	a2,39
    5628:	0a07a583          	lw	a1,160(a5)
    562c:	7e7d                	lui	t3,0xfffff
    562e:	0ffe0e13          	addi	t3,t3,255 # fffff0ff <_eusrstack+0xdfff70ff>
    5632:	f0f5f593          	andi	a1,a1,-241
    5636:	02400513          	li	a0,36
    563a:	7345                	lui	t1,0xffff1
    563c:	137d                	addi	t1,t1,-1
    563e:	02300413          	li	s0,35
    5642:	02c74733          	div	a4,a4,a2
    5646:	fff108b7          	lui	a7,0xfff10
    564a:	18fd                	addi	a7,a7,-1
    564c:	02200813          	li	a6,34
    5650:	02100e93          	li	t4,33
    5654:	4f7d                	li	t5,31
    5656:	4ff9                	li	t6,30
    5658:	42f5                	li	t0,29
    565a:	43f1                	li	t2,28
    565c:	4d6d                	li	s10,27
    565e:	4bd1                	li	s7,20
    5660:	4b45                	li	s6,17
    5662:	44bd                	li	s1,15
    5664:	4939                	li	s2,14
    5666:	4a31                	li	s4,12
    5668:	4aad                	li	s5,11
    566a:	49b5                	li	s3,13
    566c:	8b3d                	andi	a4,a4,15
    566e:	0712                	slli	a4,a4,0x4
    5670:	8f4d                	or	a4,a4,a1
    5672:	02500593          	li	a1,37
    5676:	0ae7a023          	sw	a4,160(a5)
    567a:	02b68733          	mul	a4,a3,a1
    567e:	0a07a583          	lw	a1,160(a5)
    5682:	01c5f5b3          	and	a1,a1,t3
    5686:	02c74733          	div	a4,a4,a2
    568a:	8b3d                	andi	a4,a4,15
    568c:	0722                	slli	a4,a4,0x8
    568e:	8f4d                	or	a4,a4,a1
    5690:	0ae7a023          	sw	a4,160(a5)
    5694:	02a68733          	mul	a4,a3,a0
    5698:	0a07a583          	lw	a1,160(a5)
    569c:	f1000537          	lui	a0,0xf1000
    56a0:	157d                	addi	a0,a0,-1
    56a2:	0065f5b3          	and	a1,a1,t1
    56a6:	02c74733          	div	a4,a4,a2
    56aa:	8b3d                	andi	a4,a4,15
    56ac:	0732                	slli	a4,a4,0xc
    56ae:	8f4d                	or	a4,a4,a1
    56b0:	0ae7a023          	sw	a4,160(a5)
    56b4:	02868733          	mul	a4,a3,s0
    56b8:	0a07a583          	lw	a1,160(a5)
    56bc:	4461                	li	s0,24
    56be:	0115f5b3          	and	a1,a1,a7
    56c2:	02c74733          	div	a4,a4,a2
    56c6:	8b3d                	andi	a4,a4,15
    56c8:	0742                	slli	a4,a4,0x10
    56ca:	8f4d                	or	a4,a4,a1
    56cc:	0ae7a023          	sw	a4,160(a5)
    56d0:	03068733          	mul	a4,a3,a6
    56d4:	0a07a583          	lw	a1,160(a5)
    56d8:	ff100837          	lui	a6,0xff100
    56dc:	187d                	addi	a6,a6,-1
    56de:	0105f5b3          	and	a1,a1,a6
    56e2:	02c74733          	div	a4,a4,a2
    56e6:	8b3d                	andi	a4,a4,15
    56e8:	0752                	slli	a4,a4,0x14
    56ea:	8f4d                	or	a4,a4,a1
    56ec:	0ae7a023          	sw	a4,160(a5)
    56f0:	03d68733          	mul	a4,a3,t4
    56f4:	0a07a583          	lw	a1,160(a5)
    56f8:	10000eb7          	lui	t4,0x10000
    56fc:	1efd                	addi	t4,t4,-1
    56fe:	8de9                	and	a1,a1,a0
    5700:	02c74733          	div	a4,a4,a2
    5704:	8b3d                	andi	a4,a4,15
    5706:	0762                	slli	a4,a4,0x18
    5708:	8f4d                	or	a4,a4,a1
    570a:	0ae7a023          	sw	a4,160(a5)
    570e:	00569713          	slli	a4,a3,0x5
    5712:	02c74733          	div	a4,a4,a2
    5716:	01c71593          	slli	a1,a4,0x1c
    571a:	0a07a703          	lw	a4,160(a5)
    571e:	01d77733          	and	a4,a4,t4
    5722:	8f4d                	or	a4,a4,a1
    5724:	0ae7a023          	sw	a4,160(a5)
    5728:	03e68733          	mul	a4,a3,t5
    572c:	4f5d                	li	t5,23
    572e:	02c74733          	div	a4,a4,a2
    5732:	00f77593          	andi	a1,a4,15
    5736:	0a47a703          	lw	a4,164(a5)
    573a:	9b41                	andi	a4,a4,-16
    573c:	8f4d                	or	a4,a4,a1
    573e:	0ae7a223          	sw	a4,164(a5)
    5742:	03f68733          	mul	a4,a3,t6
    5746:	0a47a583          	lw	a1,164(a5)
    574a:	4fd9                	li	t6,22
    574c:	f0f5f593          	andi	a1,a1,-241
    5750:	02c74733          	div	a4,a4,a2
    5754:	8b3d                	andi	a4,a4,15
    5756:	0712                	slli	a4,a4,0x4
    5758:	8f4d                	or	a4,a4,a1
    575a:	0ae7a223          	sw	a4,164(a5)
    575e:	02568733          	mul	a4,a3,t0
    5762:	0a47a583          	lw	a1,164(a5)
    5766:	42d5                	li	t0,21
    5768:	01c5f5b3          	and	a1,a1,t3
    576c:	02c74733          	div	a4,a4,a2
    5770:	8b3d                	andi	a4,a4,15
    5772:	0722                	slli	a4,a4,0x8
    5774:	8f4d                	or	a4,a4,a1
    5776:	0ae7a223          	sw	a4,164(a5)
    577a:	02768733          	mul	a4,a3,t2
    577e:	0a47a583          	lw	a1,164(a5)
    5782:	43cd                	li	t2,19
    5784:	0065f5b3          	and	a1,a1,t1
    5788:	02c74733          	div	a4,a4,a2
    578c:	8b3d                	andi	a4,a4,15
    578e:	0732                	slli	a4,a4,0xc
    5790:	8f4d                	or	a4,a4,a1
    5792:	0ae7a223          	sw	a4,164(a5)
    5796:	03a68733          	mul	a4,a3,s10
    579a:	0a47a583          	lw	a1,164(a5)
    579e:	4d49                	li	s10,18
    57a0:	0115f5b3          	and	a1,a1,a7
    57a4:	02c74733          	div	a4,a4,a2
    57a8:	8b3d                	andi	a4,a4,15
    57aa:	0742                	slli	a4,a4,0x10
    57ac:	8f4d                	or	a4,a4,a1
    57ae:	0ae7a223          	sw	a4,164(a5)
    57b2:	4769                	li	a4,26
    57b4:	02e68733          	mul	a4,a3,a4
    57b8:	0a47a583          	lw	a1,164(a5)
    57bc:	0105f5b3          	and	a1,a1,a6
    57c0:	02c74733          	div	a4,a4,a2
    57c4:	8b3d                	andi	a4,a4,15
    57c6:	0752                	slli	a4,a4,0x14
    57c8:	8f4d                	or	a4,a4,a1
    57ca:	45e5                	li	a1,25
    57cc:	0ae7a223          	sw	a4,164(a5)
    57d0:	02b68733          	mul	a4,a3,a1
    57d4:	0a47a583          	lw	a1,164(a5)
    57d8:	8de9                	and	a1,a1,a0
    57da:	02c74733          	div	a4,a4,a2
    57de:	8b3d                	andi	a4,a4,15
    57e0:	0762                	slli	a4,a4,0x18
    57e2:	8f4d                	or	a4,a4,a1
    57e4:	0ae7a223          	sw	a4,164(a5)
    57e8:	02868733          	mul	a4,a3,s0
    57ec:	440d                	li	s0,3
    57ee:	02c74733          	div	a4,a4,a2
    57f2:	01c71593          	slli	a1,a4,0x1c
    57f6:	0a47a703          	lw	a4,164(a5)
    57fa:	01d77733          	and	a4,a4,t4
    57fe:	8f4d                	or	a4,a4,a1
    5800:	0ae7a223          	sw	a4,164(a5)
    5804:	03e68733          	mul	a4,a3,t5
    5808:	4f25                	li	t5,9
    580a:	02c74733          	div	a4,a4,a2
    580e:	00f77593          	andi	a1,a4,15
    5812:	0a87a703          	lw	a4,168(a5)
    5816:	9b41                	andi	a4,a4,-16
    5818:	8f4d                	or	a4,a4,a1
    581a:	0ae7a423          	sw	a4,168(a5)
    581e:	03f68733          	mul	a4,a3,t6
    5822:	0a87a583          	lw	a1,168(a5)
    5826:	4f9d                	li	t6,7
    5828:	f0f5f593          	andi	a1,a1,-241
    582c:	02c74733          	div	a4,a4,a2
    5830:	8b3d                	andi	a4,a4,15
    5832:	0712                	slli	a4,a4,0x4
    5834:	8f4d                	or	a4,a4,a1
    5836:	0ae7a423          	sw	a4,168(a5)
    583a:	02568733          	mul	a4,a3,t0
    583e:	0a87a583          	lw	a1,168(a5)
    5842:	4299                	li	t0,6
    5844:	01c5f5b3          	and	a1,a1,t3
    5848:	02c74733          	div	a4,a4,a2
    584c:	8b3d                	andi	a4,a4,15
    584e:	0722                	slli	a4,a4,0x8
    5850:	8f4d                	or	a4,a4,a1
    5852:	0ae7a423          	sw	a4,168(a5)
    5856:	03768733          	mul	a4,a3,s7
    585a:	0a87a583          	lw	a1,168(a5)
    585e:	0065f5b3          	and	a1,a1,t1
    5862:	02c74733          	div	a4,a4,a2
    5866:	8b3d                	andi	a4,a4,15
    5868:	0732                	slli	a4,a4,0xc
    586a:	8f4d                	or	a4,a4,a1
    586c:	0ae7a423          	sw	a4,168(a5)
    5870:	02768733          	mul	a4,a3,t2
    5874:	0a87a583          	lw	a1,168(a5)
    5878:	4395                	li	t2,5
    587a:	0115f5b3          	and	a1,a1,a7
    587e:	02c74733          	div	a4,a4,a2
    5882:	8b3d                	andi	a4,a4,15
    5884:	0742                	slli	a4,a4,0x10
    5886:	8f4d                	or	a4,a4,a1
    5888:	0ae7a423          	sw	a4,168(a5)
    588c:	03a68733          	mul	a4,a3,s10
    5890:	0a87a583          	lw	a1,168(a5)
    5894:	4d29                	li	s10,10
    5896:	0105f5b3          	and	a1,a1,a6
    589a:	02c74733          	div	a4,a4,a2
    589e:	8b3d                	andi	a4,a4,15
    58a0:	0752                	slli	a4,a4,0x14
    58a2:	8f4d                	or	a4,a4,a1
    58a4:	0ae7a423          	sw	a4,168(a5)
    58a8:	03668733          	mul	a4,a3,s6
    58ac:	0a87a583          	lw	a1,168(a5)
    58b0:	8de9                	and	a1,a1,a0
    58b2:	02c74733          	div	a4,a4,a2
    58b6:	8b3d                	andi	a4,a4,15
    58b8:	0762                	slli	a4,a4,0x18
    58ba:	8f4d                	or	a4,a4,a1
    58bc:	00469593          	slli	a1,a3,0x4
    58c0:	02c5c5b3          	div	a1,a1,a2
    58c4:	0ae7a423          	sw	a4,168(a5)
    58c8:	0a87a703          	lw	a4,168(a5)
    58cc:	01d77733          	and	a4,a4,t4
    58d0:	05f2                	slli	a1,a1,0x1c
    58d2:	8f4d                	or	a4,a4,a1
    58d4:	029685b3          	mul	a1,a3,s1
    58d8:	0ae7a423          	sw	a4,168(a5)
    58dc:	0ac7a703          	lw	a4,172(a5)
    58e0:	9b41                	andi	a4,a4,-16
    58e2:	02c5c5b3          	div	a1,a1,a2
    58e6:	89bd                	andi	a1,a1,15
    58e8:	8f4d                	or	a4,a4,a1
    58ea:	0ae7a623          	sw	a4,172(a5)
    58ee:	03268733          	mul	a4,a3,s2
    58f2:	0ac7a583          	lw	a1,172(a5)
    58f6:	f0f5f593          	andi	a1,a1,-241
    58fa:	02c74733          	div	a4,a4,a2
    58fe:	8b3d                	andi	a4,a4,15
    5900:	0712                	slli	a4,a4,0x4
    5902:	8f4d                	or	a4,a4,a1
    5904:	0286c5b3          	div	a1,a3,s0
    5908:	0ae7a623          	sw	a4,172(a5)
    590c:	0ac7a703          	lw	a4,172(a5)
    5910:	01c77733          	and	a4,a4,t3
    5914:	89bd                	andi	a1,a1,15
    5916:	05a2                	slli	a1,a1,0x8
    5918:	8f4d                	or	a4,a4,a1
    591a:	0ae7a623          	sw	a4,172(a5)
    591e:	03468733          	mul	a4,a3,s4
    5922:	0ac7a583          	lw	a1,172(a5)
    5926:	0065f5b3          	and	a1,a1,t1
    592a:	02c74733          	div	a4,a4,a2
    592e:	8b3d                	andi	a4,a4,15
    5930:	0732                	slli	a4,a4,0xc
    5932:	8f4d                	or	a4,a4,a1
    5934:	0ae7a623          	sw	a4,172(a5)
    5938:	03568733          	mul	a4,a3,s5
    593c:	0ac7a583          	lw	a1,172(a5)
    5940:	0115f5b3          	and	a1,a1,a7
    5944:	02c74733          	div	a4,a4,a2
    5948:	8b3d                	andi	a4,a4,15
    594a:	0742                	slli	a4,a4,0x10
    594c:	8f4d                	or	a4,a4,a1
    594e:	0ae7a623          	sw	a4,172(a5)
    5952:	03a68733          	mul	a4,a3,s10
    5956:	0ac7a583          	lw	a1,172(a5)
    595a:	0105f5b3          	and	a1,a1,a6
    595e:	02c74733          	div	a4,a4,a2
    5962:	8b3d                	andi	a4,a4,15
    5964:	0752                	slli	a4,a4,0x14
    5966:	8f4d                	or	a4,a4,a1
    5968:	0ae7a623          	sw	a4,172(a5)
    596c:	03e68733          	mul	a4,a3,t5
    5970:	0ac7a583          	lw	a1,172(a5)
    5974:	8de9                	and	a1,a1,a0
    5976:	02c74733          	div	a4,a4,a2
    597a:	8b3d                	andi	a4,a4,15
    597c:	0762                	slli	a4,a4,0x18
    597e:	8f4d                	or	a4,a4,a1
    5980:	00369593          	slli	a1,a3,0x3
    5984:	02c5c5b3          	div	a1,a1,a2
    5988:	0ae7a623          	sw	a4,172(a5)
    598c:	0ac7a703          	lw	a4,172(a5)
    5990:	01d77733          	and	a4,a4,t4
    5994:	05f2                	slli	a1,a1,0x1c
    5996:	8f4d                	or	a4,a4,a1
    5998:	03f685b3          	mul	a1,a3,t6
    599c:	0ae7a623          	sw	a4,172(a5)
    59a0:	0b07a703          	lw	a4,176(a5)
    59a4:	9b41                	andi	a4,a4,-16
    59a6:	02c5c5b3          	div	a1,a1,a2
    59aa:	89bd                	andi	a1,a1,15
    59ac:	8f4d                	or	a4,a4,a1
    59ae:	0ae7a823          	sw	a4,176(a5)
    59b2:	02568733          	mul	a4,a3,t0
    59b6:	0b07a583          	lw	a1,176(a5)
    59ba:	f0f5f593          	andi	a1,a1,-241
    59be:	02c74733          	div	a4,a4,a2
    59c2:	8b3d                	andi	a4,a4,15
    59c4:	0712                	slli	a4,a4,0x4
    59c6:	8f4d                	or	a4,a4,a1
    59c8:	0ae7a823          	sw	a4,176(a5)
    59cc:	02768733          	mul	a4,a3,t2
    59d0:	0b07a583          	lw	a1,176(a5)
    59d4:	01c5f5b3          	and	a1,a1,t3
    59d8:	02c74733          	div	a4,a4,a2
    59dc:	8b3d                	andi	a4,a4,15
    59de:	0722                	slli	a4,a4,0x8
    59e0:	8f4d                	or	a4,a4,a1
    59e2:	0ae7a823          	sw	a4,176(a5)
    59e6:	00269713          	slli	a4,a3,0x2
    59ea:	02c74733          	div	a4,a4,a2
    59ee:	0b07a583          	lw	a1,176(a5)
    59f2:	0065f5b3          	and	a1,a1,t1
    59f6:	8b3d                	andi	a4,a4,15
    59f8:	0732                	slli	a4,a4,0xc
    59fa:	8f4d                	or	a4,a4,a1
    59fc:	0336c5b3          	div	a1,a3,s3
    5a00:	0ae7a823          	sw	a4,176(a5)
    5a04:	0b07a703          	lw	a4,176(a5)
    5a08:	01177733          	and	a4,a4,a7
    5a0c:	89bd                	andi	a1,a1,15
    5a0e:	05c2                	slli	a1,a1,0x10
    5a10:	8f4d                	or	a4,a4,a1
    5a12:	0ae7a823          	sw	a4,176(a5)
    5a16:	00169713          	slli	a4,a3,0x1
    5a1a:	02c74733          	div	a4,a4,a2
    5a1e:	0b07a583          	lw	a1,176(a5)
    5a22:	0105f5b3          	and	a1,a1,a6
    5a26:	8b3d                	andi	a4,a4,15
    5a28:	0752                	slli	a4,a4,0x14
    5a2a:	8f4d                	or	a4,a4,a1
    5a2c:	02c6c5b3          	div	a1,a3,a2
    5a30:	0ae7a823          	sw	a4,176(a5)
    5a34:	0b07a703          	lw	a4,176(a5)
    5a38:	8f69                	and	a4,a4,a0
    5a3a:	89bd                	andi	a1,a1,15
    5a3c:	05e2                	slli	a1,a1,0x18
    5a3e:	8f4d                	or	a4,a4,a1
    5a40:	0ae7a823          	sw	a4,176(a5)
    5a44:	0b07a703          	lw	a4,176(a5)
    5a48:	02800593          	li	a1,40
    5a4c:	01d77733          	and	a4,a4,t4
    5a50:	0ae7a823          	sw	a4,176(a5)
    5a54:	1fffe717          	auipc	a4,0x1fffe
    5a58:	99974703          	lbu	a4,-1639(a4) # 200033ed <nCO2480>
    5a5c:	40ec0733          	sub	a4,s8,a4
    5a60:	02b74db3          	div	s11,a4,a1
    5a64:	0b47ac83          	lw	s9,180(a5)
    5a68:	ff0cfc93          	andi	s9,s9,-16
    5a6c:	03774bb3          	div	s7,a4,s7
    5a70:	00fdfd93          	andi	s11,s11,15
    5a74:	01bcecb3          	or	s9,s9,s11
    5a78:	0b97aa23          	sw	s9,180(a5)
    5a7c:	0b47ac83          	lw	s9,180(a5)
    5a80:	4dcd                	li	s11,19
    5a82:	f0fcfc93          	andi	s9,s9,-241
    5a86:	00fbfb93          	andi	s7,s7,15
    5a8a:	0b92                	slli	s7,s7,0x4
    5a8c:	017cebb3          	or	s7,s9,s7
    5a90:	0b77aa23          	sw	s7,180(a5)
    5a94:	02870bb3          	mul	s7,a4,s0
    5a98:	0b47ac83          	lw	s9,180(a5)
    5a9c:	01ccfcb3          	and	s9,s9,t3
    5aa0:	02bbcbb3          	div	s7,s7,a1
    5aa4:	00fbfb93          	andi	s7,s7,15
    5aa8:	0ba2                	slli	s7,s7,0x8
    5aaa:	017cebb3          	or	s7,s9,s7
    5aae:	03a74cb3          	div	s9,a4,s10
    5ab2:	0b77aa23          	sw	s7,180(a5)
    5ab6:	0b47ab83          	lw	s7,180(a5)
    5aba:	006bfbb3          	and	s7,s7,t1
    5abe:	00fcfc93          	andi	s9,s9,15
    5ac2:	0cb2                	slli	s9,s9,0xc
    5ac4:	019bebb3          	or	s7,s7,s9
    5ac8:	0b77aa23          	sw	s7,180(a5)
    5acc:	4ba1                	li	s7,8
    5ace:	03774bb3          	div	s7,a4,s7
    5ad2:	0b47ac83          	lw	s9,180(a5)
    5ad6:	011cfcb3          	and	s9,s9,a7
    5ada:	00fbfb93          	andi	s7,s7,15
    5ade:	0bc2                	slli	s7,s7,0x10
    5ae0:	017cebb3          	or	s7,s9,s7
    5ae4:	0b77aa23          	sw	s7,180(a5)
    5ae8:	02570bb3          	mul	s7,a4,t0
    5aec:	0b47ac83          	lw	s9,180(a5)
    5af0:	010cfcb3          	and	s9,s9,a6
    5af4:	02bbcbb3          	div	s7,s7,a1
    5af8:	00fbfb93          	andi	s7,s7,15
    5afc:	0bd2                	slli	s7,s7,0x14
    5afe:	017cebb3          	or	s7,s9,s7
    5b02:	0b77aa23          	sw	s7,180(a5)
    5b06:	03f70bb3          	mul	s7,a4,t6
    5b0a:	0b47ac83          	lw	s9,180(a5)
    5b0e:	00acfcb3          	and	s9,s9,a0
    5b12:	02bbcbb3          	div	s7,s7,a1
    5b16:	00fbfb93          	andi	s7,s7,15
    5b1a:	0be2                	slli	s7,s7,0x18
    5b1c:	017cebb3          	or	s7,s9,s7
    5b20:	02774cb3          	div	s9,a4,t2
    5b24:	0b77aa23          	sw	s7,180(a5)
    5b28:	0b47ab83          	lw	s7,180(a5)
    5b2c:	01dbfbb3          	and	s7,s7,t4
    5b30:	0cf2                	slli	s9,s9,0x1c
    5b32:	019bebb3          	or	s7,s7,s9
    5b36:	03e70cb3          	mul	s9,a4,t5
    5b3a:	0b77aa23          	sw	s7,180(a5)
    5b3e:	0b87ab83          	lw	s7,184(a5)
    5b42:	ff0bfb93          	andi	s7,s7,-16
    5b46:	02bcccb3          	div	s9,s9,a1
    5b4a:	03570ab3          	mul	s5,a4,s5
    5b4e:	00fcfc93          	andi	s9,s9,15
    5b52:	019bebb3          	or	s7,s7,s9
    5b56:	0b77ac23          	sw	s7,184(a5)
    5b5a:	4b91                	li	s7,4
    5b5c:	0b87ac83          	lw	s9,184(a5)
    5b60:	f0fcfc93          	andi	s9,s9,-241
    5b64:	03774bb3          	div	s7,a4,s7
    5b68:	03470a33          	mul	s4,a4,s4
    5b6c:	00fbfb93          	andi	s7,s7,15
    5b70:	0b92                	slli	s7,s7,0x4
    5b72:	017cebb3          	or	s7,s9,s7
    5b76:	0b77ac23          	sw	s7,184(a5)
    5b7a:	0b87ab83          	lw	s7,184(a5)
    5b7e:	4cd5                	li	s9,21
    5b80:	01cbfbb3          	and	s7,s7,t3
    5b84:	02bacab3          	div	s5,s5,a1
    5b88:	033709b3          	mul	s3,a4,s3
    5b8c:	00fafa93          	andi	s5,s5,15
    5b90:	0aa2                	slli	s5,s5,0x8
    5b92:	015beab3          	or	s5,s7,s5
    5b96:	0b57ac23          	sw	s5,184(a5)
    5b9a:	0b87aa83          	lw	s5,184(a5)
    5b9e:	4bd9                	li	s7,22
    5ba0:	006afab3          	and	s5,s5,t1
    5ba4:	02ba4a33          	div	s4,s4,a1
    5ba8:	03270933          	mul	s2,a4,s2
    5bac:	00fa7a13          	andi	s4,s4,15
    5bb0:	0a32                	slli	s4,s4,0xc
    5bb2:	014aea33          	or	s4,s5,s4
    5bb6:	0b47ac23          	sw	s4,184(a5)
    5bba:	0b87aa03          	lw	s4,184(a5)
    5bbe:	4ae1                	li	s5,24
    5bc0:	011a7a33          	and	s4,s4,a7
    5bc4:	02b9c9b3          	div	s3,s3,a1
    5bc8:	029704b3          	mul	s1,a4,s1
    5bcc:	00f9f993          	andi	s3,s3,15
    5bd0:	09c2                	slli	s3,s3,0x10
    5bd2:	013a69b3          	or	s3,s4,s3
    5bd6:	0b37ac23          	sw	s3,184(a5)
    5bda:	0b87a983          	lw	s3,184(a5)
    5bde:	4a65                	li	s4,25
    5be0:	0109f9b3          	and	s3,s3,a6
    5be4:	02b94933          	div	s2,s2,a1
    5be8:	02b4c4b3          	div	s1,s1,a1
    5bec:	00f97913          	andi	s2,s2,15
    5bf0:	0952                	slli	s2,s2,0x14
    5bf2:	0129e933          	or	s2,s3,s2
    5bf6:	0b27ac23          	sw	s2,184(a5)
    5bfa:	0b87a903          	lw	s2,184(a5)
    5bfe:	49e9                	li	s3,26
    5c00:	00a97933          	and	s2,s2,a0
    5c04:	03670b33          	mul	s6,a4,s6
    5c08:	88bd                	andi	s1,s1,15
    5c0a:	04e2                	slli	s1,s1,0x18
    5c0c:	009964b3          	or	s1,s2,s1
    5c10:	00471913          	slli	s2,a4,0x4
    5c14:	0a97ac23          	sw	s1,184(a5)
    5c18:	0b87a483          	lw	s1,184(a5)
    5c1c:	01d4f4b3          	and	s1,s1,t4
    5c20:	02b94933          	div	s2,s2,a1
    5c24:	02bb4b33          	div	s6,s6,a1
    5c28:	0972                	slli	s2,s2,0x1c
    5c2a:	0124e4b3          	or	s1,s1,s2
    5c2e:	0a97ac23          	sw	s1,184(a5)
    5c32:	0bc7a483          	lw	s1,188(a5)
    5c36:	98c1                	andi	s1,s1,-16
    5c38:	00fb7b13          	andi	s6,s6,15
    5c3c:	0164eb33          	or	s6,s1,s6
    5c40:	44c9                	li	s1,18
    5c42:	029704b3          	mul	s1,a4,s1
    5c46:	0b67ae23          	sw	s6,188(a5)
    5c4a:	0bc7a903          	lw	s2,188(a5)
    5c4e:	4b5d                	li	s6,23
    5c50:	f0f97913          	andi	s2,s2,-241
    5c54:	02b4c4b3          	div	s1,s1,a1
    5c58:	88bd                	andi	s1,s1,15
    5c5a:	0492                	slli	s1,s1,0x4
    5c5c:	009964b3          	or	s1,s2,s1
    5c60:	0a97ae23          	sw	s1,188(a5)
    5c64:	03b704b3          	mul	s1,a4,s11
    5c68:	0bc7a903          	lw	s2,188(a5)
    5c6c:	4df5                	li	s11,29
    5c6e:	01c97933          	and	s2,s2,t3
    5c72:	02b4c4b3          	div	s1,s1,a1
    5c76:	88bd                	andi	s1,s1,15
    5c78:	04a2                	slli	s1,s1,0x8
    5c7a:	009964b3          	or	s1,s2,s1
    5c7e:	0a97ae23          	sw	s1,188(a5)
    5c82:	4489                	li	s1,2
    5c84:	029744b3          	div	s1,a4,s1
    5c88:	0bc7a903          	lw	s2,188(a5)
    5c8c:	00697933          	and	s2,s2,t1
    5c90:	88bd                	andi	s1,s1,15
    5c92:	04b2                	slli	s1,s1,0xc
    5c94:	009964b3          	or	s1,s2,s1
    5c98:	0a97ae23          	sw	s1,188(a5)
    5c9c:	039704b3          	mul	s1,a4,s9
    5ca0:	0bc7a903          	lw	s2,188(a5)
    5ca4:	4cf9                	li	s9,30
    5ca6:	01197933          	and	s2,s2,a7
    5caa:	02b4c4b3          	div	s1,s1,a1
    5cae:	88bd                	andi	s1,s1,15
    5cb0:	04c2                	slli	s1,s1,0x10
    5cb2:	009964b3          	or	s1,s2,s1
    5cb6:	0a97ae23          	sw	s1,188(a5)
    5cba:	037704b3          	mul	s1,a4,s7
    5cbe:	0bc7a903          	lw	s2,188(a5)
    5cc2:	4bfd                	li	s7,31
    5cc4:	01097933          	and	s2,s2,a6
    5cc8:	02b4c4b3          	div	s1,s1,a1
    5ccc:	88bd                	andi	s1,s1,15
    5cce:	04d2                	slli	s1,s1,0x14
    5cd0:	009964b3          	or	s1,s2,s1
    5cd4:	0a97ae23          	sw	s1,188(a5)
    5cd8:	036704b3          	mul	s1,a4,s6
    5cdc:	0bc7a903          	lw	s2,188(a5)
    5ce0:	02100b13          	li	s6,33
    5ce4:	00a97933          	and	s2,s2,a0
    5ce8:	02b4c4b3          	div	s1,s1,a1
    5cec:	88bd                	andi	s1,s1,15
    5cee:	04e2                	slli	s1,s1,0x18
    5cf0:	009964b3          	or	s1,s2,s1
    5cf4:	0a97ae23          	sw	s1,188(a5)
    5cf8:	035704b3          	mul	s1,a4,s5
    5cfc:	0bc7a903          	lw	s2,188(a5)
    5d00:	02200a93          	li	s5,34
    5d04:	01d97933          	and	s2,s2,t4
    5d08:	02b4c4b3          	div	s1,s1,a1
    5d0c:	04f2                	slli	s1,s1,0x1c
    5d0e:	009964b3          	or	s1,s2,s1
    5d12:	0a97ae23          	sw	s1,188(a5)
    5d16:	034704b3          	mul	s1,a4,s4
    5d1a:	0c07a903          	lw	s2,192(a5)
    5d1e:	02300a13          	li	s4,35
    5d22:	ff097913          	andi	s2,s2,-16
    5d26:	02b4c4b3          	div	s1,s1,a1
    5d2a:	88bd                	andi	s1,s1,15
    5d2c:	009964b3          	or	s1,s2,s1
    5d30:	0c97a023          	sw	s1,192(a5)
    5d34:	033704b3          	mul	s1,a4,s3
    5d38:	0c07a903          	lw	s2,192(a5)
    5d3c:	02400993          	li	s3,36
    5d40:	f0f97913          	andi	s2,s2,-241
    5d44:	02b4c4b3          	div	s1,s1,a1
    5d48:	88bd                	andi	s1,s1,15
    5d4a:	0492                	slli	s1,s1,0x4
    5d4c:	009964b3          	or	s1,s2,s1
    5d50:	496d                	li	s2,27
    5d52:	0c97a023          	sw	s1,192(a5)
    5d56:	032704b3          	mul	s1,a4,s2
    5d5a:	0c07a903          	lw	s2,192(a5)
    5d5e:	01c97933          	and	s2,s2,t3
    5d62:	02b4c4b3          	div	s1,s1,a1
    5d66:	88bd                	andi	s1,s1,15
    5d68:	04a2                	slli	s1,s1,0x8
    5d6a:	009964b3          	or	s1,s2,s1
    5d6e:	0c97a023          	sw	s1,192(a5)
    5d72:	44f1                	li	s1,28
    5d74:	029704b3          	mul	s1,a4,s1
    5d78:	0c07a903          	lw	s2,192(a5)
    5d7c:	00697933          	and	s2,s2,t1
    5d80:	02b4c4b3          	div	s1,s1,a1
    5d84:	88bd                	andi	s1,s1,15
    5d86:	04b2                	slli	s1,s1,0xc
    5d88:	009964b3          	or	s1,s2,s1
    5d8c:	0c97a023          	sw	s1,192(a5)
    5d90:	03b704b3          	mul	s1,a4,s11
    5d94:	0c07a903          	lw	s2,192(a5)
    5d98:	01197933          	and	s2,s2,a7
    5d9c:	02b4c4b3          	div	s1,s1,a1
    5da0:	88bd                	andi	s1,s1,15
    5da2:	04c2                	slli	s1,s1,0x10
    5da4:	009964b3          	or	s1,s2,s1
    5da8:	0c97a023          	sw	s1,192(a5)
    5dac:	039704b3          	mul	s1,a4,s9
    5db0:	0c07a903          	lw	s2,192(a5)
    5db4:	01097933          	and	s2,s2,a6
    5db8:	02b4c4b3          	div	s1,s1,a1
    5dbc:	88bd                	andi	s1,s1,15
    5dbe:	04d2                	slli	s1,s1,0x14
    5dc0:	009964b3          	or	s1,s2,s1
    5dc4:	0c97a023          	sw	s1,192(a5)
    5dc8:	037704b3          	mul	s1,a4,s7
    5dcc:	0c07a903          	lw	s2,192(a5)
    5dd0:	00a97933          	and	s2,s2,a0
    5dd4:	02b4c4b3          	div	s1,s1,a1
    5dd8:	88bd                	andi	s1,s1,15
    5dda:	04e2                	slli	s1,s1,0x18
    5ddc:	009964b3          	or	s1,s2,s1
    5de0:	0c97a023          	sw	s1,192(a5)
    5de4:	00571493          	slli	s1,a4,0x5
    5de8:	02b4c4b3          	div	s1,s1,a1
    5dec:	01c49913          	slli	s2,s1,0x1c
    5df0:	0c07a483          	lw	s1,192(a5)
    5df4:	02c70633          	mul	a2,a4,a2
    5df8:	01d4f4b3          	and	s1,s1,t4
    5dfc:	0124e4b3          	or	s1,s1,s2
    5e00:	0c97a023          	sw	s1,192(a5)
    5e04:	0c47a903          	lw	s2,196(a5)
    5e08:	ff097913          	andi	s2,s2,-16
    5e0c:	036704b3          	mul	s1,a4,s6
    5e10:	02b4c4b3          	div	s1,s1,a1
    5e14:	88bd                	andi	s1,s1,15
    5e16:	009964b3          	or	s1,s2,s1
    5e1a:	0c97a223          	sw	s1,196(a5)
    5e1e:	035704b3          	mul	s1,a4,s5
    5e22:	0c47a903          	lw	s2,196(a5)
    5e26:	f0f97913          	andi	s2,s2,-241
    5e2a:	02b4c4b3          	div	s1,s1,a1
    5e2e:	88bd                	andi	s1,s1,15
    5e30:	0492                	slli	s1,s1,0x4
    5e32:	009964b3          	or	s1,s2,s1
    5e36:	0c97a223          	sw	s1,196(a5)
    5e3a:	034704b3          	mul	s1,a4,s4
    5e3e:	0c47a903          	lw	s2,196(a5)
    5e42:	01c97933          	and	s2,s2,t3
    5e46:	02b4c4b3          	div	s1,s1,a1
    5e4a:	88bd                	andi	s1,s1,15
    5e4c:	04a2                	slli	s1,s1,0x8
    5e4e:	009964b3          	or	s1,s2,s1
    5e52:	0c97a223          	sw	s1,196(a5)
    5e56:	033704b3          	mul	s1,a4,s3
    5e5a:	0c47a903          	lw	s2,196(a5)
    5e5e:	00697933          	and	s2,s2,t1
    5e62:	02b4c4b3          	div	s1,s1,a1
    5e66:	88bd                	andi	s1,s1,15
    5e68:	04b2                	slli	s1,s1,0xc
    5e6a:	009964b3          	or	s1,s2,s1
    5e6e:	02500913          	li	s2,37
    5e72:	0c97a223          	sw	s1,196(a5)
    5e76:	032704b3          	mul	s1,a4,s2
    5e7a:	0c47a903          	lw	s2,196(a5)
    5e7e:	01197933          	and	s2,s2,a7
    5e82:	02b4c4b3          	div	s1,s1,a1
    5e86:	88bd                	andi	s1,s1,15
    5e88:	04c2                	slli	s1,s1,0x10
    5e8a:	009964b3          	or	s1,s2,s1
    5e8e:	0c97a223          	sw	s1,196(a5)
    5e92:	02600493          	li	s1,38
    5e96:	029704b3          	mul	s1,a4,s1
    5e9a:	0c47a903          	lw	s2,196(a5)
    5e9e:	01097933          	and	s2,s2,a6
    5ea2:	02b4c4b3          	div	s1,s1,a1
    5ea6:	02b64633          	div	a2,a2,a1
    5eaa:	88bd                	andi	s1,s1,15
    5eac:	04d2                	slli	s1,s1,0x14
    5eae:	009964b3          	or	s1,s2,s1
    5eb2:	0c97a223          	sw	s1,196(a5)
    5eb6:	0c47a483          	lw	s1,196(a5)
    5eba:	8ce9                	and	s1,s1,a0
    5ebc:	8a3d                	andi	a2,a2,15
    5ebe:	0662                	slli	a2,a2,0x18
    5ec0:	8e45                	or	a2,a2,s1
    5ec2:	0cc7a223          	sw	a2,196(a5)
    5ec6:	0c47a603          	lw	a2,196(a5)
    5eca:	01c71493          	slli	s1,a4,0x1c
    5ece:	01d67633          	and	a2,a2,t4
    5ed2:	8e45                	or	a2,a2,s1
    5ed4:	0cc7a223          	sw	a2,196(a5)
    5ed8:	02900613          	li	a2,41
    5edc:	02c70633          	mul	a2,a4,a2
    5ee0:	0c87a483          	lw	s1,200(a5)
    5ee4:	98c1                	andi	s1,s1,-16
    5ee6:	02b64633          	div	a2,a2,a1
    5eea:	8a3d                	andi	a2,a2,15
    5eec:	8e45                	or	a2,a2,s1
    5eee:	0cc7a423          	sw	a2,200(a5)
    5ef2:	02a00613          	li	a2,42
    5ef6:	02c70633          	mul	a2,a4,a2
    5efa:	02b645b3          	div	a1,a2,a1
    5efe:	0c87a603          	lw	a2,200(a5)
    5f02:	f0f67613          	andi	a2,a2,-241
    5f06:	89bd                	andi	a1,a1,15
    5f08:	0592                	slli	a1,a1,0x4
    5f0a:	8dd1                	or	a1,a1,a2
    5f0c:	0cb7a423          	sw	a1,200(a5)
    5f10:	1fffd597          	auipc	a1,0x1fffd
    5f14:	4d45c583          	lbu	a1,1236(a1) # 200033e4 <nGA2440>
    5f18:	1fffd617          	auipc	a2,0x1fffd
    5f1c:	4cd64603          	lbu	a2,1229(a2) # 200033e5 <nGA2480>
    5f20:	40c58633          	sub	a2,a1,a2
    5f24:	03a604b3          	mul	s1,a2,s10
    5f28:	0c87a903          	lw	s2,200(a5)
    5f2c:	01c97933          	and	s2,s2,t3
    5f30:	02e4c4b3          	div	s1,s1,a4
    5f34:	0084e493          	ori	s1,s1,8
    5f38:	88bd                	andi	s1,s1,15
    5f3a:	04a2                	slli	s1,s1,0x8
    5f3c:	009964b3          	or	s1,s2,s1
    5f40:	0c97a423          	sw	s1,200(a5)
    5f44:	03e604b3          	mul	s1,a2,t5
    5f48:	0c87a903          	lw	s2,200(a5)
    5f4c:	00697933          	and	s2,s2,t1
    5f50:	02e4c4b3          	div	s1,s1,a4
    5f54:	0084e493          	ori	s1,s1,8
    5f58:	88bd                	andi	s1,s1,15
    5f5a:	04b2                	slli	s1,s1,0xc
    5f5c:	009964b3          	or	s1,s2,s1
    5f60:	0c97a423          	sw	s1,200(a5)
    5f64:	00361493          	slli	s1,a2,0x3
    5f68:	02e4c4b3          	div	s1,s1,a4
    5f6c:	0c87a903          	lw	s2,200(a5)
    5f70:	01197933          	and	s2,s2,a7
    5f74:	0084e493          	ori	s1,s1,8
    5f78:	88bd                	andi	s1,s1,15
    5f7a:	04c2                	slli	s1,s1,0x10
    5f7c:	009964b3          	or	s1,s2,s1
    5f80:	0c97a423          	sw	s1,200(a5)
    5f84:	03f604b3          	mul	s1,a2,t6
    5f88:	0c87a903          	lw	s2,200(a5)
    5f8c:	01097933          	and	s2,s2,a6
    5f90:	02e4c4b3          	div	s1,s1,a4
    5f94:	0084e493          	ori	s1,s1,8
    5f98:	88bd                	andi	s1,s1,15
    5f9a:	04d2                	slli	s1,s1,0x14
    5f9c:	009964b3          	or	s1,s2,s1
    5fa0:	0c97a423          	sw	s1,200(a5)
    5fa4:	025604b3          	mul	s1,a2,t0
    5fa8:	0c87a903          	lw	s2,200(a5)
    5fac:	00a97933          	and	s2,s2,a0
    5fb0:	02e4c4b3          	div	s1,s1,a4
    5fb4:	0084e493          	ori	s1,s1,8
    5fb8:	88bd                	andi	s1,s1,15
    5fba:	04e2                	slli	s1,s1,0x18
    5fbc:	009964b3          	or	s1,s2,s1
    5fc0:	0c97a423          	sw	s1,200(a5)
    5fc4:	027604b3          	mul	s1,a2,t2
    5fc8:	0c87a903          	lw	s2,200(a5)
    5fcc:	01d97933          	and	s2,s2,t4
    5fd0:	02e4c4b3          	div	s1,s1,a4
    5fd4:	0084e493          	ori	s1,s1,8
    5fd8:	04f2                	slli	s1,s1,0x1c
    5fda:	009964b3          	or	s1,s2,s1
    5fde:	0c97a423          	sw	s1,200(a5)
    5fe2:	00261493          	slli	s1,a2,0x2
    5fe6:	02e4c4b3          	div	s1,s1,a4
    5fea:	0cc7a903          	lw	s2,204(a5)
    5fee:	ff097913          	andi	s2,s2,-16
    5ff2:	0084e493          	ori	s1,s1,8
    5ff6:	88bd                	andi	s1,s1,15
    5ff8:	009964b3          	or	s1,s2,s1
    5ffc:	0c97a623          	sw	s1,204(a5)
    6000:	028604b3          	mul	s1,a2,s0
    6004:	0cc7a903          	lw	s2,204(a5)
    6008:	f0f97913          	andi	s2,s2,-241
    600c:	02e4c4b3          	div	s1,s1,a4
    6010:	0084e493          	ori	s1,s1,8
    6014:	88bd                	andi	s1,s1,15
    6016:	0492                	slli	s1,s1,0x4
    6018:	009964b3          	or	s1,s2,s1
    601c:	0c97a623          	sw	s1,204(a5)
    6020:	00161493          	slli	s1,a2,0x1
    6024:	02e4c4b3          	div	s1,s1,a4
    6028:	0cc7a903          	lw	s2,204(a5)
    602c:	01c97933          	and	s2,s2,t3
    6030:	02e64733          	div	a4,a2,a4
    6034:	0084e493          	ori	s1,s1,8
    6038:	88bd                	andi	s1,s1,15
    603a:	04a2                	slli	s1,s1,0x8
    603c:	009964b3          	or	s1,s2,s1
    6040:	0c97a623          	sw	s1,204(a5)
    6044:	0cc7a603          	lw	a2,204(a5)
    6048:	00667633          	and	a2,a2,t1
    604c:	00876713          	ori	a4,a4,8
    6050:	8b3d                	andi	a4,a4,15
    6052:	0732                	slli	a4,a4,0xc
    6054:	8f51                	or	a4,a4,a2
    6056:	0ce7a623          	sw	a4,204(a5)
    605a:	0cc7a703          	lw	a4,204(a5)
    605e:	01177733          	and	a4,a4,a7
    6062:	0ce7a623          	sw	a4,204(a5)
    6066:	8141c703          	lbu	a4,-2028(gp) # 2000182c <nGA2401>
    606a:	8f0d                	sub	a4,a4,a1
    606c:	02d74633          	div	a2,a4,a3
    6070:	07f5f593          	andi	a1,a1,127
    6074:	05e2                	slli	a1,a1,0x18
    6076:	8a3d                	andi	a2,a2,15
    6078:	01461493          	slli	s1,a2,0x14
    607c:	0cc7a603          	lw	a2,204(a5)
    6080:	02870433          	mul	s0,a4,s0
    6084:	01067633          	and	a2,a2,a6
    6088:	8e45                	or	a2,a2,s1
    608a:	0cc7a623          	sw	a2,204(a5)
    608e:	00171613          	slli	a2,a4,0x1
    6092:	0cc7a483          	lw	s1,204(a5)
    6096:	8ce9                	and	s1,s1,a0
    6098:	02d64633          	div	a2,a2,a3
    609c:	8a3d                	andi	a2,a2,15
    609e:	0662                	slli	a2,a2,0x18
    60a0:	8e45                	or	a2,a2,s1
    60a2:	0cc7a623          	sw	a2,204(a5)
    60a6:	0cc7a603          	lw	a2,204(a5)
    60aa:	02d44433          	div	s0,s0,a3
    60ae:	01d67eb3          	and	t4,a2,t4
    60b2:	00271613          	slli	a2,a4,0x2
    60b6:	027703b3          	mul	t2,a4,t2
    60ba:	0472                	slli	s0,s0,0x1c
    60bc:	008ee433          	or	s0,t4,s0
    60c0:	0c87a623          	sw	s0,204(a5)
    60c4:	02d64633          	div	a2,a2,a3
    60c8:	025702b3          	mul	t0,a4,t0
    60cc:	00f67e93          	andi	t4,a2,15
    60d0:	0d07a603          	lw	a2,208(a5)
    60d4:	9a41                	andi	a2,a2,-16
    60d6:	01d66633          	or	a2,a2,t4
    60da:	0cc7a823          	sw	a2,208(a5)
    60de:	0d07a603          	lw	a2,208(a5)
    60e2:	02d3c3b3          	div	t2,t2,a3
    60e6:	f0f67613          	andi	a2,a2,-241
    60ea:	02d2c2b3          	div	t0,t0,a3
    60ee:	00f3f393          	andi	t2,t2,15
    60f2:	0392                	slli	t2,t2,0x4
    60f4:	007663b3          	or	t2,a2,t2
    60f8:	0c77a823          	sw	t2,208(a5)
    60fc:	0d07a603          	lw	a2,208(a5)
    6100:	01c67e33          	and	t3,a2,t3
    6104:	03f70fb3          	mul	t6,a4,t6
    6108:	00f2f293          	andi	t0,t0,15
    610c:	02a2                	slli	t0,t0,0x8
    610e:	005e62b3          	or	t0,t3,t0
    6112:	0c57a823          	sw	t0,208(a5)
    6116:	0d07a603          	lw	a2,208(a5)
    611a:	00667333          	and	t1,a2,t1
    611e:	00371613          	slli	a2,a4,0x3
    6122:	02dfcfb3          	div	t6,t6,a3
    6126:	03e70f33          	mul	t5,a4,t5
    612a:	00ffff93          	andi	t6,t6,15
    612e:	0fb2                	slli	t6,t6,0xc
    6130:	01f36fb3          	or	t6,t1,t6
    6134:	0df7a823          	sw	t6,208(a5)
    6138:	0d07a303          	lw	t1,208(a5)
    613c:	011378b3          	and	a7,t1,a7
    6140:	02d64633          	div	a2,a2,a3
    6144:	03a70d33          	mul	s10,a4,s10
    6148:	8a3d                	andi	a2,a2,15
    614a:	0642                	slli	a2,a2,0x10
    614c:	00c8e633          	or	a2,a7,a2
    6150:	0cc7a823          	sw	a2,208(a5)
    6154:	0d07a603          	lw	a2,208(a5)
    6158:	01067833          	and	a6,a2,a6
    615c:	02df4f33          	div	t5,t5,a3
    6160:	02dd46b3          	div	a3,s10,a3
    6164:	00ff7f13          	andi	t5,t5,15
    6168:	0f52                	slli	t5,t5,0x14
    616a:	01e86f33          	or	t5,a6,t5
    616e:	0de7a823          	sw	t5,208(a5)
    6172:	0d07a703          	lw	a4,208(a5)
    6176:	8d79                	and	a0,a0,a4
    6178:	8abd                	andi	a3,a3,15
    617a:	06e2                	slli	a3,a3,0x18
    617c:	8ec9                	or	a3,a3,a0
    617e:	0cd7a823          	sw	a3,208(a5)
    6182:	43d8                	lw	a4,4(a5)
    6184:	6685                	lui	a3,0x1
    6186:	9b3d                	andi	a4,a4,-17
    6188:	c3d8                	sw	a4,4(a5)
    618a:	43d8                	lw	a4,4(a5)
    618c:	9b79                	andi	a4,a4,-2
    618e:	c3d8                	sw	a4,4(a5)
    6190:	5798                	lw	a4,40(a5)
    6192:	8f55                	or	a4,a4,a3
    6194:	d798                	sw	a4,40(a5)
    6196:	57d8                	lw	a4,44(a5)
    6198:	810006b7          	lui	a3,0x81000
    619c:	16fd                	addi	a3,a3,-1
    619e:	01076713          	ori	a4,a4,16
    61a2:	d7d8                	sw	a4,44(a5)
    61a4:	03fc7713          	andi	a4,s8,63
    61a8:	0387ac03          	lw	s8,56(a5)
    61ac:	fc0c7c13          	andi	s8,s8,-64
    61b0:	00ec6c33          	or	s8,s8,a4
    61b4:	0387ac23          	sw	s8,56(a5)
    61b8:	5f98                	lw	a4,56(a5)
    61ba:	8f75                	and	a4,a4,a3
    61bc:	8dd9                	or	a1,a1,a4
    61be:	df8c                	sw	a1,56(a5)
    61c0:	5462                	lw	s0,56(sp)
    61c2:	50f2                	lw	ra,60(sp)
    61c4:	54d2                	lw	s1,52(sp)
    61c6:	5942                	lw	s2,48(sp)
    61c8:	59b2                	lw	s3,44(sp)
    61ca:	5a22                	lw	s4,40(sp)
    61cc:	5a92                	lw	s5,36(sp)
    61ce:	5b02                	lw	s6,32(sp)
    61d0:	4bf2                	lw	s7,28(sp)
    61d2:	4c62                	lw	s8,24(sp)
    61d4:	4cd2                	lw	s9,20(sp)
    61d6:	4d42                	lw	s10,16(sp)
    61d8:	4db2                	lw	s11,12(sp)
    61da:	6121                	addi	sp,sp,64
    61dc:	8082                	ret

000061de <RFEND_TXFtune>:
RFEND_TXFtune():
    61de:	1fffd797          	auipc	a5,0x1fffd
    61e2:	20a78793          	addi	a5,a5,522 # 200033e8 <gptrRFENDReg>
    61e6:	4398                	lw	a4,0(a5)
    61e8:	435c                	lw	a5,4(a4)
    61ea:	1007e793          	ori	a5,a5,256
    61ee:	c35c                	sw	a5,4(a4)
    61f0:	8082                	ret

000061f2 <tmos_memory_getlen>:
tmos_memory_getlen():
    61f2:	1fffd797          	auipc	a5,0x1fffd
    61f6:	20678793          	addi	a5,a5,518 # 200033f8 <MemCtlStart>
    61fa:	1fffd717          	auipc	a4,0x1fffd
    61fe:	1f670713          	addi	a4,a4,502 # 200033f0 <MemCtlEnd>
    6202:	439c                	lw	a5,0(a5)
    6204:	4318                	lw	a4,0(a4)
    6206:	4501                	li	a0,0
    6208:	00f71363          	bne	a4,a5,620e <tmos_memory_getlen+0x1c>
    620c:	8082                	ret
    620e:	0067d683          	lhu	a3,6(a5)
    6212:	e681                	bnez	a3,621a <tmos_memory_getlen+0x28>
    6214:	0047d683          	lhu	a3,4(a5)
    6218:	9536                	add	a0,a0,a3
    621a:	439c                	lw	a5,0(a5)
    621c:	b7f5                	j	6208 <tmos_memory_getlen+0x16>

0000621e <tmos_memory_init>:
tmos_memory_init():
    621e:	1fffd797          	auipc	a5,0x1fffd
    6222:	11678793          	addi	a5,a5,278 # 20003334 <ble>
    6226:	438c                	lw	a1,0(a5)
    6228:	1fffd717          	auipc	a4,0x1fffd
    622c:	11075703          	lhu	a4,272(a4) # 20003338 <ble+0x4>
    6230:	1141                	addi	sp,sp,-16
    6232:	22058613          	addi	a2,a1,544
    6236:	1fffd797          	auipc	a5,0x1fffd
    623a:	1cc7a123          	sw	a2,450(a5) # 200033f8 <MemCtlStart>
    623e:	ff858793          	addi	a5,a1,-8
    6242:	97ba                	add	a5,a5,a4
    6244:	6505                	lui	a0,0x1
    6246:	1fffd697          	auipc	a3,0x1fffd
    624a:	1af6a523          	sw	a5,426(a3) # 200033f0 <MemCtlEnd>
    624e:	c606                	sw	ra,12(sp)
    6250:	051d                	addi	a0,a0,7
    6252:	00375693          	srli	a3,a4,0x3
    6256:	00e57463          	bgeu	a0,a4,625e <tmos_memory_init+0x40>
    625a:	20000693          	li	a3,512
    625e:	00d60733          	add	a4,a2,a3
    6262:	1fffd517          	auipc	a0,0x1fffd
    6266:	18e52923          	sw	a4,402(a0) # 200033f4 <MemCtlPartition>
    626a:	22e5a023          	sw	a4,544(a1)
    626e:	16e1                	addi	a3,a3,-8
    6270:	00d61223          	sh	a3,4(a2)
    6274:	00061323          	sh	zero,6(a2)
    6278:	c31c                	sw	a5,0(a4)
    627a:	8f99                	sub	a5,a5,a4
    627c:	17e1                	addi	a5,a5,-8
    627e:	00f71223          	sh	a5,4(a4)
    6282:	00071323          	sh	zero,6(a4)
    6286:	37b5                	jal	61f2 <tmos_memory_getlen>
    6288:	40b2                	lw	ra,12(sp)
    628a:	1fffd797          	auipc	a5,0x1fffd
    628e:	04a79c23          	sh	a0,88(a5) # 200032e2 <gTmosPara+0x6>
    6292:	0141                	addi	sp,sp,16
    6294:	8082                	ret

00006296 <LL_InitiateSetRF>:
LL_InitiateSetRF():
    6296:	1141                	addi	sp,sp,-16
    6298:	1fffd797          	auipc	a5,0x1fffd
    629c:	16878793          	addi	a5,a5,360 # 20003400 <gBleLlPara>
    62a0:	c226                	sw	s1,4(sp)
    62a2:	1fffd497          	auipc	s1,0x1fffd
    62a6:	10248493          	addi	s1,s1,258 # 200033a4 <gptrLLEReg>
    62aa:	c422                	sw	s0,8(sp)
    62ac:	0847a403          	lw	s0,132(a5)
    62b0:	409c                	lw	a5,0(s1)
    62b2:	c606                	sw	ra,12(sp)
    62b4:	c04a                	sw	s2,0(sp)
    62b6:	4398                	lw	a4,0(a5)
    62b8:	8b0d                	andi	a4,a4,3
    62ba:	c305                	beqz	a4,62da <LL_InitiateSetRF+0x44>
    62bc:	4bb8                	lw	a4,80(a5)
    62be:	9b61                	andi	a4,a4,-8
    62c0:	cbb8                	sw	a4,80(a5)
    62c2:	4398                	lw	a4,0(a5)
    62c4:	00876713          	ori	a4,a4,8
    62c8:	c398                	sw	a4,0(a5)
    62ca:	439c                	lw	a5,0(a5)
    62cc:	838d                	srli	a5,a5,0x3
    62ce:	8b85                	andi	a5,a5,1
    62d0:	c789                	beqz	a5,62da <LL_InitiateSetRF+0x44>
    62d2:	0001                	nop
    62d4:	0001                	nop
    62d6:	0001                	nop
    62d8:	0001                	nop
    62da:	1fffd797          	auipc	a5,0x1fffd
    62de:	0a678793          	addi	a5,a5,166 # 20003380 <gptrBBReg>
    62e2:	4394                	lw	a3,0(a5)
    62e4:	8e89c737          	lui	a4,0x8e89c
    62e8:	ed670713          	addi	a4,a4,-298 # 8e89bed6 <_eusrstack+0x6e893ed6>
    62ec:	c698                	sw	a4,8(a3)
    62ee:	00555737          	lui	a4,0x555
    62f2:	55570713          	addi	a4,a4,1365 # 555555 <_data_lma+0x54eedd>
    62f6:	c2d8                	sw	a4,4(a3)
    62f8:	03a44703          	lbu	a4,58(s0)
    62fc:	0ff00693          	li	a3,255
    6300:	893e                	mv	s2,a5
    6302:	00d70763          	beq	a4,a3,6310 <LL_InitiateSetRF+0x7a>
    6306:	57fd                	li	a5,-1
    6308:	02e40ca3          	sb	a4,57(s0)
    630c:	02f40d23          	sb	a5,58(s0)
    6310:	03944503          	lbu	a0,57(s0)
    6314:	4789                	li	a5,2
    6316:	00f50663          	beq	a0,a5,6322 <LL_InitiateSetRF+0x8c>
    631a:	4785                	li	a5,1
    631c:	02f40ca3          	sb	a5,57(s0)
    6320:	4501                	li	a0,0
    6322:	4098                	lw	a4,0(s1)
    6324:	435c                	lw	a5,4(a4)
    6326:	0017e793          	ori	a5,a5,1
    632a:	c35c                	sw	a5,4(a4)
    632c:	fb200793          	li	a5,-78
    6330:	00f40323          	sb	a5,6(s0)
    6334:	1fffd797          	auipc	a5,0x1fffd
    6338:	05d7c783          	lbu	a5,93(a5) # 20003391 <gBleIPPara+0x9>
    633c:	cf81                	beqz	a5,6354 <LL_InitiateSetRF+0xbe>
    633e:	1fffd717          	auipc	a4,0x1fffd
    6342:	05274703          	lbu	a4,82(a4) # 20003390 <gBleIPPara+0x8>
    6346:	478d                	li	a5,3
    6348:	00f71663          	bne	a4,a5,6354 <LL_InitiateSetRF+0xbe>
    634c:	1fffd797          	auipc	a5,0x1fffd
    6350:	040782a3          	sb	zero,69(a5) # 20003391 <gBleIPPara+0x9>
    6354:	1fffd717          	auipc	a4,0x1fffd
    6358:	03b74703          	lbu	a4,59(a4) # 2000338f <gBleIPPara+0x7>
    635c:	479d                	li	a5,7
    635e:	00f71863          	bne	a4,a5,636e <LL_InitiateSetRF+0xd8>
    6362:	10700793          	li	a5,263
    6366:	1fffd717          	auipc	a4,0x1fffd
    636a:	02f71523          	sh	a5,42(a4) # 20003390 <gBleIPPara+0x8>
    636e:	4799                	li	a5,6
    6370:	1fffd717          	auipc	a4,0x1fffd
    6374:	00f70fa3          	sb	a5,31(a4) # 2000338f <gBleIPPara+0x7>
    6378:	4601                	li	a2,0
    637a:	1fffd797          	auipc	a5,0x1fffd
    637e:	00078723          	sb	zero,14(a5) # 20003388 <gBleIPPara>
    6382:	02500593          	li	a1,37
    6386:	1fffd797          	auipc	a5,0x1fffd
    638a:	00078323          	sb	zero,6(a5) # 2000338c <gBleIPPara+0x4>
    638e:	8ebfd0ef          	jal	ra,3c78 <BLE_SetPHYRxMode>
    6392:	4090                	lw	a2,0(s1)
    6394:	1fffd797          	auipc	a5,0x1fffd
    6398:	fe078ca3          	sb	zero,-7(a5) # 2000338d <gBleIPPara+0x5>
    639c:	1fffd797          	auipc	a5,0x1fffd
    63a0:	fe0786a3          	sb	zero,-19(a5) # 20003389 <gBleIPPara+0x1>
    63a4:	4785                	li	a5,1
    63a6:	c21c                	sw	a5,0(a2)
    63a8:	00092783          	lw	a5,0(s2) # d000 <_data_lma+0x6988>
    63ac:	003305b7          	lui	a1,0x330
    63b0:	4398                	lw	a4,0(a5)
    63b2:	e7f77713          	andi	a4,a4,-385
    63b6:	c398                	sw	a4,0(a5)
    63b8:	4398                	lw	a4,0(a5)
    63ba:	e7f77713          	andi	a4,a4,-385
    63be:	10076713          	ori	a4,a4,256
    63c2:	c398                	sw	a4,0(a5)
    63c4:	1fffd717          	auipc	a4,0x1fffd
    63c8:	02470713          	addi	a4,a4,36 # 200033e8 <gptrRFENDReg>
    63cc:	4318                	lw	a4,0(a4)
    63ce:	4714                	lw	a3,8(a4)
    63d0:	8ecd                	or	a3,a3,a1
    63d2:	c714                	sw	a3,8(a4)
    63d4:	0d900693          	li	a3,217
    63d8:	ca34                	sw	a3,80(a2)
    63da:	5754                	lw	a3,44(a4)
    63dc:	9af5                	andi	a3,a3,-3
    63de:	d754                	sw	a3,44(a4)
    63e0:	00544703          	lbu	a4,5(s0)
    63e4:	07f77693          	andi	a3,a4,127
    63e8:	4398                	lw	a4,0(a5)
    63ea:	f8077713          	andi	a4,a4,-128
    63ee:	8f55                	or	a4,a4,a3
    63f0:	c398                	sw	a4,0(a5)
    63f2:	40b2                	lw	ra,12(sp)
    63f4:	4422                	lw	s0,8(sp)
    63f6:	4492                	lw	s1,4(sp)
    63f8:	4902                	lw	s2,0(sp)
    63fa:	0141                	addi	sp,sp,16
    63fc:	8082                	ret

000063fe <memcpy>:
memcpy():
    63fe:	00a5c7b3          	xor	a5,a1,a0
    6402:	8b8d                	andi	a5,a5,3
    6404:	00c50733          	add	a4,a0,a2
    6408:	e781                	bnez	a5,6410 <memcpy+0x12>
    640a:	478d                	li	a5,3
    640c:	00c7ee63          	bltu	a5,a2,6428 <memcpy+0x2a>
    6410:	87aa                	mv	a5,a0
    6412:	0ae57063          	bgeu	a0,a4,64b2 <memcpy+0xb4>
    6416:	0005c683          	lbu	a3,0(a1) # 330000 <_data_lma+0x329988>
    641a:	0785                	addi	a5,a5,1
    641c:	0585                	addi	a1,a1,1
    641e:	fed78fa3          	sb	a3,-1(a5)
    6422:	fee7eae3          	bltu	a5,a4,6416 <memcpy+0x18>
    6426:	8082                	ret
    6428:	00357693          	andi	a3,a0,3
    642c:	87aa                	mv	a5,a0
    642e:	ca91                	beqz	a3,6442 <memcpy+0x44>
    6430:	0005c683          	lbu	a3,0(a1)
    6434:	0785                	addi	a5,a5,1
    6436:	0585                	addi	a1,a1,1
    6438:	fed78fa3          	sb	a3,-1(a5)
    643c:	0037f693          	andi	a3,a5,3
    6440:	b7fd                	j	642e <memcpy+0x30>
    6442:	ffc77693          	andi	a3,a4,-4
    6446:	fe068613          	addi	a2,a3,-32
    644a:	06c7f063          	bgeu	a5,a2,64aa <memcpy+0xac>
    644e:	0005a383          	lw	t2,0(a1)
    6452:	0045a283          	lw	t0,4(a1)
    6456:	0085af83          	lw	t6,8(a1)
    645a:	00c5af03          	lw	t5,12(a1)
    645e:	0105ae83          	lw	t4,16(a1)
    6462:	0145ae03          	lw	t3,20(a1)
    6466:	0185a303          	lw	t1,24(a1)
    646a:	01c5a883          	lw	a7,28(a1)
    646e:	02458593          	addi	a1,a1,36
    6472:	0077a023          	sw	t2,0(a5)
    6476:	ffc5a803          	lw	a6,-4(a1)
    647a:	0057a223          	sw	t0,4(a5)
    647e:	01f7a423          	sw	t6,8(a5)
    6482:	01e7a623          	sw	t5,12(a5)
    6486:	01d7a823          	sw	t4,16(a5)
    648a:	01c7aa23          	sw	t3,20(a5)
    648e:	0067ac23          	sw	t1,24(a5)
    6492:	0117ae23          	sw	a7,28(a5)
    6496:	02478793          	addi	a5,a5,36
    649a:	ff07ae23          	sw	a6,-4(a5)
    649e:	b775                	j	644a <memcpy+0x4c>
    64a0:	4190                	lw	a2,0(a1)
    64a2:	0791                	addi	a5,a5,4
    64a4:	0591                	addi	a1,a1,4
    64a6:	fec7ae23          	sw	a2,-4(a5)
    64aa:	fed7ebe3          	bltu	a5,a3,64a0 <memcpy+0xa2>
    64ae:	f6e7e4e3          	bltu	a5,a4,6416 <memcpy+0x18>
    64b2:	8082                	ret
    64b4:	b886                	fsd	ft1,112(sp)
    64b6:	ffff                	0xffff
    64b8:	b8ae                	fsd	fa1,112(sp)
    64ba:	ffff                	0xffff
    64bc:	b8d6                	fsd	fs5,112(sp)
    64be:	ffff                	0xffff
    64c0:	b8ee                	fsd	fs11,112(sp)
    64c2:	ffff                	0xffff
    64c4:	b908                	fsd	fa0,48(a0)
    64c6:	ffff                	0xffff
    64c8:	bbcc                	fsd	fa1,176(a5)
    64ca:	ffff                	0xffff
    64cc:	bbcc                	fsd	fa1,176(a5)
    64ce:	ffff                	0xffff
    64d0:	bbae                	fsd	fa1,496(sp)
    64d2:	ffff                	0xffff
    64d4:	bbb8                	fsd	fa4,112(a5)
    64d6:	ffff                	0xffff
    64d8:	bbc0                	fsd	fs0,176(a5)
    64da:	ffff                	0xffff
    64dc:	bbb8                	fsd	fa4,112(a5)
    64de:	ffff                	0xffff
    64e0:	bbb8                	fsd	fa4,112(a5)
    64e2:	ffff                	0xffff
    64e4:	bbb8                	fsd	fa4,112(a5)
    64e6:	ffff                	0xffff
    64e8:	bbcc                	fsd	fa1,176(a5)
    64ea:	ffff                	0xffff
    64ec:	38354843          	fmadd.s	fa6,fa0,ft3,ft7,rmm
    64f0:	5f78                	lw	a4,124(a4)
    64f2:	4c42                	lw	s8,16(sp)
    64f4:	5f45                	li	t5,-15
    64f6:	494c                	lw	a1,20(a0)
    64f8:	5f42                	lw	t5,48(sp)
    64fa:	3156                	fld	ft2,368(sp)
    64fc:	342e                	fld	fs0,232(sp)
    64fe:	0000                	unimp
    6500:	c688                	sw	a0,8(a3)
    6502:	ffff                	0xffff
    6504:	c60e                	sw	gp,12(sp)
    6506:	ffff                	0xffff
    6508:	c52c                	sw	a1,72(a0)
    650a:	ffff                	0xffff
    650c:	c52c                	sw	a1,72(a0)
    650e:	ffff                	0xffff
    6510:	c52c                	sw	a1,72(a0)
    6512:	ffff                	0xffff
    6514:	c5e4                	sw	s1,76(a1)
    6516:	ffff                	0xffff
    6518:	c486                	sw	ra,72(sp)
    651a:	ffff                	0xffff
    651c:	c52c                	sw	a1,72(a0)
    651e:	ffff                	0xffff
    6520:	c5ee                	sw	s11,200(sp)
    6522:	ffff                	0xffff
    6524:	c604                	sw	s1,8(a2)
    6526:	ffff                	0xffff
    6528:	c682                	sw	zero,76(sp)
    652a:	ffff                	0xffff

0000652c <KeyRepDesc>:
    652c:	0105 0609 01a1 0705 e019 e729 0015 0125     ..........)...%.
    653c:	0175 0895 0281 0195 0875 0181 0395 0175     u.......u.....u.
    654c:	0805 0119 0329 0291 0595 0175 0191 0695     ....).....u.....
    655c:	0875 ff26 0500 1907 2900 8191 c000 0000     u.&......)......

0000656c <MouseRepDesc>:
    656c:	0105 0209 01a1 0109 00a1 0905 0119 0329     ..............).
    657c:	0015 0125 0175 0395 0281 0575 0195 0181     ..%.u.....u.....
    658c:	0105 3009 3109 3809 8115 7f25 0875 0395     ...0.1.8..%.u...
    659c:	0681 c0c0                                   ....

000065a0 <MyCfgDescr>:
    65a0:	0209 006b 0104 a000 0932 0004 0100 0103     ..k.....2.......
    65b0:	0001 2109 0111 0100 3e22 0700 8105 0803     ...!....">......
    65c0:	0a00 0409 0001 0301 0201 0900 1021 0001     ............!...
    65d0:	2201 0034 0507 0382 0004 090a 0204 0100     ."4.............
    65e0:	0103 0000 2109 0110 0100 2122 0700 8305     .....!...."!....
    65f0:	0103 0a00 0409 0003 0002 0000 0700 8405     ................
    6600:	4002 0000 0507 0204 0040 0000               .@......@...

0000660c <MyDevDescr>:
    660c:	0112 0110 0000 4000 434a 5540 0101 0201     .......@JC@U....
    661c:	0100 0000                                   ....

00006620 <MyManuInfo>:
    6620:	030e 006c 0061 0062 0034 0031 0038 0000     ..l.a.b.4.1.8...

00006630 <MyProdInfo>:
    6630:	030a 0054 0050 0037 0038 0000               ..T.P.7.8...

0000663c <VolumeRepDesc>:
    663c:	0c05 0109 01a1 b009 b509 b609 e909 ea09     ................
    664c:	e209 b109 b709 0015 0125 0895 0175 0281     ........%...u...
    665c:	00c0 0000                                   ....

00006660 <VER_LIB>:
    6660:	4843 3835 5f78 4c42 5f45 494c 5f42 3156     CH58x_BLE_LIB_V1
    6670:	342e 0031                                   .41.

00006674 <MyLangDescr>:
    6674:	0304 0409                                   ....
