
RF_CH582M.elf:     file format elf32-littleriscv
RF_CH582M.elf
architecture: riscv:rv32, flags 0x00000112:
EXEC_P, HAS_SYMS, D_PAGED
start address 0x00000000

Program Header:
    LOAD off    0x00001000 vaddr 0x00000000 paddr 0x00000000 align 2**12
         filesz 0x00000004 memsz 0x00000004 flags r-x
    LOAD off    0x00002000 vaddr 0x20000000 paddr 0x00000004 align 2**12
         filesz 0x00001814 memsz 0x00001814 flags r-x
    LOAD off    0x00003818 vaddr 0x00001818 paddr 0x00001818 align 2**12
         filesz 0x00004e64 memsz 0x00004e64 flags r-x
    LOAD off    0x00008814 vaddr 0x20001814 paddr 0x0000667c align 2**12
         filesz 0x0000000c memsz 0x00001d04 flags rw-

Sections:
Idx Name            Size      VMA       LMA       File off  Algn  Flags
  0 .init           00000004  00000000  00000000  00001000  2**1  CONTENTS, ALLOC, LOAD, READONLY, CODE
  1 .highcodelalign 00000000  00000004  00000004  00008820  2**0  CONTENTS
  2 .highcode       00001814  20000000  00000004  00002000  2**1  CONTENTS, ALLOC, LOAD, READONLY, CODE
  3 .text           00004e64  00001818  00001818  00003818  2**2  CONTENTS, ALLOC, LOAD, READONLY, CODE
  4 .fini           00000000  0000667c  0000667c  00008820  2**0  CONTENTS, ALLOC, LOAD, CODE
  5 .dalign         00000000  20001814  20001814  00008820  2**0  CONTENTS
  6 .dlalign        00000000  0000667c  0000667c  00008820  2**0  CONTENTS
  7 .data           0000000c  20001814  0000667c  00008814  2**0  CONTENTS, ALLOC, LOAD, DATA
  8 .bss            00001cf8  20001820  00006688  00008820  2**3  ALLOC
  9 .stack          00000000  20008000  20008000  00008820  2**0  CONTENTS
 10 .debug_info     0000efa4  00000000  00000000  00008820  2**0  CONTENTS, READONLY, DEBUGGING
 11 .debug_abbrev   000026cc  00000000  00000000  000177c4  2**0  CONTENTS, READONLY, DEBUGGING
 12 .debug_loc      00001ef3  00000000  00000000  00019e90  2**0  CONTENTS, READONLY, DEBUGGING
 13 .debug_aranges  00000428  00000000  00000000  0001bd88  2**3  CONTENTS, READONLY, DEBUGGING
 14 .debug_ranges   00000418  00000000  00000000  0001c1b0  2**3  CONTENTS, READONLY, DEBUGGING
 15 .debug_line     00007b8a  00000000  00000000  0001c5c8  2**0  CONTENTS, READONLY, DEBUGGING
 16 .debug_str      00002017  00000000  00000000  00024152  2**0  CONTENTS, READONLY, DEBUGGING
 17 .comment        00000033  00000000  00000000  00026169  2**0  CONTENTS, READONLY
 18 .debug_frame    000008d8  00000000  00000000  0002619c  2**2  CONTENTS, READONLY, DEBUGGING
SYMBOL TABLE:
00000000 l    d  .init	00000000 .init
00000004 l    d  .highcodelalign	00000000 .highcodelalign
20000000 l    d  .highcode	00000000 .highcode
00001818 l    d  .text	00000000 .text
0000667c l    d  .fini	00000000 .fini
20001814 l    d  .dalign	00000000 .dalign
0000667c l    d  .dlalign	00000000 .dlalign
20001814 l    d  .data	00000000 .data
20001820 l    d  .bss	00000000 .bss
20008000 l    d  .stack	00000000 .stack
00000000 l    d  .debug_info	00000000 .debug_info
00000000 l    d  .debug_abbrev	00000000 .debug_abbrev
00000000 l    d  .debug_loc	00000000 .debug_loc
00000000 l    d  .debug_aranges	00000000 .debug_aranges
00000000 l    d  .debug_ranges	00000000 .debug_ranges
00000000 l    d  .debug_line	00000000 .debug_line
00000000 l    d  .debug_str	00000000 .debug_str
00000000 l    d  .comment	00000000 .comment
00000000 l    d  .debug_frame	00000000 .debug_frame
00000000 l    df *ABS*	00000000 ./Startup/startup_CH583.o
20000000 l       .highcode	00000000 _vector_base
00000000 l    df *ABS*	00000000 CH58x_sys.c
00000000 l    df *ABS*	00000000 ISP.c
00000000 l    df *ABS*	00000000 RTC.c
00000000 l    df *ABS*	00000000 USB.c
00000000 l    df *ABS*	00000000 RF_PHY.c
00000000 l    df *ABS*	00000000 RF_main.c
00000000 l    df *ABS*	00000000 ISP583.c
2000045e l       .highcode	00000000 .loop18
2000046c l       .highcode	00000000 .loop29
2000047a l       .highcode	00000000 .loop40
20000706 l       .highcode	00000000 .loop402
00000000 l    df *ABS*	00000000 tmos.c
00002e76 l     F .text	00000024 tmosFindTask
00000000 l    df *ABS*	00000000 tmos_hw.c
20000cbc l     F .highcode	00000032 clockGetHSEValue
20000cee l     F .highcode	00000018 clockGetLSEValue
0000356e l     F .text	00000056 clockGetTickValve
00000000 l    df *ABS*	00000000 bb.c
00000000 l    df *ABS*	00000000 ip.c
00000000 l    df *ABS*	00000000 lle.c
00000000 l    df *ABS*	00000000 rf_fh.c
00004944 l     F .text	00000582 rfRxProcess
00000000 l    df *ABS*	00000000 rfend.c
00000000 l    df *ABS*	00000000 memory.c
00000000 l    df *ABS*	00000000 CH58x_adc.c
00000000 l    df *ABS*	00000000 CH58x_clk.c
00000000 l    df *ABS*	00000000 CH58x_gpio.c
00000000 l    df *ABS*	00000000 CH58x_timer0.c
00000000 l    df *ABS*	00000000 CH58x_usbdev.c
00000000 l    df *ABS*	00000000 LED.c
00001efe l     F .text	0000009c HalLedBlink.part.2
00001fe6 l     F .text	00000056 HalLedSet.part.1
20001834 l     O .bss	00000034 HalLedStatusControl
20001820 l     O .bss	00000001 HalLedState
20001821 l     O .bss	00000001 preBlinkState
00000000 l    df *ABS*	00000000 MCU.c
00000000 l    df *ABS*	00000000 message.c
00000000 l    df *ABS*	00000000 tmos_snv.c
00000000 l    df *ABS*	00000000 ll_connect.c
00000000 l    df *ABS*	00000000 ll_scan.c
00000000 l    df *ABS*	00000000 ll_initiate.c
00000000 l    df *ABS*	00000000 memcpy.c
200033e8 g     O .bss	00000001 nGA2440
00001ed2 g     F .text	00000016 DevEP3_IN_Deal
20001828 g     O .bss	00000004 heartbeat_cnt
00002be2 g     F .text	000000b8 RF_2G4StatusCallBack
20000e56 g     F .highcode	0000003e ll_rx_wait_finish
00001ea6 g     F .text	00000016 DevEP1_IN_Deal
2000047a g     F .highcode	0000000e FLASH_ROM_OUT
20001818 g     O .data	00000001 usbTaskID
20000ab8 g     F .highcode	00000204 TMOS_SystemProcess
0000526a g     F .text	00000034 RFEND_Reset
000026f0 g     F .text	000004f2 USB_DevTransProcess
20002018 g       .data	00000000 __global_pointer$
000018c6 g     F .text	00000028 ADC_InterTSSampInit
200002ac g     F .highcode	0000000e mDelayuS
20000272  w    F .highcode	0000003a HardFault_Handler
200000a2  w      .highcode	00000000 GPIOB_IRQHandler
00002312 g     F .text	00000076 HAL_ProcessEvent
200000a0  w      .highcode	00000000 GPIOA_IRQHandler
20003384 g     O .bss	00000004 gptrBBReg
000033bc g     F .text	0000003c TMOS_ProcessEventRegister
2000009a  w      .highcode	00000000 SysTick_Handler
000026a4 g     F .text	00000026 DevEP3_OUT_Deal
000030d2 g     F .text	00000032 TMOS_GetSystemClock
20001ad8 g     O .bss	00000001 RFtaskID
20000090  w      .highcode	00000000 NMI_Handler
200008aa g     F .highcode	00000012 tmos_memset
2000096e g     F .highcode	0000014a tmos_proces_system_time
200000b4  w      .highcode	00000000 UART1_IRQHandler
0000209c g     F .text	00000036 HAL_LedInit
20000f5e g     F .highcode	00000124 ll_tx_wait_finish
00003a9c g     F .text	000000b4 BB_DevInit
200008bc g     F .highcode	00000014 tmos_strlen
20000e94 g     F .highcode	000000ca ble_ll_chkcrc
2000094c g     F .highcode	00000022 tmos_isbufset
20001820 g       .bss	00000000 _sbss
00004fda g     F .text	0000014a rf_hop_heart_beat
00004ec6 g     F .text	00000090 RF_Shut
2000187c g     O .bss	00000004 RTCTigFlag
2000046c g     F .highcode	0000000e FLASH_ROM_IN
000041c4 g     F .text	00000198 RF_TxProcess
20001880 g     O .bss	00000001 DevConfig
00006664 g     O .text	00000014 VER_LIB
000036ee g     F .text	000000c0 tmos_snv_init
00005124 g     F .text	000000f4 RFFH_ProcessEvent
00002528 g     F .text	000000d8 USB_ProcessEvent
200000b2  w      .highcode	00000000 UART0_IRQHandler
200032e0 g     O .bss	0000002c gTmosPara
00006610 g     O .text	00000012 MyDevDescr
00006402 g     F .text	000000b6 memcpy
20001882 g     O .bss	00000002 SetupReqLen
200033f4 g     O .bss	00000004 MemCtlEnd
00000004 g       .init	00000000 _einit
2000330c g     O .bss	00000004 tasksArr
200033f8 g     O .bss	00000004 MemCtlPartition
20000d08 g     F .highcode	0000014e BB_IRQLibHandler
20001244 g     F .highcode	00000212 LLE_IRQLibHandler
20003310 g     O .bss	0000001c pfnProcessCBs
200000a6  w      .highcode	00000000 BB_IRQHandler
20000508 g     F .highcode	0000036a FLASH_EEPROM_CMD
000061e2 g     F .text	00000014 RFEND_TXFtune
20000098  w      .highcode	00000000 Break_Point_Handler
00001d22 g     F .text	000000a6 GPIOB_ModeCfg
20001884 g     O .bss	00000001 SetupReqCode
2000032c g     F .highcode	00000030 SoftReset
00005412 g     F .text	00000080 RFEND_RXFilter
00002260 g     F .text	00000040 Lib_Write_Flash
00006678 g     O .text	00000004 MyLangDescr
2000037e g     F .highcode	000000c6 TMR0_IRQHandler
20001658 g     F .highcode	000000d2 tmos_memory_allocate
2000332c g     O .bss	00000002 eventsClear
2000044c g     F .highcode	00000012 FLASH_ROM_BEG
00006530 g     O .text	0000003e KeyRepDesc
20000930 g     F .highcode	0000001c tmos_revmemcpy
00002e9a g     F .text	00000086 TMOS_CB_PeriodicProcessEvent
200002ba g     F .highcode	00000028 mDelaymS
20000094  w      .highcode	00000000 Ecall_M_Mode_Handler
00003db0 g     F .text	000000a4 ll_multi_states_process
000065a4 g     O .text	0000006b MyCfgDescr
0000393e g     F .text	0000015e LL_ScanSetRF
20000488 g     F .highcode	00000048 FLASH_ROM_ADDR
000037ae g     F .text	00000190 LL_GetNextConnectEventTime
20001456 g     F .highcode	00000082 RF_HopGetChannel
20001878 g     O .bss	00000001 halTaskID
20000444 g     F .highcode	00000008 Main_Circulation
2000337c g     O .bss	00000004 fnGetClockCBs
000033f8 g     F .text	00000176 BLE_LibInit
00006624 g     O .text	0000000e MyManuInfo
00004016 g     F .text	00000058 LLE_DevInit
00003b50 g     F .text	0000012c BLE_SetPHYTxMode
200033fc g     O .bss	00000004 MemCtlStart
20001628 g     F .highcode	00000030 RFEND_WaitTune
0000435c g     F .text	0000011e RF_Config
0000447a g     F .text	000002c6 RF_Tx
00003104 g     F .text	0000002e tmos_set_event
2000035c g     F .highcode	00000016 RTC_IRQHandler
20003518 g       .bss	00000000 _ebss
0000629a g     F .text	00000168 LL_InitiateSetRF
000035c4 g     F .text	00000062 TMOS_TempSample
20001888 g     O .bss	00000004 pDescr
2000188c g     O .bss	000000c0 EP0_Databuf
00003d7c g     F .text	00000034 ll_multi_states_check
0000249c g     F .text	00000036 HAL_Init
200004d0 g     F .highcode	00000038 FLASH_ROM_WAIT
00003e54 g     F .text	0000008c ble_ll_hw_api_shut
00002058 g     F .text	00000044 HalLedSet
20001082 g     F .highcode	000001c2 BLE_CheckHoppingMap
200033e9 g     O .bss	00000001 nGA2480
20003380 g     O .bss	00000004 gptrAESReg
00004f56 g     F .text	00000084 RF_FrequencyHoppingShut
0000529e g     F .text	00000174 RFEND_DevInit
00002388 g     F .text	00000114 CH58X_BLEInit
200000c0  w      .highcode	00000000 UART2_IRQHandler
00001f9a g     F .text	0000004c HalLedOnOff
200000bc  w      .highcode	00000000 PWMX_IRQHandler
200032dc g     O .bss	00000004 msg_qHead
00003c7c g     F .text	00000100 BLE_SetPHYRxMode
2000182f g     O .bss	00000001 nCO2401
20003388 g     O .bss	00000004 gPaControl
2000194c g     O .bss	00000080 EP1_Databuf
00000000 g       .init	00000000 _start
00004740 g     F .text	00000204 RF_Rx
00001ee8 g     F .text	00000016 DevEP4_IN_Deal
00003f9a g     F .text	0000007c BLE_IPCoreInit
200000b8  w      .highcode	00000000 ADC_IRQHandler
20001868 g     O .bss	00000004 pEP2_RAM_Addr
20000000 g       .highcode	00000000 _highcode_vma_start
200008d0 g     F .highcode	00000032 tmos_memdup
20003330 g     O .bss	00000004 EventsArr
200000b0  w      .highcode	00000000 TMR2_IRQHandler
00006640 g     O .text	00000021 VolumeRepDesc
20001814 g       .data	00000000 _data_vma
2000186c g     O .bss	00000004 pEP3_RAM_Addr
200033ec g     O .bss	00000004 gptrRFENDReg
00006570 g     O .text	00000034 MouseRepDesc
200019cc g     O .bss	00000009 HID_dat
200019d8 g     O .bss	00000080 EP2_Databuf
200000c6 g     F .highcode	00000170 SetSysClock
20001831 g     O .bss	00000001 l2capNumRecvDataPkts
20000372 g     F .highcode	0000000c USB_IRQHandler
0000267e g     F .text	00000026 DevEP2_OUT_Deal
20003400 g     O .bss	00000118 gBleLlPara
20000d06 g     F .highcode	00000002 TMOS_TimerIRQHandler
00002658 g     F .text	00000026 DevEP1_OUT_Deal
200014d8 g     F .highcode	000000b6 RF_FrequencyHoppingGet
20001adc g     O .bss	00001800 MEM_BUF
200033ac g     O .bss	00000020 rfConfig
000061f6 g     F .text	0000002c tmos_memory_getlen
20001870 g     O .bss	00000004 pEP0_RAM_Addr
20000902 g     F .highcode	0000002e tmos_memcmp
00001e28 g     F .text	0000007e USB_DeviceInit
200000ba  w      .highcode	00000000 I2C_IRQHandler
200033a8 g     O .bss	00000004 gptrLLEReg
00002da6 g     F .text	0000002a main
00002f20 g     F .text	00000080 TMOS_CB_ProcessEvent
0000203c g     F .text	0000001c HalLedBlink
2000158e g     F .highcode	0000009a RF_FrequencyHoppingChange
00005218 g     F .text	00000052 RF_RoleInit
2000172a g     F .highcode	000000e8 tmos_memory_free
00002600 g     F .text	00000058 HAL_USBInit
200000ac  w      .highcode	00000000 USB2_IRQHandler
00003ee0 g     F .text	000000ba BLE_RegInit
000032c6 g     F .text	000000f6 TMOS_Init
00003164 g     F .text	000000e0 tmos_start_task
00006634 g     O .text	0000000a MyProdInfo
000024d2 g     F .text	00000056 HAL_TimeInit
20001822 g     O .bss	00000001 USB_Ready
00002c9a g     F .text	0000006a RF_ProcessEvent
00000004 g       .highcodelalign	00000000 _highcode_lma
00002d04 g     F .text	000000a2 RF_Init
00003244 g     F .text	0000004e tmos_stop_task
200000a8  w      .highcode	00000000 LLE_IRQHandler
20001824 g     O .bss	00000002 LEDOUT_DATA
00000000 g       .init	00000000 _sinit
00001ebc g     F .text	00000016 DevEP2_IN_Deal
20003334 g     O .bss	00000004 taskHead
000020d2 g     F .text	0000016c HalLedUpdate
00006222 g     F .text	00000078 tmos_memory_init
00005492 g     F .text	0000003a RFEND_RXAdc
000041a6 g     F .text	0000001e rf_stop
200000c4  w      .highcode	00000000 WDOG_BAT_IRQHandler
20000096  w      .highcode	00000000 Ecall_U_Mode_Handler
200000be  w      .highcode	00000000 TMR3_IRQHandler
0000223e g     F .text	00000006 Lib_Calibration_LSI
20008000 g       .stack	00000000 _eusrstack
2000009c  w      .highcode	00000000 SW_Handler
20000892 g     F .highcode	00000018 tmos_memcpy_word
20003338 g     O .bss	0000003c ble
200033f0 g     O .bss	00000001 nCO2440
00001dc8 g     F .text	00000042 GetSysClock
20001830 g     O .bss	00000001 nGA2401
20001820 g       .data	00000000 _edata
200000a4  w      .highcode	00000000 SPI0_IRQHandler
00002dd0 g     F .text	0000002c tmos_msg_deallocate
20001814 g       .highcode	00000000 _highcode_vma_end
20003374 g     O .bss	00000004 cbTimersHead
0000667c g       .dlalign	00000000 _data_lma
00003132 g     F .text	00000032 tmos_clear_event
000022a0 g     F .text	00000072 HAL_GetInterTempValue
00002244 g     F .text	0000001c Lib_Read_Flash
20000872 g     F .highcode	00000020 tmos_memcpy
2000338c g     O .bss	0000001c gBleIPPara
00001e0a g     F .text	0000000a SYS_GetSysTickCnt
00001818  w      .text	00000000 handle_reset
200002e2 g     F .highcode	0000004a APPJumpBoot
00002fa0 g     F .text	00000132 tmos_proces_sleep
000054cc g     F .text	00000d16 RFEND_TXCtune
20001a58 g     O .bss	00000080 EP3_Databuf
200000c2  w      .highcode	00000000 UART3_IRQHandler
00001b94 g     F .text	0000018e RTC_InitTime
000032b0 g     F .text	00000016 TMOS_ProcessRegister
2000045e g     F .highcode	0000000e FLASH_ROM_END
00002dfc g     F .text	00000070 tmos_msg_receive
200033cc g     O .bss	0000001c rfInfo
00003292 g     F .text	0000001e TMOS_TimerRegister
000026ca g     F .text	00000026 DevEP4_OUT_Deal
200033f1 g     O .bss	00000001 nCO2480
200000ae  w      .highcode	00000000 TMR1_IRQHandler
00003626 g     F .text	000000c8 TMOS_TimerInit
000018ee g     F .text	000002a6 Calibration_LSI
20001874 g     O .bss	00000004 pEP1_RAM_Addr
20003378 g     O .bss	00000004 pfnTimerCBs
00002e6c g     F .text	0000000a tmos_msg_init
0000406e g     F .text	00000138 RF_DevSetChannel
20000236 g     F .highcode	0000003c SYS_ResetExecute
00001e14 g     F .text	00000014 TMR0_TimerInit
2000182c g     O .bss	00000003 lastevent



Disassembly of section .init:

00000000 <_sinit>:
_start():
E:\Project\tp78_v2\mounriver_project\RF_CH582M\obj/../Startup/startup_CH583.S:15

	.section	.init,"ax",@progbits
	.global	_start
	.align	1
_start:
	j	handle_reset
   0:	0190106f          	j	1818 <handle_reset>

Disassembly of section .highcode:

20000000 <_highcode_vma_start>:
	...
_vector_base():
20000008:	0090                	addi	a2,sp,64
2000000a:	2000                	fld	fs0,0(s0)
2000000c:	0272                	slli	tp,tp,0x1c
2000000e:	2000                	fld	fs0,0(s0)
20000010:	bda9                	j	1ffffe6a <_data_lma+0x1fff97ee>
20000012:	f5f9                	bnez	a1,1fffffe0 <_data_lma+0x1fff9964>
20000014:	0094                	addi	a3,sp,64
20000016:	2000                	fld	fs0,0(s0)
	...
20000020:	0096                	slli	ra,ra,0x5
20000022:	2000                	fld	fs0,0(s0)
20000024:	0098                	addi	a4,sp,64
20000026:	2000                	fld	fs0,0(s0)
	...
20000030:	009a                	slli	ra,ra,0x6
20000032:	2000                	fld	fs0,0(s0)
20000034:	0000                	unimp
20000036:	0000                	unimp
20000038:	009c                	addi	a5,sp,64
2000003a:	2000                	fld	fs0,0(s0)
2000003c:	0000                	unimp
2000003e:	0000                	unimp
20000040:	037e                	slli	t1,t1,0x1f
20000042:	2000                	fld	fs0,0(s0)
20000044:	00a0                	addi	s0,sp,72
20000046:	2000                	fld	fs0,0(s0)
20000048:	00a2                	slli	ra,ra,0x8
2000004a:	2000                	fld	fs0,0(s0)
2000004c:	00a4                	addi	s1,sp,72
2000004e:	2000                	fld	fs0,0(s0)
20000050:	00a6                	slli	ra,ra,0x9
20000052:	2000                	fld	fs0,0(s0)
20000054:	00a8                	addi	a0,sp,72
20000056:	2000                	fld	fs0,0(s0)
20000058:	0372                	slli	t1,t1,0x1c
2000005a:	2000                	fld	fs0,0(s0)
2000005c:	00ac                	addi	a1,sp,72
2000005e:	2000                	fld	fs0,0(s0)
20000060:	00ae                	slli	ra,ra,0xb
20000062:	2000                	fld	fs0,0(s0)
20000064:	00b0                	addi	a2,sp,72
20000066:	2000                	fld	fs0,0(s0)
20000068:	00b2                	slli	ra,ra,0xc
2000006a:	2000                	fld	fs0,0(s0)
2000006c:	00b4                	addi	a3,sp,72
2000006e:	2000                	fld	fs0,0(s0)
20000070:	035c                	addi	a5,sp,388
20000072:	2000                	fld	fs0,0(s0)
20000074:	00b8                	addi	a4,sp,72
20000076:	2000                	fld	fs0,0(s0)
20000078:	00ba                	slli	ra,ra,0xe
2000007a:	2000                	fld	fs0,0(s0)
2000007c:	00bc                	addi	a5,sp,72
2000007e:	2000                	fld	fs0,0(s0)
20000080:	00be                	slli	ra,ra,0xf
20000082:	2000                	fld	fs0,0(s0)
20000084:	00c0                	addi	s0,sp,68
20000086:	2000                	fld	fs0,0(s0)
20000088:	00c2                	slli	ra,ra,0x10
2000008a:	2000                	fld	fs0,0(s0)
2000008c:	00c4                	addi	s1,sp,68
2000008e:	2000                	fld	fs0,0(s0)

20000090 <NMI_Handler>:
NMI_Handler():
E:\Project\tp78_v2\mounriver_project\RF_CH582M\obj/../Startup/startup_CH583.S:91
    .weak   TMR3_IRQHandler
    .weak   UART2_IRQHandler
    .weak   UART3_IRQHandler
    .weak   WDOG_BAT_IRQHandler

NMI_Handler:         1:  j 1b
20000090:	a001                	j	20000090 <NMI_Handler>
E:\Project\tp78_v2\mounriver_project\RF_CH582M\obj/../Startup/startup_CH583.S:92
HardFault_Handler:   1:  j 1b
20000092:	a001                	j	20000092 <NMI_Handler+0x2>

20000094 <Ecall_M_Mode_Handler>:
Ecall_M_Mode_Handler():
E:\Project\tp78_v2\mounriver_project\RF_CH582M\obj/../Startup/startup_CH583.S:93
Ecall_M_Mode_Handler:   1:  j 1b
20000094:	a001                	j	20000094 <Ecall_M_Mode_Handler>

20000096 <Ecall_U_Mode_Handler>:
Ecall_U_Mode_Handler():
E:\Project\tp78_v2\mounriver_project\RF_CH582M\obj/../Startup/startup_CH583.S:94
Ecall_U_Mode_Handler:   1:  j 1b
20000096:	a001                	j	20000096 <Ecall_U_Mode_Handler>

20000098 <Break_Point_Handler>:
Break_Point_Handler():
E:\Project\tp78_v2\mounriver_project\RF_CH582M\obj/../Startup/startup_CH583.S:95
Break_Point_Handler:   1:  j 1b
20000098:	a001                	j	20000098 <Break_Point_Handler>

2000009a <SysTick_Handler>:
SysTick_Handler():
E:\Project\tp78_v2\mounriver_project\RF_CH582M\obj/../Startup/startup_CH583.S:96
SysTick_Handler:     1:  j 1b
2000009a:	a001                	j	2000009a <SysTick_Handler>

2000009c <SW_Handler>:
SW_Handler():
E:\Project\tp78_v2\mounriver_project\RF_CH582M\obj/../Startup/startup_CH583.S:97
SW_Handler:          1:  j 1b
2000009c:	a001                	j	2000009c <SW_Handler>
E:\Project\tp78_v2\mounriver_project\RF_CH582M\obj/../Startup/startup_CH583.S:98
TMR0_IRQHandler:     1:  j 1b
2000009e:	a001                	j	2000009e <SW_Handler+0x2>

200000a0 <GPIOA_IRQHandler>:
GPIOA_IRQHandler():
E:\Project\tp78_v2\mounriver_project\RF_CH582M\obj/../Startup/startup_CH583.S:99
GPIOA_IRQHandler:    1:  j 1b
200000a0:	a001                	j	200000a0 <GPIOA_IRQHandler>

200000a2 <GPIOB_IRQHandler>:
GPIOB_IRQHandler():
E:\Project\tp78_v2\mounriver_project\RF_CH582M\obj/../Startup/startup_CH583.S:100
GPIOB_IRQHandler:    1:  j 1b
200000a2:	a001                	j	200000a2 <GPIOB_IRQHandler>

200000a4 <SPI0_IRQHandler>:
SPI0_IRQHandler():
E:\Project\tp78_v2\mounriver_project\RF_CH582M\obj/../Startup/startup_CH583.S:101
SPI0_IRQHandler:     1:  j 1b
200000a4:	a001                	j	200000a4 <SPI0_IRQHandler>

200000a6 <BB_IRQHandler>:
BB_IRQHandler():
E:\Project\tp78_v2\mounriver_project\RF_CH582M\obj/../Startup/startup_CH583.S:102
BB_IRQHandler:       1:  j 1b
200000a6:	a001                	j	200000a6 <BB_IRQHandler>

200000a8 <LLE_IRQHandler>:
LLE_IRQHandler():
E:\Project\tp78_v2\mounriver_project\RF_CH582M\obj/../Startup/startup_CH583.S:103
LLE_IRQHandler:      1:  j 1b
200000a8:	a001                	j	200000a8 <LLE_IRQHandler>
E:\Project\tp78_v2\mounriver_project\RF_CH582M\obj/../Startup/startup_CH583.S:104
USB_IRQHandler:      1:  j 1b
200000aa:	a001                	j	200000aa <LLE_IRQHandler+0x2>

200000ac <USB2_IRQHandler>:
USB2_IRQHandler():
E:\Project\tp78_v2\mounriver_project\RF_CH582M\obj/../Startup/startup_CH583.S:105
USB2_IRQHandler:      1:  j 1b
200000ac:	a001                	j	200000ac <USB2_IRQHandler>

200000ae <TMR1_IRQHandler>:
TMR1_IRQHandler():
E:\Project\tp78_v2\mounriver_project\RF_CH582M\obj/../Startup/startup_CH583.S:106
TMR1_IRQHandler:     1:  j 1b
200000ae:	a001                	j	200000ae <TMR1_IRQHandler>

200000b0 <TMR2_IRQHandler>:
TMR2_IRQHandler():
E:\Project\tp78_v2\mounriver_project\RF_CH582M\obj/../Startup/startup_CH583.S:107
TMR2_IRQHandler:     1:  j 1b
200000b0:	a001                	j	200000b0 <TMR2_IRQHandler>

200000b2 <UART0_IRQHandler>:
UART0_IRQHandler():
E:\Project\tp78_v2\mounriver_project\RF_CH582M\obj/../Startup/startup_CH583.S:108
UART0_IRQHandler:    1:  j 1b
200000b2:	a001                	j	200000b2 <UART0_IRQHandler>

200000b4 <UART1_IRQHandler>:
UART1_IRQHandler():
E:\Project\tp78_v2\mounriver_project\RF_CH582M\obj/../Startup/startup_CH583.S:109
UART1_IRQHandler:    1:  j 1b
200000b4:	a001                	j	200000b4 <UART1_IRQHandler>
E:\Project\tp78_v2\mounriver_project\RF_CH582M\obj/../Startup/startup_CH583.S:110
RTC_IRQHandler:      1:  j 1b
200000b6:	a001                	j	200000b6 <UART1_IRQHandler+0x2>

200000b8 <ADC_IRQHandler>:
ADC_IRQHandler():
E:\Project\tp78_v2\mounriver_project\RF_CH582M\obj/../Startup/startup_CH583.S:111
ADC_IRQHandler:      1:  j 1b
200000b8:	a001                	j	200000b8 <ADC_IRQHandler>

200000ba <I2C_IRQHandler>:
I2C_IRQHandler():
E:\Project\tp78_v2\mounriver_project\RF_CH582M\obj/../Startup/startup_CH583.S:112
I2C_IRQHandler:		 1:  j 1b
200000ba:	a001                	j	200000ba <I2C_IRQHandler>

200000bc <PWMX_IRQHandler>:
PWMX_IRQHandler():
E:\Project\tp78_v2\mounriver_project\RF_CH582M\obj/../Startup/startup_CH583.S:113
PWMX_IRQHandler:     1:  j 1b
200000bc:	a001                	j	200000bc <PWMX_IRQHandler>

200000be <TMR3_IRQHandler>:
TMR3_IRQHandler():
E:\Project\tp78_v2\mounriver_project\RF_CH582M\obj/../Startup/startup_CH583.S:114
TMR3_IRQHandler:     1:  j 1b
200000be:	a001                	j	200000be <TMR3_IRQHandler>

200000c0 <UART2_IRQHandler>:
UART2_IRQHandler():
E:\Project\tp78_v2\mounriver_project\RF_CH582M\obj/../Startup/startup_CH583.S:115
UART2_IRQHandler:    1:  j 1b
200000c0:	a001                	j	200000c0 <UART2_IRQHandler>

200000c2 <UART3_IRQHandler>:
UART3_IRQHandler():
E:\Project\tp78_v2\mounriver_project\RF_CH582M\obj/../Startup/startup_CH583.S:116
UART3_IRQHandler:    1:  j 1b
200000c2:	a001                	j	200000c2 <UART3_IRQHandler>

200000c4 <WDOG_BAT_IRQHandler>:
WDOG_BAT_IRQHandler():
E:\Project\tp78_v2\mounriver_project\RF_CH582M\obj/../Startup/startup_CH583.S:117
WDOG_BAT_IRQHandler: 1:  j 1b
200000c4:	a001                	j	200000c4 <WDOG_BAT_IRQHandler>

200000c6 <SetSysClock>:
SetSysClock():
E:\Project\tp78_v2\mounriver_project\RF_CH582M\obj/../StdPeriphDriver/CH58x_sys.c:26
 */
__HIGH_CODE
void SetSysClock(SYS_CLKTypeDef sc)
{
    uint32_t i;
    R8_SAFE_ACCESS_SIG = SAFE_ACCESS_SIG1;
200000c6:	400017b7          	lui	a5,0x40001
200000ca:	05700693          	li	a3,87
200000ce:	04d78023          	sb	a3,64(a5) # 40001040 <_eusrstack+0x1fff9040>
E:\Project\tp78_v2\mounriver_project\RF_CH582M\obj/../StdPeriphDriver/CH58x_sys.c:27
    R8_SAFE_ACCESS_SIG = SAFE_ACCESS_SIG2;
200000d2:	fa800713          	li	a4,-88
200000d6:	04e78023          	sb	a4,64(a5)
E:\Project\tp78_v2\mounriver_project\RF_CH582M\obj/../StdPeriphDriver/CH58x_sys.c:28
    SAFEOPERATE;
200000da:	0001                	nop
200000dc:	0001                	nop
E:\Project\tp78_v2\mounriver_project\RF_CH582M\obj/../StdPeriphDriver/CH58x_sys.c:29
    R8_PLL_CONFIG &= ~(1 << 5); //
200000de:	04b7c603          	lbu	a2,75(a5)
200000e2:	0df67613          	andi	a2,a2,223
200000e6:	04c785a3          	sb	a2,75(a5)
E:\Project\tp78_v2\mounriver_project\RF_CH582M\obj/../StdPeriphDriver/CH58x_sys.c:30
    R8_SAFE_ACCESS_SIG = 0;
200000ea:	04078023          	sb	zero,64(a5)
E:\Project\tp78_v2\mounriver_project\RF_CH582M\obj/../StdPeriphDriver/CH58x_sys.c:31
    if(sc & 0x20)
200000ee:	02057613          	andi	a2,a0,32
200000f2:	ce59                	beqz	a2,20000190 <SetSysClock+0xca>
E:\Project\tp78_v2\mounriver_project\RF_CH582M\obj/../StdPeriphDriver/CH58x_sys.c:33
    { // HSE div
        if(!(R8_HFCK_PWR_CTRL & RB_CLK_XT32M_PON))
200000f4:	00a7c603          	lbu	a2,10(a5)
200000f8:	8a11                	andi	a2,a2,4
200000fa:	e21d                	bnez	a2,20000120 <SetSysClock+0x5a>
E:\Project\tp78_v2\mounriver_project\RF_CH582M\obj/../StdPeriphDriver/CH58x_sys.c:35
        {
            R8_SAFE_ACCESS_SIG = SAFE_ACCESS_SIG1;
200000fc:	04d78023          	sb	a3,64(a5)
E:\Project\tp78_v2\mounriver_project\RF_CH582M\obj/../StdPeriphDriver/CH58x_sys.c:36
            R8_SAFE_ACCESS_SIG = SAFE_ACCESS_SIG2;
20000100:	04e78023          	sb	a4,64(a5)
E:\Project\tp78_v2\mounriver_project\RF_CH582M\obj/../StdPeriphDriver/CH58x_sys.c:37
            SAFEOPERATE;
20000104:	0001                	nop
20000106:	0001                	nop
E:\Project\tp78_v2\mounriver_project\RF_CH582M\obj/../StdPeriphDriver/CH58x_sys.c:38
            R8_HFCK_PWR_CTRL |= RB_CLK_XT32M_PON; // HSE power on
20000108:	00a7c703          	lbu	a4,10(a5)
2000010c:	00476713          	ori	a4,a4,4
20000110:	00e78523          	sb	a4,10(a5)
20000114:	4b000793          	li	a5,1200
E:\Project\tp78_v2\mounriver_project\RF_CH582M\obj/../StdPeriphDriver/CH58x_sys.c:41 (discriminator 3)
            for(i = 0; i < 1200; i++)
            {
                __nop();
20000118:	0001                	nop
E:\Project\tp78_v2\mounriver_project\RF_CH582M\obj/../StdPeriphDriver/CH58x_sys.c:42 (discriminator 3)
                __nop();
2000011a:	0001                	nop
2000011c:	17fd                	addi	a5,a5,-1
E:\Project\tp78_v2\mounriver_project\RF_CH582M\obj/../StdPeriphDriver/CH58x_sys.c:39 (discriminator 3)
            for(i = 0; i < 1200; i++)
2000011e:	ffed                	bnez	a5,20000118 <SetSysClock+0x52>
E:\Project\tp78_v2\mounriver_project\RF_CH582M\obj/../StdPeriphDriver/CH58x_sys.c:46
            }
        }

        R8_SAFE_ACCESS_SIG = SAFE_ACCESS_SIG1;
20000120:	400017b7          	lui	a5,0x40001
20000124:	05700693          	li	a3,87
20000128:	04d78023          	sb	a3,64(a5) # 40001040 <_eusrstack+0x1fff9040>
E:\Project\tp78_v2\mounriver_project\RF_CH582M\obj/../StdPeriphDriver/CH58x_sys.c:47
        R8_SAFE_ACCESS_SIG = SAFE_ACCESS_SIG2;
2000012c:	fa800713          	li	a4,-88
20000130:	04e78023          	sb	a4,64(a5)
E:\Project\tp78_v2\mounriver_project\RF_CH582M\obj/../StdPeriphDriver/CH58x_sys.c:48
        SAFEOPERATE;
20000134:	0001                	nop
20000136:	0001                	nop
E:\Project\tp78_v2\mounriver_project\RF_CH582M\obj/../StdPeriphDriver/CH58x_sys.c:49
        R16_CLK_SYS_CFG = (0 << 6) | (sc & 0x1f);
20000138:	897d                	andi	a0,a0,31
2000013a:	00a79423          	sh	a0,8(a5)
E:\Project\tp78_v2\mounriver_project\RF_CH582M\obj/../StdPeriphDriver/CH58x_sys.c:50
        __nop();
2000013e:	0001                	nop
E:\Project\tp78_v2\mounriver_project\RF_CH582M\obj/../StdPeriphDriver/CH58x_sys.c:51
        __nop();
20000140:	0001                	nop
E:\Project\tp78_v2\mounriver_project\RF_CH582M\obj/../StdPeriphDriver/CH58x_sys.c:52
        __nop();
20000142:	0001                	nop
E:\Project\tp78_v2\mounriver_project\RF_CH582M\obj/../StdPeriphDriver/CH58x_sys.c:53
        __nop();
20000144:	0001                	nop
E:\Project\tp78_v2\mounriver_project\RF_CH582M\obj/../StdPeriphDriver/CH58x_sys.c:54
        R8_SAFE_ACCESS_SIG = 0;
20000146:	04078023          	sb	zero,64(a5)
E:\Project\tp78_v2\mounriver_project\RF_CH582M\obj/../StdPeriphDriver/CH58x_sys.c:55
        R8_SAFE_ACCESS_SIG = SAFE_ACCESS_SIG1;
2000014a:	04d78023          	sb	a3,64(a5)
E:\Project\tp78_v2\mounriver_project\RF_CH582M\obj/../StdPeriphDriver/CH58x_sys.c:56
        R8_SAFE_ACCESS_SIG = SAFE_ACCESS_SIG2;
2000014e:	04e78023          	sb	a4,64(a5)
E:\Project\tp78_v2\mounriver_project\RF_CH582M\obj/../StdPeriphDriver/CH58x_sys.c:57
        SAFEOPERATE;
20000152:	0001                	nop
20000154:	0001                	nop
E:\Project\tp78_v2\mounriver_project\RF_CH582M\obj/../StdPeriphDriver/CH58x_sys.c:58
        R8_FLASH_CFG = 0X51;
20000156:	40002737          	lui	a4,0x40002
2000015a:	05100693          	li	a3,81
E:\Project\tp78_v2\mounriver_project\RF_CH582M\obj/../StdPeriphDriver/CH58x_sys.c:90
        if(sc == CLK_SOURCE_PLL_80MHz)
        {
            R8_SAFE_ACCESS_SIG = SAFE_ACCESS_SIG1;
            R8_SAFE_ACCESS_SIG = SAFE_ACCESS_SIG2;
            SAFEOPERATE;
            R8_FLASH_CFG = 0X02;
2000015e:	80d703a3          	sb	a3,-2041(a4) # 40001807 <_eusrstack+0x1fff9807>
E:\Project\tp78_v2\mounriver_project\RF_CH582M\obj/../StdPeriphDriver/CH58x_sys.c:91
            R8_SAFE_ACCESS_SIG = 0;
20000162:	04078023          	sb	zero,64(a5)
E:\Project\tp78_v2\mounriver_project\RF_CH582M\obj/../StdPeriphDriver/CH58x_sys.c:110
        R8_SAFE_ACCESS_SIG = SAFE_ACCESS_SIG2;
        SAFEOPERATE;
        R16_CLK_SYS_CFG |= RB_CLK_SYS_MOD;
    }
    //更改FLASH clk的驱动能力
    R8_SAFE_ACCESS_SIG = SAFE_ACCESS_SIG1;
20000166:	400017b7          	lui	a5,0x40001
2000016a:	05700713          	li	a4,87
2000016e:	04e78023          	sb	a4,64(a5) # 40001040 <_eusrstack+0x1fff9040>
E:\Project\tp78_v2\mounriver_project\RF_CH582M\obj/../StdPeriphDriver/CH58x_sys.c:111
    R8_SAFE_ACCESS_SIG = SAFE_ACCESS_SIG2;
20000172:	fa800713          	li	a4,-88
20000176:	04e78023          	sb	a4,64(a5)
E:\Project\tp78_v2\mounriver_project\RF_CH582M\obj/../StdPeriphDriver/CH58x_sys.c:112
    SAFEOPERATE;
2000017a:	0001                	nop
2000017c:	0001                	nop
E:\Project\tp78_v2\mounriver_project\RF_CH582M\obj/../StdPeriphDriver/CH58x_sys.c:113
    R8_PLL_CONFIG |= 1 << 7;
2000017e:	04b7c703          	lbu	a4,75(a5)
20000182:	08076713          	ori	a4,a4,128
20000186:	04e785a3          	sb	a4,75(a5)
E:\Project\tp78_v2\mounriver_project\RF_CH582M\obj/../StdPeriphDriver/CH58x_sys.c:114
    R8_SAFE_ACCESS_SIG = 0;
2000018a:	04078023          	sb	zero,64(a5)
E:\Project\tp78_v2\mounriver_project\RF_CH582M\obj/../StdPeriphDriver/CH58x_sys.c:115
}
2000018e:	8082                	ret
E:\Project\tp78_v2\mounriver_project\RF_CH582M\obj/../StdPeriphDriver/CH58x_sys.c:62
    else if(sc & 0x40)
20000190:	04057613          	andi	a2,a0,64
20000194:	c641                	beqz	a2,2000021c <SetSysClock+0x156>
E:\Project\tp78_v2\mounriver_project\RF_CH582M\obj/../StdPeriphDriver/CH58x_sys.c:64
        if(!(R8_HFCK_PWR_CTRL & RB_CLK_PLL_PON))
20000196:	00a7c603          	lbu	a2,10(a5)
2000019a:	8a41                	andi	a2,a2,16
2000019c:	e21d                	bnez	a2,200001c2 <SetSysClock+0xfc>
E:\Project\tp78_v2\mounriver_project\RF_CH582M\obj/../StdPeriphDriver/CH58x_sys.c:66
            R8_SAFE_ACCESS_SIG = SAFE_ACCESS_SIG1;
2000019e:	04d78023          	sb	a3,64(a5)
E:\Project\tp78_v2\mounriver_project\RF_CH582M\obj/../StdPeriphDriver/CH58x_sys.c:67
            R8_SAFE_ACCESS_SIG = SAFE_ACCESS_SIG2;
200001a2:	04e78023          	sb	a4,64(a5)
E:\Project\tp78_v2\mounriver_project\RF_CH582M\obj/../StdPeriphDriver/CH58x_sys.c:68
            SAFEOPERATE;
200001a6:	0001                	nop
200001a8:	0001                	nop
E:\Project\tp78_v2\mounriver_project\RF_CH582M\obj/../StdPeriphDriver/CH58x_sys.c:69
            R8_HFCK_PWR_CTRL |= RB_CLK_PLL_PON; // PLL power on
200001aa:	00a7c703          	lbu	a4,10(a5)
200001ae:	01076713          	ori	a4,a4,16
200001b2:	00e78523          	sb	a4,10(a5)
200001b6:	7d000793          	li	a5,2000
E:\Project\tp78_v2\mounriver_project\RF_CH582M\obj/../StdPeriphDriver/CH58x_sys.c:72 (discriminator 3)
                __nop();
200001ba:	0001                	nop
E:\Project\tp78_v2\mounriver_project\RF_CH582M\obj/../StdPeriphDriver/CH58x_sys.c:73 (discriminator 3)
                __nop();
200001bc:	0001                	nop
200001be:	17fd                	addi	a5,a5,-1
E:\Project\tp78_v2\mounriver_project\RF_CH582M\obj/../StdPeriphDriver/CH58x_sys.c:70 (discriminator 3)
            for(i = 0; i < 2000; i++)
200001c0:	ffed                	bnez	a5,200001ba <SetSysClock+0xf4>
E:\Project\tp78_v2\mounriver_project\RF_CH582M\obj/../StdPeriphDriver/CH58x_sys.c:76
        R8_SAFE_ACCESS_SIG = SAFE_ACCESS_SIG1;
200001c2:	400017b7          	lui	a5,0x40001
200001c6:	05700693          	li	a3,87
200001ca:	04d78023          	sb	a3,64(a5) # 40001040 <_eusrstack+0x1fff9040>
E:\Project\tp78_v2\mounriver_project\RF_CH582M\obj/../StdPeriphDriver/CH58x_sys.c:77
        R8_SAFE_ACCESS_SIG = SAFE_ACCESS_SIG2;
200001ce:	fa800713          	li	a4,-88
200001d2:	04e78023          	sb	a4,64(a5)
E:\Project\tp78_v2\mounriver_project\RF_CH582M\obj/../StdPeriphDriver/CH58x_sys.c:78
        SAFEOPERATE;
200001d6:	0001                	nop
200001d8:	0001                	nop
E:\Project\tp78_v2\mounriver_project\RF_CH582M\obj/../StdPeriphDriver/CH58x_sys.c:79
        R16_CLK_SYS_CFG = (1 << 6) | (sc & 0x1f);
200001da:	01f57613          	andi	a2,a0,31
200001de:	04066613          	ori	a2,a2,64
200001e2:	00c79423          	sh	a2,8(a5)
E:\Project\tp78_v2\mounriver_project\RF_CH582M\obj/../StdPeriphDriver/CH58x_sys.c:80
        __nop();
200001e6:	0001                	nop
E:\Project\tp78_v2\mounriver_project\RF_CH582M\obj/../StdPeriphDriver/CH58x_sys.c:81
        __nop();
200001e8:	0001                	nop
E:\Project\tp78_v2\mounriver_project\RF_CH582M\obj/../StdPeriphDriver/CH58x_sys.c:82
        __nop();
200001ea:	0001                	nop
E:\Project\tp78_v2\mounriver_project\RF_CH582M\obj/../StdPeriphDriver/CH58x_sys.c:83
        __nop();
200001ec:	0001                	nop
E:\Project\tp78_v2\mounriver_project\RF_CH582M\obj/../StdPeriphDriver/CH58x_sys.c:84
        R8_SAFE_ACCESS_SIG = 0;
200001ee:	04078023          	sb	zero,64(a5)
E:\Project\tp78_v2\mounriver_project\RF_CH582M\obj/../StdPeriphDriver/CH58x_sys.c:87
            R8_SAFE_ACCESS_SIG = SAFE_ACCESS_SIG1;
200001f2:	04d78023          	sb	a3,64(a5)
E:\Project\tp78_v2\mounriver_project\RF_CH582M\obj/../StdPeriphDriver/CH58x_sys.c:85
        if(sc == CLK_SOURCE_PLL_80MHz)
200001f6:	04600613          	li	a2,70
E:\Project\tp78_v2\mounriver_project\RF_CH582M\obj/../StdPeriphDriver/CH58x_sys.c:88
            R8_SAFE_ACCESS_SIG = SAFE_ACCESS_SIG2;
200001fa:	04e78023          	sb	a4,64(a5)
E:\Project\tp78_v2\mounriver_project\RF_CH582M\obj/../StdPeriphDriver/CH58x_sys.c:85
        if(sc == CLK_SOURCE_PLL_80MHz)
200001fe:	00c51863          	bne	a0,a2,2000020e <SetSysClock+0x148>
E:\Project\tp78_v2\mounriver_project\RF_CH582M\obj/../StdPeriphDriver/CH58x_sys.c:89
            SAFEOPERATE;
20000202:	0001                	nop
20000204:	0001                	nop
E:\Project\tp78_v2\mounriver_project\RF_CH582M\obj/../StdPeriphDriver/CH58x_sys.c:90
            R8_FLASH_CFG = 0X02;
20000206:	40002737          	lui	a4,0x40002
2000020a:	4689                	li	a3,2
2000020c:	bf89                	j	2000015e <SetSysClock+0x98>
E:\Project\tp78_v2\mounriver_project\RF_CH582M\obj/../StdPeriphDriver/CH58x_sys.c:97
            SAFEOPERATE;
2000020e:	0001                	nop
20000210:	0001                	nop
E:\Project\tp78_v2\mounriver_project\RF_CH582M\obj/../StdPeriphDriver/CH58x_sys.c:98
            R8_FLASH_CFG = 0X52;
20000212:	40002737          	lui	a4,0x40002
20000216:	05200693          	li	a3,82
2000021a:	b791                	j	2000015e <SetSysClock+0x98>
E:\Project\tp78_v2\mounriver_project\RF_CH582M\obj/../StdPeriphDriver/CH58x_sys.c:104
        R8_SAFE_ACCESS_SIG = SAFE_ACCESS_SIG1;
2000021c:	04d78023          	sb	a3,64(a5)
E:\Project\tp78_v2\mounriver_project\RF_CH582M\obj/../StdPeriphDriver/CH58x_sys.c:105
        R8_SAFE_ACCESS_SIG = SAFE_ACCESS_SIG2;
20000220:	04e78023          	sb	a4,64(a5)
E:\Project\tp78_v2\mounriver_project\RF_CH582M\obj/../StdPeriphDriver/CH58x_sys.c:106
        SAFEOPERATE;
20000224:	0001                	nop
20000226:	0001                	nop
E:\Project\tp78_v2\mounriver_project\RF_CH582M\obj/../StdPeriphDriver/CH58x_sys.c:107
        R16_CLK_SYS_CFG |= RB_CLK_SYS_MOD;
20000228:	0087d703          	lhu	a4,8(a5)
2000022c:	0c076713          	ori	a4,a4,192
20000230:	00e79423          	sh	a4,8(a5)
20000234:	bf0d                	j	20000166 <SetSysClock+0xa0>

20000236 <SYS_ResetExecute>:
SYS_ResetExecute():
E:\Project\tp78_v2\mounriver_project\RF_CH582M\obj/../StdPeriphDriver/CH58x_sys.c:177
 *
 * @return  none
 */
__HIGH_CODE
void SYS_ResetExecute(void)
{
20000236:	1141                	addi	sp,sp,-16
E:\Project\tp78_v2\mounriver_project\RF_CH582M\obj/../StdPeriphDriver/CH58x_sys.c:178
    FLASH_ROM_SW_RESET();
20000238:	4681                	li	a3,0
2000023a:	4601                	li	a2,0
2000023c:	4581                	li	a1,0
2000023e:	4511                	li	a0,4
E:\Project\tp78_v2\mounriver_project\RF_CH582M\obj/../StdPeriphDriver/CH58x_sys.c:177
{
20000240:	c606                	sw	ra,12(sp)
E:\Project\tp78_v2\mounriver_project\RF_CH582M\obj/../StdPeriphDriver/CH58x_sys.c:178
    FLASH_ROM_SW_RESET();
20000242:	24d9                	jal	20000508 <FLASH_EEPROM_CMD>
E:\Project\tp78_v2\mounriver_project\RF_CH582M\obj/../StdPeriphDriver/CH58x_sys.c:179
    R8_SAFE_ACCESS_SIG = SAFE_ACCESS_SIG1;
20000244:	400017b7          	lui	a5,0x40001
20000248:	05700713          	li	a4,87
2000024c:	04e78023          	sb	a4,64(a5) # 40001040 <_eusrstack+0x1fff9040>
E:\Project\tp78_v2\mounriver_project\RF_CH582M\obj/../StdPeriphDriver/CH58x_sys.c:180
    R8_SAFE_ACCESS_SIG = SAFE_ACCESS_SIG2;
20000250:	fa800713          	li	a4,-88
20000254:	04e78023          	sb	a4,64(a5)
E:\Project\tp78_v2\mounriver_project\RF_CH582M\obj/../StdPeriphDriver/CH58x_sys.c:181
    SAFEOPERATE;
20000258:	0001                	nop
2000025a:	0001                	nop
E:\Project\tp78_v2\mounriver_project\RF_CH582M\obj/../StdPeriphDriver/CH58x_sys.c:182
    R8_RST_WDOG_CTRL |= RB_SOFTWARE_RESET;
2000025c:	0467c703          	lbu	a4,70(a5)
20000260:	00176713          	ori	a4,a4,1
20000264:	04e78323          	sb	a4,70(a5)
E:\Project\tp78_v2\mounriver_project\RF_CH582M\obj/../StdPeriphDriver/CH58x_sys.c:183
    R8_SAFE_ACCESS_SIG = 0;
20000268:	04078023          	sb	zero,64(a5)
E:\Project\tp78_v2\mounriver_project\RF_CH582M\obj/../StdPeriphDriver/CH58x_sys.c:184
}
2000026c:	40b2                	lw	ra,12(sp)
2000026e:	0141                	addi	sp,sp,16
20000270:	8082                	ret

20000272 <HardFault_Handler>:
HardFault_Handler():
E:\Project\tp78_v2\mounriver_project\RF_CH582M\obj/../StdPeriphDriver/CH58x_sys.c:316
__INTERRUPT
__HIGH_CODE
__attribute__((weak))
void HardFault_Handler(void)
{
    FLASH_ROM_SW_RESET();
20000272:	4681                	li	a3,0
20000274:	4601                	li	a2,0
20000276:	4581                	li	a1,0
20000278:	4511                	li	a0,4
2000027a:	2479                	jal	20000508 <FLASH_EEPROM_CMD>
E:\Project\tp78_v2\mounriver_project\RF_CH582M\obj/../StdPeriphDriver/CH58x_sys.c:317
    R8_SAFE_ACCESS_SIG = SAFE_ACCESS_SIG1;
2000027c:	400017b7          	lui	a5,0x40001
20000280:	05700713          	li	a4,87
20000284:	04e78023          	sb	a4,64(a5) # 40001040 <_eusrstack+0x1fff9040>
E:\Project\tp78_v2\mounriver_project\RF_CH582M\obj/../StdPeriphDriver/CH58x_sys.c:318
    R8_SAFE_ACCESS_SIG = SAFE_ACCESS_SIG2;
20000288:	fa800713          	li	a4,-88
2000028c:	04e78023          	sb	a4,64(a5)
E:\Project\tp78_v2\mounriver_project\RF_CH582M\obj/../StdPeriphDriver/CH58x_sys.c:319
    SAFEOPERATE;
20000290:	0001                	nop
20000292:	0001                	nop
E:\Project\tp78_v2\mounriver_project\RF_CH582M\obj/../StdPeriphDriver/CH58x_sys.c:320
    R16_INT32K_TUNE = 0xFFFF;
20000294:	577d                	li	a4,-1
20000296:	02e79623          	sh	a4,44(a5)
E:\Project\tp78_v2\mounriver_project\RF_CH582M\obj/../StdPeriphDriver/CH58x_sys.c:321
    R8_RST_WDOG_CTRL |= RB_SOFTWARE_RESET;
2000029a:	0467c703          	lbu	a4,70(a5)
2000029e:	00176713          	ori	a4,a4,1
200002a2:	04e78323          	sb	a4,70(a5)
E:\Project\tp78_v2\mounriver_project\RF_CH582M\obj/../StdPeriphDriver/CH58x_sys.c:322
    R8_SAFE_ACCESS_SIG = 0;
200002a6:	04078023          	sb	zero,64(a5)
E:\Project\tp78_v2\mounriver_project\RF_CH582M\obj/../StdPeriphDriver/CH58x_sys.c:323 (discriminator 1)
    while(1);
200002aa:	a001                	j	200002aa <HardFault_Handler+0x38>

200002ac <mDelayuS>:
mDelayuS():
E:\Project\tp78_v2\mounriver_project\RF_CH582M\obj/../StdPeriphDriver/CH58x_sys.c:340
__HIGH_CODE
void mDelayuS(uint16_t t)
{
    uint32_t i;
#if(FREQ_SYS == 60000000)
    i = t * 15;
200002ac:	47bd                	li	a5,15
200002ae:	02f50533          	mul	a0,a0,a5
E:\Project\tp78_v2\mounriver_project\RF_CH582M\obj/../StdPeriphDriver/CH58x_sys.c:362 (discriminator 1)
#elif(FREQ_SYS == 1000000)
    i = t >> 2;
#endif
    do
    {
        __nop();
200002b2:	0001                	nop
E:\Project\tp78_v2\mounriver_project\RF_CH582M\obj/../StdPeriphDriver/CH58x_sys.c:363 (discriminator 1)
    } while(--i);
200002b4:	157d                	addi	a0,a0,-1
200002b6:	fd75                	bnez	a0,200002b2 <mDelayuS+0x6>
E:\Project\tp78_v2\mounriver_project\RF_CH582M\obj/../StdPeriphDriver/CH58x_sys.c:364
}
200002b8:	8082                	ret

200002ba <mDelaymS>:
mDelaymS():
E:\Project\tp78_v2\mounriver_project\RF_CH582M\obj/../StdPeriphDriver/CH58x_sys.c:377
 *
 * @return  none
 */
__HIGH_CODE
void mDelaymS(uint16_t t)
{
200002ba:	1141                	addi	sp,sp,-16
200002bc:	c422                	sw	s0,8(sp)
200002be:	c226                	sw	s1,4(sp)
200002c0:	c606                	sw	ra,12(sp)
200002c2:	84aa                	mv	s1,a0
E:\Project\tp78_v2\mounriver_project\RF_CH582M\obj/../StdPeriphDriver/CH58x_sys.c:380
    uint16_t i;

    for(i = 0; i < t; i++)
200002c4:	4401                	li	s0,0
E:\Project\tp78_v2\mounriver_project\RF_CH582M\obj/../StdPeriphDriver/CH58x_sys.c:380 (discriminator 1)
200002c6:	00941763          	bne	s0,s1,200002d4 <mDelaymS+0x1a>
E:\Project\tp78_v2\mounriver_project\RF_CH582M\obj/../StdPeriphDriver/CH58x_sys.c:384
    {
        mDelayuS(1000);
    }
}
200002ca:	40b2                	lw	ra,12(sp)
200002cc:	4422                	lw	s0,8(sp)
200002ce:	4492                	lw	s1,4(sp)
200002d0:	0141                	addi	sp,sp,16
200002d2:	8082                	ret
E:\Project\tp78_v2\mounriver_project\RF_CH582M\obj/../StdPeriphDriver/CH58x_sys.c:380 (discriminator 3)
    for(i = 0; i < t; i++)
200002d4:	0405                	addi	s0,s0,1
E:\Project\tp78_v2\mounriver_project\RF_CH582M\obj/../StdPeriphDriver/CH58x_sys.c:382 (discriminator 3)
        mDelayuS(1000);
200002d6:	3e800513          	li	a0,1000
E:\Project\tp78_v2\mounriver_project\RF_CH582M\obj/../StdPeriphDriver/CH58x_sys.c:380 (discriminator 3)
    for(i = 0; i < t; i++)
200002da:	0442                	slli	s0,s0,0x10
E:\Project\tp78_v2\mounriver_project\RF_CH582M\obj/../StdPeriphDriver/CH58x_sys.c:382 (discriminator 3)
        mDelayuS(1000);
200002dc:	3fc1                	jal	200002ac <mDelayuS>
E:\Project\tp78_v2\mounriver_project\RF_CH582M\obj/../StdPeriphDriver/CH58x_sys.c:380 (discriminator 3)
    for(i = 0; i < t; i++)
200002de:	8041                	srli	s0,s0,0x10
200002e0:	b7dd                	j	200002c6 <mDelaymS+0xc>

200002e2 <APPJumpBoot>:
APPJumpBoot():
E:\Project\tp78_v2\mounriver_project\RF_CH582M\obj/../HAL/ISP.c:16
#include "HAL.h"
#include "CONFIG.h"

__HIGH_CODE
void APPJumpBoot(void)   //此段代码必须运行在RAM中
{
200002e2:	1141                	addi	sp,sp,-16
200002e4:	c606                	sw	ra,12(sp)
E:\Project\tp78_v2\mounriver_project\RF_CH582M\obj/../HAL/ISP.c:17 (discriminator 1)
  while(FLASH_ROM_ERASE(0, EEPROM_BLOCK_SIZE))
200002e6:	6685                	lui	a3,0x1
200002e8:	4601                	li	a2,0
200002ea:	4581                	li	a1,0
200002ec:	4505                	li	a0,1
200002ee:	2c29                	jal	20000508 <FLASH_EEPROM_CMD>
200002f0:	f97d                	bnez	a0,200002e6 <APPJumpBoot+0x4>
E:\Project\tp78_v2\mounriver_project\RF_CH582M\obj/../HAL/ISP.c:21
  {
    ;//ROM 擦4K1个单位，擦0地址起始
  }
  FLASH_ROM_SW_RESET();
200002f2:	4681                	li	a3,0
200002f4:	4601                	li	a2,0
200002f6:	4581                	li	a1,0
200002f8:	4511                	li	a0,4
200002fa:	2439                	jal	20000508 <FLASH_EEPROM_CMD>
E:\Project\tp78_v2\mounriver_project\RF_CH582M\obj/../HAL/ISP.c:22
  R8_SAFE_ACCESS_SIG = SAFE_ACCESS_SIG1;
200002fc:	400017b7          	lui	a5,0x40001
20000300:	05700713          	li	a4,87
20000304:	04e78023          	sb	a4,64(a5) # 40001040 <_eusrstack+0x1fff9040>
E:\Project\tp78_v2\mounriver_project\RF_CH582M\obj/../HAL/ISP.c:23
  R8_SAFE_ACCESS_SIG = SAFE_ACCESS_SIG2;  //安全访问模式
20000308:	fa800713          	li	a4,-88
2000030c:	04e78023          	sb	a4,64(a5)
E:\Project\tp78_v2\mounriver_project\RF_CH582M\obj/../HAL/ISP.c:24
  SAFEOPERATE;
20000310:	0001                	nop
20000312:	0001                	nop
E:\Project\tp78_v2\mounriver_project\RF_CH582M\obj/../HAL/ISP.c:25
  R16_INT32K_TUNE = 0xFFFF;
20000314:	577d                	li	a4,-1
20000316:	02e79623          	sh	a4,44(a5)
E:\Project\tp78_v2\mounriver_project\RF_CH582M\obj/../HAL/ISP.c:26
  R8_RST_WDOG_CTRL |= RB_SOFTWARE_RESET;
2000031a:	0467c703          	lbu	a4,70(a5)
2000031e:	00176713          	ori	a4,a4,1
20000322:	04e78323          	sb	a4,70(a5)
E:\Project\tp78_v2\mounriver_project\RF_CH582M\obj/../HAL/ISP.c:27
  R8_SAFE_ACCESS_SIG = 0;//进入后执行复位，复位类型为上电复位
20000326:	04078023          	sb	zero,64(a5)
E:\Project\tp78_v2\mounriver_project\RF_CH582M\obj/../HAL/ISP.c:28 (discriminator 1)
  while(1);//营造空片的现象，启动时就会停在BOOT，等烧写，超时时间10s
2000032a:	a001                	j	2000032a <APPJumpBoot+0x48>

2000032c <SoftReset>:
SoftReset():
E:\Project\tp78_v2\mounriver_project\RF_CH582M\obj/../HAL/ISP.c:34
}

__HIGH_CODE
void SoftReset(void)   //软件复位
{
  R8_SAFE_ACCESS_SIG = SAFE_ACCESS_SIG1;
2000032c:	400017b7          	lui	a5,0x40001
20000330:	05700713          	li	a4,87
20000334:	04e78023          	sb	a4,64(a5) # 40001040 <_eusrstack+0x1fff9040>
E:\Project\tp78_v2\mounriver_project\RF_CH582M\obj/../HAL/ISP.c:35
  R8_SAFE_ACCESS_SIG = SAFE_ACCESS_SIG2;  //安全访问模式
20000338:	fa800713          	li	a4,-88
2000033c:	04e78023          	sb	a4,64(a5)
E:\Project\tp78_v2\mounriver_project\RF_CH582M\obj/../HAL/ISP.c:36
  SAFEOPERATE;
20000340:	0001                	nop
20000342:	0001                	nop
E:\Project\tp78_v2\mounriver_project\RF_CH582M\obj/../HAL/ISP.c:37
  R16_INT32K_TUNE = 0xFFFF;
20000344:	577d                	li	a4,-1
20000346:	02e79623          	sh	a4,44(a5)
E:\Project\tp78_v2\mounriver_project\RF_CH582M\obj/../HAL/ISP.c:38
  R8_RST_WDOG_CTRL |= RB_SOFTWARE_RESET;
2000034a:	0467c703          	lbu	a4,70(a5)
2000034e:	00176713          	ori	a4,a4,1
20000352:	04e78323          	sb	a4,70(a5)
E:\Project\tp78_v2\mounriver_project\RF_CH582M\obj/../HAL/ISP.c:39
  R8_SAFE_ACCESS_SIG = 0;
20000356:	04078023          	sb	zero,64(a5)
E:\Project\tp78_v2\mounriver_project\RF_CH582M\obj/../HAL/ISP.c:40 (discriminator 1)
  while(1);
2000035a:	a001                	j	2000035a <SoftReset+0x2e>

2000035c <RTC_IRQHandler>:
RTC_IRQHandler():
E:\Project\tp78_v2\mounriver_project\RF_CH582M\obj/../HAL/RTC.c:58
 */
__INTERRUPT
__HIGH_CODE
void RTC_IRQHandler(void)
{
    R8_RTC_FLAG_CTRL = (RB_RTC_TMR_CLR | RB_RTC_TRIG_CLR);
2000035c:	400017b7          	lui	a5,0x40001
20000360:	03000713          	li	a4,48
20000364:	02e78823          	sb	a4,48(a5) # 40001030 <_eusrstack+0x1fff9030>
E:\Project\tp78_v2\mounriver_project\RF_CH582M\obj/../HAL/RTC.c:59
    RTCTigFlag = 1;
20000368:	4785                	li	a5,1
2000036a:	86f1a223          	sw	a5,-1948(gp) # 2000187c <RTCTigFlag>
E:\Project\tp78_v2\mounriver_project\RF_CH582M\obj/../HAL/RTC.c:60
}
2000036e:	30200073          	mret

20000372 <USB_IRQHandler>:
USB_IRQHandler():
E:\Project\tp78_v2\mounriver_project\RF_CH582M\obj/../HAL/USB.c:554

__INTERRUPT
__HIGH_CODE
void USB_IRQHandler( void )     //USB中断服务程序,使用寄存器组1
{
    USB_DevTransProcess();
20000372:	e0002097          	auipc	ra,0xe0002
20000376:	37e080e7          	jalr	894(ra) # 26f0 <USB_DevTransProcess>
E:\Project\tp78_v2\mounriver_project\RF_CH582M\obj/../HAL/USB.c:555
}
2000037a:	30200073          	mret

2000037e <TMR0_IRQHandler>:
TMR0_IRQHandler():
E:\Project\tp78_v2\mounriver_project\RF_CH582M\obj/../APP/RF_PHY.c:246
__INTERRUPT
__HIGH_CODE
void TMR0_IRQHandler(void)
{
  /*!< Timer 0 IRQ */
  if (TMR0_GetITFlag(TMR0_3_IT_CYC_END)) {
2000037e:	40002737          	lui	a4,0x40002
20000382:	00674783          	lbu	a5,6(a4) # 40002006 <_eusrstack+0x1fffa006>
20000386:	8b85                	andi	a5,a5,1
20000388:	cbc5                	beqz	a5,20000438 <TMR0_IRQHandler+0xba>
E:\Project\tp78_v2\mounriver_project\RF_CH582M\obj/../APP/RF_PHY.c:248
    /*!< Clear Pending flag */
    TMR0_ClearITFlag(TMR0_3_IT_CYC_END);
2000038a:	4785                	li	a5,1
2000038c:	00f70323          	sb	a5,6(a4)
E:\Project\tp78_v2\mounriver_project\RF_CH582M\obj/../APP/RF_PHY.c:251

    /*!< Updata the ms count */
    if (heartbeat_cnt >= HEARTBEAT_CNT_MAX) {
20000390:	81018793          	addi	a5,gp,-2032 # 20001828 <heartbeat_cnt>
20000394:	439c                	lw	a5,0(a5)
20000396:	474d                	li	a4,19
20000398:	0af77263          	bgeu	a4,a5,2000043c <TMR0_IRQHandler+0xbe>
E:\Project\tp78_v2\mounriver_project\RF_CH582M\obj/../APP/RF_PHY.c:253
        heartbeat_cnt = 0;
        tmos_memset(&HID_dat, 0, sizeof(HID_dat));
2000039c:	4625                	li	a2,9
2000039e:	4581                	li	a1,0
200003a0:	9b418513          	addi	a0,gp,-1612 # 200019cc <HID_dat>
E:\Project\tp78_v2\mounriver_project\RF_CH582M\obj/../APP/RF_PHY.c:252
        heartbeat_cnt = 0;
200003a4:	8001a823          	sw	zero,-2032(gp) # 20001828 <heartbeat_cnt>
E:\Project\tp78_v2\mounriver_project\RF_CH582M\obj/../APP/RF_PHY.c:253
        tmos_memset(&HID_dat, 0, sizeof(HID_dat));
200003a8:	2309                	jal	200008aa <tmos_memset>
E:\Project\tp78_v2\mounriver_project\RF_CH582M\obj/../APP/RF_PHY.c:254
        if (lastevent[0] == TRUE) {
200003aa:	8141c703          	lbu	a4,-2028(gp) # 2000182c <lastevent>
200003ae:	4785                	li	a5,1
200003b0:	00f71d63          	bne	a4,a5,200003ca <TMR0_IRQHandler+0x4c>
E:\Project\tp78_v2\mounriver_project\RF_CH582M\obj/../APP/RF_PHY.c:256
            lastevent[0] = FALSE;
            tmos_set_event(usbTaskID, USB_MOUSE_EVENT);
200003b4:	4585                	li	a1,1
200003b6:	00001517          	auipc	a0,0x1
200003ba:	46254503          	lbu	a0,1122(a0) # 20001818 <usbTaskID>
E:\Project\tp78_v2\mounriver_project\RF_CH582M\obj/../APP/RF_PHY.c:255
            lastevent[0] = FALSE;
200003be:	80018a23          	sb	zero,-2028(gp) # 2000182c <lastevent>
E:\Project\tp78_v2\mounriver_project\RF_CH582M\obj/../APP/RF_PHY.c:256
            tmos_set_event(usbTaskID, USB_MOUSE_EVENT);
200003c2:	e0003097          	auipc	ra,0xe0003
200003c6:	d42080e7          	jalr	-702(ra) # 3104 <tmos_set_event>
E:\Project\tp78_v2\mounriver_project\RF_CH582M\obj/../APP/RF_PHY.c:258
        }
        if (lastevent[1] == TRUE) {
200003ca:	8151c703          	lbu	a4,-2027(gp) # 2000182d <lastevent+0x1>
200003ce:	4785                	li	a5,1
200003d0:	00f71d63          	bne	a4,a5,200003ea <TMR0_IRQHandler+0x6c>
E:\Project\tp78_v2\mounriver_project\RF_CH582M\obj/../APP/RF_PHY.c:260
            lastevent[1] = FALSE;
            tmos_set_event(usbTaskID, USB_KEYBOARD_EVENT);
200003d4:	4589                	li	a1,2
200003d6:	00001517          	auipc	a0,0x1
200003da:	44254503          	lbu	a0,1090(a0) # 20001818 <usbTaskID>
E:\Project\tp78_v2\mounriver_project\RF_CH582M\obj/../APP/RF_PHY.c:259
            lastevent[1] = FALSE;
200003de:	80018aa3          	sb	zero,-2027(gp) # 2000182d <lastevent+0x1>
E:\Project\tp78_v2\mounriver_project\RF_CH582M\obj/../APP/RF_PHY.c:260
            tmos_set_event(usbTaskID, USB_KEYBOARD_EVENT);
200003e2:	e0003097          	auipc	ra,0xe0003
200003e6:	d22080e7          	jalr	-734(ra) # 3104 <tmos_set_event>
E:\Project\tp78_v2\mounriver_project\RF_CH582M\obj/../APP/RF_PHY.c:262
        }
        if (lastevent[2] == TRUE) {
200003ea:	8161c703          	lbu	a4,-2026(gp) # 2000182e <lastevent+0x2>
200003ee:	4785                	li	a5,1
200003f0:	00f71d63          	bne	a4,a5,2000040a <TMR0_IRQHandler+0x8c>
E:\Project\tp78_v2\mounriver_project\RF_CH582M\obj/../APP/RF_PHY.c:264
            lastevent[2] = FALSE;
            tmos_set_event(usbTaskID, USB_VOL_EVENT);
200003f4:	4591                	li	a1,4
200003f6:	00001517          	auipc	a0,0x1
200003fa:	42254503          	lbu	a0,1058(a0) # 20001818 <usbTaskID>
E:\Project\tp78_v2\mounriver_project\RF_CH582M\obj/../APP/RF_PHY.c:263
            lastevent[2] = FALSE;
200003fe:	80018b23          	sb	zero,-2026(gp) # 2000182e <lastevent+0x2>
E:\Project\tp78_v2\mounriver_project\RF_CH582M\obj/../APP/RF_PHY.c:264
            tmos_set_event(usbTaskID, USB_VOL_EVENT);
20000402:	e0003097          	auipc	ra,0xe0003
20000406:	d02080e7          	jalr	-766(ra) # 3104 <tmos_set_event>
E:\Project\tp78_v2\mounriver_project\RF_CH582M\obj/../APP/RF_PHY.c:268
        }
    } else heartbeat_cnt++;
    /*!< Set timing time 1ms */
    R32_TMR0_CNT_END = GetSysClock() / 1000;
2000040a:	e0002097          	auipc	ra,0xe0002
2000040e:	9be080e7          	jalr	-1602(ra) # 1dc8 <GetSysClock>
20000412:	3e800793          	li	a5,1000
20000416:	02f55533          	divu	a0,a0,a5
2000041a:	400027b7          	lui	a5,0x40002
E:\Project\tp78_v2\mounriver_project\RF_CH582M\obj/../APP/RF_PHY.c:269
    R8_TMR0_CTRL_MOD = RB_TMR_ALL_CLEAR;
2000041e:	4709                	li	a4,2
E:\Project\tp78_v2\mounriver_project\RF_CH582M\obj/../APP/RF_PHY.c:268
    R32_TMR0_CNT_END = GetSysClock() / 1000;
20000420:	c7c8                	sw	a0,12(a5)
E:\Project\tp78_v2\mounriver_project\RF_CH582M\obj/../APP/RF_PHY.c:269
    R8_TMR0_CTRL_MOD = RB_TMR_ALL_CLEAR;
20000422:	00e78023          	sb	a4,0(a5) # 40002000 <_eusrstack+0x1fffa000>
E:\Project\tp78_v2\mounriver_project\RF_CH582M\obj/../APP/RF_PHY.c:270
    R8_TMR0_CTRL_MOD = RB_TMR_COUNT_EN;
20000426:	4711                	li	a4,4
20000428:	00e78023          	sb	a4,0(a5)
E:\Project\tp78_v2\mounriver_project\RF_CH582M\obj/../APP/RF_PHY.c:273

    /*!< Enable interrupt */
    TMR0_ITCfg(ENABLE, TMR0_3_IT_CYC_END);
2000042c:	0027c703          	lbu	a4,2(a5)
20000430:	00176713          	ori	a4,a4,1
20000434:	00e78123          	sb	a4,2(a5)
E:\Project\tp78_v2\mounriver_project\RF_CH582M\obj/../APP/RF_PHY.c:275
  }
}
20000438:	30200073          	mret
E:\Project\tp78_v2\mounriver_project\RF_CH582M\obj/../APP/RF_PHY.c:266
    } else heartbeat_cnt++;
2000043c:	0785                	addi	a5,a5,1
2000043e:	80f1a823          	sw	a5,-2032(gp) # 20001828 <heartbeat_cnt>
20000442:	b7e1                	j	2000040a <TMR0_IRQHandler+0x8c>

20000444 <Main_Circulation>:
Main_Circulation():
E:\Project\tp78_v2\mounriver_project\RF_CH582M\obj/../APP/RF_main.c:41
 * @return  none
 */
__HIGH_CODE
__attribute__((noinline))
void Main_Circulation()
{
20000444:	1141                	addi	sp,sp,-16
20000446:	c606                	sw	ra,12(sp)
E:\Project\tp78_v2\mounriver_project\RF_CH582M\obj/../APP/RF_main.c:44 (discriminator 1)
    while(1)
    {
        TMOS_SystemProcess();
20000448:	2d85                	jal	20000ab8 <TMOS_SystemProcess>
2000044a:	bffd                	j	20000448 <Main_Circulation+0x4>

2000044c <FLASH_ROM_BEG>:
FLASH_ROM_BEG():
2000044c:	80040323          	sb	zero,-2042(s0)
20000450:	4715                	li	a4,5
20000452:	80e40323          	sb	a4,-2042(s0)
20000456:	0001                	nop
20000458:	80a40223          	sb	a0,-2044(s0)
2000045c:	8082                	ret

2000045e <FLASH_ROM_END>:
FLASH_ROM_END():
2000045e:	80640783          	lb	a5,-2042(s0)
20000462:	fe07cee3          	bltz	a5,2000045e <FLASH_ROM_END>
20000466:	80040323          	sb	zero,-2042(s0)
2000046a:	8082                	ret

2000046c <FLASH_ROM_IN>:
FLASH_ROM_IN():
2000046c:	80640783          	lb	a5,-2042(s0)
20000470:	fe07cee3          	bltz	a5,2000046c <FLASH_ROM_IN>
20000474:	80444503          	lbu	a0,-2044(s0)
20000478:	8082                	ret

2000047a <FLASH_ROM_OUT>:
FLASH_ROM_OUT():
2000047a:	80640783          	lb	a5,-2042(s0)
2000047e:	fe07cee3          	bltz	a5,2000047a <FLASH_ROM_OUT>
20000482:	80a40223          	sb	a0,-2044(s0)
20000486:	8082                	ret

20000488 <FLASH_ROM_ADDR>:
FLASH_ROM_ADDR():
20000488:	1141                	addi	sp,sp,-16
2000048a:	c426                	sw	s1,8(sp)
2000048c:	c24a                	sw	s2,4(sp)
2000048e:	c04e                	sw	s3,0(sp)
20000490:	c606                	sw	ra,12(sp)
20000492:	0bf57713          	andi	a4,a0,191
20000496:	47ad                	li	a5,11
20000498:	89aa                	mv	s3,a0
2000049a:	892e                	mv	s2,a1
2000049c:	4495                	li	s1,5
2000049e:	00f70663          	beq	a4,a5,200004aa <FLASH_ROM_ADDR+0x22>
200004a2:	4519                	li	a0,6
200004a4:	3765                	jal	2000044c <FLASH_ROM_BEG>
200004a6:	3f65                	jal	2000045e <FLASH_ROM_END>
200004a8:	448d                	li	s1,3
200004aa:	854e                	mv	a0,s3
200004ac:	3745                	jal	2000044c <FLASH_ROM_BEG>
200004ae:	59fd                	li	s3,-1
200004b0:	14fd                	addi	s1,s1,-1
200004b2:	01349863          	bne	s1,s3,200004c2 <FLASH_ROM_ADDR+0x3a>
200004b6:	40b2                	lw	ra,12(sp)
200004b8:	44a2                	lw	s1,8(sp)
200004ba:	4912                	lw	s2,4(sp)
200004bc:	4982                	lw	s3,0(sp)
200004be:	0141                	addi	sp,sp,16
200004c0:	8082                	ret
200004c2:	01095513          	srli	a0,s2,0x10
200004c6:	0ff57513          	andi	a0,a0,255
200004ca:	3f45                	jal	2000047a <FLASH_ROM_OUT>
200004cc:	0922                	slli	s2,s2,0x8
200004ce:	b7cd                	j	200004b0 <FLASH_ROM_ADDR+0x28>

200004d0 <FLASH_ROM_WAIT>:
FLASH_ROM_WAIT():
200004d0:	1101                	addi	sp,sp,-32
200004d2:	cc26                	sw	s1,24(sp)
200004d4:	ce06                	sw	ra,28(sp)
200004d6:	000804b7          	lui	s1,0x80
200004da:	3751                	jal	2000045e <FLASH_ROM_END>
200004dc:	4515                	li	a0,5
200004de:	37bd                	jal	2000044c <FLASH_ROM_BEG>
200004e0:	3771                	jal	2000046c <FLASH_ROM_IN>
200004e2:	3769                	jal	2000046c <FLASH_ROM_IN>
200004e4:	c62a                	sw	a0,12(sp)
200004e6:	3fa5                	jal	2000045e <FLASH_ROM_END>
200004e8:	4532                	lw	a0,12(sp)
200004ea:	00157793          	andi	a5,a0,1
200004ee:	eb89                	bnez	a5,20000500 <FLASH_ROM_WAIT+0x30>
200004f0:	00156513          	ori	a0,a0,1
200004f4:	0ff57513          	andi	a0,a0,255
200004f8:	40f2                	lw	ra,28(sp)
200004fa:	44e2                	lw	s1,24(sp)
200004fc:	6105                	addi	sp,sp,32
200004fe:	8082                	ret
20000500:	14fd                	addi	s1,s1,-1
20000502:	fce9                	bnez	s1,200004dc <FLASH_ROM_WAIT+0xc>
20000504:	4501                	li	a0,0
20000506:	bfcd                	j	200004f8 <FLASH_ROM_WAIT+0x28>

20000508 <FLASH_EEPROM_CMD>:
FLASH_EEPROM_CMD():
20000508:	7139                	addi	sp,sp,-64
2000050a:	dc26                	sw	s1,56(sp)
2000050c:	da4a                	sw	s2,52(sp)
2000050e:	d84e                	sw	s3,48(sp)
20000510:	d652                	sw	s4,44(sp)
20000512:	d456                	sw	s5,40(sp)
20000514:	d25a                	sw	s6,36(sp)
20000516:	d05e                	sw	s7,32(sp)
20000518:	de06                	sw	ra,60(sp)
2000051a:	ce62                	sw	s8,28(sp)
2000051c:	cc66                	sw	s9,24(sp)
2000051e:	e000e7b7          	lui	a5,0xe000e
20000522:	577d                	li	a4,-1
20000524:	0007aa83          	lw	s5,0(a5) # e000e000 <_eusrstack+0xc0006000>
20000528:	c622                	sw	s0,12(sp)
2000052a:	0047aa03          	lw	s4,4(a5)
2000052e:	18e7a023          	sw	a4,384(a5)
20000532:	18e7a223          	sw	a4,388(a5)
20000536:	400017b7          	lui	a5,0x40001
2000053a:	05700713          	li	a4,87
2000053e:	04e78023          	sb	a4,64(a5) # 40001040 <_eusrstack+0x1fff9040>
20000542:	fa800713          	li	a4,-88
20000546:	04e78023          	sb	a4,64(a5)
2000054a:	0447c783          	lbu	a5,68(a5)
2000054e:	ff750b93          	addi	s7,a0,-9
20000552:	84b6                	mv	s1,a3
20000554:	07e2                	slli	a5,a5,0x18
20000556:	0ffbfb93          	andi	s7,s7,255
2000055a:	4685                	li	a3,1
2000055c:	89aa                	mv	s3,a0
2000055e:	8b2e                	mv	s6,a1
20000560:	8932                	mv	s2,a2
20000562:	40002437          	lui	s0,0x40002
20000566:	87e1                	srai	a5,a5,0x18
20000568:	5701                	li	a4,-32
2000056a:	0176fa63          	bgeu	a3,s7,2000057e <FLASH_EEPROM_CMD+0x76>
2000056e:	00d50863          	beq	a0,a3,2000057e <FLASH_EEPROM_CMD+0x76>
20000572:	4689                	li	a3,2
20000574:	02000713          	li	a4,32
20000578:	00d51363          	bne	a0,a3,2000057e <FLASH_EEPROM_CMD+0x76>
2000057c:	5701                	li	a4,-32
2000057e:	8fd9                	or	a5,a5,a4
20000580:	0ff7f793          	andi	a5,a5,255
20000584:	40001cb7          	lui	s9,0x40001
20000588:	04fc8223          	sb	a5,68(s9) # 40001044 <_eusrstack+0x1fff9044>
2000058c:	4711                	li	a4,4
2000058e:	80e40323          	sb	a4,-2042(s0) # 40001806 <_eusrstack+0x1fff9806>
20000592:	0ff00513          	li	a0,255
20000596:	3d5d                	jal	2000044c <FLASH_ROM_BEG>
20000598:	4c09                	li	s8,2
2000059a:	35d1                	jal	2000045e <FLASH_ROM_END>
2000059c:	117c6d63          	bltu	s8,s7,200006b6 <FLASH_EEPROM_CMD+0x1ae>
200005a0:	000705b7          	lui	a1,0x70
200005a4:	95da                	add	a1,a1,s6
200005a6:	00078737          	lui	a4,0x78
200005aa:	5579                	li	a0,-2
200005ac:	04e5f263          	bgeu	a1,a4,200005f0 <FLASH_EEPROM_CMD+0xe8>
200005b0:	009587b3          	add	a5,a1,s1
200005b4:	02f76e63          	bltu	a4,a5,200005f0 <FLASH_EEPROM_CMD+0xe8>
200005b8:	00080b37          	lui	s6,0x80
200005bc:	47a9                	li	a5,10
200005be:	0165eb33          	or	s6,a1,s6
200005c2:	06f99963          	bne	s3,a5,20000634 <FLASH_EEPROM_CMD+0x12c>
200005c6:	e489                	bnez	s1,200005d0 <FLASH_EEPROM_CMD+0xc8>
200005c8:	4481                	li	s1,0
200005ca:	3d51                	jal	2000045e <FLASH_ROM_END>
200005cc:	8526                	mv	a0,s1
200005ce:	a00d                	j	200005f0 <FLASH_EEPROM_CMD+0xe8>
200005d0:	85da                	mv	a1,s6
200005d2:	4509                	li	a0,2
200005d4:	3d55                	jal	20000488 <FLASH_ROM_ADDR>
200005d6:	0905                	addi	s2,s2,1
200005d8:	fff94503          	lbu	a0,-1(s2)
200005dc:	14fd                	addi	s1,s1,-1
200005de:	0b05                	addi	s6,s6,1
200005e0:	3d69                	jal	2000047a <FLASH_ROM_OUT>
200005e2:	c481                	beqz	s1,200005ea <FLASH_EEPROM_CMD+0xe2>
200005e4:	0ffb7793          	andi	a5,s6,255
200005e8:	f7fd                	bnez	a5,200005d6 <FLASH_EEPROM_CMD+0xce>
200005ea:	35dd                	jal	200004d0 <FLASH_ROM_WAIT>
200005ec:	fd69                	bnez	a0,200005c6 <FLASH_EEPROM_CMD+0xbe>
200005ee:	557d                	li	a0,-1
200005f0:	400017b7          	lui	a5,0x40001
200005f4:	05700713          	li	a4,87
200005f8:	04e78023          	sb	a4,64(a5) # 40001040 <_eusrstack+0x1fff9040>
200005fc:	fa800713          	li	a4,-88
20000600:	04e78023          	sb	a4,64(a5)
20000604:	0447c703          	lbu	a4,68(a5)
20000608:	8b41                	andi	a4,a4,16
2000060a:	04e78223          	sb	a4,68(a5)
2000060e:	50f2                	lw	ra,60(sp)
20000610:	e000e7b7          	lui	a5,0xe000e
20000614:	1157a023          	sw	s5,256(a5) # e000e100 <_eusrstack+0xc0006100>
20000618:	1147a223          	sw	s4,260(a5)
2000061c:	54e2                	lw	s1,56(sp)
2000061e:	4432                	lw	s0,12(sp)
20000620:	5952                	lw	s2,52(sp)
20000622:	59c2                	lw	s3,48(sp)
20000624:	5a32                	lw	s4,44(sp)
20000626:	5aa2                	lw	s5,40(sp)
20000628:	5b12                	lw	s6,36(sp)
2000062a:	5b82                	lw	s7,32(sp)
2000062c:	4c72                	lw	s8,28(sp)
2000062e:	4ce2                	lw	s9,24(sp)
20000630:	6121                	addi	sp,sp,64
20000632:	8082                	ret
20000634:	47a5                	li	a5,9
20000636:	06f99563          	bne	s3,a5,200006a0 <FLASH_EEPROM_CMD+0x198>
2000063a:	6985                	lui	s3,0x1
2000063c:	0ff00913          	li	s2,255
20000640:	009906b3          	add	a3,s2,s1
20000644:	012b74b3          	and	s1,s6,s2
20000648:	94b6                	add	s1,s1,a3
2000064a:	fff94913          	not	s2,s2
2000064e:	009974b3          	and	s1,s2,s1
20000652:	6b85                	lui	s7,0x1
20000654:	01697933          	and	s2,s2,s6
20000658:	6b41                	lui	s6,0x10
2000065a:	fff98793          	addi	a5,s3,-1 # fff <_einit+0xffb>
2000065e:	0127f7b3          	and	a5,a5,s2
20000662:	e399                	bnez	a5,20000668 <FLASH_EEPROM_CMD+0x160>
20000664:	0134fc63          	bgeu	s1,s3,2000067c <FLASH_EEPROM_CMD+0x174>
20000668:	0049d993          	srli	s3,s3,0x4
2000066c:	47c1                	li	a5,16
2000066e:	ff37e6e3          	bltu	a5,s3,2000065a <FLASH_EEPROM_CMD+0x152>
20000672:	bf99                	j	200005c8 <FLASH_EEPROM_CMD+0xc0>
20000674:	6905                	lui	s2,0x1
20000676:	69c1                	lui	s3,0x10
20000678:	197d                	addi	s2,s2,-1
2000067a:	b7d9                	j	20000640 <FLASH_EEPROM_CMD+0x138>
2000067c:	0d800513          	li	a0,216
20000680:	01698863          	beq	s3,s6,20000690 <FLASH_EEPROM_CMD+0x188>
20000684:	02000513          	li	a0,32
20000688:	01798463          	beq	s3,s7,20000690 <FLASH_EEPROM_CMD+0x188>
2000068c:	08100513          	li	a0,129
20000690:	85ca                	mv	a1,s2
20000692:	3bdd                	jal	20000488 <FLASH_ROM_ADDR>
20000694:	3d35                	jal	200004d0 <FLASH_ROM_WAIT>
20000696:	dd21                	beqz	a0,200005ee <FLASH_EEPROM_CMD+0xe6>
20000698:	994e                	add	s2,s2,s3
2000069a:	413484b3          	sub	s1,s1,s3
2000069e:	b7d9                	j	20000664 <FLASH_EEPROM_CMD+0x15c>
200006a0:	85da                	mv	a1,s6
200006a2:	452d                	li	a0,11
200006a4:	33d5                	jal	20000488 <FLASH_ROM_ADDR>
200006a6:	94ca                	add	s1,s1,s2
200006a8:	f29900e3          	beq	s2,s1,200005c8 <FLASH_EEPROM_CMD+0xc0>
200006ac:	0905                	addi	s2,s2,1
200006ae:	3b7d                	jal	2000046c <FLASH_ROM_IN>
200006b0:	fea90fa3          	sb	a0,-1(s2) # fff <_einit+0xffb>
200006b4:	bfd5                	j	200006a8 <FLASH_EEPROM_CMD+0x1a0>
200006b6:	fff98793          	addi	a5,s3,-1 # ffff <_data_lma+0x9983>
200006ba:	0ff7f793          	andi	a5,a5,255
200006be:	0cfc6163          	bltu	s8,a5,20000780 <.loop402+0x7a>
200006c2:	041cc783          	lbu	a5,65(s9)
200006c6:	08300713          	li	a4,131
200006ca:	04f71f63          	bne	a4,a5,20000728 <.loop402+0x22>
200006ce:	00080737          	lui	a4,0x80
200006d2:	04eb6b63          	bltu	s6,a4,20000728 <.loop402+0x22>
200006d6:	009b07b3          	add	a5,s6,s1
200006da:	001006b7          	lui	a3,0x100
200006de:	04d7f563          	bgeu	a5,a3,20000728 <.loop402+0x22>
200006e2:	00eb4b33          	xor	s6,s6,a4
200006e6:	4789                	li	a5,2
200006e8:	06f99363          	bne	s3,a5,2000074e <.loop402+0x48>
200006ec:	8089                	srli	s1,s1,0x2
200006ee:	49d5                	li	s3,21
200006f0:	ec048ce3          	beqz	s1,200005c8 <FLASH_EEPROM_CMD+0xc0>
200006f4:	85da                	mv	a1,s6
200006f6:	4509                	li	a0,2
200006f8:	3b41                	jal	20000488 <FLASH_ROM_ADDR>
200006fa:	0911                	addi	s2,s2,4
200006fc:	ffc92703          	lw	a4,-4(s2)
20000700:	4791                	li	a5,4
20000702:	80e42023          	sw	a4,-2048(s0)

20000706 <.loop402>:
20000706:	80640703          	lb	a4,-2042(s0)
2000070a:	fe074ee3          	bltz	a4,20000706 <.loop402>
2000070e:	81340323          	sb	s3,-2042(s0)
20000712:	17fd                	addi	a5,a5,-1
20000714:	fbed                	bnez	a5,20000706 <.loop402>
20000716:	14fd                	addi	s1,s1,-1
20000718:	0b11                	addi	s6,s6,4
2000071a:	c481                	beqz	s1,20000722 <.loop402+0x1c>
2000071c:	0ffb7793          	andi	a5,s6,255
20000720:	ffe9                	bnez	a5,200006fa <FLASH_EEPROM_CMD+0x1f2>
20000722:	337d                	jal	200004d0 <FLASH_ROM_WAIT>
20000724:	f571                	bnez	a0,200006f0 <FLASH_EEPROM_CMD+0x1e8>
20000726:	b5e1                	j	200005ee <FLASH_EEPROM_CMD+0xe6>
20000728:	400017b7          	lui	a5,0x40001
2000072c:	0457c703          	lbu	a4,69(a5) # 40001045 <_eusrstack+0x1fff9045>
20000730:	000807b7          	lui	a5,0x80
20000734:	02077713          	andi	a4,a4,32
20000738:	e319                	bnez	a4,2000073e <.loop402+0x38>
2000073a:	000787b7          	lui	a5,0x78
2000073e:	5579                	li	a0,-2
20000740:	eafb78e3          	bgeu	s6,a5,200005f0 <FLASH_EEPROM_CMD+0xe8>
20000744:	009b0733          	add	a4,s6,s1
20000748:	f8e7ffe3          	bgeu	a5,a4,200006e6 <FLASH_EEPROM_CMD+0x1de>
2000074c:	b555                	j	200005f0 <FLASH_EEPROM_CMD+0xe8>
2000074e:	4785                	li	a5,1
20000750:	f2f982e3          	beq	s3,a5,20000674 <FLASH_EEPROM_CMD+0x16c>
20000754:	85da                	mv	a1,s6
20000756:	452d                	li	a0,11
20000758:	3b05                	jal	20000488 <FLASH_ROM_ADDR>
2000075a:	fff48993          	addi	s3,s1,-1 # 7ffff <_data_lma+0x79983>
2000075e:	e60485e3          	beqz	s1,200005c8 <FLASH_EEPROM_CMD+0xc0>
20000762:	3329                	jal	2000046c <FLASH_ROM_IN>
20000764:	0039f793          	andi	a5,s3,3
20000768:	eb91                	bnez	a5,2000077c <.loop402+0x76>
2000076a:	80042683          	lw	a3,-2048(s0)
2000076e:	00092703          	lw	a4,0(s2)
20000772:	00490793          	addi	a5,s2,4
20000776:	e4e69ae3          	bne	a3,a4,200005ca <FLASH_EEPROM_CMD+0xc2>
2000077a:	893e                	mv	s2,a5
2000077c:	84ce                	mv	s1,s3
2000077e:	bff1                	j	2000075a <.loop402+0x54>
20000780:	47b5                	li	a5,13
20000782:	00f99663          	bne	s3,a5,2000078e <.loop402+0x88>
20000786:	0b900513          	li	a0,185
2000078a:	31c9                	jal	2000044c <FLASH_ROM_BEG>
2000078c:	bd35                	j	200005c8 <FLASH_EEPROM_CMD+0xc0>
2000078e:	47b1                	li	a5,12
20000790:	0ab00513          	li	a0,171
20000794:	fef98be3          	beq	s3,a5,2000078a <.loop402+0x84>
20000798:	4799                	li	a5,6
2000079a:	04f99163          	bne	s3,a5,200007dc <.loop402+0xd6>
2000079e:	000805b7          	lui	a1,0x80
200007a2:	00bb65b3          	or	a1,s6,a1
200007a6:	452d                	li	a0,11
200007a8:	31c5                	jal	20000488 <FLASH_ROM_ADDR>
200007aa:	4481                	li	s1,0
200007ac:	4b8d                	li	s7,3
200007ae:	49a1                	li	s3,8
200007b0:	3975                	jal	2000046c <FLASH_ROM_IN>
200007b2:	01749663          	bne	s1,s7,200007be <.loop402+0xb8>
200007b6:	80042783          	lw	a5,-2048(s0)
200007ba:	00f92023          	sw	a5,0(s2)
200007be:	0485                	addi	s1,s1,1
200007c0:	ff3498e3          	bne	s1,s3,200007b0 <.loop402+0xaa>
200007c4:	80042783          	lw	a5,-2048(s0)
200007c8:	012b1713          	slli	a4,s6,0x12
200007cc:	00075563          	bgez	a4,200007d6 <.loop402+0xd0>
200007d0:	00f91223          	sh	a5,4(s2)
200007d4:	bbd5                	j	200005c8 <FLASH_EEPROM_CMD+0xc0>
200007d6:	00f92223          	sw	a5,4(s2)
200007da:	b3fd                	j	200005c8 <FLASH_EEPROM_CMD+0xc0>
200007dc:	479d                	li	a5,7
200007de:	02f99963          	bne	s3,a5,20000810 <.loop402+0x10a>
200007e2:	4581                	li	a1,0
200007e4:	04b00513          	li	a0,75
200007e8:	3145                	jal	20000488 <FLASH_ROM_ADDR>
200007ea:	44bd                	li	s1,15
200007ec:	00092023          	sw	zero,0(s2)
200007f0:	00092223          	sw	zero,4(s2)
200007f4:	59fd                	li	s3,-1
200007f6:	399d                	jal	2000046c <FLASH_ROM_IN>
200007f8:	0074f793          	andi	a5,s1,7
200007fc:	97ca                	add	a5,a5,s2
200007fe:	0007c703          	lbu	a4,0(a5) # 78000 <_data_lma+0x71984>
20000802:	14fd                	addi	s1,s1,-1
20000804:	8d39                	xor	a0,a0,a4
20000806:	00a78023          	sb	a0,0(a5)
2000080a:	ff3496e3          	bne	s1,s3,200007f6 <.loop402+0xf0>
2000080e:	bb6d                	j	200005c8 <FLASH_EEPROM_CMD+0xc0>
20000810:	47a1                	li	a5,8
20000812:	04f99263          	bne	s3,a5,20000856 <.loop402+0x150>
20000816:	396d                	jal	200004d0 <FLASH_ROM_WAIT>
20000818:	4481                	li	s1,0
2000081a:	000b0d63          	beqz	s6,20000834 <.loop402+0x12e>
2000081e:	478d                	li	a5,3
20000820:	03c00493          	li	s1,60
20000824:	00fb0863          	beq	s6,a5,20000834 <.loop402+0x12e>
20000828:	05000493          	li	s1,80
2000082c:	018b0463          	beq	s6,s8,20000834 <.loop402+0x12e>
20000830:	04400493          	li	s1,68
20000834:	07c57513          	andi	a0,a0,124
20000838:	d89508e3          	beq	a0,s1,200005c8 <FLASH_EEPROM_CMD+0xc0>
2000083c:	4519                	li	a0,6
2000083e:	3139                	jal	2000044c <FLASH_ROM_BEG>
20000840:	3939                	jal	2000045e <FLASH_ROM_END>
20000842:	4505                	li	a0,1
20000844:	3121                	jal	2000044c <FLASH_ROM_BEG>
20000846:	8526                	mv	a0,s1
20000848:	390d                	jal	2000047a <FLASH_ROM_OUT>
2000084a:	4509                	li	a0,2
2000084c:	313d                	jal	2000047a <FLASH_ROM_OUT>
2000084e:	3149                	jal	200004d0 <FLASH_ROM_WAIT>
20000850:	d6051ce3          	bnez	a0,200005c8 <FLASH_EEPROM_CMD+0xc0>
20000854:	bb69                	j	200005ee <FLASH_EEPROM_CMD+0xe6>
20000856:	4791                	li	a5,4
20000858:	00f99963          	bne	s3,a5,2000086a <.loop402+0x164>
2000085c:	06600513          	li	a0,102
20000860:	36f5                	jal	2000044c <FLASH_ROM_BEG>
20000862:	3ef5                	jal	2000045e <FLASH_ROM_END>
20000864:	09900513          	li	a0,153
20000868:	b70d                	j	2000078a <.loop402+0x84>
2000086a:	d4098fe3          	beqz	s3,200005c8 <FLASH_EEPROM_CMD+0xc0>
2000086e:	54f1                	li	s1,-4
20000870:	bba9                	j	200005ca <FLASH_EEPROM_CMD+0xc2>

20000872 <tmos_memcpy>:
tmos_memcpy():
20000872:	cd19                	beqz	a0,20000890 <tmos_memcpy+0x1e>
20000874:	cd91                	beqz	a1,20000890 <tmos_memcpy+0x1e>
20000876:	ce09                	beqz	a2,20000890 <tmos_memcpy+0x1e>
20000878:	4781                	li	a5,0
2000087a:	00f58733          	add	a4,a1,a5
2000087e:	00074683          	lbu	a3,0(a4) # 80000 <_data_lma+0x79984>
20000882:	00f50733          	add	a4,a0,a5
20000886:	0785                	addi	a5,a5,1
20000888:	00d70023          	sb	a3,0(a4)
2000088c:	fec797e3          	bne	a5,a2,2000087a <tmos_memcpy+0x8>
20000890:	8082                	ret

20000892 <tmos_memcpy_word>:
tmos_memcpy_word():
20000892:	c919                	beqz	a0,200008a8 <tmos_memcpy_word+0x16>
20000894:	c991                	beqz	a1,200008a8 <tmos_memcpy_word+0x16>
20000896:	ca09                	beqz	a2,200008a8 <tmos_memcpy_word+0x16>
20000898:	0591                	addi	a1,a1,4
2000089a:	ffc5a783          	lw	a5,-4(a1) # 7fffc <_data_lma+0x79980>
2000089e:	0511                	addi	a0,a0,4
200008a0:	167d                	addi	a2,a2,-1
200008a2:	fef52e23          	sw	a5,-4(a0)
200008a6:	bfc5                	j	20000896 <tmos_memcpy_word+0x4>
200008a8:	8082                	ret

200008aa <tmos_memset>:
tmos_memset():
200008aa:	c901                	beqz	a0,200008ba <tmos_memset+0x10>
200008ac:	c619                	beqz	a2,200008ba <tmos_memset+0x10>
200008ae:	962a                	add	a2,a2,a0
200008b0:	0505                	addi	a0,a0,1
200008b2:	feb50fa3          	sb	a1,-1(a0)
200008b6:	fea61de3          	bne	a2,a0,200008b0 <tmos_memset+0x6>
200008ba:	8082                	ret

200008bc <tmos_strlen>:
tmos_strlen():
200008bc:	4781                	li	a5,0
200008be:	00f50733          	add	a4,a0,a5
200008c2:	00070703          	lb	a4,0(a4)
200008c6:	e319                	bnez	a4,200008cc <tmos_strlen+0x10>
200008c8:	853e                	mv	a0,a5
200008ca:	8082                	ret
200008cc:	0785                	addi	a5,a5,1
200008ce:	bfc5                	j	200008be <tmos_strlen+0x2>

200008d0 <tmos_memdup>:
tmos_memdup():
200008d0:	1101                	addi	sp,sp,-32
200008d2:	862e                	mv	a2,a1
200008d4:	ca26                	sw	s1,20(sp)
200008d6:	84aa                	mv	s1,a0
200008d8:	01061513          	slli	a0,a2,0x10
200008dc:	04f00593          	li	a1,79
200008e0:	8141                	srli	a0,a0,0x10
200008e2:	cc22                	sw	s0,24(sp)
200008e4:	ce06                	sw	ra,28(sp)
200008e6:	c632                	sw	a2,12(sp)
200008e8:	571000ef          	jal	ra,20001658 <tmos_memory_allocate>
200008ec:	842a                	mv	s0,a0
200008ee:	c501                	beqz	a0,200008f6 <tmos_memdup+0x26>
200008f0:	4632                	lw	a2,12(sp)
200008f2:	85a6                	mv	a1,s1
200008f4:	3fbd                	jal	20000872 <tmos_memcpy>
200008f6:	8522                	mv	a0,s0
200008f8:	40f2                	lw	ra,28(sp)
200008fa:	4462                	lw	s0,24(sp)
200008fc:	44d2                	lw	s1,20(sp)
200008fe:	6105                	addi	sp,sp,32
20000900:	8082                	ret

20000902 <tmos_memcmp>:
tmos_memcmp():
20000902:	4785                	li	a5,1
20000904:	c115                	beqz	a0,20000928 <tmos_memcmp+0x26>
20000906:	c18d                	beqz	a1,20000928 <tmos_memcmp+0x26>
20000908:	c205                	beqz	a2,20000928 <tmos_memcmp+0x26>
2000090a:	4781                	li	a5,0
2000090c:	00f506b3          	add	a3,a0,a5
20000910:	00f58733          	add	a4,a1,a5
20000914:	0006c683          	lbu	a3,0(a3) # 100000 <_data_lma+0xf9984>
20000918:	00074703          	lbu	a4,0(a4)
2000091c:	00e69863          	bne	a3,a4,2000092c <tmos_memcmp+0x2a>
20000920:	0785                	addi	a5,a5,1
20000922:	fef615e3          	bne	a2,a5,2000090c <tmos_memcmp+0xa>
20000926:	4785                	li	a5,1
20000928:	853e                	mv	a0,a5
2000092a:	8082                	ret
2000092c:	4781                	li	a5,0
2000092e:	bfed                	j	20000928 <tmos_memcmp+0x26>

20000930 <tmos_revmemcpy>:
tmos_revmemcpy():
20000930:	fff60793          	addi	a5,a2,-1
20000934:	95be                	add	a1,a1,a5
20000936:	962a                	add	a2,a2,a0
20000938:	00c51363          	bne	a0,a2,2000093e <tmos_revmemcpy+0xe>
2000093c:	8082                	ret
2000093e:	15fd                	addi	a1,a1,-1
20000940:	0015c783          	lbu	a5,1(a1)
20000944:	0505                	addi	a0,a0,1
20000946:	fef50fa3          	sb	a5,-1(a0)
2000094a:	b7fd                	j	20000938 <tmos_revmemcpy+0x8>

2000094c <tmos_isbufset>:
tmos_isbufset():
2000094c:	87aa                	mv	a5,a0
2000094e:	4501                	li	a0,0
20000950:	cf81                	beqz	a5,20000968 <tmos_isbufset+0x1c>
20000952:	ce09                	beqz	a2,2000096c <tmos_isbufset+0x20>
20000954:	963e                	add	a2,a2,a5
20000956:	0785                	addi	a5,a5,1
20000958:	fff7c703          	lbu	a4,-1(a5)
2000095c:	00b71763          	bne	a4,a1,2000096a <tmos_isbufset+0x1e>
20000960:	fef61be3          	bne	a2,a5,20000956 <tmos_isbufset+0xa>
20000964:	4505                	li	a0,1
20000966:	8082                	ret
20000968:	8082                	ret
2000096a:	4501                	li	a0,0
2000096c:	8082                	ret

2000096e <tmos_proces_system_time>:
tmos_proces_system_time():
2000096e:	7179                	addi	sp,sp,-48
20000970:	00003797          	auipc	a5,0x3
20000974:	9c478793          	addi	a5,a5,-1596 # 20003334 <taskHead>
20000978:	d422                	sw	s0,40(sp)
2000097a:	4380                	lw	s0,0(a5)
2000097c:	d606                	sw	ra,44(sp)
2000097e:	d226                	sw	s1,36(sp)
20000980:	d04a                	sw	s2,32(sp)
20000982:	ce4e                	sw	s3,28(sp)
20000984:	cc52                	sw	s4,24(sp)
20000986:	ca56                	sw	s5,20(sp)
20000988:	c85a                	sw	s6,16(sp)
2000098a:	c65e                	sw	s7,12(sp)
2000098c:	c462                	sw	s8,8(sp)
2000098e:	cc5d                	beqz	s0,20000a4c <tmos_proces_system_time+0xde>
20000990:	01c9c937          	lui	s2,0x1c9c
20000994:	4b81                	li	s7,0
20000996:	00003a17          	auipc	s4,0x3
2000099a:	9e6a0a13          	addi	s4,s4,-1562 # 2000337c <fnGetClockCBs>
2000099e:	00003497          	auipc	s1,0x3
200009a2:	99a48493          	addi	s1,s1,-1638 # 20003338 <ble>
200009a6:	37f90913          	addi	s2,s2,895 # 1c9c37f <_data_lma+0x1c95d03>
200009aa:	00003a97          	auipc	s5,0x3
200009ae:	936a8a93          	addi	s5,s5,-1738 # 200032e0 <gTmosPara>
200009b2:	a8c009b7          	lui	s3,0xa8c00
200009b6:	57400b37          	lui	s6,0x57400
200009ba:	00245783          	lhu	a5,2(s0)
200009be:	e395                	bnez	a5,200009e2 <tmos_proces_system_time+0x74>
200009c0:	445c                	lw	a5,12(s0)
200009c2:	000b9d63          	bnez	s7,200009dc <tmos_proces_system_time+0x6e>
200009c6:	00003717          	auipc	a4,0x3
200009ca:	96f72723          	sw	a5,-1682(a4) # 20003334 <taskHead>
200009ce:	00c42c03          	lw	s8,12(s0)
200009d2:	8522                	mv	a0,s0
200009d4:	557000ef          	jal	ra,2000172a <tmos_memory_free>
200009d8:	8462                	mv	s0,s8
200009da:	a899                	j	20000a30 <tmos_proces_system_time+0xc2>
200009dc:	00fba623          	sw	a5,12(s7) # 100c <_einit+0x1008>
200009e0:	b7fd                	j	200009ce <tmos_proces_system_time+0x60>
200009e2:	000a2783          	lw	a5,0(s4)
200009e6:	9782                	jalr	a5
200009e8:	01648683          	lb	a3,22(s1)
200009ec:	441c                	lw	a5,8(s0)
200009ee:	0606db63          	bgez	a3,20000a64 <tmos_proces_system_time+0xf6>
200009f2:	40f50733          	sub	a4,a0,a5
200009f6:	08e96763          	bltu	s2,a4,20000a84 <tmos_proces_system_time+0x116>
200009fa:	00003797          	auipc	a5,0x3
200009fe:	8e07ab23          	sw	zero,-1802(a5) # 200032f0 <gTmosPara+0x10>
20000a02:	00245583          	lhu	a1,2(s0)
20000a06:	00044503          	lbu	a0,0(s0)
20000a0a:	e0002097          	auipc	ra,0xe0002
20000a0e:	6fa080e7          	jalr	1786(ra) # 3104 <tmos_set_event>
20000a12:	405c                	lw	a5,4(s0)
20000a14:	4458                	lw	a4,12(s0)
20000a16:	cfa9                	beqz	a5,20000a70 <tmos_proces_system_time+0x102>
20000a18:	4414                	lw	a3,8(s0)
20000a1a:	97b6                	add	a5,a5,a3
20000a1c:	01648683          	lb	a3,22(s1)
20000a20:	0006c563          	bltz	a3,20000a2a <tmos_proces_system_time+0xbc>
20000a24:	0137e363          	bltu	a5,s3,20000a2a <tmos_proces_system_time+0xbc>
20000a28:	97da                	add	a5,a5,s6
20000a2a:	c41c                	sw	a5,8(s0)
20000a2c:	8ba2                	mv	s7,s0
20000a2e:	843a                	mv	s0,a4
20000a30:	f449                	bnez	s0,200009ba <tmos_proces_system_time+0x4c>
20000a32:	00003797          	auipc	a5,0x3
20000a36:	8ae78793          	addi	a5,a5,-1874 # 200032e0 <gTmosPara>
20000a3a:	4b9c                	lw	a5,16(a5)
20000a3c:	4709                	li	a4,2
20000a3e:	06f77863          	bgeu	a4,a5,20000aae <tmos_proces_system_time+0x140>
20000a42:	17f9                	addi	a5,a5,-2
20000a44:	00003717          	auipc	a4,0x3
20000a48:	8af72623          	sw	a5,-1876(a4) # 200032f0 <gTmosPara+0x10>
20000a4c:	50b2                	lw	ra,44(sp)
20000a4e:	5422                	lw	s0,40(sp)
20000a50:	5492                	lw	s1,36(sp)
20000a52:	5902                	lw	s2,32(sp)
20000a54:	49f2                	lw	s3,28(sp)
20000a56:	4a62                	lw	s4,24(sp)
20000a58:	4ad2                	lw	s5,20(sp)
20000a5a:	4b42                	lw	s6,16(sp)
20000a5c:	4bb2                	lw	s7,12(sp)
20000a5e:	4c22                	lw	s8,8(sp)
20000a60:	6145                	addi	sp,sp,48
20000a62:	8082                	ret
20000a64:	f8f577e3          	bgeu	a0,a5,200009f2 <tmos_proces_system_time+0x84>
20000a68:	40f98733          	sub	a4,s3,a5
20000a6c:	972a                	add	a4,a4,a0
20000a6e:	b761                	j	200009f6 <tmos_proces_system_time+0x88>
20000a70:	000b9763          	bnez	s7,20000a7e <tmos_proces_system_time+0x110>
20000a74:	00003797          	auipc	a5,0x3
20000a78:	8ce7a023          	sw	a4,-1856(a5) # 20003334 <taskHead>
20000a7c:	bf89                	j	200009ce <tmos_proces_system_time+0x60>
20000a7e:	00eba623          	sw	a4,12(s7)
20000a82:	b7b1                	j	200009ce <tmos_proces_system_time+0x60>
20000a84:	50d8                	lw	a4,36(s1)
20000a86:	cf09                	beqz	a4,20000aa0 <tmos_proces_system_time+0x132>
20000a88:	0006df63          	bgez	a3,20000aa6 <tmos_proces_system_time+0x138>
20000a8c:	40a78533          	sub	a0,a5,a0
20000a90:	010aa783          	lw	a5,16(s5)
20000a94:	00f57663          	bgeu	a0,a5,20000aa0 <tmos_proces_system_time+0x132>
20000a98:	00003797          	auipc	a5,0x3
20000a9c:	84a7ac23          	sw	a0,-1960(a5) # 200032f0 <gTmosPara+0x10>
20000aa0:	8ba2                	mv	s7,s0
20000aa2:	4440                	lw	s0,12(s0)
20000aa4:	b771                	j	20000a30 <tmos_proces_system_time+0xc2>
20000aa6:	fea7f3e3          	bgeu	a5,a0,20000a8c <tmos_proces_system_time+0x11e>
20000aaa:	97ce                	add	a5,a5,s3
20000aac:	b7c5                	j	20000a8c <tmos_proces_system_time+0x11e>
20000aae:	00003797          	auipc	a5,0x3
20000ab2:	8407a123          	sw	zero,-1982(a5) # 200032f0 <gTmosPara+0x10>
20000ab6:	bf59                	j	20000a4c <tmos_proces_system_time+0xde>

20000ab8 <TMOS_SystemProcess>:
TMOS_SystemProcess():
20000ab8:	1141                	addi	sp,sp,-16
20000aba:	c422                	sw	s0,8(sp)
20000abc:	00003417          	auipc	s0,0x3
20000ac0:	85440413          	addi	s0,s0,-1964 # 20003310 <pfnProcessCBs>
20000ac4:	401c                	lw	a5,0(s0)
20000ac6:	c606                	sw	ra,12(sp)
20000ac8:	c226                	sw	s1,4(sp)
20000aca:	c04a                	sw	s2,0(sp)
20000acc:	c791                	beqz	a5,20000ad8 <TMOS_SystemProcess+0x20>
20000ace:	9782                	jalr	a5
20000ad0:	00003797          	auipc	a5,0x3
20000ad4:	8407a023          	sw	zero,-1984(a5) # 20003310 <pfnProcessCBs>
20000ad8:	405c                	lw	a5,4(s0)
20000ada:	c391                	beqz	a5,20000ade <TMOS_SystemProcess+0x26>
20000adc:	9782                	jalr	a5
20000ade:	401c                	lw	a5,0(s0)
20000ae0:	1c079063          	bnez	a5,20000ca0 <TMOS_SystemProcess+0x1e8>
20000ae4:	00003797          	auipc	a5,0x3
20000ae8:	8ad7c783          	lbu	a5,-1875(a5) # 20003391 <gBleIPPara+0x5>
20000aec:	8b85                	andi	a5,a5,1
20000aee:	c795                	beqz	a5,20000b1a <TMOS_SystemProcess+0x62>
20000af0:	00003797          	auipc	a5,0x3
20000af4:	8a0780a3          	sb	zero,-1887(a5) # 20003391 <gBleIPPara+0x5>
20000af8:	00003717          	auipc	a4,0x3
20000afc:	89b74703          	lbu	a4,-1893(a4) # 20003393 <gBleIPPara+0x7>
20000b00:	4791                	li	a5,4
20000b02:	00e7fc63          	bgeu	a5,a4,20000b1a <TMOS_SystemProcess+0x62>
20000b06:	2e81                	jal	20000e56 <ll_rx_wait_finish>
20000b08:	00003797          	auipc	a5,0x3
20000b0c:	88b7c783          	lbu	a5,-1909(a5) # 20003393 <gBleIPPara+0x7>
20000b10:	17f9                	addi	a5,a5,-2
20000b12:	078a                	slli	a5,a5,0x2
20000b14:	97a2                	add	a5,a5,s0
20000b16:	439c                	lw	a5,0(a5)
20000b18:	9782                	jalr	a5
20000b1a:	00003917          	auipc	s2,0x3
20000b1e:	8b290913          	addi	s2,s2,-1870 # 200033cc <rfInfo>
20000b22:	00c94783          	lbu	a5,12(s2)
20000b26:	8b91                	andi	a5,a5,4
20000b28:	c399                	beqz	a5,20000b2e <TMOS_SystemProcess+0x76>
20000b2a:	265000ef          	jal	ra,2000158e <RF_FrequencyHoppingChange>
20000b2e:	441c                	lw	a5,8(s0)
20000b30:	c391                	beqz	a5,20000b34 <TMOS_SystemProcess+0x7c>
20000b32:	9782                	jalr	a5
20000b34:	00002497          	auipc	s1,0x2
20000b38:	7fc48493          	addi	s1,s1,2044 # 20003330 <EventsArr>
20000b3c:	4098                	lw	a4,0(s1)
20000b3e:	00002617          	auipc	a2,0x2
20000b42:	7a364603          	lbu	a2,1955(a2) # 200032e1 <gTmosPara+0x1>
20000b46:	00002797          	auipc	a5,0x2
20000b4a:	79a7c783          	lbu	a5,1946(a5) # 200032e0 <gTmosPara>
20000b4e:	00179693          	slli	a3,a5,0x1
20000b52:	96ba                	add	a3,a3,a4
20000b54:	0006d683          	lhu	a3,0(a3)
20000b58:	cad5                	beqz	a3,20000c0c <TMOS_SystemProcess+0x154>
20000b5a:	00002797          	auipc	a5,0x2
20000b5e:	7867c783          	lbu	a5,1926(a5) # 200032e0 <gTmosPara>
20000b62:	0ac7ef63          	bltu	a5,a2,20000c20 <TMOS_SystemProcess+0x168>
20000b66:	00002797          	auipc	a5,0x2
20000b6a:	76078d23          	sb	zero,1914(a5) # 200032e0 <gTmosPara>
20000b6e:	401c                	lw	a5,0(s0)
20000b70:	12079863          	bnez	a5,20000ca0 <TMOS_SystemProcess+0x1e8>
20000b74:	00003797          	auipc	a5,0x3
20000b78:	8217c783          	lbu	a5,-2015(a5) # 20003395 <gBleIPPara+0x9>
20000b7c:	cf91                	beqz	a5,20000b98 <TMOS_SystemProcess+0xe0>
20000b7e:	00003797          	auipc	a5,0x3
20000b82:	8157c783          	lbu	a5,-2027(a5) # 20003393 <gBleIPPara+0x7>
20000b86:	eb89                	bnez	a5,20000b98 <TMOS_SystemProcess+0xe0>
20000b88:	00003797          	auipc	a5,0x3
20000b8c:	800786a3          	sb	zero,-2035(a5) # 20003395 <gBleIPPara+0x9>
20000b90:	e0003097          	auipc	ra,0xe0003
20000b94:	220080e7          	jalr	544(ra) # 3db0 <ll_multi_states_process>
20000b98:	00002797          	auipc	a5,0x2
20000b9c:	7e478793          	addi	a5,a5,2020 # 2000337c <fnGetClockCBs>
20000ba0:	439c                	lw	a5,0(a5)
20000ba2:	0e078f63          	beqz	a5,20000ca0 <TMOS_SystemProcess+0x1e8>
20000ba6:	a8c007b7          	lui	a5,0xa8c00
20000baa:	00002717          	auipc	a4,0x2
20000bae:	74f72323          	sw	a5,1862(a4) # 200032f0 <gTmosPara+0x10>
20000bb2:	3b75                	jal	2000096e <tmos_proces_system_time>
20000bb4:	00002797          	auipc	a5,0x2
20000bb8:	78478793          	addi	a5,a5,1924 # 20003338 <ble>
20000bbc:	53dc                	lw	a5,36(a5)
20000bbe:	c3ed                	beqz	a5,20000ca0 <TMOS_SystemProcess+0x1e8>
20000bc0:	00002717          	auipc	a4,0x2
20000bc4:	72070713          	addi	a4,a4,1824 # 200032e0 <gTmosPara>
20000bc8:	4b18                	lw	a4,16(a4)
20000bca:	00002797          	auipc	a5,0x2
20000bce:	7837c783          	lbu	a5,1923(a5) # 2000334d <ble+0x15>
20000bd2:	0cf76763          	bltu	a4,a5,20000ca0 <TMOS_SystemProcess+0x1e8>
20000bd6:	00002717          	auipc	a4,0x2
20000bda:	7bd74703          	lbu	a4,1981(a4) # 20003393 <gBleIPPara+0x7>
20000bde:	4791                	li	a5,4
20000be0:	0ce7e063          	bltu	a5,a4,20000ca0 <TMOS_SystemProcess+0x1e8>
20000be4:	00c94783          	lbu	a5,12(s2)
20000be8:	8b91                	andi	a5,a5,4
20000bea:	ebdd                	bnez	a5,20000ca0 <TMOS_SystemProcess+0x1e8>
20000bec:	4090                	lw	a2,0(s1)
20000bee:	00002697          	auipc	a3,0x2
20000bf2:	6f36c683          	lbu	a3,1779(a3) # 200032e1 <gTmosPara+0x1>
20000bf6:	0ad7cb63          	blt	a5,a3,20000cac <TMOS_SystemProcess+0x1f4>
20000bfa:	4422                	lw	s0,8(sp)
20000bfc:	40b2                	lw	ra,12(sp)
20000bfe:	4492                	lw	s1,4(sp)
20000c00:	4902                	lw	s2,0(sp)
20000c02:	0141                	addi	sp,sp,16
20000c04:	e0002317          	auipc	t1,0xe0002
20000c08:	39c30067          	jr	924(t1) # 2fa0 <tmos_proces_sleep>
20000c0c:	0785                	addi	a5,a5,1
20000c0e:	0ff7f793          	andi	a5,a5,255
20000c12:	00002697          	auipc	a3,0x2
20000c16:	6cf68723          	sb	a5,1742(a3) # 200032e0 <gTmosPara>
20000c1a:	f2c7e6e3          	bltu	a5,a2,20000b46 <TMOS_SystemProcess+0x8e>
20000c1e:	bf35                	j	20000b5a <TMOS_SystemProcess+0xa2>
20000c20:	0786                	slli	a5,a5,0x1
20000c22:	973e                	add	a4,a4,a5
20000c24:	00075583          	lhu	a1,0(a4)
20000c28:	00071023          	sh	zero,0(a4)
20000c2c:	00002797          	auipc	a5,0x2
20000c30:	70079023          	sh	zero,1792(a5) # 2000332c <eventsClear>
20000c34:	00002797          	auipc	a5,0x2
20000c38:	6d878793          	addi	a5,a5,1752 # 2000330c <tasksArr>
20000c3c:	439c                	lw	a5,0(a5)
20000c3e:	00002517          	auipc	a0,0x2
20000c42:	6a254503          	lbu	a0,1698(a0) # 200032e0 <gTmosPara>
20000c46:	00251713          	slli	a4,a0,0x2
20000c4a:	97ba                	add	a5,a5,a4
20000c4c:	439c                	lw	a5,0(a5)
20000c4e:	9782                	jalr	a5
20000c50:	00002797          	auipc	a5,0x2
20000c54:	6dc7d783          	lhu	a5,1756(a5) # 2000332c <eventsClear>
20000c58:	00002717          	auipc	a4,0x2
20000c5c:	68874703          	lbu	a4,1672(a4) # 200032e0 <gTmosPara>
20000c60:	fff7c793          	not	a5,a5
20000c64:	8d7d                	and	a0,a0,a5
20000c66:	00171793          	slli	a5,a4,0x1
20000c6a:	4098                	lw	a4,0(s1)
20000c6c:	973e                	add	a4,a4,a5
20000c6e:	00075783          	lhu	a5,0(a4)
20000c72:	8d5d                	or	a0,a0,a5
20000c74:	00a71023          	sh	a0,0(a4)
20000c78:	00002797          	auipc	a5,0x2
20000c7c:	6687c783          	lbu	a5,1640(a5) # 200032e0 <gTmosPara>
20000c80:	c791                	beqz	a5,20000c8c <TMOS_SystemProcess+0x1d4>
20000c82:	0785                	addi	a5,a5,1
20000c84:	00002717          	auipc	a4,0x2
20000c88:	64f70e23          	sb	a5,1628(a4) # 200032e0 <gTmosPara>
20000c8c:	00002717          	auipc	a4,0x2
20000c90:	65474703          	lbu	a4,1620(a4) # 200032e0 <gTmosPara>
20000c94:	00002797          	auipc	a5,0x2
20000c98:	64d7c783          	lbu	a5,1613(a5) # 200032e1 <gTmosPara+0x1>
20000c9c:	ecf775e3          	bgeu	a4,a5,20000b66 <TMOS_SystemProcess+0xae>
20000ca0:	40b2                	lw	ra,12(sp)
20000ca2:	4422                	lw	s0,8(sp)
20000ca4:	4492                	lw	s1,4(sp)
20000ca6:	4902                	lw	s2,0(sp)
20000ca8:	0141                	addi	sp,sp,16
20000caa:	8082                	ret
20000cac:	00179713          	slli	a4,a5,0x1
20000cb0:	9732                	add	a4,a4,a2
20000cb2:	00075703          	lhu	a4,0(a4)
20000cb6:	f76d                	bnez	a4,20000ca0 <TMOS_SystemProcess+0x1e8>
20000cb8:	0785                	addi	a5,a5,1
20000cba:	bf35                	j	20000bf6 <TMOS_SystemProcess+0x13e>

20000cbc <clockGetHSEValue>:
clockGetHSEValue():
20000cbc:	67ad                	lui	a5,0xb
20000cbe:	4000c737          	lui	a4,0x4000c
20000cc2:	07bd                	addi	a5,a5,15
20000cc4:	20f72623          	sw	a5,524(a4) # 4000c20c <_eusrstack+0x2000420c>
20000cc8:	0000100f          	fence.i
20000ccc:	00002797          	auipc	a5,0x2
20000cd0:	61478793          	addi	a5,a5,1556 # 200032e0 <gTmosPara>
20000cd4:	4fc8                	lw	a0,28(a5)
20000cd6:	26872783          	lw	a5,616(a4)
20000cda:	66bd                	lui	a3,0xf
20000cdc:	06bd                	addi	a3,a3,15
20000cde:	fff7c793          	not	a5,a5
20000ce2:	8399                	srli	a5,a5,0x6
20000ce4:	056a                	slli	a0,a0,0x1a
20000ce6:	20d72623          	sw	a3,524(a4)
20000cea:	8d5d                	or	a0,a0,a5
20000cec:	8082                	ret

20000cee <clockGetLSEValue>:
clockGetLSEValue():
20000cee:	1141                	addi	sp,sp,-16
20000cf0:	400017b7          	lui	a5,0x40001
20000cf4:	5f98                	lw	a4,56(a5)
20000cf6:	c63a                	sw	a4,12(sp)
20000cf8:	5f94                	lw	a3,56(a5)
20000cfa:	4732                	lw	a4,12(sp)
20000cfc:	fee69ce3          	bne	a3,a4,20000cf4 <clockGetLSEValue+0x6>
20000d00:	4532                	lw	a0,12(sp)
20000d02:	0141                	addi	sp,sp,16
20000d04:	8082                	ret

20000d06 <TMOS_TimerIRQHandler>:
TMOS_TimerIRQHandler():
20000d06:	8082                	ret

20000d08 <BB_IRQLibHandler>:
BB_IRQLibHandler():
20000d08:	715d                	addi	sp,sp,-80
20000d0a:	d23a                	sw	a4,36(sp)
20000d0c:	00002717          	auipc	a4,0x2
20000d10:	67870713          	addi	a4,a4,1656 # 20003384 <gptrBBReg>
20000d14:	d436                	sw	a3,40(sp)
20000d16:	4314                	lw	a3,0(a4)
20000d18:	d03e                	sw	a5,32(sp)
20000d1a:	de22                	sw	s0,60(sp)
20000d1c:	5e9c                	lw	a5,56(a3)
20000d1e:	ca4a                	sw	s2,20(sp)
20000d20:	c686                	sw	ra,76(sp)
20000d22:	8399                	srli	a5,a5,0x6
20000d24:	c496                	sw	t0,72(sp)
20000d26:	c29a                	sw	t1,68(sp)
20000d28:	c09e                	sw	t2,64(sp)
20000d2a:	dc26                	sw	s1,56(sp)
20000d2c:	da2a                	sw	a0,52(sp)
20000d2e:	d82e                	sw	a1,48(sp)
20000d30:	d632                	sw	a2,44(sp)
20000d32:	ce42                	sw	a6,28(sp)
20000d34:	cc46                	sw	a7,24(sp)
20000d36:	c872                	sw	t3,16(sp)
20000d38:	c676                	sw	t4,12(sp)
20000d3a:	c47a                	sw	t5,8(sp)
20000d3c:	c27e                	sw	t6,4(sp)
20000d3e:	8b85                	andi	a5,a5,1
20000d40:	843a                	mv	s0,a4
20000d42:	00002917          	auipc	s2,0x2
20000d46:	63e90913          	addi	s2,s2,1598 # 20003380 <gptrAESReg>
20000d4a:	cbd1                	beqz	a5,20000dde <BB_IRQLibHandler+0xd6>
20000d4c:	5e9c                	lw	a5,56(a3)
20000d4e:	00002497          	auipc	s1,0x2
20000d52:	63e48493          	addi	s1,s1,1598 # 2000338c <gBleIPPara>
20000d56:	f9f7f793          	andi	a5,a5,-97
20000d5a:	de9c                	sw	a5,56(a3)
20000d5c:	00002717          	auipc	a4,0x2
20000d60:	63674703          	lbu	a4,1590(a4) # 20003392 <gBleIPPara+0x6>
20000d64:	08000793          	li	a5,128
20000d68:	00f71b63          	bne	a4,a5,20000d7e <BB_IRQLibHandler+0x76>
20000d6c:	00092783          	lw	a5,0(s2)
20000d70:	439c                	lw	a5,0(a5)
20000d72:	0407f793          	andi	a5,a5,64
20000d76:	00002717          	auipc	a4,0x2
20000d7a:	60f70e23          	sb	a5,1564(a4) # 20003392 <gBleIPPara+0x6>
20000d7e:	0004c783          	lbu	a5,0(s1)
20000d82:	0407f793          	andi	a5,a5,64
20000d86:	c39d                	beqz	a5,20000dac <BB_IRQLibHandler+0xa4>
20000d88:	00002797          	auipc	a5,0x2
20000d8c:	5f478793          	addi	a5,a5,1524 # 2000337c <fnGetClockCBs>
20000d90:	439c                	lw	a5,0(a5)
20000d92:	9782                	jalr	a5
20000d94:	00002797          	auipc	a5,0x2
20000d98:	60a7a423          	sw	a0,1544(a5) # 2000339c <gBleIPPara+0x10>
20000d9c:	0004c783          	lbu	a5,0(s1)
20000da0:	0bf7f793          	andi	a5,a5,191
20000da4:	00002717          	auipc	a4,0x2
20000da8:	5ef70423          	sb	a5,1512(a4) # 2000338c <gBleIPPara>
20000dac:	0044c783          	lbu	a5,4(s1)
20000db0:	0407f793          	andi	a5,a5,64
20000db4:	e78d                	bnez	a5,20000dde <BB_IRQLibHandler+0xd6>
20000db6:	4785                	li	a5,1
20000db8:	00002717          	auipc	a4,0x2
20000dbc:	5cf70ca3          	sb	a5,1497(a4) # 20003391 <gBleIPPara+0x5>
20000dc0:	00002797          	auipc	a5,0x2
20000dc4:	5e878793          	addi	a5,a5,1512 # 200033a8 <gptrLLEReg>
20000dc8:	439c                	lw	a5,0(a5)
20000dca:	6709                	lui	a4,0x2
20000dcc:	c798                	sw	a4,8(a5)
20000dce:	fc000713          	li	a4,-64
20000dd2:	00002697          	auipc	a3,0x2
20000dd6:	5ae68f23          	sb	a4,1470(a3) # 20003390 <gBleIPPara+0x4>
20000dda:	44d8                	lw	a4,12(s1)
20000ddc:	d3f8                	sw	a4,100(a5)
20000dde:	401c                	lw	a5,0(s0)
20000de0:	5f98                	lw	a4,56(a5)
20000de2:	8311                	srli	a4,a4,0x4
20000de4:	8b05                	andi	a4,a4,1
20000de6:	cb09                	beqz	a4,20000df8 <BB_IRQLibHandler+0xf0>
20000de8:	5f98                	lw	a4,56(a5)
20000dea:	9b3d                	andi	a4,a4,-17
20000dec:	df98                	sw	a4,56(a5)
20000dee:	4705                	li	a4,1
20000df0:	00002697          	auipc	a3,0x2
20000df4:	5ae68023          	sb	a4,1440(a3) # 20003390 <gBleIPPara+0x4>
20000df8:	5f98                	lw	a4,56(a5)
20000dfa:	831d                	srli	a4,a4,0x7
20000dfc:	8b05                	andi	a4,a4,1
20000dfe:	cb11                	beqz	a4,20000e12 <BB_IRQLibHandler+0x10a>
20000e00:	5f98                	lw	a4,56(a5)
20000e02:	f7f77713          	andi	a4,a4,-129
20000e06:	df98                	sw	a4,56(a5)
20000e08:	4785                	li	a5,1
20000e0a:	00002717          	auipc	a4,0x2
20000e0e:	58f70323          	sb	a5,1414(a4) # 20003390 <gBleIPPara+0x4>
20000e12:	00092783          	lw	a5,0(s2)
20000e16:	43d8                	lw	a4,4(a5)
20000e18:	8305                	srli	a4,a4,0x1
20000e1a:	8b05                	andi	a4,a4,1
20000e1c:	c719                	beqz	a4,20000e2a <BB_IRQLibHandler+0x122>
20000e1e:	43d8                	lw	a4,4(a5)
20000e20:	9b75                	andi	a4,a4,-3
20000e22:	c3d8                	sw	a4,4(a5)
20000e24:	43d8                	lw	a4,4(a5)
20000e26:	9b79                	andi	a4,a4,-2
20000e28:	c3d8                	sw	a4,4(a5)
20000e2a:	5472                	lw	s0,60(sp)
20000e2c:	40b6                	lw	ra,76(sp)
20000e2e:	42a6                	lw	t0,72(sp)
20000e30:	4316                	lw	t1,68(sp)
20000e32:	4386                	lw	t2,64(sp)
20000e34:	54e2                	lw	s1,56(sp)
20000e36:	5552                	lw	a0,52(sp)
20000e38:	55c2                	lw	a1,48(sp)
20000e3a:	5632                	lw	a2,44(sp)
20000e3c:	56a2                	lw	a3,40(sp)
20000e3e:	5712                	lw	a4,36(sp)
20000e40:	5782                	lw	a5,32(sp)
20000e42:	4872                	lw	a6,28(sp)
20000e44:	48e2                	lw	a7,24(sp)
20000e46:	4952                	lw	s2,20(sp)
20000e48:	4e42                	lw	t3,16(sp)
20000e4a:	4eb2                	lw	t4,12(sp)
20000e4c:	4f22                	lw	t5,8(sp)
20000e4e:	4f92                	lw	t6,4(sp)
20000e50:	6161                	addi	sp,sp,80
20000e52:	30200073          	mret

20000e56 <ll_rx_wait_finish>:
ll_rx_wait_finish():
20000e56:	00002797          	auipc	a5,0x2
20000e5a:	55278793          	addi	a5,a5,1362 # 200033a8 <gptrLLEReg>
20000e5e:	4394                	lw	a3,0(a5)
20000e60:	00002797          	auipc	a5,0x2
20000e64:	52c78793          	addi	a5,a5,1324 # 2000338c <gBleIPPara>
20000e68:	0007c703          	lbu	a4,0(a5)
20000e6c:	8b05                	andi	a4,a4,1
20000e6e:	cb11                	beqz	a4,20000e82 <ll_rx_wait_finish+0x2c>
20000e70:	00002797          	auipc	a5,0x2
20000e74:	52078023          	sb	zero,1312(a5) # 20003390 <gBleIPPara+0x4>
20000e78:	00002797          	auipc	a5,0x2
20000e7c:	50078ca3          	sb	zero,1305(a5) # 20003391 <gBleIPPara+0x5>
20000e80:	8082                	ret
20000e82:	0017c703          	lbu	a4,1(a5)
20000e86:	8b05                	andi	a4,a4,1
20000e88:	f765                	bnez	a4,20000e70 <ll_rx_wait_finish+0x1a>
20000e8a:	52f8                	lw	a4,100(a3)
20000e8c:	ff71                	bnez	a4,20000e68 <ll_rx_wait_finish+0x12>
20000e8e:	0057c783          	lbu	a5,5(a5)
20000e92:	b7dd                	j	20000e78 <ll_rx_wait_finish+0x22>

20000e94 <ble_ll_chkcrc>:
ble_ll_chkcrc():
20000e94:	00002817          	auipc	a6,0x2
20000e98:	4f080813          	addi	a6,a6,1264 # 20003384 <gptrBBReg>
20000e9c:	00082703          	lw	a4,0(a6)
20000ea0:	5f1c                	lw	a5,56(a4)
20000ea2:	8395                	srli	a5,a5,0x5
20000ea4:	8b85                	andi	a5,a5,1
20000ea6:	ebd5                	bnez	a5,20000f5a <ble_ll_chkcrc+0xc6>
20000ea8:	c61d                	beqz	a2,20000ed6 <ble_ll_chkcrc+0x42>
20000eaa:	00002797          	auipc	a5,0x2
20000eae:	55678793          	addi	a5,a5,1366 # 20003400 <gBleLlPara>
20000eb2:	04679883          	lh	a7,70(a5)
20000eb6:	00060303          	lb	t1,0(a2)
20000eba:	5b1c                	lw	a5,48(a4)
20000ebc:	83bd                	srli	a5,a5,0xf
20000ebe:	08030b63          	beqz	t1,20000f54 <ble_ll_chkcrc+0xc0>
20000ec2:	1ff7f793          	andi	a5,a5,511
20000ec6:	411787b3          	sub	a5,a5,a7
20000eca:	979a                	add	a5,a5,t1
20000ecc:	4709                	li	a4,2
20000ece:	02e7c7b3          	div	a5,a5,a4
20000ed2:	00f60023          	sb	a5,0(a2)
20000ed6:	ca85                	beqz	a3,20000f06 <ble_ll_chkcrc+0x72>
20000ed8:	00082783          	lw	a5,0(a6)
20000edc:	5b98                	lw	a4,48(a5)
20000ede:	0746                	slli	a4,a4,0x11
20000ee0:	01675793          	srli	a5,a4,0x16
20000ee4:	00075663          	bgez	a4,20000ef0 <ble_ll_chkcrc+0x5c>
20000ee8:	c007e793          	ori	a5,a5,-1024
20000eec:	07c2                	slli	a5,a5,0x10
20000eee:	83c1                	srli	a5,a5,0x10
20000ef0:	00069703          	lh	a4,0(a3)
20000ef4:	07c2                	slli	a5,a5,0x10
20000ef6:	87c1                	srai	a5,a5,0x10
20000ef8:	c709                	beqz	a4,20000f02 <ble_ll_chkcrc+0x6e>
20000efa:	97ba                	add	a5,a5,a4
20000efc:	4709                	li	a4,2
20000efe:	02e7c7b3          	div	a5,a5,a4
20000f02:	00f69023          	sh	a5,0(a3)
20000f06:	c99d                	beqz	a1,20000f3c <ble_ll_chkcrc+0xa8>
20000f08:	00154783          	lbu	a5,1(a0)
20000f0c:	cb85                	beqz	a5,20000f3c <ble_ll_chkcrc+0xa8>
20000f0e:	00002697          	auipc	a3,0x2
20000f12:	4846c683          	lbu	a3,1156(a3) # 20003392 <gBleIPPara+0x6>
20000f16:	0406f693          	andi	a3,a3,64
20000f1a:	00978713          	addi	a4,a5,9
20000f1e:	4791                	li	a5,4
20000f20:	ca85                	beqz	a3,20000f50 <ble_ll_chkcrc+0xbc>
20000f22:	953a                	add	a0,a0,a4
20000f24:	00054703          	lbu	a4,0(a0)
20000f28:	4685                	li	a3,1
20000f2a:	06f77613          	andi	a2,a4,111
20000f2e:	02d61163          	bne	a2,a3,20000f50 <ble_ll_chkcrc+0xbc>
20000f32:	0762                	slli	a4,a4,0x18
20000f34:	8761                	srai	a4,a4,0x18
20000f36:	47b1                	li	a5,12
20000f38:	00074c63          	bltz	a4,20000f50 <ble_ll_chkcrc+0xbc>
20000f3c:	00082783          	lw	a5,0(a6)
20000f40:	5f9c                	lw	a5,56(a5)
20000f42:	83ed                	srli	a5,a5,0x1b
20000f44:	8b8d                	andi	a5,a5,3
20000f46:	00002717          	auipc	a4,0x2
20000f4a:	44f708a3          	sb	a5,1105(a4) # 20003397 <gBleIPPara+0xb>
20000f4e:	4781                	li	a5,0
20000f50:	853e                	mv	a0,a5
20000f52:	8082                	ret
20000f54:	411787b3          	sub	a5,a5,a7
20000f58:	bfad                	j	20000ed2 <ble_ll_chkcrc+0x3e>
20000f5a:	4789                	li	a5,2
20000f5c:	bfd5                	j	20000f50 <ble_ll_chkcrc+0xbc>

20000f5e <ll_tx_wait_finish>:
ll_tx_wait_finish():
20000f5e:	1141                	addi	sp,sp,-16
20000f60:	c422                	sw	s0,8(sp)
20000f62:	c606                	sw	ra,12(sp)
20000f64:	00002417          	auipc	s0,0x2
20000f68:	44440413          	addi	s0,s0,1092 # 200033a8 <gptrLLEReg>
20000f6c:	4018                	lw	a4,0(s0)
20000f6e:	e949                	bnez	a0,20001000 <ll_tx_wait_finish+0xa2>
20000f70:	87ae                	mv	a5,a1
20000f72:	5374                	lw	a3,100(a4)
20000f74:	fefd                	bnez	a3,20000f72 <ll_tx_wait_finish+0x14>
20000f76:	853e                	mv	a0,a5
20000f78:	85b2                	mv	a1,a2
20000f7a:	00002797          	auipc	a5,0x2
20000f7e:	40078a23          	sb	zero,1044(a5) # 2000338e <gBleIPPara+0x2>
20000f82:	e0003097          	auipc	ra,0xe0003
20000f86:	bce080e7          	jalr	-1074(ra) # 3b50 <BLE_SetPHYTxMode>
20000f8a:	00002797          	auipc	a5,0x2
20000f8e:	3fa78793          	addi	a5,a5,1018 # 20003384 <gptrBBReg>
20000f92:	439c                	lw	a5,0(a5)
20000f94:	008006b7          	lui	a3,0x800
20000f98:	4398                	lw	a4,0(a5)
20000f9a:	8f55                	or	a4,a4,a3
20000f9c:	c398                	sw	a4,0(a5)
20000f9e:	57d8                	lw	a4,44(a5)
20000fa0:	9b71                	andi	a4,a4,-4
20000fa2:	d7d8                	sw	a4,44(a5)
20000fa4:	00002797          	auipc	a5,0x2
20000fa8:	3e0786a3          	sb	zero,1005(a5) # 20003391 <gBleIPPara+0x5>
20000fac:	00002797          	auipc	a5,0x2
20000fb0:	3e0780a3          	sb	zero,993(a5) # 2000338d <gBleIPPara+0x1>
20000fb4:	401c                	lw	a5,0(s0)
20000fb6:	4709                	li	a4,2
20000fb8:	c398                	sw	a4,0(a5)
20000fba:	e000f7b7          	lui	a5,0xe000f
20000fbe:	d107a703          	lw	a4,-752(a5) # e000ed10 <_eusrstack+0xc0006d10>
20000fc2:	9b6d                	andi	a4,a4,-5
20000fc4:	d0e7a823          	sw	a4,-752(a5)
20000fc8:	d107a703          	lw	a4,-752(a5)
20000fcc:	9b5d                	andi	a4,a4,-9
20000fce:	d0e7a823          	sw	a4,-752(a5)
20000fd2:	10500073          	wfi
20000fd6:	4014                	lw	a3,0(s0)
20000fd8:	00002717          	auipc	a4,0x2
20000fdc:	3b470713          	addi	a4,a4,948 # 2000338c <gBleIPPara>
20000fe0:	00274783          	lbu	a5,2(a4)
20000fe4:	8b85                	andi	a5,a5,1
20000fe6:	eb89                	bnez	a5,20000ff8 <ll_tx_wait_finish+0x9a>
20000fe8:	00374783          	lbu	a5,3(a4)
20000fec:	8b85                	andi	a5,a5,1
20000fee:	c7d9                	beqz	a5,2000107c <ll_tx_wait_finish+0x11e>
20000ff0:	00002797          	auipc	a5,0x2
20000ff4:	3a078023          	sb	zero,928(a5) # 20003390 <gBleIPPara+0x4>
20000ff8:	40b2                	lw	ra,12(sp)
20000ffa:	4422                	lw	s0,8(sp)
20000ffc:	0141                	addi	sp,sp,16
20000ffe:	8082                	ret
20001000:	478d                	li	a5,3
20001002:	02f51063          	bne	a0,a5,20001022 <ll_tx_wait_finish+0xc4>
20001006:	00002797          	auipc	a5,0x2
2000100a:	37e78793          	addi	a5,a5,894 # 20003384 <gptrBBReg>
2000100e:	439c                	lw	a5,0(a5)
20001010:	008006b7          	lui	a3,0x800
20001014:	4398                	lw	a4,0(a5)
20001016:	8f55                	or	a4,a4,a3
20001018:	c398                	sw	a4,0(a5)
2000101a:	57d8                	lw	a4,44(a5)
2000101c:	9b71                	andi	a4,a4,-4
2000101e:	d7d8                	sw	a4,44(a5)
20001020:	bf5d                	j	20000fd6 <ll_tx_wait_finish+0x78>
20001022:	4785                	li	a5,1
20001024:	faf519e3          	bne	a0,a5,20000fd6 <ll_tx_wait_finish+0x78>
20001028:	67b5                	lui	a5,0xd
2000102a:	07bd                	addi	a5,a5,15
2000102c:	c75c                	sw	a5,12(a4)
2000102e:	0000100f          	fence.i
20001032:	401c                	lw	a5,0(s0)
20001034:	6709                	lui	a4,0x2
20001036:	4609                	li	a2,2
20001038:	c798                	sw	a4,8(a5)
2000103a:	f8000713          	li	a4,-128
2000103e:	00002697          	auipc	a3,0x2
20001042:	34e68923          	sb	a4,850(a3) # 20003390 <gBleIPPara+0x4>
20001046:	00002717          	auipc	a4,0x2
2000104a:	33e70713          	addi	a4,a4,830 # 20003384 <gptrBBReg>
2000104e:	4314                	lw	a3,0(a4)
20001050:	4298                	lw	a4,0(a3)
20001052:	8331                	srli	a4,a4,0xc
20001054:	8b0d                	andi	a4,a4,3
20001056:	00c71963          	bne	a4,a2,20001068 <ll_tx_wait_finish+0x10a>
2000105a:	43e00713          	li	a4,1086
2000105e:	d3f8                	sw	a4,100(a5)
20001060:	673d                	lui	a4,0xf
20001062:	073d                	addi	a4,a4,15
20001064:	c7d8                	sw	a4,12(a5)
20001066:	bf85                	j	20000fd6 <ll_tx_wait_finish+0x78>
20001068:	4298                	lw	a4,0(a3)
2000106a:	8331                	srli	a4,a4,0xc
2000106c:	8b0d                	andi	a4,a4,3
2000106e:	e701                	bnez	a4,20001076 <ll_tx_wait_finish+0x118>
20001070:	19600713          	li	a4,406
20001074:	b7ed                	j	2000105e <ll_tx_wait_finish+0x100>
20001076:	1be00713          	li	a4,446
2000107a:	b7d5                	j	2000105e <ll_tx_wait_finish+0x100>
2000107c:	52fc                	lw	a5,100(a3)
2000107e:	f3ad                	bnez	a5,20000fe0 <ll_tx_wait_finish+0x82>
20001080:	bfa5                	j	20000ff8 <ll_tx_wait_finish+0x9a>

20001082 <BLE_CheckHoppingMap>:
BLE_CheckHoppingMap():
20001082:	715d                	addi	sp,sp,-80
20001084:	de4e                	sw	s3,60(sp)
20001086:	00002997          	auipc	s3,0x2
2000108a:	2fe98993          	addi	s3,s3,766 # 20003384 <gptrBBReg>
2000108e:	0009a703          	lw	a4,0(s3)
20001092:	c686                	sw	ra,76(sp)
20001094:	c4a2                	sw	s0,72(sp)
20001096:	c2a6                	sw	s1,68(sp)
20001098:	c0ca                	sw	s2,64(sp)
2000109a:	dc52                	sw	s4,56(sp)
2000109c:	431c                	lw	a5,0(a4)
2000109e:	00002917          	auipc	s2,0x2
200010a2:	34e90913          	addi	s2,s2,846 # 200033ec <gptrRFENDReg>
200010a6:	00002a17          	auipc	s4,0x2
200010aa:	302a0a13          	addi	s4,s4,770 # 200033a8 <gptrLLEReg>
200010ae:	e7f7f793          	andi	a5,a5,-385
200010b2:	0807e793          	ori	a5,a5,128
200010b6:	c31c                	sw	a5,0(a4)
200010b8:	00092683          	lw	a3,0(s2)
200010bc:	ffce0737          	lui	a4,0xffce0
200010c0:	177d                	addi	a4,a4,-1
200010c2:	469c                	lw	a5,8(a3)
200010c4:	02800613          	li	a2,40
200010c8:	842a                	mv	s0,a0
200010ca:	8ff9                	and	a5,a5,a4
200010cc:	c69c                	sw	a5,8(a3)
200010ce:	000a2783          	lw	a5,0(s4)
200010d2:	08000713          	li	a4,128
200010d6:	0028                	addi	a0,sp,8
200010d8:	cbb8                	sw	a4,80(a5)
200010da:	84ae                	mv	s1,a1
200010dc:	08100593          	li	a1,129
200010e0:	fcaff0ef          	jal	ra,200008aa <tmos_memset>
200010e4:	e0003097          	auipc	ra,0xe0003
200010e8:	c98080e7          	jalr	-872(ra) # 3d7c <ll_multi_states_check>
200010ec:	e0003097          	auipc	ra,0xe0003
200010f0:	d68080e7          	jalr	-664(ra) # 3e54 <ble_ll_hw_api_shut>
200010f4:	0009a783          	lw	a5,0(s3)
200010f8:	1ff47693          	andi	a3,s0,511
200010fc:	fffc0eb7          	lui	t4,0xfffc0
20001100:	0007a423          	sw	zero,8(a5) # d008 <_data_lma+0x698c>
20001104:	4b98                	lw	a4,16(a5)
20001106:	f8100513          	li	a0,-127
2000110a:	85ce                	mv	a1,s3
2000110c:	03f76713          	ori	a4,a4,63
20001110:	cb98                	sw	a4,16(a5)
20001112:	4ff8                	lw	a4,92(a5)
20001114:	884a                	mv	a6,s2
20001116:	00040fb7          	lui	t6,0x40
2000111a:	e0077713          	andi	a4,a4,-512
2000111e:	8f55                	or	a4,a4,a3
20001120:	cff8                	sw	a4,92(a5)
20001122:	4398                	lw	a4,0(a5)
20001124:	76f5                	lui	a3,0xffffd
20001126:	16fd                	addi	a3,a3,-1
20001128:	8f75                	and	a4,a4,a3
2000112a:	c398                	sw	a4,0(a5)
2000112c:	4398                	lw	a4,0(a5)
2000112e:	003306b7          	lui	a3,0x330
20001132:	4291                	li	t0,4
20001134:	e7f77713          	andi	a4,a4,-385
20001138:	c398                	sw	a4,0(a5)
2000113a:	4398                	lw	a4,0(a5)
2000113c:	1efd                	addi	t4,t4,-1
2000113e:	4385                	li	t2,1
20001140:	e7f77713          	andi	a4,a4,-385
20001144:	10076713          	ori	a4,a4,256
20001148:	c398                	sw	a4,0(a5)
2000114a:	00092703          	lw	a4,0(s2)
2000114e:	02800f13          	li	t5,40
20001152:	471c                	lw	a5,8(a4)
20001154:	8fd5                	or	a5,a5,a3
20001156:	c71c                	sw	a5,8(a4)
20001158:	000a2783          	lw	a5,0(s4)
2000115c:	0d900713          	li	a4,217
20001160:	0034                	addi	a3,sp,8
20001162:	cbb8                	sw	a4,80(a5)
20001164:	4701                	li	a4,0
20001166:	00375893          	srli	a7,a4,0x3
2000116a:	98a6                	add	a7,a7,s1
2000116c:	0008c783          	lbu	a5,0(a7)
20001170:	00777613          	andi	a2,a4,7
20001174:	40c7d7b3          	sra	a5,a5,a2
20001178:	8b85                	andi	a5,a5,1
2000117a:	c7dd                	beqz	a5,20001228 <BLE_CheckHoppingMap+0x1a6>
2000117c:	419c                	lw	a5,0(a1)
2000117e:	00082e03          	lw	t3,0(a6)
20001182:	04079c23          	sh	zero,88(a5)
20001186:	06079023          	sh	zero,96(a5)
2000118a:	02ce2303          	lw	t1,44(t3)
2000118e:	ffd37313          	andi	t1,t1,-3
20001192:	026e2623          	sw	t1,44(t3)
20001196:	0007ae03          	lw	t3,0(a5)
2000119a:	07f77313          	andi	t1,a4,127
2000119e:	f80e7e13          	andi	t3,t3,-128
200011a2:	006e6333          	or	t1,t3,t1
200011a6:	0067a023          	sw	t1,0(a5)
200011aa:	0247a303          	lw	t1,36(a5)
200011ae:	01f36333          	or	t1,t1,t6
200011b2:	0267a223          	sw	t1,36(a5)
200011b6:	4301                	li	t1,0
200011b8:	0607de03          	lhu	t3,96(a5)
200011bc:	03c30763          	beq	t1,t3,200011ea <BLE_CheckHoppingMap+0x168>
200011c0:	0307a303          	lw	t1,48(a5)
200011c4:	00068e03          	lb	t3,0(a3) # 330000 <_data_lma+0x329984>
200011c8:	00f35313          	srli	t1,t1,0xf
200011cc:	0362                	slli	t1,t1,0x18
200011ce:	41835313          	srai	t1,t1,0x18
200011d2:	006e5863          	bge	t3,t1,200011e2 <BLE_CheckHoppingMap+0x160>
200011d6:	0307a303          	lw	t1,48(a5)
200011da:	00f35313          	srli	t1,t1,0xf
200011de:	00668023          	sb	t1,0(a3)
200011e2:	0607d303          	lhu	t1,96(a5)
200011e6:	0ff37313          	andi	t1,t1,255
200011ea:	0587de03          	lhu	t3,88(a5)
200011ee:	fdc2f5e3          	bgeu	t0,t3,200011b8 <BLE_CheckHoppingMap+0x136>
200011f2:	0247a303          	lw	t1,36(a5)
200011f6:	01d37333          	and	t1,t1,t4
200011fa:	0267a223          	sw	t1,36(a5)
200011fe:	00068783          	lb	a5,0(a3)
20001202:	00f45c63          	bge	s0,a5,2000121a <BLE_CheckHoppingMap+0x198>
20001206:	0008c303          	lbu	t1,0(a7)
2000120a:	00c39633          	sll	a2,t2,a2
2000120e:	fff64613          	not	a2,a2
20001212:	00667633          	and	a2,a2,t1
20001216:	00c88023          	sb	a2,0(a7)
2000121a:	863e                	mv	a2,a5
2000121c:	00a7d363          	bge	a5,a0,20001222 <BLE_CheckHoppingMap+0x1a0>
20001220:	862a                	mv	a2,a0
20001222:	01861513          	slli	a0,a2,0x18
20001226:	8561                	srai	a0,a0,0x18
20001228:	0705                	addi	a4,a4,1
2000122a:	0ff77713          	andi	a4,a4,255
2000122e:	0685                	addi	a3,a3,1
20001230:	f3e71be3          	bne	a4,t5,20001166 <BLE_CheckHoppingMap+0xe4>
20001234:	40b6                	lw	ra,76(sp)
20001236:	4426                	lw	s0,72(sp)
20001238:	4496                	lw	s1,68(sp)
2000123a:	4906                	lw	s2,64(sp)
2000123c:	59f2                	lw	s3,60(sp)
2000123e:	5a62                	lw	s4,56(sp)
20001240:	6161                	addi	sp,sp,80
20001242:	8082                	ret

20001244 <LLE_IRQLibHandler>:
LLE_IRQLibHandler():
20001244:	1101                	addi	sp,sp,-32
20001246:	c836                	sw	a3,16(sp)
20001248:	00002697          	auipc	a3,0x2
2000124c:	16068693          	addi	a3,a3,352 # 200033a8 <gptrLLEReg>
20001250:	c43e                	sw	a5,8(sp)
20001252:	429c                	lw	a5,0(a3)
20001254:	c63a                	sw	a4,12(sp)
20001256:	ca32                	sw	a2,20(sp)
20001258:	47d8                	lw	a4,12(a5)
2000125a:	ce2a                	sw	a0,28(sp)
2000125c:	cc2e                	sw	a1,24(sp)
2000125e:	01171613          	slli	a2,a4,0x11
20001262:	02065563          	bgez	a2,2000128c <LLE_IRQLibHandler+0x48>
20001266:	4798                	lw	a4,8(a5)
20001268:	01171613          	slli	a2,a4,0x11
2000126c:	02065063          	bgez	a2,2000128c <LLE_IRQLibHandler+0x48>
20001270:	577d                	li	a4,-1
20001272:	d7b8                	sw	a4,104(a5)
20001274:	00002717          	auipc	a4,0x2
20001278:	06c70713          	addi	a4,a4,108 # 200032e0 <gTmosPara>
2000127c:	4f58                	lw	a4,28(a4)
2000127e:	0705                	addi	a4,a4,1
20001280:	00002617          	auipc	a2,0x2
20001284:	06e62e23          	sw	a4,124(a2) # 200032fc <gTmosPara+0x1c>
20001288:	6711                	lui	a4,0x4
2000128a:	c798                	sw	a4,8(a5)
2000128c:	4798                	lw	a4,8(a5)
2000128e:	830d                	srli	a4,a4,0x3
20001290:	8b05                	andi	a4,a4,1
20001292:	c31d                	beqz	a4,200012b8 <LLE_IRQLibHandler+0x74>
20001294:	00002717          	auipc	a4,0x2
20001298:	0fa74703          	lbu	a4,250(a4) # 2000338e <gBleIPPara+0x2>
2000129c:	00176713          	ori	a4,a4,1
200012a0:	00002617          	auipc	a2,0x2
200012a4:	0ee60723          	sb	a4,238(a2) # 2000338e <gBleIPPara+0x2>
200012a8:	f8000713          	li	a4,-128
200012ac:	00002617          	auipc	a2,0x2
200012b0:	0ee60223          	sb	a4,228(a2) # 20003390 <gBleIPPara+0x4>
200012b4:	4721                	li	a4,8
200012b6:	c798                	sw	a4,8(a5)
200012b8:	4798                	lw	a4,8(a5)
200012ba:	8b05                	andi	a4,a4,1
200012bc:	cf09                	beqz	a4,200012d6 <LLE_IRQLibHandler+0x92>
200012be:	00002717          	auipc	a4,0x2
200012c2:	0cf74703          	lbu	a4,207(a4) # 2000338d <gBleIPPara+0x1>
200012c6:	00176713          	ori	a4,a4,1
200012ca:	00002617          	auipc	a2,0x2
200012ce:	0ce601a3          	sb	a4,195(a2) # 2000338d <gBleIPPara+0x1>
200012d2:	4705                	li	a4,1
200012d4:	c798                	sw	a4,8(a5)
200012d6:	4798                	lw	a4,8(a5)
200012d8:	8309                	srli	a4,a4,0x2
200012da:	8b05                	andi	a4,a4,1
200012dc:	e709                	bnez	a4,200012e6 <LLE_IRQLibHandler+0xa2>
200012de:	4798                	lw	a4,8(a5)
200012e0:	8305                	srli	a4,a4,0x1
200012e2:	8b05                	andi	a4,a4,1
200012e4:	cf39                	beqz	a4,20001342 <LLE_IRQLibHandler+0xfe>
200012e6:	4798                	lw	a4,8(a5)
200012e8:	00002617          	auipc	a2,0x2
200012ec:	0a460613          	addi	a2,a2,164 # 2000338c <gBleIPPara>
200012f0:	00002517          	auipc	a0,0x2
200012f4:	09450513          	addi	a0,a0,148 # 20003384 <gptrBBReg>
200012f8:	8309                	srli	a4,a4,0x2
200012fa:	8b05                	andi	a4,a4,1
200012fc:	10070c63          	beqz	a4,20001414 <LLE_IRQLibHandler+0x1d0>
20001300:	4118                	lw	a4,0(a0)
20001302:	4318                	lw	a4,0(a4)
20001304:	8331                	srli	a4,a4,0xc
20001306:	8b0d                	andi	a4,a4,3
20001308:	10071363          	bnez	a4,2000140e <LLE_IRQLibHandler+0x1ca>
2000130c:	4bac                	lw	a1,80(a5)
2000130e:	4e18                	lw	a4,24(a2)
20001310:	0205f593          	andi	a1,a1,32
20001314:	00174703          	lbu	a4,1(a4)
20001318:	c5e9                	beqz	a1,200013e2 <LLE_IRQLibHandler+0x19e>
2000131a:	e77d                	bnez	a4,20001408 <LLE_IRQLibHandler+0x1c4>
2000131c:	06700713          	li	a4,103
20001320:	cfd8                	sw	a4,28(a5)
20001322:	00064703          	lbu	a4,0(a2)
20001326:	00176713          	ori	a4,a4,1
2000132a:	00002617          	auipc	a2,0x2
2000132e:	06e60123          	sb	a4,98(a2) # 2000338c <gBleIPPara>
20001332:	4711                	li	a4,4
20001334:	c798                	sw	a4,8(a5)
20001336:	4118                	lw	a4,0(a0)
20001338:	575c                	lw	a5,44(a4)
2000133a:	9bf1                	andi	a5,a5,-4
2000133c:	0017e793          	ori	a5,a5,1
20001340:	d75c                	sw	a5,44(a4)
20001342:	429c                	lw	a5,0(a3)
20001344:	4798                	lw	a4,8(a5)
20001346:	01371693          	slli	a3,a4,0x13
2000134a:	0206d663          	bgez	a3,20001376 <LLE_IRQLibHandler+0x132>
2000134e:	00002697          	auipc	a3,0x2
20001352:	1226c683          	lbu	a3,290(a3) # 20003470 <gBleLlPara+0x70>
20001356:	8ac1                	andi	a3,a3,16
20001358:	00002717          	auipc	a4,0x2
2000135c:	0a870713          	addi	a4,a4,168 # 20003400 <gBleLlPara>
20001360:	c6e1                	beqz	a3,20001428 <LLE_IRQLibHandler+0x1e4>
20001362:	07074703          	lbu	a4,112(a4)
20001366:	02076713          	ori	a4,a4,32
2000136a:	00002697          	auipc	a3,0x2
2000136e:	10e68323          	sb	a4,262(a3) # 20003470 <gBleLlPara+0x70>
20001372:	6705                	lui	a4,0x1
20001374:	c798                	sw	a4,8(a5)
20001376:	4798                	lw	a4,8(a5)
20001378:	01271693          	slli	a3,a4,0x12
2000137c:	0206d163          	bgez	a3,2000139e <LLE_IRQLibHandler+0x15a>
20001380:	00002717          	auipc	a4,0x2
20001384:	01074703          	lbu	a4,16(a4) # 20003390 <gBleIPPara+0x4>
20001388:	0762                	slli	a4,a4,0x18
2000138a:	8761                	srai	a4,a4,0x18
2000138c:	00075763          	bgez	a4,2000139a <LLE_IRQLibHandler+0x156>
20001390:	4705                	li	a4,1
20001392:	00002697          	auipc	a3,0x2
20001396:	fee68f23          	sb	a4,-2(a3) # 20003390 <gBleIPPara+0x4>
2000139a:	6709                	lui	a4,0x2
2000139c:	c798                	sw	a4,8(a5)
2000139e:	4798                	lw	a4,8(a5)
200013a0:	01071693          	slli	a3,a4,0x10
200013a4:	0206d663          	bgez	a3,200013d0 <LLE_IRQLibHandler+0x18c>
200013a8:	00002697          	auipc	a3,0x2
200013ac:	0c96c683          	lbu	a3,201(a3) # 20003471 <gBleLlPara+0x71>
200013b0:	8a85                	andi	a3,a3,1
200013b2:	00002717          	auipc	a4,0x2
200013b6:	04e70713          	addi	a4,a4,78 # 20003400 <gBleLlPara>
200013ba:	c6c9                	beqz	a3,20001444 <LLE_IRQLibHandler+0x200>
200013bc:	07174703          	lbu	a4,113(a4)
200013c0:	00276713          	ori	a4,a4,2
200013c4:	00002697          	auipc	a3,0x2
200013c8:	0ae686a3          	sb	a4,173(a3) # 20003471 <gBleLlPara+0x71>
200013cc:	6721                	lui	a4,0x8
200013ce:	c798                	sw	a4,8(a5)
200013d0:	4572                	lw	a0,28(sp)
200013d2:	45e2                	lw	a1,24(sp)
200013d4:	4652                	lw	a2,20(sp)
200013d6:	46c2                	lw	a3,16(sp)
200013d8:	4732                	lw	a4,12(sp)
200013da:	47a2                	lw	a5,8(sp)
200013dc:	6105                	addi	sp,sp,32
200013de:	30200073          	mret
200013e2:	df0d                	beqz	a4,2000131c <LLE_IRQLibHandler+0xd8>
200013e4:	4585                	li	a1,1
200013e6:	00b71563          	bne	a4,a1,200013f0 <LLE_IRQLibHandler+0x1ac>
200013ea:	06b00713          	li	a4,107
200013ee:	bf0d                	j	20001320 <LLE_IRQLibHandler+0xdc>
200013f0:	4589                	li	a1,2
200013f2:	00b71563          	bne	a4,a1,200013fc <LLE_IRQLibHandler+0x1b8>
200013f6:	06f00713          	li	a4,111
200013fa:	b71d                	j	20001320 <LLE_IRQLibHandler+0xdc>
200013fc:	458d                	li	a1,3
200013fe:	00b71563          	bne	a4,a1,20001408 <LLE_IRQLibHandler+0x1c4>
20001402:	07300713          	li	a4,115
20001406:	bf29                	j	20001320 <LLE_IRQLibHandler+0xdc>
20001408:	07500713          	li	a4,117
2000140c:	bf11                	j	20001320 <LLE_IRQLibHandler+0xdc>
2000140e:	07600713          	li	a4,118
20001412:	b739                	j	20001320 <LLE_IRQLibHandler+0xdc>
20001414:	00364703          	lbu	a4,3(a2)
20001418:	00176713          	ori	a4,a4,1
2000141c:	00002617          	auipc	a2,0x2
20001420:	f6e609a3          	sb	a4,-141(a2) # 2000338f <gBleIPPara+0x3>
20001424:	4709                	li	a4,2
20001426:	b739                	j	20001334 <LLE_IRQLibHandler+0xf0>
20001428:	07074683          	lbu	a3,112(a4) # 8070 <_data_lma+0x19f4>
2000142c:	4609                	li	a2,2
2000142e:	8abd                	andi	a3,a3,15
20001430:	00c68863          	beq	a3,a2,20001440 <LLE_IRQLibHandler+0x1fc>
20001434:	07074703          	lbu	a4,112(a4)
20001438:	468d                	li	a3,3
2000143a:	8b3d                	andi	a4,a4,15
2000143c:	f2d71be3          	bne	a4,a3,20001372 <LLE_IRQLibHandler+0x12e>
20001440:	4711                	li	a4,4
20001442:	b725                	j	2000136a <LLE_IRQLibHandler+0x126>
20001444:	07174683          	lbu	a3,113(a4)
20001448:	8a91                	andi	a3,a3,4
2000144a:	d2c9                	beqz	a3,200013cc <LLE_IRQLibHandler+0x188>
2000144c:	07174703          	lbu	a4,113(a4)
20001450:	00876713          	ori	a4,a4,8
20001454:	bf85                	j	200013c4 <LLE_IRQLibHandler+0x180>

20001456 <RF_HopGetChannel>:
RF_HopGetChannel():
20001456:	00002717          	auipc	a4,0x2
2000145a:	f5670713          	addi	a4,a4,-170 # 200033ac <rfConfig>
2000145e:	01b74683          	lbu	a3,27(a4)
20001462:	00002797          	auipc	a5,0x2
20001466:	f777c783          	lbu	a5,-137(a5) # 200033d9 <rfInfo+0xd>
2000146a:	97b6                	add	a5,a5,a3
2000146c:	0ff7f793          	andi	a5,a5,255
20001470:	46fd                	li	a3,31
20001472:	04f6ea63          	bltu	a3,a5,200014c6 <RF_HopGetChannel+0x70>
20001476:	4b4c                	lw	a1,20(a4)
20001478:	00002697          	auipc	a3,0x2
2000147c:	f2f68aa3          	sb	a5,-203(a3) # 200033ad <rfConfig+0x1>
20001480:	00002797          	auipc	a5,0x2
20001484:	f2d7c783          	lbu	a5,-211(a5) # 200033ad <rfConfig+0x1>
20001488:	4705                	li	a4,1
2000148a:	00f71733          	sll	a4,a4,a5
2000148e:	00002697          	auipc	a3,0x2
20001492:	f4f685a3          	sb	a5,-181(a3) # 200033d9 <rfInfo+0xd>
20001496:	8f6d                	and	a4,a4,a1
20001498:	ef1d                	bnez	a4,200014d6 <RF_HopGetChannel+0x80>
2000149a:	00002697          	auipc	a3,0x2
2000149e:	f436c683          	lbu	a3,-189(a3) # 200033dd <rfInfo+0x11>
200014a2:	02d7f6b3          	remu	a3,a5,a3
200014a6:	02000513          	li	a0,32
200014aa:	4781                	li	a5,0
200014ac:	00f5d633          	srl	a2,a1,a5
200014b0:	8a05                	andi	a2,a2,1
200014b2:	0ff7f813          	andi	a6,a5,255
200014b6:	ce09                	beqz	a2,200014d0 <RF_HopGetChannel+0x7a>
200014b8:	00e69963          	bne	a3,a4,200014ca <RF_HopGetChannel+0x74>
200014bc:	00002797          	auipc	a5,0x2
200014c0:	ef0788a3          	sb	a6,-271(a5) # 200033ad <rfConfig+0x1>
200014c4:	8082                	ret
200014c6:	1781                	addi	a5,a5,-32
200014c8:	b77d                	j	20001476 <RF_HopGetChannel+0x20>
200014ca:	0705                	addi	a4,a4,1
200014cc:	0ff77713          	andi	a4,a4,255
200014d0:	0785                	addi	a5,a5,1
200014d2:	fca79de3          	bne	a5,a0,200014ac <RF_HopGetChannel+0x56>
200014d6:	8082                	ret

200014d8 <RF_FrequencyHoppingGet>:
RF_FrequencyHoppingGet():
200014d8:	00002797          	auipc	a5,0x2
200014dc:	ea478793          	addi	a5,a5,-348 # 2000337c <fnGetClockCBs>
200014e0:	439c                	lw	a5,0(a5)
200014e2:	1101                	addi	sp,sp,-32
200014e4:	cc22                	sw	s0,24(sp)
200014e6:	c64e                	sw	s3,12(sp)
200014e8:	ce06                	sw	ra,28(sp)
200014ea:	ca26                	sw	s1,20(sp)
200014ec:	c84a                	sw	s2,16(sp)
200014ee:	c452                	sw	s4,8(sp)
200014f0:	c256                	sw	s5,4(sp)
200014f2:	9782                	jalr	a5
200014f4:	00002797          	auipc	a5,0x2
200014f8:	ed878793          	addi	a5,a5,-296 # 200033cc <rfInfo>
200014fc:	4780                	lw	s0,8(a5)
200014fe:	4981                	li	s3,0
20001500:	06a40563          	beq	s0,a0,2000156a <RF_FrequencyHoppingGet+0x92>
20001504:	84be                	mv	s1,a5
20001506:	00002797          	auipc	a5,0x2
2000150a:	e3278793          	addi	a5,a5,-462 # 20003338 <ble>
2000150e:	01678703          	lb	a4,22(a5)
20001512:	893e                	mv	s2,a5
20001514:	06075563          	bgez	a4,2000157e <RF_FrequencyHoppingGet+0xa6>
20001518:	8d01                	sub	a0,a0,s0
2000151a:	00555413          	srli	s0,a0,0x5
2000151e:	00002797          	auipc	a5,0x2
20001522:	ea87c783          	lbu	a5,-344(a5) # 200033c6 <rfConfig+0x1a>
20001526:	01f57993          	andi	s3,a0,31
2000152a:	02f46d63          	bltu	s0,a5,20001564 <RF_FrequencyHoppingGet+0x8c>
2000152e:	a8c00a37          	lui	s4,0xa8c00
20001532:	57400ab7          	lui	s5,0x57400
20001536:	3705                	jal	20001456 <RF_HopGetChannel>
20001538:	449c                	lw	a5,8(s1)
2000153a:	00002697          	auipc	a3,0x2
2000153e:	e8c6c683          	lbu	a3,-372(a3) # 200033c6 <rfConfig+0x1a>
20001542:	00569713          	slli	a4,a3,0x5
20001546:	973e                	add	a4,a4,a5
20001548:	01690783          	lb	a5,22(s2)
2000154c:	8c15                	sub	s0,s0,a3
2000154e:	0007c563          	bltz	a5,20001558 <RF_FrequencyHoppingGet+0x80>
20001552:	01476363          	bltu	a4,s4,20001558 <RF_FrequencyHoppingGet+0x80>
20001556:	9756                	add	a4,a4,s5
20001558:	00002797          	auipc	a5,0x2
2000155c:	e6e7ae23          	sw	a4,-388(a5) # 200033d4 <rfInfo+0x8>
20001560:	fcd47be3          	bgeu	s0,a3,20001536 <RF_FrequencyHoppingGet+0x5e>
20001564:	0416                	slli	s0,s0,0x5
20001566:	013469b3          	or	s3,s0,s3
2000156a:	40f2                	lw	ra,28(sp)
2000156c:	4462                	lw	s0,24(sp)
2000156e:	854e                	mv	a0,s3
20001570:	44d2                	lw	s1,20(sp)
20001572:	4942                	lw	s2,16(sp)
20001574:	49b2                	lw	s3,12(sp)
20001576:	4a22                	lw	s4,8(sp)
20001578:	4a92                	lw	s5,4(sp)
2000157a:	6105                	addi	sp,sp,32
2000157c:	8082                	ret
2000157e:	f8857de3          	bgeu	a0,s0,20001518 <RF_FrequencyHoppingGet+0x40>
20001582:	a8c007b7          	lui	a5,0xa8c00
20001586:	40878433          	sub	s0,a5,s0
2000158a:	9522                	add	a0,a0,s0
2000158c:	b779                	j	2000151a <RF_FrequencyHoppingGet+0x42>

2000158e <RF_FrequencyHoppingChange>:
RF_FrequencyHoppingChange():
2000158e:	00002797          	auipc	a5,0x2
20001592:	dee78793          	addi	a5,a5,-530 # 2000337c <fnGetClockCBs>
20001596:	439c                	lw	a5,0(a5)
20001598:	1141                	addi	sp,sp,-16
2000159a:	c422                	sw	s0,8(sp)
2000159c:	c606                	sw	ra,12(sp)
2000159e:	c226                	sw	s1,4(sp)
200015a0:	9782                	jalr	a5
200015a2:	00002797          	auipc	a5,0x2
200015a6:	e2a78793          	addi	a5,a5,-470 # 200033cc <rfInfo>
200015aa:	4780                	lw	s0,8(a5)
200015ac:	06a40963          	beq	s0,a0,2000161e <RF_FrequencyHoppingChange+0x90>
200015b0:	84be                	mv	s1,a5
200015b2:	00002797          	auipc	a5,0x2
200015b6:	d8678793          	addi	a5,a5,-634 # 20003338 <ble>
200015ba:	01678783          	lb	a5,22(a5)
200015be:	0407d863          	bgez	a5,2000160e <RF_FrequencyHoppingChange+0x80>
200015c2:	8d01                	sub	a0,a0,s0
200015c4:	00555413          	srli	s0,a0,0x5
200015c8:	00002797          	auipc	a5,0x2
200015cc:	dfe7c783          	lbu	a5,-514(a5) # 200033c6 <rfConfig+0x1a>
200015d0:	04f46763          	bltu	s0,a5,2000161e <RF_FrequencyHoppingChange+0x90>
200015d4:	3549                	jal	20001456 <RF_HopGetChannel>
200015d6:	4498                	lw	a4,8(s1)
200015d8:	00002797          	auipc	a5,0x2
200015dc:	dee7c783          	lbu	a5,-530(a5) # 200033c6 <rfConfig+0x1a>
200015e0:	00579693          	slli	a3,a5,0x5
200015e4:	9736                	add	a4,a4,a3
200015e6:	8c1d                	sub	s0,s0,a5
200015e8:	00002697          	auipc	a3,0x2
200015ec:	dee6a623          	sw	a4,-532(a3) # 200033d4 <rfInfo+0x8>
200015f0:	fef472e3          	bgeu	s0,a5,200015d4 <RF_FrequencyHoppingChange+0x46>
200015f4:	4422                	lw	s0,8(sp)
200015f6:	40b2                	lw	ra,12(sp)
200015f8:	4492                	lw	s1,4(sp)
200015fa:	00002517          	auipc	a0,0x2
200015fe:	db354503          	lbu	a0,-589(a0) # 200033ad <rfConfig+0x1>
20001602:	4581                	li	a1,0
20001604:	0141                	addi	sp,sp,16
20001606:	e0003317          	auipc	t1,0xe0003
2000160a:	a6830067          	jr	-1432(t1) # 406e <RF_DevSetChannel>
2000160e:	fa857ae3          	bgeu	a0,s0,200015c2 <RF_FrequencyHoppingChange+0x34>
20001612:	a8c007b7          	lui	a5,0xa8c00
20001616:	40878433          	sub	s0,a5,s0
2000161a:	9522                	add	a0,a0,s0
2000161c:	b765                	j	200015c4 <RF_FrequencyHoppingChange+0x36>
2000161e:	40b2                	lw	ra,12(sp)
20001620:	4422                	lw	s0,8(sp)
20001622:	4492                	lw	s1,4(sp)
20001624:	0141                	addi	sp,sp,16
20001626:	8082                	ret

20001628 <RFEND_WaitTune>:
RFEND_WaitTune():
20001628:	00002797          	auipc	a5,0x2
2000162c:	dc478793          	addi	a5,a5,-572 # 200033ec <gptrRFENDReg>
20001630:	4398                	lw	a4,0(a5)
20001632:	000257b7          	lui	a5,0x25
20001636:	9f078793          	addi	a5,a5,-1552 # 249f0 <_data_lma+0x1e374>
2000163a:	09072683          	lw	a3,144(a4)
2000163e:	00569613          	slli	a2,a3,0x5
20001642:	00065863          	bgez	a2,20001652 <RFEND_WaitTune+0x2a>
20001646:	09072683          	lw	a3,144(a4)
2000164a:	00669613          	slli	a2,a3,0x6
2000164e:	00064463          	bltz	a2,20001656 <RFEND_WaitTune+0x2e>
20001652:	17fd                	addi	a5,a5,-1
20001654:	f3fd                	bnez	a5,2000163a <RFEND_WaitTune+0x12>
20001656:	8082                	ret

20001658 <tmos_memory_allocate>:
tmos_memory_allocate():
20001658:	c571                	beqz	a0,20001724 <tmos_memory_allocate+0xcc>
2000165a:	87aa                	mv	a5,a0
2000165c:	4501                	li	a0,0
2000165e:	c5e9                	beqz	a1,20001728 <tmos_memory_allocate+0xd0>
20001660:	078d                	addi	a5,a5,3
20001662:	07c2                	slli	a5,a5,0x10
20001664:	83c1                	srli	a5,a5,0x10
20001666:	9bf1                	andi	a5,a5,-4
20001668:	07c2                	slli	a5,a5,0x10
2000166a:	83c1                	srli	a5,a5,0x10
2000166c:	03400713          	li	a4,52
20001670:	02f76f63          	bltu	a4,a5,200016ae <tmos_memory_allocate+0x56>
20001674:	00002717          	auipc	a4,0x2
20001678:	d8870713          	addi	a4,a4,-632 # 200033fc <MemCtlStart>
2000167c:	4308                	lw	a0,0(a4)
2000167e:	00002717          	auipc	a4,0x2
20001682:	d7670713          	addi	a4,a4,-650 # 200033f4 <MemCtlEnd>
20001686:	4314                	lw	a3,0(a4)
20001688:	02a69863          	bne	a3,a0,200016b8 <tmos_memory_allocate+0x60>
2000168c:	00002717          	auipc	a4,0x2
20001690:	cac70713          	addi	a4,a4,-852 # 20003338 <ble>
20001694:	5b18                	lw	a4,48(a4)
20001696:	4501                	li	a0,0
20001698:	cb41                	beqz	a4,20001728 <tmos_memory_allocate+0xd0>
2000169a:	1141                	addi	sp,sp,-16
2000169c:	07c2                	slli	a5,a5,0x10
2000169e:	c606                	sw	ra,12(sp)
200016a0:	4505                	li	a0,1
200016a2:	8ddd                	or	a1,a1,a5
200016a4:	9702                	jalr	a4
200016a6:	40b2                	lw	ra,12(sp)
200016a8:	4501                	li	a0,0
200016aa:	0141                	addi	sp,sp,16
200016ac:	8082                	ret
200016ae:	00002717          	auipc	a4,0x2
200016b2:	d4a70713          	addi	a4,a4,-694 # 200033f8 <MemCtlPartition>
200016b6:	b7d9                	j	2000167c <tmos_memory_allocate+0x24>
200016b8:	00655703          	lhu	a4,6(a0)
200016bc:	e335                	bnez	a4,20001720 <tmos_memory_allocate+0xc8>
200016be:	00455703          	lhu	a4,4(a0)
200016c2:	04f76f63          	bltu	a4,a5,20001720 <tmos_memory_allocate+0xc8>
200016c6:	40f706b3          	sub	a3,a4,a5
200016ca:	4621                	li	a2,8
200016cc:	02d67c63          	bgeu	a2,a3,20001704 <tmos_memory_allocate+0xac>
200016d0:	00052803          	lw	a6,0(a0)
200016d4:	00878693          	addi	a3,a5,8
200016d8:	8f1d                	sub	a4,a4,a5
200016da:	96aa                	add	a3,a3,a0
200016dc:	1761                	addi	a4,a4,-8
200016de:	00002617          	auipc	a2,0x2
200016e2:	c0865603          	lhu	a2,-1016(a2) # 200032e6 <gTmosPara+0x6>
200016e6:	00e69223          	sh	a4,4(a3)
200016ea:	0106a023          	sw	a6,0(a3)
200016ee:	00069323          	sh	zero,6(a3)
200016f2:	c114                	sw	a3,0(a0)
200016f4:	00f51223          	sh	a5,4(a0)
200016f8:	ff860713          	addi	a4,a2,-8
200016fc:	00002697          	auipc	a3,0x2
20001700:	bee69523          	sh	a4,-1046(a3) # 200032e6 <gTmosPara+0x6>
20001704:	00b51323          	sh	a1,6(a0)
20001708:	00002597          	auipc	a1,0x2
2000170c:	bde5d583          	lhu	a1,-1058(a1) # 200032e6 <gTmosPara+0x6>
20001710:	40f587b3          	sub	a5,a1,a5
20001714:	00002717          	auipc	a4,0x2
20001718:	bcf71923          	sh	a5,-1070(a4) # 200032e6 <gTmosPara+0x6>
2000171c:	0521                	addi	a0,a0,8
2000171e:	8082                	ret
20001720:	4108                	lw	a0,0(a0)
20001722:	b79d                	j	20001688 <tmos_memory_allocate+0x30>
20001724:	4501                	li	a0,0
20001726:	8082                	ret
20001728:	8082                	ret

2000172a <tmos_memory_free>:
tmos_memory_free():
2000172a:	c10d                	beqz	a0,2000174c <tmos_memory_free+0x22>
2000172c:	00002797          	auipc	a5,0x2
20001730:	cd078793          	addi	a5,a5,-816 # 200033fc <MemCtlStart>
20001734:	0007a303          	lw	t1,0(a5)
20001738:	00002797          	auipc	a5,0x2
2000173c:	cbc78793          	addi	a5,a5,-836 # 200033f4 <MemCtlEnd>
20001740:	0007a883          	lw	a7,0(a5)
20001744:	4681                	li	a3,0
20001746:	879a                	mv	a5,t1
20001748:	0117e363          	bltu	a5,a7,2000174e <tmos_memory_free+0x24>
2000174c:	8082                	ret
2000174e:	0007a803          	lw	a6,0(a5)
20001752:	0af56d63          	bltu	a0,a5,2000180c <tmos_memory_free+0xe2>
20001756:	0aa86b63          	bltu	a6,a0,2000180c <tmos_memory_free+0xe2>
2000175a:	00878713          	addi	a4,a5,8
2000175e:	fee567e3          	bltu	a0,a4,2000174c <tmos_memory_free+0x22>
20001762:	0067d603          	lhu	a2,6(a5)
20001766:	6721                	lui	a4,0x8
20001768:	0705                	addi	a4,a4,1
2000176a:	00e61763          	bne	a2,a4,20001778 <tmos_memory_free+0x4e>
2000176e:	8191c703          	lbu	a4,-2023(gp) # 20001831 <l2capNumRecvDataPkts>
20001772:	0705                	addi	a4,a4,1
20001774:	80e18ca3          	sb	a4,-2023(gp) # 20001831 <l2capNumRecvDataPkts>
20001778:	00002597          	auipc	a1,0x2
2000177c:	b6858593          	addi	a1,a1,-1176 # 200032e0 <gTmosPara>
20001780:	0047d603          	lhu	a2,4(a5)
20001784:	0065d703          	lhu	a4,6(a1)
20001788:	00079323          	sh	zero,6(a5)
2000178c:	9732                	add	a4,a4,a2
2000178e:	0742                	slli	a4,a4,0x10
20001790:	8341                	srli	a4,a4,0x10
20001792:	00002517          	auipc	a0,0x2
20001796:	b4e51a23          	sh	a4,-1196(a0) # 200032e6 <gTmosPara+0x6>
2000179a:	02678a63          	beq	a5,t1,200017ce <tmos_memory_free+0xa4>
2000179e:	00002517          	auipc	a0,0x2
200017a2:	c5a50513          	addi	a0,a0,-934 # 200033f8 <MemCtlPartition>
200017a6:	4108                	lw	a0,0(a0)
200017a8:	02f50363          	beq	a0,a5,200017ce <tmos_memory_free+0xa4>
200017ac:	0066d503          	lhu	a0,6(a3)
200017b0:	ed19                	bnez	a0,200017ce <tmos_memory_free+0xa4>
200017b2:	0046d783          	lhu	a5,4(a3)
200017b6:	0106a023          	sw	a6,0(a3)
200017ba:	0721                	addi	a4,a4,8
200017bc:	963e                	add	a2,a2,a5
200017be:	0621                	addi	a2,a2,8
200017c0:	00c69223          	sh	a2,4(a3)
200017c4:	00002797          	auipc	a5,0x2
200017c8:	b2e79123          	sh	a4,-1246(a5) # 200032e6 <gTmosPara+0x6>
200017cc:	87b6                	mv	a5,a3
200017ce:	4398                	lw	a4,0(a5)
200017d0:	f7170ee3          	beq	a4,a7,2000174c <tmos_memory_free+0x22>
200017d4:	00002697          	auipc	a3,0x2
200017d8:	c2468693          	addi	a3,a3,-988 # 200033f8 <MemCtlPartition>
200017dc:	4294                	lw	a3,0(a3)
200017de:	f6d707e3          	beq	a4,a3,2000174c <tmos_memory_free+0x22>
200017e2:	00675683          	lhu	a3,6(a4) # 8006 <_data_lma+0x198a>
200017e6:	f2bd                	bnez	a3,2000174c <tmos_memory_free+0x22>
200017e8:	0047d683          	lhu	a3,4(a5)
200017ec:	00475603          	lhu	a2,4(a4)
200017f0:	4318                	lw	a4,0(a4)
200017f2:	06a1                	addi	a3,a3,8
200017f4:	96b2                	add	a3,a3,a2
200017f6:	00d79223          	sh	a3,4(a5)
200017fa:	c398                	sw	a4,0(a5)
200017fc:	0065d783          	lhu	a5,6(a1)
20001800:	07a1                	addi	a5,a5,8
20001802:	00002717          	auipc	a4,0x2
20001806:	aef71223          	sh	a5,-1308(a4) # 200032e6 <gTmosPara+0x6>
2000180a:	8082                	ret
2000180c:	86be                	mv	a3,a5
2000180e:	87c2                	mv	a5,a6
20001810:	bf25                	j	20001748 <tmos_memory_free+0x1e>
	...

Disassembly of section .text:

00001818 <handle_reset>:
handle_reset():
E:\Project\tp78_v2\mounriver_project\RF_CH582M\obj/../Startup/startup_CH583.S:125
	.weak	handle_reset
	.align	1
handle_reset:
.option push 
.option	norelax 
	la gp, __global_pointer$
    1818:	20001197          	auipc	gp,0x20001
    181c:	80018193          	addi	gp,gp,-2048 # 20002018 <__global_pointer$>
E:\Project\tp78_v2\mounriver_project\RF_CH582M\obj/../Startup/startup_CH583.S:128
.option	pop 
1:
	la sp, _eusrstack 
    1820:	20006117          	auipc	sp,0x20006
    1824:	7e010113          	addi	sp,sp,2016 # 20008000 <_eusrstack>
E:\Project\tp78_v2\mounriver_project\RF_CH582M\obj/../Startup/startup_CH583.S:132

/* Load highcode code  section from flash to RAM */
2:
    la a0, _highcode_lma
    1828:	00400513          	li	a0,4
E:\Project\tp78_v2\mounriver_project\RF_CH582M\obj/../Startup/startup_CH583.S:133
    la a1, _highcode_vma_start
    182c:	1fffe597          	auipc	a1,0x1fffe
    1830:	7d458593          	addi	a1,a1,2004 # 20000000 <_highcode_vma_start>
E:\Project\tp78_v2\mounriver_project\RF_CH582M\obj/../Startup/startup_CH583.S:134
    la a2, _highcode_vma_end
    1834:	20000617          	auipc	a2,0x20000
    1838:	fe060613          	addi	a2,a2,-32 # 20001814 <_highcode_vma_end>
E:\Project\tp78_v2\mounriver_project\RF_CH582M\obj/../Startup/startup_CH583.S:135
    bgeu a1, a2, 2f
    183c:	00c5fa63          	bgeu	a1,a2,1850 <handle_reset+0x38>
E:\Project\tp78_v2\mounriver_project\RF_CH582M\obj/../Startup/startup_CH583.S:137
1:
    lw t0, (a0)
    1840:	00052283          	lw	t0,0(a0)
E:\Project\tp78_v2\mounriver_project\RF_CH582M\obj/../Startup/startup_CH583.S:138
    sw t0, (a1)
    1844:	0055a023          	sw	t0,0(a1)
E:\Project\tp78_v2\mounriver_project\RF_CH582M\obj/../Startup/startup_CH583.S:139
    addi a0, a0, 4
    1848:	0511                	addi	a0,a0,4
E:\Project\tp78_v2\mounriver_project\RF_CH582M\obj/../Startup/startup_CH583.S:140
    addi a1, a1, 4
    184a:	0591                	addi	a1,a1,4
E:\Project\tp78_v2\mounriver_project\RF_CH582M\obj/../Startup/startup_CH583.S:141
    bltu a1, a2, 1b
    184c:	fec5eae3          	bltu	a1,a2,1840 <handle_reset+0x28>
E:\Project\tp78_v2\mounriver_project\RF_CH582M\obj/../Startup/startup_CH583.S:145

/* Load data section from flash to RAM */
2:
	la a0, _data_lma
    1850:	00005517          	auipc	a0,0x5
    1854:	e2c50513          	addi	a0,a0,-468 # 667c <_data_lma>
E:\Project\tp78_v2\mounriver_project\RF_CH582M\obj/../Startup/startup_CH583.S:146
	la a1, _data_vma
    1858:	20000597          	auipc	a1,0x20000
    185c:	fbc58593          	addi	a1,a1,-68 # 20001814 <_highcode_vma_end>
E:\Project\tp78_v2\mounriver_project\RF_CH582M\obj/../Startup/startup_CH583.S:147
	la a2, _edata
    1860:	80818613          	addi	a2,gp,-2040 # 20001820 <_edata>
E:\Project\tp78_v2\mounriver_project\RF_CH582M\obj/../Startup/startup_CH583.S:148
	bgeu a1, a2, 2f
    1864:	00c5fa63          	bgeu	a1,a2,1878 <handle_reset+0x60>
E:\Project\tp78_v2\mounriver_project\RF_CH582M\obj/../Startup/startup_CH583.S:150
1:
	lw t0, (a0)
    1868:	00052283          	lw	t0,0(a0)
E:\Project\tp78_v2\mounriver_project\RF_CH582M\obj/../Startup/startup_CH583.S:151
	sw t0, (a1)
    186c:	0055a023          	sw	t0,0(a1)
E:\Project\tp78_v2\mounriver_project\RF_CH582M\obj/../Startup/startup_CH583.S:152
	addi a0, a0, 4
    1870:	0511                	addi	a0,a0,4
E:\Project\tp78_v2\mounriver_project\RF_CH582M\obj/../Startup/startup_CH583.S:153
	addi a1, a1, 4
    1872:	0591                	addi	a1,a1,4
E:\Project\tp78_v2\mounriver_project\RF_CH582M\obj/../Startup/startup_CH583.S:154
	bltu a1, a2, 1b
    1874:	fec5eae3          	bltu	a1,a2,1868 <handle_reset+0x50>
E:\Project\tp78_v2\mounriver_project\RF_CH582M\obj/../Startup/startup_CH583.S:157
2:
	/* clear bss section */
	la a0, _sbss
    1878:	80818513          	addi	a0,gp,-2040 # 20001820 <_edata>
E:\Project\tp78_v2\mounriver_project\RF_CH582M\obj/../Startup/startup_CH583.S:158
	la a1, _ebss
    187c:	20002597          	auipc	a1,0x20002
    1880:	c9c58593          	addi	a1,a1,-868 # 20003518 <_ebss>
E:\Project\tp78_v2\mounriver_project\RF_CH582M\obj/../Startup/startup_CH583.S:159
	bgeu a0, a1, 2f
    1884:	00b57763          	bgeu	a0,a1,1892 <handle_reset+0x7a>
E:\Project\tp78_v2\mounriver_project\RF_CH582M\obj/../Startup/startup_CH583.S:161
1:
	sw zero, (a0)
    1888:	00052023          	sw	zero,0(a0)
E:\Project\tp78_v2\mounriver_project\RF_CH582M\obj/../Startup/startup_CH583.S:162
	addi a0, a0, 4
    188c:	0511                	addi	a0,a0,4
E:\Project\tp78_v2\mounriver_project\RF_CH582M\obj/../Startup/startup_CH583.S:163
	bltu a0, a1, 1b
    188e:	feb56de3          	bltu	a0,a1,1888 <handle_reset+0x70>
E:\Project\tp78_v2\mounriver_project\RF_CH582M\obj/../Startup/startup_CH583.S:166
2:
	/* 流水线控制位 & 动态预测控制位 */
	li t0, 0x1f
    1892:	42fd                	li	t0,31
E:\Project\tp78_v2\mounriver_project\RF_CH582M\obj/../Startup/startup_CH583.S:167
	csrw 0xbc0, t0
    1894:	bc029073          	csrw	0xbc0,t0
E:\Project\tp78_v2\mounriver_project\RF_CH582M\obj/../Startup/startup_CH583.S:169
	/* 打开嵌套中断、硬件压栈功能 */
	li t0, 0x3
    1898:	428d                	li	t0,3
E:\Project\tp78_v2\mounriver_project\RF_CH582M\obj/../Startup/startup_CH583.S:170
	csrw 0x804, t0
    189a:	80429073          	csrw	0x804,t0
E:\Project\tp78_v2\mounriver_project\RF_CH582M\obj/../Startup/startup_CH583.S:172
	
    li t0, 0x88
    189e:	08800293          	li	t0,136
E:\Project\tp78_v2\mounriver_project\RF_CH582M\obj/../Startup/startup_CH583.S:173
    csrs mstatus, t0
    18a2:	3002a073          	csrs	mstatus,t0
E:\Project\tp78_v2\mounriver_project\RF_CH582M\obj/../Startup/startup_CH583.S:174
	la t0, _vector_base
    18a6:	1fffe297          	auipc	t0,0x1fffe
    18aa:	75a28293          	addi	t0,t0,1882 # 20000000 <_highcode_vma_start>
E:\Project\tp78_v2\mounriver_project\RF_CH582M\obj/../Startup/startup_CH583.S:177

	/* 配置向量表模式为绝对地址模式 */
    ori t0, t0, 3
    18ae:	0032e293          	ori	t0,t0,3
E:\Project\tp78_v2\mounriver_project\RF_CH582M\obj/../Startup/startup_CH583.S:178
	csrw mtvec, t0
    18b2:	30529073          	csrw	mtvec,t0
E:\Project\tp78_v2\mounriver_project\RF_CH582M\obj/../Startup/startup_CH583.S:180

	la t0, main
    18b6:	00001297          	auipc	t0,0x1
    18ba:	4f028293          	addi	t0,t0,1264 # 2da6 <main>
E:\Project\tp78_v2\mounriver_project\RF_CH582M\obj/../Startup/startup_CH583.S:181
	csrw mepc, t0
    18be:	34129073          	csrw	mepc,t0
E:\Project\tp78_v2\mounriver_project\RF_CH582M\obj/../Startup/startup_CH583.S:184
	
	
	mret
    18c2:	30200073          	mret

000018c6 <ADC_InterTSSampInit>:
ADC_InterTSSampInit():
E:\Project\tp78_v2\mounriver_project\RF_CH582M\obj/../StdPeriphDriver/CH58x_adc.c:94
 *
 * @return  none
 */
void ADC_InterTSSampInit(void)
{
    R8_TKEY_CFG &= ~RB_TKEY_PWR_ON;
    18c6:	400017b7          	lui	a5,0x40001
    18ca:	0577c703          	lbu	a4,87(a5) # 40001057 <_eusrstack+0x1fff9057>
    18ce:	0fe77713          	andi	a4,a4,254
    18d2:	04e78ba3          	sb	a4,87(a5)
E:\Project\tp78_v2\mounriver_project\RF_CH582M\obj/../StdPeriphDriver/CH58x_adc.c:95
    R8_TEM_SENSOR = RB_TEM_SEN_PWR_ON;
    18d6:	f8000713          	li	a4,-128
    18da:	04e78da3          	sb	a4,91(a5)
E:\Project\tp78_v2\mounriver_project\RF_CH582M\obj/../StdPeriphDriver/CH58x_adc.c:96
    R8_ADC_CHANNEL = CH_INTE_VTEMP;
    18de:	473d                	li	a4,15
    18e0:	04e78c23          	sb	a4,88(a5)
E:\Project\tp78_v2\mounriver_project\RF_CH582M\obj/../StdPeriphDriver/CH58x_adc.c:97
    R8_ADC_CFG = RB_ADC_POWER_ON | RB_ADC_DIFF_EN | (3 << 4);
    18e4:	03500713          	li	a4,53
    18e8:	04e78ca3          	sb	a4,89(a5)
E:\Project\tp78_v2\mounriver_project\RF_CH582M\obj/../StdPeriphDriver/CH58x_adc.c:98
}
    18ec:	8082                	ret

000018ee <Calibration_LSI>:
Calibration_LSI():
E:\Project\tp78_v2\mounriver_project\RF_CH582M\obj/../StdPeriphDriver/CH58x_clk.c:142
 *                              Level_128 -   用时 4.2ms 600ppm  (32M 主频)  800ppm  (60M 主频)
 *
 * @return  none
 */
void Calibration_LSI(Cali_LevelTypeDef cali_Lv)
{
    18ee:	1141                	addi	sp,sp,-16
    18f0:	c422                	sw	s0,8(sp)
    18f2:	c606                	sw	ra,12(sp)
    18f4:	842a                	mv	s0,a0
E:\Project\tp78_v2\mounriver_project\RF_CH582M\obj/../StdPeriphDriver/CH58x_clk.c:148
    UINT32 i;
    INT32  cnt_offset;
    UINT8  retry = 0;
    INT32  freq_sys;

    freq_sys = GetSysClock();
    18f6:	29c9                	jal	1dc8 <GetSysClock>
E:\Project\tp78_v2\mounriver_project\RF_CH582M\obj/../StdPeriphDriver/CH58x_clk.c:149
    R8_SAFE_ACCESS_SIG = SAFE_ACCESS_SIG1;
    18f8:	40001737          	lui	a4,0x40001
    18fc:	05700693          	li	a3,87
    1900:	04d70023          	sb	a3,64(a4) # 40001040 <_eusrstack+0x1fff9040>
E:\Project\tp78_v2\mounriver_project\RF_CH582M\obj/../StdPeriphDriver/CH58x_clk.c:150
    R8_SAFE_ACCESS_SIG = SAFE_ACCESS_SIG2;
    1904:	fa800793          	li	a5,-88
    1908:	04f70023          	sb	a5,64(a4)
E:\Project\tp78_v2\mounriver_project\RF_CH582M\obj/../StdPeriphDriver/CH58x_clk.c:151
    SAFEOPERATE;
    190c:	0001                	nop
    190e:	0001                	nop
E:\Project\tp78_v2\mounriver_project\RF_CH582M\obj/../StdPeriphDriver/CH58x_clk.c:152
    R8_CK32K_CONFIG |= RB_CLK_OSC32K_FILT;
    1910:	02f74603          	lbu	a2,47(a4)
    1914:	00866613          	ori	a2,a2,8
    1918:	02c707a3          	sb	a2,47(a4)
E:\Project\tp78_v2\mounriver_project\RF_CH582M\obj/../StdPeriphDriver/CH58x_clk.c:153
    R8_CK32K_CONFIG &= ~RB_CLK_OSC32K_FILT;
    191c:	02f74603          	lbu	a2,47(a4)
    1920:	0f767613          	andi	a2,a2,247
    1924:	02c707a3          	sb	a2,47(a4)
E:\Project\tp78_v2\mounriver_project\RF_CH582M\obj/../StdPeriphDriver/CH58x_clk.c:154
    R8_XT32K_TUNE &= ~3;
    1928:	02e74603          	lbu	a2,46(a4)
    192c:	0fc67613          	andi	a2,a2,252
    1930:	02c70723          	sb	a2,46(a4)
E:\Project\tp78_v2\mounriver_project\RF_CH582M\obj/../StdPeriphDriver/CH58x_clk.c:155
    R8_XT32K_TUNE |= 1;
    1934:	02e74603          	lbu	a2,46(a4)
    1938:	00166613          	ori	a2,a2,1
    193c:	02c70723          	sb	a2,46(a4)
E:\Project\tp78_v2\mounriver_project\RF_CH582M\obj/../StdPeriphDriver/CH58x_clk.c:158

    // 粗调
    R8_SAFE_ACCESS_SIG = SAFE_ACCESS_SIG1;
    1940:	04d70023          	sb	a3,64(a4)
E:\Project\tp78_v2\mounriver_project\RF_CH582M\obj/../StdPeriphDriver/CH58x_clk.c:159
    R8_SAFE_ACCESS_SIG = SAFE_ACCESS_SIG2;
    1944:	04f70023          	sb	a5,64(a4)
E:\Project\tp78_v2\mounriver_project\RF_CH582M\obj/../StdPeriphDriver/CH58x_clk.c:160
    SAFEOPERATE;
    1948:	0001                	nop
    194a:	0001                	nop
E:\Project\tp78_v2\mounriver_project\RF_CH582M\obj/../StdPeriphDriver/CH58x_clk.c:161
    R8_OSC_CAL_CTRL &= ~RB_OSC_CNT_TOTAL;
    194c:	05374603          	lbu	a2,83(a4)
    1950:	0f867613          	andi	a2,a2,248
    1954:	04c709a3          	sb	a2,83(a4)
E:\Project\tp78_v2\mounriver_project\RF_CH582M\obj/../StdPeriphDriver/CH58x_clk.c:162
    R8_OSC_CAL_CTRL |= 1;
    1958:	05374603          	lbu	a2,83(a4)
    195c:	00166613          	ori	a2,a2,1
    1960:	04c709a3          	sb	a2,83(a4)
E:\Project\tp78_v2\mounriver_project\RF_CH582M\obj/../StdPeriphDriver/CH58x_clk.c:163
    R8_SAFE_ACCESS_SIG = SAFE_ACCESS_SIG1;
    1964:	04d70023          	sb	a3,64(a4)
E:\Project\tp78_v2\mounriver_project\RF_CH582M\obj/../StdPeriphDriver/CH58x_clk.c:164
    R8_SAFE_ACCESS_SIG = SAFE_ACCESS_SIG2;
    1968:	04f70023          	sb	a5,64(a4)
E:\Project\tp78_v2\mounriver_project\RF_CH582M\obj/../StdPeriphDriver/CH58x_clk.c:165
    SAFEOPERATE;
    196c:	0001                	nop
    196e:	0001                	nop
E:\Project\tp78_v2\mounriver_project\RF_CH582M\obj/../StdPeriphDriver/CH58x_clk.c:166
    R8_OSC_CAL_CTRL |= RB_OSC_CNT_EN;
    1970:	05374783          	lbu	a5,83(a4)
E:\Project\tp78_v2\mounriver_project\RF_CH582M\obj/../StdPeriphDriver/CH58x_clk.c:167
    R16_OSC_CAL_CNT |= RB_OSC_CAL_OV_CLR;
    1974:	6691                	lui	a3,0x4
E:\Project\tp78_v2\mounriver_project\RF_CH582M\obj/../StdPeriphDriver/CH58x_clk.c:171
    while( (R8_OSC_CAL_CTRL&RB_OSC_CNT_EN)!= RB_OSC_CNT_EN )
    {
        R8_SAFE_ACCESS_SIG = SAFE_ACCESS_SIG1;
        R8_SAFE_ACCESS_SIG = SAFE_ACCESS_SIG2;
    1976:	fa800613          	li	a2,-88
E:\Project\tp78_v2\mounriver_project\RF_CH582M\obj/../StdPeriphDriver/CH58x_clk.c:166
    R8_OSC_CAL_CTRL |= RB_OSC_CNT_EN;
    197a:	0207e793          	ori	a5,a5,32
    197e:	04f709a3          	sb	a5,83(a4)
E:\Project\tp78_v2\mounriver_project\RF_CH582M\obj/../StdPeriphDriver/CH58x_clk.c:167
    R16_OSC_CAL_CNT |= RB_OSC_CAL_OV_CLR;
    1982:	05075783          	lhu	a5,80(a4)
    1986:	8fd5                	or	a5,a5,a3
    1988:	04f71823          	sh	a5,80(a4)
E:\Project\tp78_v2\mounriver_project\RF_CH582M\obj/../StdPeriphDriver/CH58x_clk.c:170
        R8_SAFE_ACCESS_SIG = SAFE_ACCESS_SIG1;
    198c:	05700693          	li	a3,87
E:\Project\tp78_v2\mounriver_project\RF_CH582M\obj/../StdPeriphDriver/CH58x_clk.c:168
    while( (R8_OSC_CAL_CTRL&RB_OSC_CNT_EN)!= RB_OSC_CNT_EN )
    1990:	400017b7          	lui	a5,0x40001
    1994:	0537c703          	lbu	a4,83(a5) # 40001053 <_eusrstack+0x1fff9053>
    1998:	02077713          	andi	a4,a4,32
    199c:	c761                	beqz	a4,1a64 <Calibration_LSI+0x176>
E:\Project\tp78_v2\mounriver_project\RF_CH582M\obj/../StdPeriphDriver/CH58x_clk.c:184
        while(R8_OSC_CAL_CTRL & RB_OSC_CNT_HALT);
        R16_OSC_CAL_CNT |= RB_OSC_CAL_OV_CLR;
        while(!(R8_OSC_CAL_CTRL & RB_OSC_CNT_HALT));
        i = R16_OSC_CAL_CNT; // 实时校准后采样值
        cnt_offset = (i & 0x3FFF) + R8_OSC_CAL_OV_CNT * 0x3FFF - 2000 * (freq_sys / 1000) / CAB_LSIFQ;
        if(((cnt_offset > -37 * (freq_sys / 1000) / CAB_LSIFQ) && (cnt_offset < 37 * (freq_sys / 1000) / CAB_LSIFQ)) || retry > 2)
    199e:	c1800813          	li	a6,-1000
    19a2:	3e800593          	li	a1,1000
    19a6:	03054833          	div	a6,a0,a6
    19aa:	02500793          	li	a5,37
E:\Project\tp78_v2\mounriver_project\RF_CH582M\obj/../StdPeriphDriver/CH58x_clk.c:183
        cnt_offset = (i & 0x3FFF) + R8_OSC_CAL_OV_CNT * 0x3FFF - 2000 * (freq_sys / 1000) / CAB_LSIFQ;
    19ae:	6891                	lui	a7,0x4
E:\Project\tp78_v2\mounriver_project\RF_CH582M\obj/../StdPeriphDriver/CH58x_clk.c:184
        if(((cnt_offset > -37 * (freq_sys / 1000) / CAB_LSIFQ) && (cnt_offset < 37 * (freq_sys / 1000) / CAB_LSIFQ)) || retry > 2)
    19b0:	6721                	lui	a4,0x8
E:\Project\tp78_v2\mounriver_project\RF_CH582M\obj/../StdPeriphDriver/CH58x_clk.c:183
        cnt_offset = (i & 0x3FFF) + R8_OSC_CAL_OV_CNT * 0x3FFF - 2000 * (freq_sys / 1000) / CAB_LSIFQ;
    19b2:	e8088e13          	addi	t3,a7,-384 # 3e80 <ble_ll_hw_api_shut+0x2c>
E:\Project\tp78_v2\mounriver_project\RF_CH582M\obj/../StdPeriphDriver/CH58x_clk.c:184
        if(((cnt_offset > -37 * (freq_sys / 1000) / CAB_LSIFQ) && (cnt_offset < 37 * (freq_sys / 1000) / CAB_LSIFQ)) || retry > 2)
    19b6:	d0070713          	addi	a4,a4,-768 # 7d00 <_data_lma+0x1684>
    19ba:	4311                	li	t1,4
E:\Project\tp78_v2\mounriver_project\RF_CH582M\obj/../StdPeriphDriver/CH58x_clk.c:177
        while(!(R8_OSC_CAL_CTRL & RB_OSC_CNT_HALT));
    19bc:	400016b7          	lui	a3,0x40001
E:\Project\tp78_v2\mounriver_project\RF_CH582M\obj/../StdPeriphDriver/CH58x_clk.c:180
        R16_OSC_CAL_CNT |= RB_OSC_CAL_OV_CLR;
    19c0:	6291                	lui	t0,0x4
E:\Project\tp78_v2\mounriver_project\RF_CH582M\obj/../StdPeriphDriver/CH58x_clk.c:183
        cnt_offset = (i & 0x3FFF) + R8_OSC_CAL_OV_CNT * 0x3FFF - 2000 * (freq_sys / 1000) / CAB_LSIFQ;
    19c2:	18fd                	addi	a7,a7,-1
E:\Project\tp78_v2\mounriver_project\RF_CH582M\obj/../StdPeriphDriver/CH58x_clk.c:187
            break;
        retry++;
        cnt_offset = (cnt_offset > 0) ? (((cnt_offset * 2) / (37 * (freq_sys / 1000) / CAB_LSIFQ)) + 1) / 2 : (((cnt_offset * 2) / (37 * (freq_sys / 1000) / CAB_LSIFQ)) - 1) / 2;
    19c4:	4e89                	li	t4,2
E:\Project\tp78_v2\mounriver_project\RF_CH582M\obj/../StdPeriphDriver/CH58x_clk.c:188
        R8_SAFE_ACCESS_SIG = SAFE_ACCESS_SIG1;
    19c6:	05700f93          	li	t6,87
E:\Project\tp78_v2\mounriver_project\RF_CH582M\obj/../StdPeriphDriver/CH58x_clk.c:189
        R8_SAFE_ACCESS_SIG = SAFE_ACCESS_SIG2;
    19ca:	fa800f13          	li	t5,-88
E:\Project\tp78_v2\mounriver_project\RF_CH582M\obj/../StdPeriphDriver/CH58x_clk.c:184
        if(((cnt_offset > -37 * (freq_sys / 1000) / CAB_LSIFQ) && (cnt_offset < 37 * (freq_sys / 1000) / CAB_LSIFQ)) || retry > 2)
    19ce:	02b545b3          	div	a1,a0,a1
    19d2:	02f80833          	mul	a6,a6,a5
    19d6:	02f587b3          	mul	a5,a1,a5
E:\Project\tp78_v2\mounriver_project\RF_CH582M\obj/../StdPeriphDriver/CH58x_clk.c:183
        cnt_offset = (i & 0x3FFF) + R8_OSC_CAL_OV_CNT * 0x3FFF - 2000 * (freq_sys / 1000) / CAB_LSIFQ;
    19da:	03c54e33          	div	t3,a0,t3
E:\Project\tp78_v2\mounriver_project\RF_CH582M\obj/../StdPeriphDriver/CH58x_clk.c:184
        if(((cnt_offset > -37 * (freq_sys / 1000) / CAB_LSIFQ) && (cnt_offset < 37 * (freq_sys / 1000) / CAB_LSIFQ)) || retry > 2)
    19de:	02e84833          	div	a6,a6,a4
    19e2:	02e7c7b3          	div	a5,a5,a4
E:\Project\tp78_v2\mounriver_project\RF_CH582M\obj/../StdPeriphDriver/CH58x_clk.c:177 (discriminator 1)
        while(!(R8_OSC_CAL_CTRL & RB_OSC_CNT_HALT));
    19e6:	0536c703          	lbu	a4,83(a3) # 40001053 <_eusrstack+0x1fff9053>
    19ea:	8b21                	andi	a4,a4,8
    19ec:	df6d                	beqz	a4,19e6 <Calibration_LSI+0xf8>
E:\Project\tp78_v2\mounriver_project\RF_CH582M\obj/../StdPeriphDriver/CH58x_clk.c:178
        i = R16_OSC_CAL_CNT; // 用于丢弃
    19ee:	0506d703          	lhu	a4,80(a3)
E:\Project\tp78_v2\mounriver_project\RF_CH582M\obj/../StdPeriphDriver/CH58x_clk.c:179 (discriminator 1)
        while(R8_OSC_CAL_CTRL & RB_OSC_CNT_HALT);
    19f2:	0536c703          	lbu	a4,83(a3)
    19f6:	8b21                	andi	a4,a4,8
    19f8:	ff6d                	bnez	a4,19f2 <Calibration_LSI+0x104>
E:\Project\tp78_v2\mounriver_project\RF_CH582M\obj/../StdPeriphDriver/CH58x_clk.c:180
        R16_OSC_CAL_CNT |= RB_OSC_CAL_OV_CLR;
    19fa:	0506d703          	lhu	a4,80(a3)
    19fe:	00576733          	or	a4,a4,t0
    1a02:	04e69823          	sh	a4,80(a3)
E:\Project\tp78_v2\mounriver_project\RF_CH582M\obj/../StdPeriphDriver/CH58x_clk.c:181 (discriminator 1)
        while(!(R8_OSC_CAL_CTRL & RB_OSC_CNT_HALT));
    1a06:	0536c703          	lbu	a4,83(a3)
    1a0a:	8b21                	andi	a4,a4,8
    1a0c:	df6d                	beqz	a4,1a06 <Calibration_LSI+0x118>
E:\Project\tp78_v2\mounriver_project\RF_CH582M\obj/../StdPeriphDriver/CH58x_clk.c:182
        i = R16_OSC_CAL_CNT; // 实时校准后采样值
    1a0e:	0506d603          	lhu	a2,80(a3)
E:\Project\tp78_v2\mounriver_project\RF_CH582M\obj/../StdPeriphDriver/CH58x_clk.c:183
        cnt_offset = (i & 0x3FFF) + R8_OSC_CAL_OV_CNT * 0x3FFF - 2000 * (freq_sys / 1000) / CAB_LSIFQ;
    1a12:	0526c703          	lbu	a4,82(a3)
    1a16:	00c8f633          	and	a2,a7,a2
    1a1a:	02e88733          	mul	a4,a7,a4
    1a1e:	963a                	add	a2,a2,a4
    1a20:	41c60633          	sub	a2,a2,t3
E:\Project\tp78_v2\mounriver_project\RF_CH582M\obj/../StdPeriphDriver/CH58x_clk.c:184
        if(((cnt_offset > -37 * (freq_sys / 1000) / CAB_LSIFQ) && (cnt_offset < 37 * (freq_sys / 1000) / CAB_LSIFQ)) || retry > 2)
    1a24:	00c85463          	bge	a6,a2,1a2c <Calibration_LSI+0x13e>
E:\Project\tp78_v2\mounriver_project\RF_CH582M\obj/../StdPeriphDriver/CH58x_clk.c:184 (discriminator 1)
    1a28:	04f64d63          	blt	a2,a5,1a82 <Calibration_LSI+0x194>
    1a2c:	137d                	addi	t1,t1,-1
    1a2e:	0ff37313          	andi	t1,t1,255
E:\Project\tp78_v2\mounriver_project\RF_CH582M\obj/../StdPeriphDriver/CH58x_clk.c:184 (discriminator 3)
    1a32:	04030863          	beqz	t1,1a82 <Calibration_LSI+0x194>
E:\Project\tp78_v2\mounriver_project\RF_CH582M\obj/../StdPeriphDriver/CH58x_clk.c:187
        cnt_offset = (cnt_offset > 0) ? (((cnt_offset * 2) / (37 * (freq_sys / 1000) / CAB_LSIFQ)) + 1) / 2 : (((cnt_offset * 2) / (37 * (freq_sys / 1000) / CAB_LSIFQ)) - 1) / 2;
    1a36:	00161713          	slli	a4,a2,0x1
    1a3a:	02f74733          	div	a4,a4,a5
    1a3e:	04c05063          	blez	a2,1a7e <Calibration_LSI+0x190>
E:\Project\tp78_v2\mounriver_project\RF_CH582M\obj/../StdPeriphDriver/CH58x_clk.c:187 (discriminator 1)
    1a42:	0705                	addi	a4,a4,1
E:\Project\tp78_v2\mounriver_project\RF_CH582M\obj/../StdPeriphDriver/CH58x_clk.c:188 (discriminator 2)
        R8_SAFE_ACCESS_SIG = SAFE_ACCESS_SIG1;
    1a44:	05f68023          	sb	t6,64(a3)
E:\Project\tp78_v2\mounriver_project\RF_CH582M\obj/../StdPeriphDriver/CH58x_clk.c:189 (discriminator 2)
        R8_SAFE_ACCESS_SIG = SAFE_ACCESS_SIG2;
    1a48:	05e68023          	sb	t5,64(a3)
E:\Project\tp78_v2\mounriver_project\RF_CH582M\obj/../StdPeriphDriver/CH58x_clk.c:187 (discriminator 2)
        cnt_offset = (cnt_offset > 0) ? (((cnt_offset * 2) / (37 * (freq_sys / 1000) / CAB_LSIFQ)) + 1) / 2 : (((cnt_offset * 2) / (37 * (freq_sys / 1000) / CAB_LSIFQ)) - 1) / 2;
    1a4c:	03d74733          	div	a4,a4,t4
E:\Project\tp78_v2\mounriver_project\RF_CH582M\obj/../StdPeriphDriver/CH58x_clk.c:190 (discriminator 2)
        SAFEOPERATE;
    1a50:	0001                	nop
    1a52:	0001                	nop
E:\Project\tp78_v2\mounriver_project\RF_CH582M\obj/../StdPeriphDriver/CH58x_clk.c:191 (discriminator 2)
        R16_INT32K_TUNE += cnt_offset;
    1a54:	02c6d603          	lhu	a2,44(a3)
    1a58:	9732                	add	a4,a4,a2
    1a5a:	0742                	slli	a4,a4,0x10
    1a5c:	8341                	srli	a4,a4,0x10
    1a5e:	02e69623          	sh	a4,44(a3)
E:\Project\tp78_v2\mounriver_project\RF_CH582M\obj/../StdPeriphDriver/CH58x_clk.c:177 (discriminator 2)
        while(!(R8_OSC_CAL_CTRL & RB_OSC_CNT_HALT));
    1a62:	b751                	j	19e6 <Calibration_LSI+0xf8>
E:\Project\tp78_v2\mounriver_project\RF_CH582M\obj/../StdPeriphDriver/CH58x_clk.c:170
        R8_SAFE_ACCESS_SIG = SAFE_ACCESS_SIG1;
    1a64:	04d78023          	sb	a3,64(a5)
E:\Project\tp78_v2\mounriver_project\RF_CH582M\obj/../StdPeriphDriver/CH58x_clk.c:171
        R8_SAFE_ACCESS_SIG = SAFE_ACCESS_SIG2;
    1a68:	04c78023          	sb	a2,64(a5)
E:\Project\tp78_v2\mounriver_project\RF_CH582M\obj/../StdPeriphDriver/CH58x_clk.c:172
        SAFEOPERATE;
    1a6c:	0001                	nop
    1a6e:	0001                	nop
E:\Project\tp78_v2\mounriver_project\RF_CH582M\obj/../StdPeriphDriver/CH58x_clk.c:173
        R8_OSC_CAL_CTRL |= RB_OSC_CNT_EN;
    1a70:	0537c703          	lbu	a4,83(a5)
    1a74:	02076713          	ori	a4,a4,32
    1a78:	04e789a3          	sb	a4,83(a5)
    1a7c:	bf21                	j	1994 <Calibration_LSI+0xa6>
E:\Project\tp78_v2\mounriver_project\RF_CH582M\obj/../StdPeriphDriver/CH58x_clk.c:187 (discriminator 2)
        cnt_offset = (cnt_offset > 0) ? (((cnt_offset * 2) / (37 * (freq_sys / 1000) / CAB_LSIFQ)) + 1) / 2 : (((cnt_offset * 2) / (37 * (freq_sys / 1000) / CAB_LSIFQ)) - 1) / 2;
    1a7e:	177d                	addi	a4,a4,-1
    1a80:	b7d1                	j	1a44 <Calibration_LSI+0x156>
E:\Project\tp78_v2\mounriver_project\RF_CH582M\obj/../StdPeriphDriver/CH58x_clk.c:196 (discriminator 1)
    }

    // 细调
    // 配置细调参数后，丢弃2次捕获值（软件行为）上判断已有一次，这里只留一次
    while(!(R8_OSC_CAL_CTRL & RB_OSC_CNT_HALT));
    1a82:	400017b7          	lui	a5,0x40001
    1a86:	0537c683          	lbu	a3,83(a5) # 40001053 <_eusrstack+0x1fff9053>
    1a8a:	05378713          	addi	a4,a5,83
    1a8e:	8aa1                	andi	a3,a3,8
    1a90:	dafd                	beqz	a3,1a86 <Calibration_LSI+0x198>
E:\Project\tp78_v2\mounriver_project\RF_CH582M\obj/../StdPeriphDriver/CH58x_clk.c:197
    i = R16_OSC_CAL_CNT; // 用于丢弃
    1a92:	0507d683          	lhu	a3,80(a5)
E:\Project\tp78_v2\mounriver_project\RF_CH582M\obj/../StdPeriphDriver/CH58x_clk.c:198
    R16_OSC_CAL_CNT |= RB_OSC_CAL_OV_CLR;
    1a96:	0507d683          	lhu	a3,80(a5)
    1a9a:	6611                	lui	a2,0x4
    1a9c:	8ed1                	or	a3,a3,a2
    1a9e:	04d79823          	sh	a3,80(a5)
E:\Project\tp78_v2\mounriver_project\RF_CH582M\obj/../StdPeriphDriver/CH58x_clk.c:199
    R8_SAFE_ACCESS_SIG = SAFE_ACCESS_SIG1;
    1aa2:	05700693          	li	a3,87
    1aa6:	04d78023          	sb	a3,64(a5)
E:\Project\tp78_v2\mounriver_project\RF_CH582M\obj/../StdPeriphDriver/CH58x_clk.c:200
    R8_SAFE_ACCESS_SIG = SAFE_ACCESS_SIG2;
    1aaa:	fa800693          	li	a3,-88
    1aae:	04d78023          	sb	a3,64(a5)
E:\Project\tp78_v2\mounriver_project\RF_CH582M\obj/../StdPeriphDriver/CH58x_clk.c:201
    SAFEOPERATE;
    1ab2:	0001                	nop
    1ab4:	0001                	nop
E:\Project\tp78_v2\mounriver_project\RF_CH582M\obj/../StdPeriphDriver/CH58x_clk.c:202
    R8_OSC_CAL_CTRL &= ~RB_OSC_CNT_TOTAL;
    1ab6:	00074783          	lbu	a5,0(a4)
    1aba:	0f87f793          	andi	a5,a5,248
    1abe:	00f70023          	sb	a5,0(a4)
E:\Project\tp78_v2\mounriver_project\RF_CH582M\obj/../StdPeriphDriver/CH58x_clk.c:203
    R8_OSC_CAL_CTRL |= cali_Lv;
    1ac2:	00074783          	lbu	a5,0(a4)
    1ac6:	8fc1                	or	a5,a5,s0
    1ac8:	0ff7f793          	andi	a5,a5,255
    1acc:	00f70023          	sb	a5,0(a4)
E:\Project\tp78_v2\mounriver_project\RF_CH582M\obj/../StdPeriphDriver/CH58x_clk.c:204
    while(R8_OSC_CAL_CTRL & RB_OSC_CNT_HALT);
    1ad0:	40001737          	lui	a4,0x40001
E:\Project\tp78_v2\mounriver_project\RF_CH582M\obj/../StdPeriphDriver/CH58x_clk.c:204 (discriminator 1)
    1ad4:	05374783          	lbu	a5,83(a4) # 40001053 <_eusrstack+0x1fff9053>
    1ad8:	8ba1                	andi	a5,a5,8
    1ada:	ffed                	bnez	a5,1ad4 <Calibration_LSI+0x1e6>
E:\Project\tp78_v2\mounriver_project\RF_CH582M\obj/../StdPeriphDriver/CH58x_clk.c:205
    while(!(R8_OSC_CAL_CTRL & RB_OSC_CNT_HALT));
    1adc:	400017b7          	lui	a5,0x40001
E:\Project\tp78_v2\mounriver_project\RF_CH582M\obj/../StdPeriphDriver/CH58x_clk.c:205 (discriminator 1)
    1ae0:	0537c703          	lbu	a4,83(a5) # 40001053 <_eusrstack+0x1fff9053>
    1ae4:	8b21                	andi	a4,a4,8
    1ae6:	df6d                	beqz	a4,1ae0 <Calibration_LSI+0x1f2>
E:\Project\tp78_v2\mounriver_project\RF_CH582M\obj/../StdPeriphDriver/CH58x_clk.c:207
    i = R16_OSC_CAL_CNT; // 实时校准后采样值
    cnt_offset = (i & 0x3FFF) + R8_OSC_CAL_OV_CNT * 0x3FFF - 4000 * (1 << cali_Lv) * (freq_sys / 1000000) / CAB_LSIFQ * 1000;
    1ae8:	000f4637          	lui	a2,0xf4
    1aec:	24060613          	addi	a2,a2,576 # f4240 <_data_lma+0xedbc4>
    1af0:	02c54533          	div	a0,a0,a2
E:\Project\tp78_v2\mounriver_project\RF_CH582M\obj/../StdPeriphDriver/CH58x_clk.c:206
    i = R16_OSC_CAL_CNT; // 实时校准后采样值
    1af4:	0507d683          	lhu	a3,80(a5)
E:\Project\tp78_v2\mounriver_project\RF_CH582M\obj/../StdPeriphDriver/CH58x_clk.c:207
    cnt_offset = (i & 0x3FFF) + R8_OSC_CAL_OV_CNT * 0x3FFF - 4000 * (1 << cali_Lv) * (freq_sys / 1000000) / CAB_LSIFQ * 1000;
    1af8:	0527c783          	lbu	a5,82(a5)
    1afc:	6711                	lui	a4,0x4
    1afe:	177d                	addi	a4,a4,-1
    1b00:	8ef9                	and	a3,a3,a4
    1b02:	6621                	lui	a2,0x8
    1b04:	d0060613          	addi	a2,a2,-768 # 7d00 <_data_lma+0x1684>
    1b08:	02f70733          	mul	a4,a4,a5
    1b0c:	6785                	lui	a5,0x1
    1b0e:	96ba                	add	a3,a3,a4
    1b10:	fa078713          	addi	a4,a5,-96 # fa0 <_einit+0xf9c>
    1b14:	00871733          	sll	a4,a4,s0
    1b18:	02a70733          	mul	a4,a4,a0
    1b1c:	3e800513          	li	a0,1000
    1b20:	c8078793          	addi	a5,a5,-896
    1b24:	4087d7b3          	sra	a5,a5,s0
    1b28:	02c74733          	div	a4,a4,a2
    1b2c:	02a70733          	mul	a4,a4,a0
    1b30:	40e68733          	sub	a4,a3,a4
E:\Project\tp78_v2\mounriver_project\RF_CH582M\obj/../StdPeriphDriver/CH58x_clk.c:208
    cnt_offset = (cnt_offset > 0) ? ((((cnt_offset * (3200 / (1 << cali_Lv))) / (1366 * (freq_sys / 1000) / CAB_LSIFQ)) + 1) / 2) << 5 : ((((cnt_offset * (3200 / (1 << cali_Lv))) / (1366 * (freq_sys / 1000) / CAB_LSIFQ)) - 1) / 2) << 5;
    1b34:	55600693          	li	a3,1366
    1b38:	02d585b3          	mul	a1,a1,a3
    1b3c:	02c5c5b3          	div	a1,a1,a2
    1b40:	02e787b3          	mul	a5,a5,a4
    1b44:	02b7c7b3          	div	a5,a5,a1
    1b48:	04e05463          	blez	a4,1b90 <Calibration_LSI+0x2a2>
E:\Project\tp78_v2\mounriver_project\RF_CH582M\obj/../StdPeriphDriver/CH58x_clk.c:208 (discriminator 1)
    1b4c:	0785                	addi	a5,a5,1
E:\Project\tp78_v2\mounriver_project\RF_CH582M\obj/../StdPeriphDriver/CH58x_clk.c:208 (discriminator 2)
    1b4e:	4709                	li	a4,2
E:\Project\tp78_v2\mounriver_project\RF_CH582M\obj/../StdPeriphDriver/CH58x_clk.c:209 (discriminator 2)
    R8_SAFE_ACCESS_SIG = SAFE_ACCESS_SIG1;
    1b50:	05700693          	li	a3,87
E:\Project\tp78_v2\mounriver_project\RF_CH582M\obj/../StdPeriphDriver/CH58x_clk.c:208 (discriminator 2)
    cnt_offset = (cnt_offset > 0) ? ((((cnt_offset * (3200 / (1 << cali_Lv))) / (1366 * (freq_sys / 1000) / CAB_LSIFQ)) + 1) / 2) << 5 : ((((cnt_offset * (3200 / (1 << cali_Lv))) / (1366 * (freq_sys / 1000) / CAB_LSIFQ)) - 1) / 2) << 5;
    1b54:	02e7c7b3          	div	a5,a5,a4
E:\Project\tp78_v2\mounriver_project\RF_CH582M\obj/../StdPeriphDriver/CH58x_clk.c:209 (discriminator 2)
    R8_SAFE_ACCESS_SIG = SAFE_ACCESS_SIG1;
    1b58:	40001737          	lui	a4,0x40001
    1b5c:	04d70023          	sb	a3,64(a4) # 40001040 <_eusrstack+0x1fff9040>
E:\Project\tp78_v2\mounriver_project\RF_CH582M\obj/../StdPeriphDriver/CH58x_clk.c:210 (discriminator 2)
    R8_SAFE_ACCESS_SIG = SAFE_ACCESS_SIG2;
    1b60:	fa800693          	li	a3,-88
    1b64:	04d70023          	sb	a3,64(a4)
E:\Project\tp78_v2\mounriver_project\RF_CH582M\obj/../StdPeriphDriver/CH58x_clk.c:208 (discriminator 2)
    cnt_offset = (cnt_offset > 0) ? ((((cnt_offset * (3200 / (1 << cali_Lv))) / (1366 * (freq_sys / 1000) / CAB_LSIFQ)) + 1) / 2) << 5 : ((((cnt_offset * (3200 / (1 << cali_Lv))) / (1366 * (freq_sys / 1000) / CAB_LSIFQ)) - 1) / 2) << 5;
    1b68:	0796                	slli	a5,a5,0x5
E:\Project\tp78_v2\mounriver_project\RF_CH582M\obj/../StdPeriphDriver/CH58x_clk.c:211 (discriminator 2)
    SAFEOPERATE;
    1b6a:	0001                	nop
    1b6c:	0001                	nop
E:\Project\tp78_v2\mounriver_project\RF_CH582M\obj/../StdPeriphDriver/CH58x_clk.c:212 (discriminator 2)
    R16_INT32K_TUNE += cnt_offset;
    1b6e:	02c75683          	lhu	a3,44(a4)
    1b72:	97b6                	add	a5,a5,a3
    1b74:	07c2                	slli	a5,a5,0x10
    1b76:	83c1                	srli	a5,a5,0x10
    1b78:	02f71623          	sh	a5,44(a4)
E:\Project\tp78_v2\mounriver_project\RF_CH582M\obj/../StdPeriphDriver/CH58x_clk.c:213 (discriminator 2)
    R8_OSC_CAL_CTRL &= ~RB_OSC_CNT_EN;
    1b7c:	05374783          	lbu	a5,83(a4)
    1b80:	0df7f793          	andi	a5,a5,223
    1b84:	04f709a3          	sb	a5,83(a4)
E:\Project\tp78_v2\mounriver_project\RF_CH582M\obj/../StdPeriphDriver/CH58x_clk.c:214 (discriminator 2)
}
    1b88:	40b2                	lw	ra,12(sp)
    1b8a:	4422                	lw	s0,8(sp)
    1b8c:	0141                	addi	sp,sp,16
    1b8e:	8082                	ret
E:\Project\tp78_v2\mounriver_project\RF_CH582M\obj/../StdPeriphDriver/CH58x_clk.c:208 (discriminator 2)
    cnt_offset = (cnt_offset > 0) ? ((((cnt_offset * (3200 / (1 << cali_Lv))) / (1366 * (freq_sys / 1000) / CAB_LSIFQ)) + 1) / 2) << 5 : ((((cnt_offset * (3200 / (1 << cali_Lv))) / (1366 * (freq_sys / 1000) / CAB_LSIFQ)) - 1) / 2) << 5;
    1b90:	17fd                	addi	a5,a5,-1
    1b92:	bf75                	j	1b4e <Calibration_LSI+0x260>

00001b94 <RTC_InitTime>:
RTC_InitTime():
E:\Project\tp78_v2\mounriver_project\RF_CH582M\obj/../StdPeriphDriver/CH58x_clk.c:231
 * @param   s       - 配置秒，MAX_S = 59
 *
 * @return  none
 */
void RTC_InitTime(uint16_t y, uint16_t mon, uint16_t d, uint16_t h, uint16_t m, uint16_t s)
{
    1b94:	1141                	addi	sp,sp,-16
    1b96:	832a                	mv	t1,a0
E:\Project\tp78_v2\mounriver_project\RF_CH582M\obj/../StdPeriphDriver/CH58x_clk.c:238
    uint16_t         year, month, day, sec2, t32k;
    volatile uint8_t clk_pin;

    year = y;
    month = mon;
    day = 0;
    1b98:	4e01                	li	t3,0
E:\Project\tp78_v2\mounriver_project\RF_CH582M\obj/../StdPeriphDriver/CH58x_clk.c:239
    while(year > BEGYEAR)
    1b9a:	7e400e93          	li	t4,2020
E:\Project\tp78_v2\mounriver_project\RF_CH582M\obj/../StdPeriphDriver/CH58x_clk.c:241
    {
        day += YearLength(year - 1);
    1b9e:	19000f13          	li	t5,400
    1ba2:	06400f93          	li	t6,100
E:\Project\tp78_v2\mounriver_project\RF_CH582M\obj/../StdPeriphDriver/CH58x_clk.c:239
    while(year > BEGYEAR)
    1ba6:	0e6ee463          	bltu	t4,t1,1c8e <RTC_InitTime+0xfa>
E:\Project\tp78_v2\mounriver_project\RF_CH582M\obj/../StdPeriphDriver/CH58x_clk.c:246
        year--;
    }
    while(month > 1)
    {
        day += monthLength(IsLeapYear(y), month - 2);
    1baa:	19000893          	li	a7,400
    1bae:	06400313          	li	t1,100
    1bb2:	031578b3          	remu	a7,a0,a7
E:\Project\tp78_v2\mounriver_project\RF_CH582M\obj/../StdPeriphDriver/CH58x_clk.c:244
    while(month > 1)
    1bb6:	4e85                	li	t4,1
E:\Project\tp78_v2\mounriver_project\RF_CH582M\obj/../StdPeriphDriver/CH58x_clk.c:246
        day += monthLength(IsLeapYear(y), month - 2);
    1bb8:	4f0d                	li	t5,3
    1bba:	4fa1                	li	t6,8
    1bbc:	02657333          	remu	t1,a0,t1
    1bc0:	890d                	andi	a0,a0,3
    1bc2:	00153513          	seqz	a0,a0
E:\Project\tp78_v2\mounriver_project\RF_CH582M\obj/../StdPeriphDriver/CH58x_clk.c:244
    while(month > 1)
    1bc6:	0ebeee63          	bltu	t4,a1,1cc2 <RTC_InitTime+0x12e>
E:\Project\tp78_v2\mounriver_project\RF_CH582M\obj/../StdPeriphDriver/CH58x_clk.c:250
        month--;
    }

    day += d - 1;
    1bca:	fff60813          	addi	a6,a2,-1
E:\Project\tp78_v2\mounriver_project\RF_CH582M\obj/../StdPeriphDriver/CH58x_clk.c:251
    sec2 = (h % 24) * 1800 + m * 30 + s / 2;
    1bce:	4679                	li	a2,30
E:\Project\tp78_v2\mounriver_project\RF_CH582M\obj/../StdPeriphDriver/CH58x_clk.c:250
    day += d - 1;
    1bd0:	9872                	add	a6,a6,t3
    1bd2:	0842                	slli	a6,a6,0x10
    1bd4:	01085813          	srli	a6,a6,0x10
E:\Project\tp78_v2\mounriver_project\RF_CH582M\obj/../StdPeriphDriver/CH58x_clk.c:251
    sec2 = (h % 24) * 1800 + m * 30 + s / 2;
    1bd8:	02c70733          	mul	a4,a4,a2
    1bdc:	0017d613          	srli	a2,a5,0x1
E:\Project\tp78_v2\mounriver_project\RF_CH582M\obj/../StdPeriphDriver/CH58x_clk.c:252
    t32k = (s & 1) ? (0x8000) : (0);
    1be0:	07be                	slli	a5,a5,0xf
E:\Project\tp78_v2\mounriver_project\RF_CH582M\obj/../StdPeriphDriver/CH58x_clk.c:251
    sec2 = (h % 24) * 1800 + m * 30 + s / 2;
    1be2:	9732                	add	a4,a4,a2
    1be4:	4661                	li	a2,24
    1be6:	02c6f6b3          	remu	a3,a3,a2
    1bea:	70800613          	li	a2,1800
    1bee:	02c686b3          	mul	a3,a3,a2
    1bf2:	9736                	add	a4,a4,a3
E:\Project\tp78_v2\mounriver_project\RF_CH582M\obj/../StdPeriphDriver/CH58x_clk.c:254
    t = sec2;
    t = t << 16 | t32k;
    1bf4:	66a1                	lui	a3,0x8
    1bf6:	8ff5                	and	a5,a5,a3
    1bf8:	0742                	slli	a4,a4,0x10
    1bfa:	8f5d                	or	a4,a4,a5
E:\Project\tp78_v2\mounriver_project\RF_CH582M\obj/../StdPeriphDriver/CH58x_clk.c:258

    do
    {
        clk_pin = (R8_CK32K_CONFIG & RB_32K_CLK_PIN);
    1bfc:	400016b7          	lui	a3,0x40001
E:\Project\tp78_v2\mounriver_project\RF_CH582M\obj/../StdPeriphDriver/CH58x_clk.c:258 (discriminator 1)
    1c00:	02f6c783          	lbu	a5,47(a3) # 4000102f <_eusrstack+0x1fff902f>
    1c04:	0807f793          	andi	a5,a5,128
    1c08:	00f107a3          	sb	a5,15(sp)
E:\Project\tp78_v2\mounriver_project\RF_CH582M\obj/../StdPeriphDriver/CH58x_clk.c:259 (discriminator 1)
    } while(clk_pin != (R8_CK32K_CONFIG & RB_32K_CLK_PIN));
    1c0c:	00f14603          	lbu	a2,15(sp)
    1c10:	02f6c783          	lbu	a5,47(a3)
    1c14:	0807f793          	andi	a5,a5,128
    1c18:	fec794e3          	bne	a5,a2,1c00 <RTC_InitTime+0x6c>
E:\Project\tp78_v2\mounriver_project\RF_CH582M\obj/../StdPeriphDriver/CH58x_clk.c:260
    if(!clk_pin)
    1c1c:	00f14783          	lbu	a5,15(sp)
E:\Project\tp78_v2\mounriver_project\RF_CH582M\obj/../StdPeriphDriver/CH58x_clk.c:266
    {
        while(!clk_pin)
        {
            do
            {
                clk_pin = (R8_CK32K_CONFIG & RB_32K_CLK_PIN);
    1c20:	400016b7          	lui	a3,0x40001
E:\Project\tp78_v2\mounriver_project\RF_CH582M\obj/../StdPeriphDriver/CH58x_clk.c:260
    if(!clk_pin)
    1c24:	0ff7f793          	andi	a5,a5,255
    1c28:	c7fd                	beqz	a5,1d16 <RTC_InitTime+0x182>
E:\Project\tp78_v2\mounriver_project\RF_CH582M\obj/../StdPeriphDriver/CH58x_clk.c:271
            } while(clk_pin != (R8_CK32K_CONFIG & RB_32K_CLK_PIN));
        }
    }

    R8_SAFE_ACCESS_SIG = SAFE_ACCESS_SIG1;
    1c2a:	400017b7          	lui	a5,0x40001
    1c2e:	05700693          	li	a3,87
    1c32:	04d78023          	sb	a3,64(a5) # 40001040 <_eusrstack+0x1fff9040>
E:\Project\tp78_v2\mounriver_project\RF_CH582M\obj/../StdPeriphDriver/CH58x_clk.c:272
    R8_SAFE_ACCESS_SIG = SAFE_ACCESS_SIG2;
    1c36:	fa800693          	li	a3,-88
    1c3a:	04d78023          	sb	a3,64(a5)
E:\Project\tp78_v2\mounriver_project\RF_CH582M\obj/../StdPeriphDriver/CH58x_clk.c:273
    SAFEOPERATE;
    1c3e:	0001                	nop
    1c40:	0001                	nop
E:\Project\tp78_v2\mounriver_project\RF_CH582M\obj/../StdPeriphDriver/CH58x_clk.c:274
    R32_RTC_TRIG = day;
    1c42:	0307aa23          	sw	a6,52(a5)
E:\Project\tp78_v2\mounriver_project\RF_CH582M\obj/../StdPeriphDriver/CH58x_clk.c:275
    R8_RTC_MODE_CTRL |= RB_RTC_LOAD_HI;
    1c46:	0317c683          	lbu	a3,49(a5)
E:\Project\tp78_v2\mounriver_project\RF_CH582M\obj/../StdPeriphDriver/CH58x_clk.c:276
    while((R32_RTC_TRIG & 0x3FFF) != (R32_RTC_CNT_DAY & 0x3FFF));
    1c4a:	6611                	lui	a2,0x4
    1c4c:	167d                	addi	a2,a2,-1
E:\Project\tp78_v2\mounriver_project\RF_CH582M\obj/../StdPeriphDriver/CH58x_clk.c:275
    R8_RTC_MODE_CTRL |= RB_RTC_LOAD_HI;
    1c4e:	0806e693          	ori	a3,a3,128
    1c52:	02d788a3          	sb	a3,49(a5)
E:\Project\tp78_v2\mounriver_project\RF_CH582M\obj/../StdPeriphDriver/CH58x_clk.c:276 (discriminator 1)
    while((R32_RTC_TRIG & 0x3FFF) != (R32_RTC_CNT_DAY & 0x3FFF));
    1c56:	5bd4                	lw	a3,52(a5)
    1c58:	5fc8                	lw	a0,60(a5)
    1c5a:	03478593          	addi	a1,a5,52
    1c5e:	8ea9                	xor	a3,a3,a0
    1c60:	8ef1                	and	a3,a3,a2
    1c62:	faf5                	bnez	a3,1c56 <RTC_InitTime+0xc2>
E:\Project\tp78_v2\mounriver_project\RF_CH582M\obj/../StdPeriphDriver/CH58x_clk.c:277
    R8_SAFE_ACCESS_SIG = SAFE_ACCESS_SIG1;
    1c64:	05700693          	li	a3,87
    1c68:	04d78023          	sb	a3,64(a5)
E:\Project\tp78_v2\mounriver_project\RF_CH582M\obj/../StdPeriphDriver/CH58x_clk.c:278
    R8_SAFE_ACCESS_SIG = SAFE_ACCESS_SIG2;
    1c6c:	fa800693          	li	a3,-88
    1c70:	04d78023          	sb	a3,64(a5)
E:\Project\tp78_v2\mounriver_project\RF_CH582M\obj/../StdPeriphDriver/CH58x_clk.c:279
    SAFEOPERATE;
    1c74:	0001                	nop
    1c76:	0001                	nop
E:\Project\tp78_v2\mounriver_project\RF_CH582M\obj/../StdPeriphDriver/CH58x_clk.c:280
    R32_RTC_TRIG = t;
    1c78:	c198                	sw	a4,0(a1)
E:\Project\tp78_v2\mounriver_project\RF_CH582M\obj/../StdPeriphDriver/CH58x_clk.c:281
    R8_RTC_MODE_CTRL |= RB_RTC_LOAD_LO;
    1c7a:	0317c703          	lbu	a4,49(a5)
    1c7e:	04076713          	ori	a4,a4,64
    1c82:	02e788a3          	sb	a4,49(a5)
E:\Project\tp78_v2\mounriver_project\RF_CH582M\obj/../StdPeriphDriver/CH58x_clk.c:282
    R8_SAFE_ACCESS_SIG = 0;
    1c86:	04078023          	sb	zero,64(a5)
E:\Project\tp78_v2\mounriver_project\RF_CH582M\obj/../StdPeriphDriver/CH58x_clk.c:283
}
    1c8a:	0141                	addi	sp,sp,16
    1c8c:	8082                	ret
E:\Project\tp78_v2\mounriver_project\RF_CH582M\obj/../StdPeriphDriver/CH58x_clk.c:241
        day += YearLength(year - 1);
    1c8e:	137d                	addi	t1,t1,-1
    1c90:	03e36833          	rem	a6,t1,t5
    1c94:	16e00893          	li	a7,366
    1c98:	00080e63          	beqz	a6,1cb4 <RTC_InitTime+0x120>
E:\Project\tp78_v2\mounriver_project\RF_CH582M\obj/../StdPeriphDriver/CH58x_clk.c:241 (discriminator 2)
    1c9c:	03f36833          	rem	a6,t1,t6
    1ca0:	16d00893          	li	a7,365
    1ca4:	00080863          	beqz	a6,1cb4 <RTC_InitTime+0x120>
E:\Project\tp78_v2\mounriver_project\RF_CH582M\obj/../StdPeriphDriver/CH58x_clk.c:241 (discriminator 3)
    1ca8:	00337893          	andi	a7,t1,3
    1cac:	0018b893          	seqz	a7,a7
    1cb0:	16d88893          	addi	a7,a7,365
E:\Project\tp78_v2\mounriver_project\RF_CH582M\obj/../StdPeriphDriver/CH58x_clk.c:241 (discriminator 8)
    1cb4:	011e0833          	add	a6,t3,a7
    1cb8:	01081e13          	slli	t3,a6,0x10
    1cbc:	010e5e13          	srli	t3,t3,0x10
E:\Project\tp78_v2\mounriver_project\RF_CH582M\obj/../StdPeriphDriver/CH58x_clk.c:242 (discriminator 8)
        year--;
    1cc0:	b5dd                	j	1ba6 <RTC_InitTime+0x12>
E:\Project\tp78_v2\mounriver_project\RF_CH582M\obj/../StdPeriphDriver/CH58x_clk.c:246
        day += monthLength(IsLeapYear(y), month - 2);
    1cc2:	03e59363          	bne	a1,t5,1ce8 <RTC_InitTime+0x154>
E:\Project\tp78_v2\mounriver_project\RF_CH582M\obj/../StdPeriphDriver/CH58x_clk.c:246 (discriminator 1)
    1cc6:	4805                	li	a6,1
    1cc8:	00088663          	beqz	a7,1cd4 <RTC_InitTime+0x140>
E:\Project\tp78_v2\mounriver_project\RF_CH582M\obj/../StdPeriphDriver/CH58x_clk.c:246 (discriminator 4)
    1ccc:	4801                	li	a6,0
    1cce:	00030363          	beqz	t1,1cd4 <RTC_InitTime+0x140>
E:\Project\tp78_v2\mounriver_project\RF_CH582M\obj/../StdPeriphDriver/CH58x_clk.c:246 (discriminator 5)
    1cd2:	882a                	mv	a6,a0
E:\Project\tp78_v2\mounriver_project\RF_CH582M\obj/../StdPeriphDriver/CH58x_clk.c:246 (discriminator 10)
    1cd4:	0871                	addi	a6,a6,28
E:\Project\tp78_v2\mounriver_project\RF_CH582M\obj/../StdPeriphDriver/CH58x_clk.c:246 (discriminator 24)
    1cd6:	9872                	add	a6,a6,t3
E:\Project\tp78_v2\mounriver_project\RF_CH582M\obj/../StdPeriphDriver/CH58x_clk.c:247 (discriminator 24)
        month--;
    1cd8:	15fd                	addi	a1,a1,-1
E:\Project\tp78_v2\mounriver_project\RF_CH582M\obj/../StdPeriphDriver/CH58x_clk.c:246 (discriminator 24)
        day += monthLength(IsLeapYear(y), month - 2);
    1cda:	01081e13          	slli	t3,a6,0x10
E:\Project\tp78_v2\mounriver_project\RF_CH582M\obj/../StdPeriphDriver/CH58x_clk.c:247 (discriminator 24)
        month--;
    1cde:	05c2                	slli	a1,a1,0x10
E:\Project\tp78_v2\mounriver_project\RF_CH582M\obj/../StdPeriphDriver/CH58x_clk.c:246 (discriminator 24)
        day += monthLength(IsLeapYear(y), month - 2);
    1ce0:	010e5e13          	srli	t3,t3,0x10
E:\Project\tp78_v2\mounriver_project\RF_CH582M\obj/../StdPeriphDriver/CH58x_clk.c:247 (discriminator 24)
        month--;
    1ce4:	81c1                	srli	a1,a1,0x10
    1ce6:	b5c5                	j	1bc6 <RTC_InitTime+0x32>
    1ce8:	0015f813          	andi	a6,a1,1
E:\Project\tp78_v2\mounriver_project\RF_CH582M\obj/../StdPeriphDriver/CH58x_clk.c:246 (discriminator 2)
        day += monthLength(IsLeapYear(y), month - 2);
    1cec:	00bff463          	bgeu	t6,a1,1cf4 <RTC_InitTime+0x160>
E:\Project\tp78_v2\mounriver_project\RF_CH582M\obj/../StdPeriphDriver/CH58x_clk.c:246 (discriminator 13)
    1cf0:	0879                	addi	a6,a6,30
    1cf2:	b7d5                	j	1cd6 <RTC_InitTime+0x142>
    1cf4:	00183813          	seqz	a6,a6
    1cf8:	bfe5                	j	1cf0 <RTC_InitTime+0x15c>
E:\Project\tp78_v2\mounriver_project\RF_CH582M\obj/../StdPeriphDriver/CH58x_clk.c:266 (discriminator 1)
                clk_pin = (R8_CK32K_CONFIG & RB_32K_CLK_PIN);
    1cfa:	02f6c783          	lbu	a5,47(a3) # 4000102f <_eusrstack+0x1fff902f>
    1cfe:	0807f793          	andi	a5,a5,128
    1d02:	00f107a3          	sb	a5,15(sp)
E:\Project\tp78_v2\mounriver_project\RF_CH582M\obj/../StdPeriphDriver/CH58x_clk.c:267 (discriminator 1)
            } while(clk_pin != (R8_CK32K_CONFIG & RB_32K_CLK_PIN));
    1d06:	00f14603          	lbu	a2,15(sp)
    1d0a:	02f6c783          	lbu	a5,47(a3)
    1d0e:	0807f793          	andi	a5,a5,128
    1d12:	fec794e3          	bne	a5,a2,1cfa <RTC_InitTime+0x166>
E:\Project\tp78_v2\mounriver_project\RF_CH582M\obj/../StdPeriphDriver/CH58x_clk.c:262
        while(!clk_pin)
    1d16:	00f14783          	lbu	a5,15(sp)
    1d1a:	0ff7f793          	andi	a5,a5,255
    1d1e:	dff1                	beqz	a5,1cfa <RTC_InitTime+0x166>
    1d20:	b729                	j	1c2a <RTC_InitTime+0x96>

00001d22 <GPIOB_ModeCfg>:
GPIOB_ModeCfg():
E:\Project\tp78_v2\mounriver_project\RF_CH582M\obj/../StdPeriphDriver/CH58x_gpio.c:72
 *
 * @return  none
 */
void GPIOB_ModeCfg(uint32_t pin, GPIOModeTypeDef mode)
{
    switch(mode)
    1d22:	4791                	li	a5,4
    1d24:	02b7ee63          	bltu	a5,a1,1d60 <GPIOB_ModeCfg+0x3e>
    1d28:	00004717          	auipc	a4,0x4
    1d2c:	79070713          	addi	a4,a4,1936 # 64b8 <memcpy+0xb6>
    1d30:	058a                	slli	a1,a1,0x2
    1d32:	95ba                	add	a1,a1,a4
    1d34:	419c                	lw	a5,0(a1)
    1d36:	97ba                	add	a5,a5,a4
    1d38:	8782                	jr	a5
E:\Project\tp78_v2\mounriver_project\RF_CH582M\obj/../StdPeriphDriver/CH58x_gpio.c:75
    {
        case GPIO_ModeIN_Floating:
            R32_PB_PD_DRV &= ~pin;
    1d3a:	400017b7          	lui	a5,0x40001
    1d3e:	0d47a703          	lw	a4,212(a5) # 400010d4 <_eusrstack+0x1fff90d4>
    1d42:	fff54513          	not	a0,a0
    1d46:	8f69                	and	a4,a4,a0
    1d48:	0ce7aa23          	sw	a4,212(a5)
E:\Project\tp78_v2\mounriver_project\RF_CH582M\obj/../StdPeriphDriver/CH58x_gpio.c:76
            R32_PB_PU &= ~pin;
    1d4c:	0d07a703          	lw	a4,208(a5)
E:\Project\tp78_v2\mounriver_project\RF_CH582M\obj/../StdPeriphDriver/CH58x_gpio.c:88
            R32_PB_DIR &= ~pin;
            break;

        case GPIO_ModeIN_PD:
            R32_PB_PD_DRV |= pin;
            R32_PB_PU &= ~pin;
    1d50:	8f69                	and	a4,a4,a0
    1d52:	0ce7a823          	sw	a4,208(a5)
E:\Project\tp78_v2\mounriver_project\RF_CH582M\obj/../StdPeriphDriver/CH58x_gpio.c:89
            R32_PB_DIR &= ~pin;
    1d56:	0c07a703          	lw	a4,192(a5)
    1d5a:	8d79                	and	a0,a0,a4
E:\Project\tp78_v2\mounriver_project\RF_CH582M\obj/../StdPeriphDriver/CH58x_gpio.c:99
            R32_PB_DIR |= pin;
            break;

        case GPIO_ModeOut_PP_20mA:
            R32_PB_PD_DRV |= pin;
            R32_PB_DIR |= pin;
    1d5c:	0ca7a023          	sw	a0,192(a5)
E:\Project\tp78_v2\mounriver_project\RF_CH582M\obj/../StdPeriphDriver/CH58x_gpio.c:105
            break;

        default:
            break;
    }
}
    1d60:	8082                	ret
E:\Project\tp78_v2\mounriver_project\RF_CH582M\obj/../StdPeriphDriver/CH58x_gpio.c:81
            R32_PB_PD_DRV &= ~pin;
    1d62:	400017b7          	lui	a5,0x40001
    1d66:	0d47a683          	lw	a3,212(a5) # 400010d4 <_eusrstack+0x1fff90d4>
    1d6a:	fff54713          	not	a4,a0
    1d6e:	8ef9                	and	a3,a3,a4
    1d70:	0cd7aa23          	sw	a3,212(a5)
E:\Project\tp78_v2\mounriver_project\RF_CH582M\obj/../StdPeriphDriver/CH58x_gpio.c:82
            R32_PB_PU |= pin;
    1d74:	0d07a683          	lw	a3,208(a5)
    1d78:	8d55                	or	a0,a0,a3
    1d7a:	0ca7a823          	sw	a0,208(a5)
E:\Project\tp78_v2\mounriver_project\RF_CH582M\obj/../StdPeriphDriver/CH58x_gpio.c:83
            R32_PB_DIR &= ~pin;
    1d7e:	0c07a683          	lw	a3,192(a5)
    1d82:	8f75                	and	a4,a4,a3
    1d84:	0ce7a023          	sw	a4,192(a5)
E:\Project\tp78_v2\mounriver_project\RF_CH582M\obj/../StdPeriphDriver/CH58x_gpio.c:84
            break;
    1d88:	8082                	ret
E:\Project\tp78_v2\mounriver_project\RF_CH582M\obj/../StdPeriphDriver/CH58x_gpio.c:87
            R32_PB_PD_DRV |= pin;
    1d8a:	400017b7          	lui	a5,0x40001
    1d8e:	0d47a703          	lw	a4,212(a5) # 400010d4 <_eusrstack+0x1fff90d4>
    1d92:	8f49                	or	a4,a4,a0
    1d94:	0ce7aa23          	sw	a4,212(a5)
E:\Project\tp78_v2\mounriver_project\RF_CH582M\obj/../StdPeriphDriver/CH58x_gpio.c:88
            R32_PB_PU &= ~pin;
    1d98:	0d07a703          	lw	a4,208(a5)
    1d9c:	fff54513          	not	a0,a0
    1da0:	bf45                	j	1d50 <GPIOB_ModeCfg+0x2e>
E:\Project\tp78_v2\mounriver_project\RF_CH582M\obj/../StdPeriphDriver/CH58x_gpio.c:93
            R32_PB_PD_DRV &= ~pin;
    1da2:	400017b7          	lui	a5,0x40001
    1da6:	0d47a683          	lw	a3,212(a5) # 400010d4 <_eusrstack+0x1fff90d4>
    1daa:	fff54713          	not	a4,a0
    1dae:	8f75                	and	a4,a4,a3
E:\Project\tp78_v2\mounriver_project\RF_CH582M\obj/../StdPeriphDriver/CH58x_gpio.c:98
            R32_PB_PD_DRV |= pin;
    1db0:	0ce7aa23          	sw	a4,212(a5)
E:\Project\tp78_v2\mounriver_project\RF_CH582M\obj/../StdPeriphDriver/CH58x_gpio.c:99
            R32_PB_DIR |= pin;
    1db4:	0c07a703          	lw	a4,192(a5)
    1db8:	8d59                	or	a0,a0,a4
    1dba:	b74d                	j	1d5c <GPIOB_ModeCfg+0x3a>
E:\Project\tp78_v2\mounriver_project\RF_CH582M\obj/../StdPeriphDriver/CH58x_gpio.c:98
            R32_PB_PD_DRV |= pin;
    1dbc:	400017b7          	lui	a5,0x40001
    1dc0:	0d47a703          	lw	a4,212(a5) # 400010d4 <_eusrstack+0x1fff90d4>
    1dc4:	8f49                	or	a4,a4,a0
    1dc6:	b7ed                	j	1db0 <GPIOB_ModeCfg+0x8e>

00001dc8 <GetSysClock>:
GetSysClock():
E:\Project\tp78_v2\mounriver_project\RF_CH582M\obj/../StdPeriphDriver/CH58x_sys.c:130
    rev = R16_CLK_SYS_CFG & 0xff;
    1dc8:	400017b7          	lui	a5,0x40001
    1dcc:	0087d503          	lhu	a0,8(a5) # 40001008 <_eusrstack+0x1fff9008>
    1dd0:	0542                	slli	a0,a0,0x10
    1dd2:	8141                	srli	a0,a0,0x10
E:\Project\tp78_v2\mounriver_project\RF_CH582M\obj/../StdPeriphDriver/CH58x_sys.c:131
    if((rev & 0x40) == (0 << 6))
    1dd4:	04057793          	andi	a5,a0,64
    1dd8:	eb91                	bnez	a5,1dec <GetSysClock+0x24>
E:\Project\tp78_v2\mounriver_project\RF_CH582M\obj/../StdPeriphDriver/CH58x_sys.c:133
        return (32000000 / (rev & 0x1f));
    1dda:	01f57793          	andi	a5,a0,31
    1dde:	01e85537          	lui	a0,0x1e85
E:\Project\tp78_v2\mounriver_project\RF_CH582M\obj/../StdPeriphDriver/CH58x_sys.c:137
        return (480000000 / (rev & 0x1f));
    1de2:	80050513          	addi	a0,a0,-2048 # 1e84800 <_data_lma+0x1e7e184>
    1de6:	02f54533          	div	a0,a0,a5
    1dea:	8082                	ret
E:\Project\tp78_v2\mounriver_project\RF_CH582M\obj/../StdPeriphDriver/CH58x_sys.c:135
    else if((rev & RB_CLK_SYS_MOD) == (1 << 6))
    1dec:	0c057793          	andi	a5,a0,192
    1df0:	04000713          	li	a4,64
    1df4:	00e79763          	bne	a5,a4,1e02 <GetSysClock+0x3a>
E:\Project\tp78_v2\mounriver_project\RF_CH582M\obj/../StdPeriphDriver/CH58x_sys.c:137
        return (480000000 / (rev & 0x1f));
    1df8:	01f57793          	andi	a5,a0,31
    1dfc:	1c9c4537          	lui	a0,0x1c9c4
    1e00:	b7cd                	j	1de2 <GetSysClock+0x1a>
E:\Project\tp78_v2\mounriver_project\RF_CH582M\obj/../StdPeriphDriver/CH58x_sys.c:141
        return (32000);
    1e02:	6521                	lui	a0,0x8
    1e04:	d0050513          	addi	a0,a0,-768 # 7d00 <_data_lma+0x1684>
E:\Project\tp78_v2\mounriver_project\RF_CH582M\obj/../StdPeriphDriver/CH58x_sys.c:143
}
    1e08:	8082                	ret

00001e0a <SYS_GetSysTickCnt>:
SYS_GetSysTickCnt():
E:\Project\tp78_v2\mounriver_project\RF_CH582M\obj/../StdPeriphDriver/CH58x_sys.c:230
    val = SysTick->CNT;
    1e0a:	e000f7b7          	lui	a5,0xe000f
    1e0e:	4788                	lw	a0,8(a5)
    1e10:	47cc                	lw	a1,12(a5)
E:\Project\tp78_v2\mounriver_project\RF_CH582M\obj/../StdPeriphDriver/CH58x_sys.c:232
}
    1e12:	8082                	ret

00001e14 <TMR0_TimerInit>:
TMR0_TimerInit():
E:\Project\tp78_v2\mounriver_project\RF_CH582M\obj/../StdPeriphDriver/CH58x_timer0.c:24
 *
 * @return  none
 */
void TMR0_TimerInit(uint32_t t)
{
    R32_TMR0_CNT_END = t;
    1e14:	400027b7          	lui	a5,0x40002
    1e18:	c7c8                	sw	a0,12(a5)
E:\Project\tp78_v2\mounriver_project\RF_CH582M\obj/../StdPeriphDriver/CH58x_timer0.c:25
    R8_TMR0_CTRL_MOD = RB_TMR_ALL_CLEAR;
    1e1a:	4709                	li	a4,2
    1e1c:	00e78023          	sb	a4,0(a5) # 40002000 <_eusrstack+0x1fffa000>
E:\Project\tp78_v2\mounriver_project\RF_CH582M\obj/../StdPeriphDriver/CH58x_timer0.c:26
    R8_TMR0_CTRL_MOD = RB_TMR_COUNT_EN;
    1e20:	4711                	li	a4,4
    1e22:	00e78023          	sb	a4,0(a5)
E:\Project\tp78_v2\mounriver_project\RF_CH582M\obj/../StdPeriphDriver/CH58x_timer0.c:27
}
    1e26:	8082                	ret

00001e28 <USB_DeviceInit>:
USB_DeviceInit():
E:\Project\tp78_v2\mounriver_project\RF_CH582M\obj/../StdPeriphDriver/CH58x_usbdev.c:29
 *
 * @return  none
 */
void USB_DeviceInit(void)
{
    R8_USB_CTRL = 0x00; // 先设定模式,取消 RB_UC_CLR_ALL
    1e28:	400087b7          	lui	a5,0x40008
    1e2c:	00078023          	sb	zero,0(a5) # 40008000 <_eusrstack+0x20000000>
E:\Project\tp78_v2\mounriver_project\RF_CH582M\obj/../StdPeriphDriver/CH58x_usbdev.c:31

    R8_UEP4_1_MOD = RB_UEP4_RX_EN | RB_UEP4_TX_EN | RB_UEP1_RX_EN | RB_UEP1_TX_EN; // 端点4 OUT+IN,端点1 OUT+IN
    1e30:	fcc00713          	li	a4,-52
    1e34:	00e78623          	sb	a4,12(a5)
E:\Project\tp78_v2\mounriver_project\RF_CH582M\obj/../StdPeriphDriver/CH58x_usbdev.c:32
    R8_UEP2_3_MOD = RB_UEP2_RX_EN | RB_UEP2_TX_EN | RB_UEP3_RX_EN | RB_UEP3_TX_EN; // 端点2 OUT+IN,端点3 OUT+IN
    1e38:	00e786a3          	sb	a4,13(a5)
E:\Project\tp78_v2\mounriver_project\RF_CH582M\obj/../StdPeriphDriver/CH58x_usbdev.c:34

    R16_UEP0_DMA = (uint16_t)(uint32_t)pEP0_RAM_Addr;
    1e3c:	8581d703          	lhu	a4,-1960(gp) # 20001870 <pEP0_RAM_Addr>
    1e40:	00e79823          	sh	a4,16(a5)
E:\Project\tp78_v2\mounriver_project\RF_CH582M\obj/../StdPeriphDriver/CH58x_usbdev.c:35
    R16_UEP1_DMA = (uint16_t)(uint32_t)pEP1_RAM_Addr;
    1e44:	85c1d703          	lhu	a4,-1956(gp) # 20001874 <pEP1_RAM_Addr>
    1e48:	00e79a23          	sh	a4,20(a5)
E:\Project\tp78_v2\mounriver_project\RF_CH582M\obj/../StdPeriphDriver/CH58x_usbdev.c:36
    R16_UEP2_DMA = (uint16_t)(uint32_t)pEP2_RAM_Addr;
    1e4c:	8501d703          	lhu	a4,-1968(gp) # 20001868 <pEP2_RAM_Addr>
    1e50:	00e79c23          	sh	a4,24(a5)
E:\Project\tp78_v2\mounriver_project\RF_CH582M\obj/../StdPeriphDriver/CH58x_usbdev.c:37
    R16_UEP3_DMA = (uint16_t)(uint32_t)pEP3_RAM_Addr;
    1e54:	8541d703          	lhu	a4,-1964(gp) # 2000186c <pEP3_RAM_Addr>
    1e58:	00e79e23          	sh	a4,28(a5)
E:\Project\tp78_v2\mounriver_project\RF_CH582M\obj/../StdPeriphDriver/CH58x_usbdev.c:39

    R8_UEP0_CTRL = UEP_R_RES_ACK | UEP_T_RES_NAK;
    1e5c:	4689                	li	a3,2
    1e5e:	02d78123          	sb	a3,34(a5)
E:\Project\tp78_v2\mounriver_project\RF_CH582M\obj/../StdPeriphDriver/CH58x_usbdev.c:40
    R8_UEP1_CTRL = UEP_R_RES_ACK | UEP_T_RES_NAK | RB_UEP_AUTO_TOG;
    1e62:	4749                	li	a4,18
    1e64:	02e78323          	sb	a4,38(a5)
E:\Project\tp78_v2\mounriver_project\RF_CH582M\obj/../StdPeriphDriver/CH58x_usbdev.c:41
    R8_UEP2_CTRL = UEP_R_RES_ACK | UEP_T_RES_NAK | RB_UEP_AUTO_TOG;
    1e68:	02e78523          	sb	a4,42(a5)
E:\Project\tp78_v2\mounriver_project\RF_CH582M\obj/../StdPeriphDriver/CH58x_usbdev.c:42
    R8_UEP3_CTRL = UEP_R_RES_ACK | UEP_T_RES_NAK | RB_UEP_AUTO_TOG;
    1e6c:	02e78723          	sb	a4,46(a5)
E:\Project\tp78_v2\mounriver_project\RF_CH582M\obj/../StdPeriphDriver/CH58x_usbdev.c:43
    R8_UEP4_CTRL = UEP_R_RES_ACK | UEP_T_RES_NAK;
    1e70:	02d78923          	sb	a3,50(a5)
E:\Project\tp78_v2\mounriver_project\RF_CH582M\obj/../StdPeriphDriver/CH58x_usbdev.c:45

    R8_USB_DEV_AD = 0x00;
    1e74:	000781a3          	sb	zero,3(a5)
E:\Project\tp78_v2\mounriver_project\RF_CH582M\obj/../StdPeriphDriver/CH58x_usbdev.c:46
    R8_USB_CTRL = RB_UC_DEV_PU_EN | RB_UC_INT_BUSY | RB_UC_DMA_EN; // 启动USB设备及DMA，在中断期间中断标志未清除前自动返回NAK
    1e78:	02900713          	li	a4,41
    1e7c:	00e78023          	sb	a4,0(a5)
E:\Project\tp78_v2\mounriver_project\RF_CH582M\obj/../StdPeriphDriver/CH58x_usbdev.c:47
    R16_PIN_ANALOG_IE |= RB_PIN_USB_IE | RB_PIN_USB_DP_PU;         // 防止USB端口浮空及上拉电阻
    1e80:	400016b7          	lui	a3,0x40001
    1e84:	01a6d703          	lhu	a4,26(a3) # 4000101a <_eusrstack+0x1fff901a>
    1e88:	0c076713          	ori	a4,a4,192
    1e8c:	00e69d23          	sh	a4,26(a3)
E:\Project\tp78_v2\mounriver_project\RF_CH582M\obj/../StdPeriphDriver/CH58x_usbdev.c:48
    R8_USB_INT_FG = 0xFF;                                          // 清中断标志
    1e90:	577d                	li	a4,-1
    1e92:	00e78323          	sb	a4,6(a5)
E:\Project\tp78_v2\mounriver_project\RF_CH582M\obj/../StdPeriphDriver/CH58x_usbdev.c:49
    R8_UDEV_CTRL = RB_UD_PD_DIS | RB_UD_PORT_EN;                   // 允许USB端口
    1e96:	f8100713          	li	a4,-127
    1e9a:	00e780a3          	sb	a4,1(a5)
E:\Project\tp78_v2\mounriver_project\RF_CH582M\obj/../StdPeriphDriver/CH58x_usbdev.c:50
    R8_USB_INT_EN = RB_UIE_SUSPEND | RB_UIE_BUS_RST | RB_UIE_TRANSFER;
    1e9e:	471d                	li	a4,7
    1ea0:	00e78123          	sb	a4,2(a5)
E:\Project\tp78_v2\mounriver_project\RF_CH582M\obj/../StdPeriphDriver/CH58x_usbdev.c:51
}
    1ea4:	8082                	ret

00001ea6 <DevEP1_IN_Deal>:
DevEP1_IN_Deal():
E:\Project\tp78_v2\mounriver_project\RF_CH582M\obj/../StdPeriphDriver/CH58x_usbdev.c:64
 *
 * @return  none
 */
void DevEP1_IN_Deal(uint8_t l)
{
    R8_UEP1_T_LEN = l;
    1ea6:	400087b7          	lui	a5,0x40008
    1eaa:	02a78223          	sb	a0,36(a5) # 40008024 <_eusrstack+0x20000024>
E:\Project\tp78_v2\mounriver_project\RF_CH582M\obj/../StdPeriphDriver/CH58x_usbdev.c:65
    R8_UEP1_CTRL = (R8_UEP1_CTRL & ~MASK_UEP_T_RES) | UEP_T_RES_ACK;
    1eae:	0267c703          	lbu	a4,38(a5)
    1eb2:	0fc77713          	andi	a4,a4,252
    1eb6:	02e78323          	sb	a4,38(a5)
E:\Project\tp78_v2\mounriver_project\RF_CH582M\obj/../StdPeriphDriver/CH58x_usbdev.c:66
}
    1eba:	8082                	ret

00001ebc <DevEP2_IN_Deal>:
DevEP2_IN_Deal():
E:\Project\tp78_v2\mounriver_project\RF_CH582M\obj/../StdPeriphDriver/CH58x_usbdev.c:79
 *
 * @return  none
 */
void DevEP2_IN_Deal(uint8_t l)
{
    R8_UEP2_T_LEN = l;
    1ebc:	400087b7          	lui	a5,0x40008
    1ec0:	02a78423          	sb	a0,40(a5) # 40008028 <_eusrstack+0x20000028>
E:\Project\tp78_v2\mounriver_project\RF_CH582M\obj/../StdPeriphDriver/CH58x_usbdev.c:80
    R8_UEP2_CTRL = (R8_UEP2_CTRL & ~MASK_UEP_T_RES) | UEP_T_RES_ACK;
    1ec4:	02a7c703          	lbu	a4,42(a5)
    1ec8:	0fc77713          	andi	a4,a4,252
    1ecc:	02e78523          	sb	a4,42(a5)
E:\Project\tp78_v2\mounriver_project\RF_CH582M\obj/../StdPeriphDriver/CH58x_usbdev.c:81
}
    1ed0:	8082                	ret

00001ed2 <DevEP3_IN_Deal>:
DevEP3_IN_Deal():
E:\Project\tp78_v2\mounriver_project\RF_CH582M\obj/../StdPeriphDriver/CH58x_usbdev.c:94
 *
 * @return  none
 */
void DevEP3_IN_Deal(uint8_t l)
{
    R8_UEP3_T_LEN = l;
    1ed2:	400087b7          	lui	a5,0x40008
    1ed6:	02a78623          	sb	a0,44(a5) # 4000802c <_eusrstack+0x2000002c>
E:\Project\tp78_v2\mounriver_project\RF_CH582M\obj/../StdPeriphDriver/CH58x_usbdev.c:95
    R8_UEP3_CTRL = (R8_UEP3_CTRL & ~MASK_UEP_T_RES) | UEP_T_RES_ACK;
    1eda:	02e7c703          	lbu	a4,46(a5)
    1ede:	0fc77713          	andi	a4,a4,252
    1ee2:	02e78723          	sb	a4,46(a5)
E:\Project\tp78_v2\mounriver_project\RF_CH582M\obj/../StdPeriphDriver/CH58x_usbdev.c:96
}
    1ee6:	8082                	ret

00001ee8 <DevEP4_IN_Deal>:
DevEP4_IN_Deal():
E:\Project\tp78_v2\mounriver_project\RF_CH582M\obj/../StdPeriphDriver/CH58x_usbdev.c:109
 *
 * @return  none
 */
void DevEP4_IN_Deal(uint8_t l)
{
    R8_UEP4_T_LEN = l;
    1ee8:	400087b7          	lui	a5,0x40008
    1eec:	02a78823          	sb	a0,48(a5) # 40008030 <_eusrstack+0x20000030>
E:\Project\tp78_v2\mounriver_project\RF_CH582M\obj/../StdPeriphDriver/CH58x_usbdev.c:110
    R8_UEP4_CTRL = (R8_UEP4_CTRL & ~MASK_UEP_T_RES) | UEP_T_RES_ACK;
    1ef0:	0327c703          	lbu	a4,50(a5)
    1ef4:	0fc77713          	andi	a4,a4,252
    1ef8:	02e78923          	sb	a4,50(a5)
E:\Project\tp78_v2\mounriver_project\RF_CH582M\obj/../StdPeriphDriver/CH58x_usbdev.c:111
}
    1efc:	8082                	ret

00001efe <HalLedBlink.part.2>:
HalLedBlink():
E:\Project\tp78_v2\mounriver_project\RF_CH582M\obj/../HAL/LED.c:146
 * @param   percent     - the percentage in each period where the led will be on
 * @param   period      - length of each cycle in milliseconds
 *
 * @return  none
 */
void HalLedBlink(uint8_t leds, uint8_t numBlinks, uint8_t percent, uint16_t period)
    1efe:	7179                	addi	sp,sp,-48
    1f00:	d422                	sw	s0,40(sp)
    1f02:	d226                	sw	s1,36(sp)
    1f04:	d04a                	sw	s2,32(sp)
    1f06:	ce4e                	sw	s3,28(sp)
    1f08:	cc52                	sw	s4,24(sp)
    1f0a:	ca56                	sw	s5,20(sp)
    1f0c:	d606                	sw	ra,44(sp)
E:\Project\tp78_v2\mounriver_project\RF_CH582M\obj/../HAL/LED.c:156
    if(leds && percent && period)
    {
        if(percent < 100)
        {
            led = HAL_LED_1;
            leds &= HAL_LED_ALL;
    1f0e:	00f57913          	andi	s2,a0,15
E:\Project\tp78_v2\mounriver_project\RF_CH582M\obj/../HAL/LED.c:157
            sts = HalLedStatusControl.HalLedControlTable;
    1f12:	81c18413          	addi	s0,gp,-2020 # 20001834 <HalLedStatusControl>
E:\Project\tp78_v2\mounriver_project\RF_CH582M\obj/../HAL/LED.c:155
            led = HAL_LED_1;
    1f16:	4485                	li	s1,1
E:\Project\tp78_v2\mounriver_project\RF_CH582M\obj/../HAL/LED.c:163
            while(leds)
            {
                if(leds & led)
                {
                    /* Store the current state of the led before going to blinking */
                    preBlinkState |= (led & HalLedState);
    1f18:	80918993          	addi	s3,gp,-2039 # 20001821 <preBlinkState>
    1f1c:	80818a13          	addi	s4,gp,-2040 # 20001820 <_edata>
E:\Project\tp78_v2\mounriver_project\RF_CH582M\obj/../HAL/LED.c:170
                    sts->time = period;           /* Time for one on/off cycle */
                    sts->onPct = percent;         /* % of cycle LED is on */
                    sts->todo = numBlinks;        /* Number of blink cycles */
                    if(!numBlinks)
                    {
                        sts->mode |= HAL_LED_MODE_FLASH; /* Continuous */
    1f20:	4a91                	li	s5,4
E:\Project\tp78_v2\mounriver_project\RF_CH582M\obj/../HAL/LED.c:158
            while(leds)
    1f22:	02091063          	bnez	s2,1f42 <HalLedBlink.part.2+0x44>
E:\Project\tp78_v2\mounriver_project\RF_CH582M\obj/../HAL/LED.c:190
    }
    else
    {
        HalLedSet(leds, HAL_LED_MODE_OFF); /* No on time, turn off */
    }
}
    1f26:	5422                	lw	s0,40(sp)
    1f28:	50b2                	lw	ra,44(sp)
    1f2a:	5492                	lw	s1,36(sp)
    1f2c:	5902                	lw	s2,32(sp)
    1f2e:	49f2                	lw	s3,28(sp)
    1f30:	4a62                	lw	s4,24(sp)
    1f32:	4ad2                	lw	s5,20(sp)
E:\Project\tp78_v2\mounriver_project\RF_CH582M\obj/../HAL/LED.c:179
            tmos_start_task(halTaskID, LED_BLINK_EVENT, 0);
    1f34:	8601c503          	lbu	a0,-1952(gp) # 20001878 <halTaskID>
    1f38:	4601                	li	a2,0
    1f3a:	4585                	li	a1,1
E:\Project\tp78_v2\mounriver_project\RF_CH582M\obj/../HAL/LED.c:190
}
    1f3c:	6145                	addi	sp,sp,48
E:\Project\tp78_v2\mounriver_project\RF_CH582M\obj/../HAL/LED.c:179
            tmos_start_task(halTaskID, LED_BLINK_EVENT, 0);
    1f3e:	2260106f          	j	3164 <tmos_start_task>
E:\Project\tp78_v2\mounriver_project\RF_CH582M\obj/../HAL/LED.c:160
                if(leds & led)
    1f42:	009977b3          	and	a5,s2,s1
    1f46:	c7a9                	beqz	a5,1f90 <HalLedBlink.part.2+0x92>
E:\Project\tp78_v2\mounriver_project\RF_CH582M\obj/../HAL/LED.c:163
                    preBlinkState |= (led & HalLedState);
    1f48:	000a4783          	lbu	a5,0(s4) # a8c00000 <_eusrstack+0x88bf8000>
    1f4c:	0009c703          	lbu	a4,0(s3)
E:\Project\tp78_v2\mounriver_project\RF_CH582M\obj/../HAL/LED.c:164
                    sts->mode = HAL_LED_MODE_OFF; /* Stop previous blink */
    1f50:	00040023          	sb	zero,0(s0)
E:\Project\tp78_v2\mounriver_project\RF_CH582M\obj/../HAL/LED.c:163
                    preBlinkState |= (led & HalLedState);
    1f54:	8fe5                	and	a5,a5,s1
    1f56:	8fd9                	or	a5,a5,a4
    1f58:	80f184a3          	sb	a5,-2039(gp) # 20001821 <preBlinkState>
E:\Project\tp78_v2\mounriver_project\RF_CH582M\obj/../HAL/LED.c:165
                    sts->time = period;           /* Time for one on/off cycle */
    1f5c:	00d41223          	sh	a3,4(s0)
E:\Project\tp78_v2\mounriver_project\RF_CH582M\obj/../HAL/LED.c:166
                    sts->onPct = percent;         /* % of cycle LED is on */
    1f60:	00c40123          	sb	a2,2(s0)
E:\Project\tp78_v2\mounriver_project\RF_CH582M\obj/../HAL/LED.c:167
                    sts->todo = numBlinks;        /* Number of blink cycles */
    1f64:	00b400a3          	sb	a1,1(s0)
E:\Project\tp78_v2\mounriver_project\RF_CH582M\obj/../HAL/LED.c:168
                    if(!numBlinks)
    1f68:	e199                	bnez	a1,1f6e <HalLedBlink.part.2+0x70>
E:\Project\tp78_v2\mounriver_project\RF_CH582M\obj/../HAL/LED.c:170
                        sts->mode |= HAL_LED_MODE_FLASH; /* Continuous */
    1f6a:	01540023          	sb	s5,0(s0)
    1f6e:	c636                	sw	a3,12(sp)
    1f70:	c432                	sw	a2,8(sp)
    1f72:	c22e                	sw	a1,4(sp)
E:\Project\tp78_v2\mounriver_project\RF_CH582M\obj/../HAL/LED.c:172
                    sts->next = TMOS_GetSystemClock(); /* Start now */
    1f74:	15e010ef          	jal	ra,30d2 <TMOS_GetSystemClock>
E:\Project\tp78_v2\mounriver_project\RF_CH582M\obj/../HAL/LED.c:173
                    sts->mode |= HAL_LED_MODE_BLINK;   /* Enable blinking */
    1f78:	00044783          	lbu	a5,0(s0)
E:\Project\tp78_v2\mounriver_project\RF_CH582M\obj/../HAL/LED.c:174
                    leds ^= led;
    1f7c:	46b2                	lw	a3,12(sp)
    1f7e:	4622                	lw	a2,8(sp)
    1f80:	4592                	lw	a1,4(sp)
E:\Project\tp78_v2\mounriver_project\RF_CH582M\obj/../HAL/LED.c:173
                    sts->mode |= HAL_LED_MODE_BLINK;   /* Enable blinking */
    1f82:	0027e793          	ori	a5,a5,2
E:\Project\tp78_v2\mounriver_project\RF_CH582M\obj/../HAL/LED.c:172
                    sts->next = TMOS_GetSystemClock(); /* Start now */
    1f86:	c408                	sw	a0,8(s0)
E:\Project\tp78_v2\mounriver_project\RF_CH582M\obj/../HAL/LED.c:173
                    sts->mode |= HAL_LED_MODE_BLINK;   /* Enable blinking */
    1f88:	00f40023          	sb	a5,0(s0)
E:\Project\tp78_v2\mounriver_project\RF_CH582M\obj/../HAL/LED.c:174
                    leds ^= led;
    1f8c:	00994933          	xor	s2,s2,s1
E:\Project\tp78_v2\mounriver_project\RF_CH582M\obj/../HAL/LED.c:176
                led <<= 1;
    1f90:	0486                	slli	s1,s1,0x1
    1f92:	0ff4f493          	andi	s1,s1,255
E:\Project\tp78_v2\mounriver_project\RF_CH582M\obj/../HAL/LED.c:177
                sts++;
    1f96:	0431                	addi	s0,s0,12
    1f98:	b769                	j	1f22 <HalLedBlink.part.2+0x24>

00001f9a <HalLedOnOff>:
HalLedOnOff():
E:\Project\tp78_v2\mounriver_project\RF_CH582M\obj/../HAL/LED.c:294
 *
 * @return  none
 */
void HalLedOnOff(uint8_t leds, uint8_t mode)
{
    if(leds & HAL_LED_1)
    1f9a:	00157793          	andi	a5,a0,1
    1f9e:	80818693          	addi	a3,gp,-2040 # 20001820 <_edata>
    1fa2:	cb9d                	beqz	a5,1fd8 <HalLedOnOff+0x3e>
E:\Project\tp78_v2\mounriver_project\RF_CH582M\obj/../HAL/LED.c:296
    {
        if(mode == HAL_LED_MODE_ON)
    1fa4:	4785                	li	a5,1
    1fa6:	02f59163          	bne	a1,a5,1fc8 <HalLedOnOff+0x2e>
E:\Project\tp78_v2\mounriver_project\RF_CH582M\obj/../HAL/LED.c:298
        {
            HAL_TURN_ON_LED1();
    1faa:	40001637          	lui	a2,0x40001
    1fae:	0c862783          	lw	a5,200(a2) # 400010c8 <_eusrstack+0x1fff90c8>
    1fb2:	777d                	lui	a4,0xfffff
    1fb4:	177d                	addi	a4,a4,-1
    1fb6:	8ff9                	and	a5,a5,a4
    1fb8:	0cf62423          	sw	a5,200(a2)
E:\Project\tp78_v2\mounriver_project\RF_CH582M\obj/../HAL/LED.c:341
        }
    }
    /* Remember current state */
    if(mode)
    {
        HalLedState |= leds;
    1fbc:	0006c783          	lbu	a5,0(a3)
    1fc0:	8d5d                	or	a0,a0,a5
    1fc2:	80a18423          	sb	a0,-2040(gp) # 20001820 <_edata>
E:\Project\tp78_v2\mounriver_project\RF_CH582M\obj/../HAL/LED.c:347
    }
    else
    {
        HalLedState &= (leds ^ 0xFF);
    }
}
    1fc6:	8082                	ret
E:\Project\tp78_v2\mounriver_project\RF_CH582M\obj/../HAL/LED.c:302
            HAL_TURN_OFF_LED1();
    1fc8:	40001737          	lui	a4,0x40001
    1fcc:	0c872783          	lw	a5,200(a4) # 400010c8 <_eusrstack+0x1fff90c8>
    1fd0:	6605                	lui	a2,0x1
    1fd2:	8fd1                	or	a5,a5,a2
    1fd4:	0cf72423          	sw	a5,200(a4)
E:\Project\tp78_v2\mounriver_project\RF_CH582M\obj/../HAL/LED.c:339
    if(mode)
    1fd8:	f1f5                	bnez	a1,1fbc <HalLedOnOff+0x22>
E:\Project\tp78_v2\mounriver_project\RF_CH582M\obj/../HAL/LED.c:345
        HalLedState &= (leds ^ 0xFF);
    1fda:	0006c783          	lbu	a5,0(a3)
    1fde:	fff54513          	not	a0,a0
    1fe2:	8d7d                	and	a0,a0,a5
    1fe4:	bff9                	j	1fc2 <HalLedOnOff+0x28>

00001fe6 <HalLedSet.part.1>:
HalLedSet():
E:\Project\tp78_v2\mounriver_project\RF_CH582M\obj/../HAL/LED.c:79
uint8_t HalLedSet(uint8_t leds, uint8_t mode)
    1fe6:	1101                	addi	sp,sp,-32
    1fe8:	cc22                	sw	s0,24(sp)
    1fea:	ca26                	sw	s1,20(sp)
    1fec:	c84a                	sw	s2,16(sp)
    1fee:	c64e                	sw	s3,12(sp)
    1ff0:	c452                	sw	s4,8(sp)
    1ff2:	ce06                	sw	ra,28(sp)
    1ff4:	89ae                	mv	s3,a1
E:\Project\tp78_v2\mounriver_project\RF_CH582M\obj/../HAL/LED.c:105
            leds &= HAL_LED_ALL;
    1ff6:	00f57493          	andi	s1,a0,15
E:\Project\tp78_v2\mounriver_project\RF_CH582M\obj/../HAL/LED.c:106
            sts = HalLedStatusControl.HalLedControlTable;
    1ffa:	81c18913          	addi	s2,gp,-2020 # 20001834 <HalLedStatusControl>
E:\Project\tp78_v2\mounriver_project\RF_CH582M\obj/../HAL/LED.c:104
            led = HAL_LED_1;
    1ffe:	4405                	li	s0,1
E:\Project\tp78_v2\mounriver_project\RF_CH582M\obj/../HAL/LED.c:111
                    if(mode != HAL_LED_MODE_TOGGLE)
    2000:	4a21                	li	s4,8
E:\Project\tp78_v2\mounriver_project\RF_CH582M\obj/../HAL/LED.c:107
            while(leds)
    2002:	e889                	bnez	s1,2014 <HalLedSet.part.1+0x2e>
E:\Project\tp78_v2\mounriver_project\RF_CH582M\obj/../HAL/LED.c:132
}
    2004:	40f2                	lw	ra,28(sp)
    2006:	4462                	lw	s0,24(sp)
    2008:	44d2                	lw	s1,20(sp)
    200a:	4942                	lw	s2,16(sp)
    200c:	49b2                	lw	s3,12(sp)
    200e:	4a22                	lw	s4,8(sp)
    2010:	6105                	addi	sp,sp,32
    2012:	8082                	ret
E:\Project\tp78_v2\mounriver_project\RF_CH582M\obj/../HAL/LED.c:109
                if(leds & led)
    2014:	0084f7b3          	and	a5,s1,s0
    2018:	cf89                	beqz	a5,2032 <HalLedSet.part.1+0x4c>
E:\Project\tp78_v2\mounriver_project\RF_CH582M\obj/../HAL/LED.c:111
                    if(mode != HAL_LED_MODE_TOGGLE)
    201a:	85ce                	mv	a1,s3
    201c:	01499663          	bne	s3,s4,2028 <HalLedSet.part.1+0x42>
E:\Project\tp78_v2\mounriver_project\RF_CH582M\obj/../HAL/LED.c:117
                        sts->mode ^= HAL_LED_MODE_ON; /* Toggle */
    2020:	00094583          	lbu	a1,0(s2)
    2024:	0015c593          	xori	a1,a1,1
E:\Project\tp78_v2\mounriver_project\RF_CH582M\obj/../HAL/LED.c:119
                    HalLedOnOff(led, sts->mode);
    2028:	8522                	mv	a0,s0
    202a:	00b90023          	sb	a1,0(s2)
E:\Project\tp78_v2\mounriver_project\RF_CH582M\obj/../HAL/LED.c:120
                    leds ^= led;
    202e:	8ca1                	xor	s1,s1,s0
E:\Project\tp78_v2\mounriver_project\RF_CH582M\obj/../HAL/LED.c:119
                    HalLedOnOff(led, sts->mode);
    2030:	37ad                	jal	1f9a <HalLedOnOff>
E:\Project\tp78_v2\mounriver_project\RF_CH582M\obj/../HAL/LED.c:122
                led <<= 1;
    2032:	0406                	slli	s0,s0,0x1
    2034:	0ff47413          	andi	s0,s0,255
E:\Project\tp78_v2\mounriver_project\RF_CH582M\obj/../HAL/LED.c:123
                sts++;
    2038:	0931                	addi	s2,s2,12
    203a:	b7e1                	j	2002 <HalLedSet.part.1+0x1c>

0000203c <HalLedBlink>:
HalLedBlink():
E:\Project\tp78_v2\mounriver_project\RF_CH582M\obj/../HAL/LED.c:147
{
    203c:	87aa                	mv	a5,a0
E:\Project\tp78_v2\mounriver_project\RF_CH582M\obj/../HAL/LED.c:151
    if(leds && percent && period)
    203e:	c911                	beqz	a0,2052 <HalLedBlink+0x16>
E:\Project\tp78_v2\mounriver_project\RF_CH582M\obj/../HAL/LED.c:151 (discriminator 1)
    2040:	ca09                	beqz	a2,2052 <HalLedBlink+0x16>
E:\Project\tp78_v2\mounriver_project\RF_CH582M\obj/../HAL/LED.c:151 (discriminator 2)
    2042:	ca81                	beqz	a3,2052 <HalLedBlink+0x16>
E:\Project\tp78_v2\mounriver_project\RF_CH582M\obj/../HAL/LED.c:153
        if(percent < 100)
    2044:	06300793          	li	a5,99
    2048:	00c7e363          	bltu	a5,a2,204e <HalLedBlink+0x12>
    204c:	bd4d                	j	1efe <HalLedBlink.part.2>
HalLedSet():
E:\Project\tp78_v2\mounriver_project\RF_CH582M\obj/../HAL/LED.c:84
    switch(mode)
    204e:	4585                	li	a1,1
    2050:	bf59                	j	1fe6 <HalLedSet.part.1>
    2052:	4581                	li	a1,0
    2054:	853e                	mv	a0,a5
    2056:	bfed                	j	2050 <HalLedBlink+0x14>

00002058 <HalLedSet>:
    2058:	47a1                	li	a5,8
    205a:	02b7ef63          	bltu	a5,a1,2098 <HalLedSet+0x40>
    205e:	00004697          	auipc	a3,0x4
    2062:	46e68693          	addi	a3,a3,1134 # 64cc <memcpy+0xca>
    2066:	00259713          	slli	a4,a1,0x2
    206a:	9736                	add	a4,a4,a3
    206c:	431c                	lw	a5,0(a4)
E:\Project\tp78_v2\mounriver_project\RF_CH582M\obj/../HAL/LED.c:80
{
    206e:	1141                	addi	sp,sp,-16
    2070:	c606                	sw	ra,12(sp)
E:\Project\tp78_v2\mounriver_project\RF_CH582M\obj/../HAL/LED.c:84
    switch(mode)
    2072:	97b6                	add	a5,a5,a3
    2074:	8782                	jr	a5
E:\Project\tp78_v2\mounriver_project\RF_CH582M\obj/../HAL/LED.c:89
            HalLedBlink(leds, 1, HAL_LED_DEFAULT_DUTY_CYCLE, HAL_LED_DEFAULT_FLASH_TIME);
    2076:	3e800693          	li	a3,1000
    207a:	4615                	li	a2,5
    207c:	4585                	li	a1,1
E:\Project\tp78_v2\mounriver_project\RF_CH582M\obj/../HAL/LED.c:96
            HalLedBlink(leds, HAL_LED_DEFAULT_FLASH_COUNT, HAL_LED_DEFAULT_DUTY_CYCLE, HAL_LED_DEFAULT_FLASH_TIME);
    207e:	3f7d                	jal	203c <HalLedBlink>
E:\Project\tp78_v2\mounriver_project\RF_CH582M\obj/../HAL/LED.c:132
}
    2080:	40b2                	lw	ra,12(sp)
    2082:	4501                	li	a0,0
    2084:	0141                	addi	sp,sp,16
    2086:	8082                	ret
E:\Project\tp78_v2\mounriver_project\RF_CH582M\obj/../HAL/LED.c:96
            HalLedBlink(leds, HAL_LED_DEFAULT_FLASH_COUNT, HAL_LED_DEFAULT_DUTY_CYCLE, HAL_LED_DEFAULT_FLASH_TIME);
    2088:	3e800693          	li	a3,1000
    208c:	4615                	li	a2,5
    208e:	03200593          	li	a1,50
    2092:	b7f5                	j	207e <HalLedSet+0x26>
    2094:	3f89                	jal	1fe6 <HalLedSet.part.1>
    2096:	b7ed                	j	2080 <HalLedSet+0x28>
E:\Project\tp78_v2\mounriver_project\RF_CH582M\obj/../HAL/LED.c:132
}
    2098:	4501                	li	a0,0
    209a:	8082                	ret

0000209c <HAL_LedInit>:
HAL_LedInit():
E:\Project\tp78_v2\mounriver_project\RF_CH582M\obj/../HAL/LED.c:59
    GPIOB_SetBits(LED1_BV);
    209c:	40001737          	lui	a4,0x40001
    20a0:	0c872783          	lw	a5,200(a4) # 400010c8 <_eusrstack+0x1fff90c8>
E:\Project\tp78_v2\mounriver_project\RF_CH582M\obj/../HAL/LED.c:57
{
    20a4:	1141                	addi	sp,sp,-16
E:\Project\tp78_v2\mounriver_project\RF_CH582M\obj/../HAL/LED.c:59
    GPIOB_SetBits(LED1_BV);
    20a6:	6685                	lui	a3,0x1
E:\Project\tp78_v2\mounriver_project\RF_CH582M\obj/../HAL/LED.c:57
{
    20a8:	c606                	sw	ra,12(sp)
E:\Project\tp78_v2\mounriver_project\RF_CH582M\obj/../HAL/LED.c:59
    GPIOB_SetBits(LED1_BV);
    20aa:	8fd5                	or	a5,a5,a3
    20ac:	0cf72423          	sw	a5,200(a4)
E:\Project\tp78_v2\mounriver_project\RF_CH582M\obj/../HAL/LED.c:60
    GPIOB_ModeCfg(LED1_BV, GPIO_ModeOut_PP_5mA);
    20b0:	458d                	li	a1,3
    20b2:	6505                	lui	a0,0x1
    20b4:	31bd                	jal	1d22 <GPIOB_ModeCfg>
HalLedSet():
E:\Project\tp78_v2\mounriver_project\RF_CH582M\obj/../HAL/LED.c:84
    switch(mode)
    20b6:	4581                	li	a1,0
    20b8:	453d                	li	a0,15
    20ba:	3735                	jal	1fe6 <HalLedSet.part.1>
HalLedBlink():
E:\Project\tp78_v2\mounriver_project\RF_CH582M\obj/../HAL/LED.c:153
        if(percent < 100)
    20bc:	2ee00693          	li	a3,750
    20c0:	4679                	li	a2,30
    20c2:	4595                	li	a1,5
    20c4:	4505                	li	a0,1
    20c6:	3d25                	jal	1efe <HalLedBlink.part.2>
HAL_LedInit():
E:\Project\tp78_v2\mounriver_project\RF_CH582M\obj/../HAL/LED.c:67
}
    20c8:	40b2                	lw	ra,12(sp)
E:\Project\tp78_v2\mounriver_project\RF_CH582M\obj/../HAL/LED.c:66
    HalLedStatusControl.sleepActive = FALSE;
    20ca:	84018623          	sb	zero,-1972(gp) # 20001864 <HalLedStatusControl+0x30>
E:\Project\tp78_v2\mounriver_project\RF_CH582M\obj/../HAL/LED.c:67
}
    20ce:	0141                	addi	sp,sp,16
    20d0:	8082                	ret

000020d2 <HalLedUpdate>:
HalLedUpdate():
E:\Project\tp78_v2\mounriver_project\RF_CH582M\obj/../HAL/LED.c:212
    if(!HalLedStatusControl.sleepActive)
    20d2:	84c1c783          	lbu	a5,-1972(gp) # 20001864 <HalLedStatusControl+0x30>
    20d6:	16079363          	bnez	a5,223c <HalLedUpdate+0x16a>
E:\Project\tp78_v2\mounriver_project\RF_CH582M\obj/../HAL/LED.c:200
{
    20da:	7179                	addi	sp,sp,-48
    20dc:	ce4e                	sw	s3,28(sp)
E:\Project\tp78_v2\mounriver_project\RF_CH582M\obj/../HAL/LED.c:249
                            sts->next = time + wait;
    20de:	69c1                	lui	s3,0x10
E:\Project\tp78_v2\mounriver_project\RF_CH582M\obj/../HAL/LED.c:200
{
    20e0:	d422                	sw	s0,40(sp)
    20e2:	d226                	sw	s1,36(sp)
    20e4:	d04a                	sw	s2,32(sp)
    20e6:	cc52                	sw	s4,24(sp)
    20e8:	ca56                	sw	s5,20(sp)
    20ea:	c85a                	sw	s6,16(sp)
    20ec:	c65e                	sw	s7,12(sp)
    20ee:	c462                	sw	s8,8(sp)
    20f0:	d606                	sw	ra,44(sp)
    20f2:	c266                	sw	s9,4(sp)
    20f4:	c06a                	sw	s10,0(sp)
E:\Project\tp78_v2\mounriver_project\RF_CH582M\obj/../HAL/LED.c:209
    sts = HalLedStatusControl.HalLedControlTable;
    20f6:	81c18413          	addi	s0,gp,-2020 # 20001834 <HalLedStatusControl>
E:\Project\tp78_v2\mounriver_project\RF_CH582M\obj/../HAL/LED.c:206
    next = 0;
    20fa:	4c01                	li	s8,0
E:\Project\tp78_v2\mounriver_project\RF_CH582M\obj/../HAL/LED.c:208
    leds = HAL_LED_ALL;
    20fc:	493d                	li	s2,15
E:\Project\tp78_v2\mounriver_project\RF_CH582M\obj/../HAL/LED.c:207
    led = HAL_LED_1;
    20fe:	4485                	li	s1,1
E:\Project\tp78_v2\mounriver_project\RF_CH582M\obj/../HAL/LED.c:256
                            HalLedSet(led, ((preBlinkState & led) != 0) ? HAL_LED_MODE_ON : HAL_LED_MODE_OFF);
    2100:	80918a13          	addi	s4,gp,-2039 # 20001821 <preBlinkState>
E:\Project\tp78_v2\mounriver_project\RF_CH582M\obj/../HAL/LED.c:248
                            wait = (((uint32_t)pct * (uint32_t)sts->time) / 100);
    2104:	06400a93          	li	s5,100
E:\Project\tp78_v2\mounriver_project\RF_CH582M\obj/../HAL/LED.c:249
                            sts->next = time + wait;
    2108:	19fd                	addi	s3,s3,-1
E:\Project\tp78_v2\mounriver_project\RF_CH582M\obj/../HAL/LED.c:225
                            pct = 100 - sts->onPct;             /* Percentage of cycle for off */
    210a:	06400b13          	li	s6,100
E:\Project\tp78_v2\mounriver_project\RF_CH582M\obj/../HAL/LED.c:230
                                if(sts->todo != 0xff)
    210e:	0ff00b93          	li	s7,255
E:\Project\tp78_v2\mounriver_project\RF_CH582M\obj/../HAL/LED.c:216
            if(leds & led)
    2112:	0124f7b3          	and	a5,s1,s2
    2116:	c7e1                	beqz	a5,21de <HalLedUpdate+0x10c>
E:\Project\tp78_v2\mounriver_project\RF_CH582M\obj/../HAL/LED.c:218
                if(sts->mode & HAL_LED_MODE_BLINK)
    2118:	00044783          	lbu	a5,0(s0)
    211c:	8b89                	andi	a5,a5,2
    211e:	cfd5                	beqz	a5,21da <HalLedUpdate+0x108>
E:\Project\tp78_v2\mounriver_project\RF_CH582M\obj/../HAL/LED.c:220
                    time = TMOS_GetSystemClock();
    2120:	7b3000ef          	jal	ra,30d2 <TMOS_GetSystemClock>
E:\Project\tp78_v2\mounriver_project\RF_CH582M\obj/../HAL/LED.c:221
                    if(time >= sts->next)
    2124:	441c                	lw	a5,8(s0)
E:\Project\tp78_v2\mounriver_project\RF_CH582M\obj/../HAL/LED.c:220
                    time = TMOS_GetSystemClock();
    2126:	8d2a                	mv	s10,a0
E:\Project\tp78_v2\mounriver_project\RF_CH582M\obj/../HAL/LED.c:221
                    if(time >= sts->next)
    2128:	0ef56663          	bltu	a0,a5,2214 <HalLedUpdate+0x142>
E:\Project\tp78_v2\mounriver_project\RF_CH582M\obj/../HAL/LED.c:223
                        if(sts->mode & HAL_LED_MODE_ON)
    212c:	00044683          	lbu	a3,0(s0)
    2130:	00244c83          	lbu	s9,2(s0)
    2134:	0016f793          	andi	a5,a3,1
    2138:	cbbd                	beqz	a5,21ae <HalLedUpdate+0xdc>
E:\Project\tp78_v2\mounriver_project\RF_CH582M\obj/../HAL/LED.c:225
                            pct = 100 - sts->onPct;             /* Percentage of cycle for off */
    213a:	419b0733          	sub	a4,s6,s9
E:\Project\tp78_v2\mounriver_project\RF_CH582M\obj/../HAL/LED.c:226
                            sts->mode &= ~HAL_LED_MODE_ON;      /* Say it's not on */
    213e:	9af9                	andi	a3,a3,-2
E:\Project\tp78_v2\mounriver_project\RF_CH582M\obj/../HAL/LED.c:227
                            HalLedOnOff(led, HAL_LED_MODE_OFF); /* Turn it off */
    2140:	4581                	li	a1,0
    2142:	8526                	mv	a0,s1
E:\Project\tp78_v2\mounriver_project\RF_CH582M\obj/../HAL/LED.c:225
                            pct = 100 - sts->onPct;             /* Percentage of cycle for off */
    2144:	0ff77c93          	andi	s9,a4,255
E:\Project\tp78_v2\mounriver_project\RF_CH582M\obj/../HAL/LED.c:226
                            sts->mode &= ~HAL_LED_MODE_ON;      /* Say it's not on */
    2148:	00d40023          	sb	a3,0(s0)
E:\Project\tp78_v2\mounriver_project\RF_CH582M\obj/../HAL/LED.c:227
                            HalLedOnOff(led, HAL_LED_MODE_OFF); /* Turn it off */
    214c:	35b9                	jal	1f9a <HalLedOnOff>
E:\Project\tp78_v2\mounriver_project\RF_CH582M\obj/../HAL/LED.c:228
                            if(!(sts->mode & HAL_LED_MODE_FLASH))
    214e:	00044603          	lbu	a2,0(s0)
    2152:	00467793          	andi	a5,a2,4
    2156:	ef99                	bnez	a5,2174 <HalLedUpdate+0xa2>
E:\Project\tp78_v2\mounriver_project\RF_CH582M\obj/../HAL/LED.c:230
                                if(sts->todo != 0xff)
    2158:	00144683          	lbu	a3,1(s0)
    215c:	01768c63          	beq	a3,s7,2174 <HalLedUpdate+0xa2>
E:\Project\tp78_v2\mounriver_project\RF_CH582M\obj/../HAL/LED.c:232
                                    sts->todo--; /* Not continuous, reduce count */
    2160:	16fd                	addi	a3,a3,-1
    2162:	0ff6f693          	andi	a3,a3,255
    2166:	00d400a3          	sb	a3,1(s0)
E:\Project\tp78_v2\mounriver_project\RF_CH582M\obj/../HAL/LED.c:234
                                if(!sts->todo)
    216a:	e689                	bnez	a3,2174 <HalLedUpdate+0xa2>
E:\Project\tp78_v2\mounriver_project\RF_CH582M\obj/../HAL/LED.c:236
                                    sts->mode ^= HAL_LED_MODE_BLINK; /* No more blinks */
    216c:	00264613          	xori	a2,a2,2
    2170:	00c40023          	sb	a2,0(s0)
E:\Project\tp78_v2\mounriver_project\RF_CH582M\obj/../HAL/LED.c:246
                        if(sts->mode & HAL_LED_MODE_BLINK)
    2174:	00044783          	lbu	a5,0(s0)
    2178:	8b89                	andi	a5,a5,2
    217a:	c3b1                	beqz	a5,21be <HalLedUpdate+0xec>
E:\Project\tp78_v2\mounriver_project\RF_CH582M\obj/../HAL/LED.c:248
                            wait = (((uint32_t)pct * (uint32_t)sts->time) / 100);
    217c:	00445703          	lhu	a4,4(s0)
    2180:	03970733          	mul	a4,a4,s9
    2184:	03575733          	divu	a4,a4,s5
    2188:	01071793          	slli	a5,a4,0x10
E:\Project\tp78_v2\mounriver_project\RF_CH582M\obj/../HAL/LED.c:249
                            sts->next = time + wait;
    218c:	01377733          	and	a4,a4,s3
    2190:	976a                	add	a4,a4,s10
E:\Project\tp78_v2\mounriver_project\RF_CH582M\obj/../HAL/LED.c:248
                            wait = (((uint32_t)pct * (uint32_t)sts->time) / 100);
    2192:	83c1                	srli	a5,a5,0x10
E:\Project\tp78_v2\mounriver_project\RF_CH582M\obj/../HAL/LED.c:249
                            sts->next = time + wait;
    2194:	c418                	sw	a4,8(s0)
E:\Project\tp78_v2\mounriver_project\RF_CH582M\obj/../HAL/LED.c:265
                    if(!next || (wait && (wait < next)))
    2196:	080c0363          	beqz	s8,221c <HalLedUpdate+0x14a>
E:\Project\tp78_v2\mounriver_project\RF_CH582M\obj/../HAL/LED.c:265 (discriminator 1)
    219a:	c3a1                	beqz	a5,21da <HalLedUpdate+0x108>
    219c:	873e                	mv	a4,a5
    219e:	00fc7363          	bgeu	s8,a5,21a4 <HalLedUpdate+0xd2>
    21a2:	8762                	mv	a4,s8
    21a4:	01071c13          	slli	s8,a4,0x10
    21a8:	010c5c13          	srli	s8,s8,0x10
    21ac:	a03d                	j	21da <HalLedUpdate+0x108>
E:\Project\tp78_v2\mounriver_project\RF_CH582M\obj/../HAL/LED.c:243
                            sts->mode |= HAL_LED_MODE_ON;      /* Say it's on */
    21ae:	0016e693          	ori	a3,a3,1
E:\Project\tp78_v2\mounriver_project\RF_CH582M\obj/../HAL/LED.c:244
                            HalLedOnOff(led, HAL_LED_MODE_ON); /* Turn it on */
    21b2:	4585                	li	a1,1
    21b4:	8526                	mv	a0,s1
E:\Project\tp78_v2\mounriver_project\RF_CH582M\obj/../HAL/LED.c:243
                            sts->mode |= HAL_LED_MODE_ON;      /* Say it's on */
    21b6:	00d40023          	sb	a3,0(s0)
E:\Project\tp78_v2\mounriver_project\RF_CH582M\obj/../HAL/LED.c:244
                            HalLedOnOff(led, HAL_LED_MODE_ON); /* Turn it on */
    21ba:	33c5                	jal	1f9a <HalLedOnOff>
    21bc:	bf65                	j	2174 <HalLedUpdate+0xa2>
E:\Project\tp78_v2\mounriver_project\RF_CH582M\obj/../HAL/LED.c:256
                            HalLedSet(led, ((preBlinkState & led) != 0) ? HAL_LED_MODE_ON : HAL_LED_MODE_OFF);
    21be:	000a4583          	lbu	a1,0(s4)
    21c2:	8526                	mv	a0,s1
    21c4:	8de5                	and	a1,a1,s1
    21c6:	00b035b3          	snez	a1,a1
    21ca:	3579                	jal	2058 <HalLedSet>
E:\Project\tp78_v2\mounriver_project\RF_CH582M\obj/../HAL/LED.c:258
                            preBlinkState &= (led ^ 0xFF);
    21cc:	000a4703          	lbu	a4,0(s4)
    21d0:	fff4c793          	not	a5,s1
    21d4:	8ff9                	and	a5,a5,a4
    21d6:	80f184a3          	sb	a5,-2039(gp) # 20001821 <preBlinkState>
E:\Project\tp78_v2\mounriver_project\RF_CH582M\obj/../HAL/LED.c:270
                leds ^= led;
    21da:	0124c933          	xor	s2,s1,s2
E:\Project\tp78_v2\mounriver_project\RF_CH582M\obj/../HAL/LED.c:272
            led <<= 1;
    21de:	0486                	slli	s1,s1,0x1
    21e0:	0ff4f493          	andi	s1,s1,255
E:\Project\tp78_v2\mounriver_project\RF_CH582M\obj/../HAL/LED.c:273
            sts++;
    21e4:	0431                	addi	s0,s0,12
E:\Project\tp78_v2\mounriver_project\RF_CH582M\obj/../HAL/LED.c:214
        while(leds)
    21e6:	f20916e3          	bnez	s2,2112 <HalLedUpdate+0x40>
E:\Project\tp78_v2\mounriver_project\RF_CH582M\obj/../HAL/LED.c:275
        if(next)
    21ea:	020c0b63          	beqz	s8,2220 <HalLedUpdate+0x14e>
E:\Project\tp78_v2\mounriver_project\RF_CH582M\obj/../HAL/LED.c:280
}
    21ee:	5422                	lw	s0,40(sp)
    21f0:	50b2                	lw	ra,44(sp)
    21f2:	5492                	lw	s1,36(sp)
    21f4:	5902                	lw	s2,32(sp)
    21f6:	49f2                	lw	s3,28(sp)
    21f8:	4a62                	lw	s4,24(sp)
    21fa:	4ad2                	lw	s5,20(sp)
    21fc:	4b42                	lw	s6,16(sp)
    21fe:	4bb2                	lw	s7,12(sp)
    2200:	4c92                	lw	s9,4(sp)
    2202:	4d02                	lw	s10,0(sp)
E:\Project\tp78_v2\mounriver_project\RF_CH582M\obj/../HAL/LED.c:277
            tmos_start_task(halTaskID, LED_BLINK_EVENT, next); /* Schedule event */
    2204:	8662                	mv	a2,s8
E:\Project\tp78_v2\mounriver_project\RF_CH582M\obj/../HAL/LED.c:280
}
    2206:	4c22                	lw	s8,8(sp)
E:\Project\tp78_v2\mounriver_project\RF_CH582M\obj/../HAL/LED.c:277
            tmos_start_task(halTaskID, LED_BLINK_EVENT, next); /* Schedule event */
    2208:	8601c503          	lbu	a0,-1952(gp) # 20001878 <halTaskID>
    220c:	4585                	li	a1,1
E:\Project\tp78_v2\mounriver_project\RF_CH582M\obj/../HAL/LED.c:280
}
    220e:	6145                	addi	sp,sp,48
E:\Project\tp78_v2\mounriver_project\RF_CH582M\obj/../HAL/LED.c:277
            tmos_start_task(halTaskID, LED_BLINK_EVENT, next); /* Schedule event */
    2210:	7550006f          	j	3164 <tmos_start_task>
E:\Project\tp78_v2\mounriver_project\RF_CH582M\obj/../HAL/LED.c:263
                        wait = sts->next - time; /* Time left */
    2214:	8f89                	sub	a5,a5,a0
    2216:	07c2                	slli	a5,a5,0x10
    2218:	83c1                	srli	a5,a5,0x10
    221a:	bfb5                	j	2196 <HalLedUpdate+0xc4>
    221c:	8c3e                	mv	s8,a5
    221e:	bf75                	j	21da <HalLedUpdate+0x108>
E:\Project\tp78_v2\mounriver_project\RF_CH582M\obj/../HAL/LED.c:280
}
    2220:	50b2                	lw	ra,44(sp)
    2222:	5422                	lw	s0,40(sp)
    2224:	5492                	lw	s1,36(sp)
    2226:	5902                	lw	s2,32(sp)
    2228:	49f2                	lw	s3,28(sp)
    222a:	4a62                	lw	s4,24(sp)
    222c:	4ad2                	lw	s5,20(sp)
    222e:	4b42                	lw	s6,16(sp)
    2230:	4bb2                	lw	s7,12(sp)
    2232:	4c22                	lw	s8,8(sp)
    2234:	4c92                	lw	s9,4(sp)
    2236:	4d02                	lw	s10,0(sp)
    2238:	6145                	addi	sp,sp,48
    223a:	8082                	ret
    223c:	8082                	ret

0000223e <Lib_Calibration_LSI>:
Lib_Calibration_LSI():
E:\Project\tp78_v2\mounriver_project\RF_CH582M\obj/../HAL/MCU.c:28
 *
 * @return  None.
 */
void Lib_Calibration_LSI(void)
{
    Calibration_LSI(Level_64);
    223e:	4511                	li	a0,4
    2240:	eaeff06f          	j	18ee <Calibration_LSI>

00002244 <Lib_Read_Flash>:
Lib_Read_Flash():
E:\Project\tp78_v2\mounriver_project\RF_CH582M\obj/../HAL/MCU.c:44
 * @param   pBuf - Buffer to store read data
 *
 * @return  None.
 */
uint32_t Lib_Read_Flash(uint32_t addr, uint32_t num, uint32_t *pBuf)
{
    2244:	1141                	addi	sp,sp,-16
E:\Project\tp78_v2\mounriver_project\RF_CH582M\obj/../HAL/MCU.c:45
    EEPROM_READ(addr, pBuf, num * 4);
    2246:	00259693          	slli	a3,a1,0x2
    224a:	85aa                	mv	a1,a0
    224c:	452d                	li	a0,11
E:\Project\tp78_v2\mounriver_project\RF_CH582M\obj/../HAL/MCU.c:44
{
    224e:	c606                	sw	ra,12(sp)
E:\Project\tp78_v2\mounriver_project\RF_CH582M\obj/../HAL/MCU.c:45
    EEPROM_READ(addr, pBuf, num * 4);
    2250:	1fffe097          	auipc	ra,0x1fffe
    2254:	2b8080e7          	jalr	696(ra) # 20000508 <FLASH_EEPROM_CMD>
E:\Project\tp78_v2\mounriver_project\RF_CH582M\obj/../HAL/MCU.c:47
    return 0;
}
    2258:	40b2                	lw	ra,12(sp)
    225a:	4501                	li	a0,0
    225c:	0141                	addi	sp,sp,16
    225e:	8082                	ret

00002260 <Lib_Write_Flash>:
Lib_Write_Flash():
E:\Project\tp78_v2\mounriver_project\RF_CH582M\obj/../HAL/MCU.c:61
 * @param   pBuf - Buffer with data to be written
 *
 * @return  None.
 */
uint32_t Lib_Write_Flash(uint32_t addr, uint32_t num, uint32_t *pBuf)
{
    2260:	1141                	addi	sp,sp,-16
    2262:	c226                	sw	s1,4(sp)
E:\Project\tp78_v2\mounriver_project\RF_CH582M\obj/../HAL/MCU.c:62
    EEPROM_ERASE(addr, num * 4);
    2264:	00259493          	slli	s1,a1,0x2
E:\Project\tp78_v2\mounriver_project\RF_CH582M\obj/../HAL/MCU.c:61
{
    2268:	c422                	sw	s0,8(sp)
    226a:	c04a                	sw	s2,0(sp)
    226c:	842a                	mv	s0,a0
    226e:	8932                	mv	s2,a2
E:\Project\tp78_v2\mounriver_project\RF_CH582M\obj/../HAL/MCU.c:62
    EEPROM_ERASE(addr, num * 4);
    2270:	86a6                	mv	a3,s1
    2272:	85aa                	mv	a1,a0
    2274:	4601                	li	a2,0
    2276:	4525                	li	a0,9
E:\Project\tp78_v2\mounriver_project\RF_CH582M\obj/../HAL/MCU.c:61
{
    2278:	c606                	sw	ra,12(sp)
E:\Project\tp78_v2\mounriver_project\RF_CH582M\obj/../HAL/MCU.c:62
    EEPROM_ERASE(addr, num * 4);
    227a:	1fffe097          	auipc	ra,0x1fffe
    227e:	28e080e7          	jalr	654(ra) # 20000508 <FLASH_EEPROM_CMD>
E:\Project\tp78_v2\mounriver_project\RF_CH582M\obj/../HAL/MCU.c:63
    EEPROM_WRITE(addr, pBuf, num * 4);
    2282:	86a6                	mv	a3,s1
    2284:	864a                	mv	a2,s2
    2286:	85a2                	mv	a1,s0
    2288:	4529                	li	a0,10
    228a:	1fffe097          	auipc	ra,0x1fffe
    228e:	27e080e7          	jalr	638(ra) # 20000508 <FLASH_EEPROM_CMD>
E:\Project\tp78_v2\mounriver_project\RF_CH582M\obj/../HAL/MCU.c:65
    return 0;
}
    2292:	40b2                	lw	ra,12(sp)
    2294:	4422                	lw	s0,8(sp)
    2296:	4492                	lw	s1,4(sp)
    2298:	4902                	lw	s2,0(sp)
    229a:	4501                	li	a0,0
    229c:	0141                	addi	sp,sp,16
    229e:	8082                	ret

000022a0 <HAL_GetInterTempValue>:
HAL_GetInterTempValue():
E:\Project\tp78_v2\mounriver_project\RF_CH582M\obj/../HAL/MCU.c:239
 * @brief   获取内部温感采样值，如果使用了ADC中断采样，需在此函数中暂时屏蔽中断.
 *
 * @return  内部温感采样值.
 */
uint16_t HAL_GetInterTempValue(void)
{
    22a0:	1101                	addi	sp,sp,-32
    22a2:	cc22                	sw	s0,24(sp)
    22a4:	ce06                	sw	ra,28(sp)
E:\Project\tp78_v2\mounriver_project\RF_CH582M\obj/../HAL/MCU.c:243
    uint8_t  sensor, channel, config, tkey_cfg;
    uint16_t adc_data;

    tkey_cfg = R8_TKEY_CFG;
    22a6:	40001437          	lui	s0,0x40001
E:\Project\tp78_v2\mounriver_project\RF_CH582M\obj/../HAL/MCU.c:239
{
    22aa:	ca26                	sw	s1,20(sp)
    22ac:	c84a                	sw	s2,16(sp)
    22ae:	c64e                	sw	s3,12(sp)
    22b0:	c452                	sw	s4,8(sp)
E:\Project\tp78_v2\mounriver_project\RF_CH582M\obj/../HAL/MCU.c:243
    tkey_cfg = R8_TKEY_CFG;
    22b2:	05744483          	lbu	s1,87(s0) # 40001057 <_eusrstack+0x1fff9057>
E:\Project\tp78_v2\mounriver_project\RF_CH582M\obj/../HAL/MCU.c:244
    sensor = R8_TEM_SENSOR;
    22b6:	05b44a03          	lbu	s4,91(s0)
E:\Project\tp78_v2\mounriver_project\RF_CH582M\obj/../HAL/MCU.c:245
    channel = R8_ADC_CHANNEL;
    22ba:	05844983          	lbu	s3,88(s0)
E:\Project\tp78_v2\mounriver_project\RF_CH582M\obj/../HAL/MCU.c:246
    config = R8_ADC_CFG;
    22be:	05944903          	lbu	s2,89(s0)
E:\Project\tp78_v2\mounriver_project\RF_CH582M\obj/../HAL/MCU.c:247
    ADC_InterTSSampInit();
    22c2:	e04ff0ef          	jal	ra,18c6 <ADC_InterTSSampInit>
E:\Project\tp78_v2\mounriver_project\RF_CH582M\obj/../HAL/MCU.c:248
    R8_ADC_CONVERT |= RB_ADC_START;
    22c6:	05a44783          	lbu	a5,90(s0)
E:\Project\tp78_v2\mounriver_project\RF_CH582M\obj/../HAL/MCU.c:243
    tkey_cfg = R8_TKEY_CFG;
    22ca:	0ff4f493          	andi	s1,s1,255
E:\Project\tp78_v2\mounriver_project\RF_CH582M\obj/../HAL/MCU.c:244
    sensor = R8_TEM_SENSOR;
    22ce:	0ffa7a13          	andi	s4,s4,255
E:\Project\tp78_v2\mounriver_project\RF_CH582M\obj/../HAL/MCU.c:248
    R8_ADC_CONVERT |= RB_ADC_START;
    22d2:	0017e793          	ori	a5,a5,1
    22d6:	04f40d23          	sb	a5,90(s0)
E:\Project\tp78_v2\mounriver_project\RF_CH582M\obj/../HAL/MCU.c:245
    channel = R8_ADC_CHANNEL;
    22da:	0ff9f993          	andi	s3,s3,255
E:\Project\tp78_v2\mounriver_project\RF_CH582M\obj/../HAL/MCU.c:246
    config = R8_ADC_CFG;
    22de:	0ff97913          	andi	s2,s2,255
E:\Project\tp78_v2\mounriver_project\RF_CH582M\obj/../HAL/MCU.c:249
    while(R8_ADC_CONVERT & RB_ADC_START);
    22e2:	400017b7          	lui	a5,0x40001
E:\Project\tp78_v2\mounriver_project\RF_CH582M\obj/../HAL/MCU.c:249 (discriminator 1)
    22e6:	05a7c703          	lbu	a4,90(a5) # 4000105a <_eusrstack+0x1fff905a>
    22ea:	8b05                	andi	a4,a4,1
    22ec:	ff6d                	bnez	a4,22e6 <HAL_GetInterTempValue+0x46>
E:\Project\tp78_v2\mounriver_project\RF_CH582M\obj/../HAL/MCU.c:250
    adc_data = R16_ADC_DATA;
    22ee:	05c7d503          	lhu	a0,92(a5)
E:\Project\tp78_v2\mounriver_project\RF_CH582M\obj/../HAL/MCU.c:251
    R8_TEM_SENSOR = sensor;
    22f2:	05478da3          	sb	s4,91(a5)
E:\Project\tp78_v2\mounriver_project\RF_CH582M\obj/../HAL/MCU.c:252
    R8_ADC_CHANNEL = channel;
    22f6:	05378c23          	sb	s3,88(a5)
E:\Project\tp78_v2\mounriver_project\RF_CH582M\obj/../HAL/MCU.c:253
    R8_ADC_CFG = config;
    22fa:	05278ca3          	sb	s2,89(a5)
E:\Project\tp78_v2\mounriver_project\RF_CH582M\obj/../HAL/MCU.c:254
    R8_TKEY_CFG = tkey_cfg;
    22fe:	04978ba3          	sb	s1,87(a5)
E:\Project\tp78_v2\mounriver_project\RF_CH582M\obj/../HAL/MCU.c:256
    return (adc_data);
}
    2302:	40f2                	lw	ra,28(sp)
    2304:	4462                	lw	s0,24(sp)
    2306:	44d2                	lw	s1,20(sp)
    2308:	4942                	lw	s2,16(sp)
    230a:	49b2                	lw	s3,12(sp)
    230c:	4a22                	lw	s4,8(sp)
    230e:	6105                	addi	sp,sp,32
    2310:	8082                	ret

00002312 <HAL_ProcessEvent>:
HAL_ProcessEvent():
E:\Project\tp78_v2\mounriver_project\RF_CH582M\obj/../HAL/MCU.c:155
{
    2312:	1141                	addi	sp,sp,-16
E:\Project\tp78_v2\mounriver_project\RF_CH582M\obj/../HAL/MCU.c:158
    if(events & SYS_EVENT_MSG)
    2314:	01059793          	slli	a5,a1,0x10
E:\Project\tp78_v2\mounriver_project\RF_CH582M\obj/../HAL/MCU.c:155
{
    2318:	c422                	sw	s0,8(sp)
    231a:	c606                	sw	ra,12(sp)
E:\Project\tp78_v2\mounriver_project\RF_CH582M\obj/../HAL/MCU.c:158
    if(events & SYS_EVENT_MSG)
    231c:	87c1                	srai	a5,a5,0x10
E:\Project\tp78_v2\mounriver_project\RF_CH582M\obj/../HAL/MCU.c:155
{
    231e:	842e                	mv	s0,a1
E:\Project\tp78_v2\mounriver_project\RF_CH582M\obj/../HAL/MCU.c:158
    if(events & SYS_EVENT_MSG)
    2320:	0007da63          	bgez	a5,2334 <HAL_ProcessEvent+0x22>
E:\Project\tp78_v2\mounriver_project\RF_CH582M\obj/../HAL/MCU.c:160
        msgPtr = tmos_msg_receive(task_id);
    2324:	2d9000ef          	jal	ra,2dfc <tmos_msg_receive>
E:\Project\tp78_v2\mounriver_project\RF_CH582M\obj/../HAL/MCU.c:161
        if(msgPtr)
    2328:	c119                	beqz	a0,232e <HAL_ProcessEvent+0x1c>
E:\Project\tp78_v2\mounriver_project\RF_CH582M\obj/../HAL/MCU.c:164
            tmos_msg_deallocate(msgPtr);
    232a:	2a7000ef          	jal	ra,2dd0 <tmos_msg_deallocate>
E:\Project\tp78_v2\mounriver_project\RF_CH582M\obj/../HAL/MCU.c:166
        return events ^ SYS_EVENT_MSG;
    232e:	6521                	lui	a0,0x8
E:\Project\tp78_v2\mounriver_project\RF_CH582M\obj/../HAL/MCU.c:198
        return events ^ HAL_TEST_EVENT;
    2330:	8d21                	xor	a0,a0,s0
    2332:	a039                	j	2340 <HAL_ProcessEvent+0x2e>
E:\Project\tp78_v2\mounriver_project\RF_CH582M\obj/../HAL/MCU.c:168
    if(events & LED_BLINK_EVENT)
    2334:	0015f793          	andi	a5,a1,1
    2338:	cb81                	beqz	a5,2348 <HAL_ProcessEvent+0x36>
E:\Project\tp78_v2\mounriver_project\RF_CH582M\obj/../HAL/MCU.c:171
        HalLedUpdate();
    233a:	3b61                	jal	20d2 <HalLedUpdate>
E:\Project\tp78_v2\mounriver_project\RF_CH582M\obj/../HAL/MCU.c:173
        return events ^ LED_BLINK_EVENT;
    233c:	00144513          	xori	a0,s0,1
E:\Project\tp78_v2\mounriver_project\RF_CH582M\obj/../HAL/MCU.c:201
}
    2340:	40b2                	lw	ra,12(sp)
    2342:	4422                	lw	s0,8(sp)
    2344:	0141                	addi	sp,sp,16
    2346:	8082                	ret
E:\Project\tp78_v2\mounriver_project\RF_CH582M\obj/../HAL/MCU.c:183
    if(events & HAL_REG_INIT_EVENT)
    2348:	01259793          	slli	a5,a1,0x12
    234c:	0207d063          	bgez	a5,236c <HAL_ProcessEvent+0x5a>
E:\Project\tp78_v2\mounriver_project\RF_CH582M\obj/../HAL/MCU.c:186
        BLE_RegInit();                                                  // 校准RF
    2350:	391010ef          	jal	ra,3ee0 <BLE_RegInit>
E:\Project\tp78_v2\mounriver_project\RF_CH582M\obj/../HAL/MCU.c:188
        Lib_Calibration_LSI(); // 校准内部RC
    2354:	35ed                	jal	223e <Lib_Calibration_LSI>
E:\Project\tp78_v2\mounriver_project\RF_CH582M\obj/../HAL/MCU.c:190
        tmos_start_task(halTaskID, HAL_REG_INIT_EVENT, MS1_TO_SYSTEM_TIME(BLE_CALIBRATION_PERIOD));
    2356:	0002f637          	lui	a2,0x2f
    235a:	e0060613          	addi	a2,a2,-512 # 2ee00 <_data_lma+0x28784>
    235e:	6589                	lui	a1,0x2
    2360:	8601c503          	lbu	a0,-1952(gp) # 20001878 <halTaskID>
    2364:	601000ef          	jal	ra,3164 <tmos_start_task>
E:\Project\tp78_v2\mounriver_project\RF_CH582M\obj/../HAL/MCU.c:191
        return events ^ HAL_REG_INIT_EVENT;
    2368:	6509                	lui	a0,0x2
    236a:	b7d9                	j	2330 <HAL_ProcessEvent+0x1e>
E:\Project\tp78_v2\mounriver_project\RF_CH582M\obj/../HAL/MCU.c:194
    if(events & HAL_TEST_EVENT)
    236c:	01159793          	slli	a5,a1,0x11
E:\Project\tp78_v2\mounriver_project\RF_CH582M\obj/../HAL/MCU.c:200
    return 0;
    2370:	4501                	li	a0,0
E:\Project\tp78_v2\mounriver_project\RF_CH582M\obj/../HAL/MCU.c:194
    if(events & HAL_TEST_EVENT)
    2372:	fc07d7e3          	bgez	a5,2340 <HAL_ProcessEvent+0x2e>
E:\Project\tp78_v2\mounriver_project\RF_CH582M\obj/../HAL/MCU.c:197
        tmos_start_task(halTaskID, HAL_TEST_EVENT, MS1_TO_SYSTEM_TIME(1000));
    2376:	64000613          	li	a2,1600
    237a:	6591                	lui	a1,0x4
    237c:	8601c503          	lbu	a0,-1952(gp) # 20001878 <halTaskID>
    2380:	5e5000ef          	jal	ra,3164 <tmos_start_task>
E:\Project\tp78_v2\mounriver_project\RF_CH582M\obj/../HAL/MCU.c:198
        return events ^ HAL_TEST_EVENT;
    2384:	6511                	lui	a0,0x4
    2386:	b76d                	j	2330 <HAL_ProcessEvent+0x1e>

00002388 <CH58X_BLEInit>:
CH58X_BLEInit():
E:\Project\tp78_v2\mounriver_project\RF_CH582M\obj/../HAL/MCU.c:78
{
    2388:	711d                	addi	sp,sp,-96
E:\Project\tp78_v2\mounriver_project\RF_CH582M\obj/../HAL/MCU.c:81
    if(tmos_memcmp(VER_LIB, VER_FILE, strlen(VER_FILE)) == FALSE)
    238a:	4649                	li	a2,18
    238c:	00004597          	auipc	a1,0x4
    2390:	16458593          	addi	a1,a1,356 # 64f0 <memcpy+0xee>
    2394:	00004517          	auipc	a0,0x4
    2398:	2d050513          	addi	a0,a0,720 # 6664 <VER_LIB>
E:\Project\tp78_v2\mounriver_project\RF_CH582M\obj/../HAL/MCU.c:78
{
    239c:	ce86                	sw	ra,92(sp)
E:\Project\tp78_v2\mounriver_project\RF_CH582M\obj/../HAL/MCU.c:81
    if(tmos_memcmp(VER_LIB, VER_FILE, strlen(VER_FILE)) == FALSE)
    239e:	1fffe097          	auipc	ra,0x1fffe
    23a2:	564080e7          	jalr	1380(ra) # 20000902 <tmos_memcmp>
    23a6:	e111                	bnez	a0,23aa <CH58X_BLEInit+0x22>
E:\Project\tp78_v2\mounriver_project\RF_CH582M\obj/../HAL/MCU.c:84 (discriminator 1)
        while(1);
    23a8:	a001                	j	23a8 <CH58X_BLEInit+0x20>
SysTick_Config():
E:\Project\tp78_v2\mounriver_project\RF_CH582M\RVMSIS/core_riscv.h:365
RV_STATIC_INLINE uint32_t SysTick_Config(uint64_t ticks)
{
    if((ticks - 1) > SysTick_LOAD_RELOAD_Msk)
        return (1); /* Reload value impossible */

    SysTick->CMP = ticks - 1; /* set reload register */
    23aa:	e000f6b7          	lui	a3,0xe000f
    23ae:	5779                	li	a4,-2
    23b0:	ca98                	sw	a4,16(a3)
    23b2:	57fd                	li	a5,-1
    23b4:	cadc                	sw	a5,20(a3)
PFIC_EnableIRQ():
E:\Project\tp78_v2\mounriver_project\RF_CH582M\RVMSIS/core_riscv.h:110
    PFIC->IENR[((uint32_t)(IRQn) >> 5)] = (1 << ((uint32_t)(IRQn)&0x1F));
    23b6:	6705                	lui	a4,0x1
    23b8:	e000e7b7          	lui	a5,0xe000e
    23bc:	10e7a023          	sw	a4,256(a5) # e000e100 <_eusrstack+0xc0006100>
SysTick_Config():
E:\Project\tp78_v2\mounriver_project\RF_CH582M\RVMSIS/core_riscv.h:367
    PFIC_EnableIRQ(SysTick_IRQn);
    SysTick->CTLR = SysTick_CTLR_INIT |
    23c0:	02f00613          	li	a2,47
    23c4:	c290                	sw	a2,0(a3)
PFIC_DisableIRQ():
E:\Project\tp78_v2\mounriver_project\RF_CH582M\RVMSIS/core_riscv.h:122
    PFIC->IRER[((uint32_t)(IRQn) >> 5)] = (1 << ((uint32_t)(IRQn)&0x1F));
    23c6:	18e7a023          	sw	a4,384(a5)
E:\Project\tp78_v2\mounriver_project\RF_CH582M\RVMSIS/core_riscv.h:123
    __nop();
    23ca:	0001                	nop
E:\Project\tp78_v2\mounriver_project\RF_CH582M\RVMSIS/core_riscv.h:124
    __nop();
    23cc:	0001                	nop
CH58X_BLEInit():
E:\Project\tp78_v2\mounriver_project\RF_CH582M\obj/../HAL/MCU.c:89
    tmos_memset(&cfg, 0, sizeof(bleConfig_t));
    23ce:	03c00613          	li	a2,60
    23d2:	4581                	li	a1,0
    23d4:	0848                	addi	a0,sp,20
    23d6:	1fffe097          	auipc	ra,0x1fffe
    23da:	4d4080e7          	jalr	1236(ra) # 200008aa <tmos_memset>
E:\Project\tp78_v2\mounriver_project\RF_CH582M\obj/../HAL/MCU.c:90
    cfg.MEMAddr = (uint32_t)MEM_BUF;
    23de:	1ffff797          	auipc	a5,0x1ffff
    23e2:	6fe78793          	addi	a5,a5,1790 # 20001adc <MEM_BUF>
    23e6:	ca3e                	sw	a5,20(sp)
E:\Project\tp78_v2\mounriver_project\RF_CH582M\obj/../HAL/MCU.c:91
    cfg.MEMLen = (uint32_t)BLE_MEMHEAP_SIZE;
    23e8:	6789                	lui	a5,0x2
    23ea:	80078793          	addi	a5,a5,-2048 # 1800 <_einit+0x17fc>
    23ee:	00f11c23          	sh	a5,24(sp)
E:\Project\tp78_v2\mounriver_project\RF_CH582M\obj/../HAL/MCU.c:92
    cfg.BufMaxLen = (uint32_t)BLE_BUFF_MAX_LEN;
    23f2:	47ed                	li	a5,27
    23f4:	02f11223          	sh	a5,36(sp)
E:\Project\tp78_v2\mounriver_project\RF_CH582M\obj/../HAL/MCU.c:93
    cfg.BufNumber = (uint32_t)BLE_BUFF_NUM;
    23f8:	4795                	li	a5,5
    23fa:	02f101a3          	sb	a5,35(sp)
E:\Project\tp78_v2\mounriver_project\RF_CH582M\obj/../HAL/MCU.c:94
    cfg.TxNumEvent = (uint32_t)BLE_TX_NUM_EVENT;
    23fe:	4785                	li	a5,1
    2400:	02f10323          	sb	a5,38(sp)
E:\Project\tp78_v2\mounriver_project\RF_CH582M\obj/../HAL/MCU.c:95
    cfg.TxPower = (uint32_t)BLE_TX_POWER;
    2404:	47b5                	li	a5,13
    2406:	02f10423          	sb	a5,40(sp)
E:\Project\tp78_v2\mounriver_project\RF_CH582M\obj/../HAL/MCU.c:97
    cfg.SNVAddr = (uint32_t)BLE_SNV_ADDR;
    240a:	67a1                	lui	a5,0x8
    240c:	e0078793          	addi	a5,a5,-512 # 7e00 <_data_lma+0x1784>
    2410:	ce3e                	sw	a5,28(sp)
E:\Project\tp78_v2\mounriver_project\RF_CH582M\obj/../HAL/MCU.c:98
    cfg.readFlashCB = Lib_Read_Flash;
    2412:	00000797          	auipc	a5,0x0
    2416:	e3278793          	addi	a5,a5,-462 # 2244 <Lib_Read_Flash>
    241a:	c4be                	sw	a5,72(sp)
E:\Project\tp78_v2\mounriver_project\RF_CH582M\obj/../HAL/MCU.c:99
    cfg.writeFlashCB = Lib_Write_Flash;
    241c:	00000797          	auipc	a5,0x0
    2420:	e4478793          	addi	a5,a5,-444 # 2260 <Lib_Write_Flash>
    2424:	c6be                	sw	a5,76(sp)
E:\Project\tp78_v2\mounriver_project\RF_CH582M\obj/../HAL/MCU.c:102
    cfg.SelRTCClock = (uint32_t)CLK_OSC32K;
    2426:	6785                	lui	a5,0x1
    2428:	d0178793          	addi	a5,a5,-767 # d01 <_einit+0xcfd>
    242c:	02f11523          	sh	a5,42(sp)
E:\Project\tp78_v2\mounriver_project\RF_CH582M\obj/../HAL/MCU.c:105
    cfg.srandCB = SYS_GetSysTickCnt;
    2430:	00000797          	auipc	a5,0x0
    2434:	9da78793          	addi	a5,a5,-1574 # 1e0a <SYS_GetSysTickCnt>
    2438:	da3e                	sw	a5,52(sp)
E:\Project\tp78_v2\mounriver_project\RF_CH582M\obj/../HAL/MCU.c:124
        GetMACAddress(MacAddr);
    243a:	0007f5b7          	lui	a1,0x7f
E:\Project\tp78_v2\mounriver_project\RF_CH582M\obj/../HAL/MCU.c:107
    cfg.tsCB = HAL_GetInterTempValue; // 根据温度变化校准RF和内部RC( 大于7摄氏度 )
    243e:	00000797          	auipc	a5,0x0
    2442:	e6278793          	addi	a5,a5,-414 # 22a0 <HAL_GetInterTempValue>
    2446:	de3e                	sw	a5,60(sp)
E:\Project\tp78_v2\mounriver_project\RF_CH582M\obj/../HAL/MCU.c:124
        GetMACAddress(MacAddr);
    2448:	4681                	li	a3,0
E:\Project\tp78_v2\mounriver_project\RF_CH582M\obj/../HAL/MCU.c:109
    cfg.rcCB = Lib_Calibration_LSI; // 内部32K时钟校准
    244a:	00000797          	auipc	a5,0x0
    244e:	df478793          	addi	a5,a5,-524 # 223e <Lib_Calibration_LSI>
E:\Project\tp78_v2\mounriver_project\RF_CH582M\obj/../HAL/MCU.c:124
        GetMACAddress(MacAddr);
    2452:	0070                	addi	a2,sp,12
    2454:	05e1                	addi	a1,a1,24
    2456:	4519                	li	a0,6
E:\Project\tp78_v2\mounriver_project\RF_CH582M\obj/../HAL/MCU.c:109
    cfg.rcCB = Lib_Calibration_LSI; // 内部32K时钟校准
    2458:	c0be                	sw	a5,64(sp)
E:\Project\tp78_v2\mounriver_project\RF_CH582M\obj/../HAL/MCU.c:124
        GetMACAddress(MacAddr);
    245a:	1fffe097          	auipc	ra,0x1fffe
    245e:	0ae080e7          	jalr	174(ra) # 20000508 <FLASH_EEPROM_CMD>
E:\Project\tp78_v2\mounriver_project\RF_CH582M\obj/../HAL/MCU.c:125
        for(i = 0; i < 6; i++)
    2462:	0858                	addi	a4,sp,20
E:\Project\tp78_v2\mounriver_project\RF_CH582M\obj/../HAL/MCU.c:124
        GetMACAddress(MacAddr);
    2464:	4781                	li	a5,0
E:\Project\tp78_v2\mounriver_project\RF_CH582M\obj/../HAL/MCU.c:125
        for(i = 0; i < 6; i++)
    2466:	4699                	li	a3,6
E:\Project\tp78_v2\mounriver_project\RF_CH582M\obj/../HAL/MCU.c:127 (discriminator 3)
            cfg.MacAddr[i] = MacAddr[i]; // 使用芯片mac地址
    2468:	0070                	addi	a2,sp,12
    246a:	963e                	add	a2,a2,a5
    246c:	00064603          	lbu	a2,0(a2)
    2470:	0785                	addi	a5,a5,1
    2472:	0705                	addi	a4,a4,1
    2474:	00c70ca3          	sb	a2,25(a4) # 1019 <_einit+0x1015>
E:\Project\tp78_v2\mounriver_project\RF_CH582M\obj/../HAL/MCU.c:125 (discriminator 3)
        for(i = 0; i < 6; i++)
    2478:	fed798e3          	bne	a5,a3,2468 <CH58X_BLEInit+0xe0>
E:\Project\tp78_v2\mounriver_project\RF_CH582M\obj/../HAL/MCU.c:131
    if(!cfg.MEMAddr || cfg.MEMLen < 4 * 1024)
    247c:	47d2                	lw	a5,20(sp)
    247e:	c791                	beqz	a5,248a <CH58X_BLEInit+0x102>
E:\Project\tp78_v2\mounriver_project\RF_CH582M\obj/../HAL/MCU.c:131 (discriminator 1)
    2480:	01815703          	lhu	a4,24(sp)
    2484:	6785                	lui	a5,0x1
    2486:	00f77363          	bgeu	a4,a5,248c <CH58X_BLEInit+0x104>
E:\Project\tp78_v2\mounriver_project\RF_CH582M\obj/../HAL/MCU.c:133 (discriminator 2)
        while(1);
    248a:	a001                	j	248a <CH58X_BLEInit+0x102>
E:\Project\tp78_v2\mounriver_project\RF_CH582M\obj/../HAL/MCU.c:135
    i = BLE_LibInit(&cfg);
    248c:	0848                	addi	a0,sp,20
    248e:	76b000ef          	jal	ra,33f8 <BLE_LibInit>
E:\Project\tp78_v2\mounriver_project\RF_CH582M\obj/../HAL/MCU.c:136
    if(i)
    2492:	c111                	beqz	a0,2496 <CH58X_BLEInit+0x10e>
E:\Project\tp78_v2\mounriver_project\RF_CH582M\obj/../HAL/MCU.c:139 (discriminator 3)
        while(1);
    2494:	a001                	j	2494 <CH58X_BLEInit+0x10c>
E:\Project\tp78_v2\mounriver_project\RF_CH582M\obj/../HAL/MCU.c:141
}
    2496:	40f6                	lw	ra,92(sp)
    2498:	6125                	addi	sp,sp,96
    249a:	8082                	ret

0000249c <HAL_Init>:
HAL_Init():
E:\Project\tp78_v2\mounriver_project\RF_CH582M\obj/../HAL/MCU.c:213
{
    249c:	1141                	addi	sp,sp,-16
E:\Project\tp78_v2\mounriver_project\RF_CH582M\obj/../HAL/MCU.c:214
    halTaskID = TMOS_ProcessEventRegister(HAL_ProcessEvent);
    249e:	00000517          	auipc	a0,0x0
    24a2:	e7450513          	addi	a0,a0,-396 # 2312 <HAL_ProcessEvent>
E:\Project\tp78_v2\mounriver_project\RF_CH582M\obj/../HAL/MCU.c:213
{
    24a6:	c606                	sw	ra,12(sp)
    24a8:	c422                	sw	s0,8(sp)
E:\Project\tp78_v2\mounriver_project\RF_CH582M\obj/../HAL/MCU.c:214
    halTaskID = TMOS_ProcessEventRegister(HAL_ProcessEvent);
    24aa:	713000ef          	jal	ra,33bc <TMOS_ProcessEventRegister>
    24ae:	86018413          	addi	s0,gp,-1952 # 20001878 <halTaskID>
    24b2:	00a40023          	sb	a0,0(s0)
E:\Project\tp78_v2\mounriver_project\RF_CH582M\obj/../HAL/MCU.c:215
    HAL_TimeInit();
    24b6:	2831                	jal	24d2 <HAL_TimeInit>
E:\Project\tp78_v2\mounriver_project\RF_CH582M\obj/../HAL/MCU.c:220
    HAL_LedInit();
    24b8:	36d5                	jal	209c <HAL_LedInit>
E:\Project\tp78_v2\mounriver_project\RF_CH582M\obj/../HAL/MCU.c:226
    tmos_start_task(halTaskID, HAL_REG_INIT_EVENT, MS1_TO_SYSTEM_TIME(BLE_CALIBRATION_PERIOD)); // 添加校准任务，单次校准耗时小于10ms
    24ba:	00044503          	lbu	a0,0(s0)
E:\Project\tp78_v2\mounriver_project\RF_CH582M\obj/../HAL/MCU.c:229
}
    24be:	4422                	lw	s0,8(sp)
    24c0:	40b2                	lw	ra,12(sp)
E:\Project\tp78_v2\mounriver_project\RF_CH582M\obj/../HAL/MCU.c:226
    tmos_start_task(halTaskID, HAL_REG_INIT_EVENT, MS1_TO_SYSTEM_TIME(BLE_CALIBRATION_PERIOD)); // 添加校准任务，单次校准耗时小于10ms
    24c2:	0002f637          	lui	a2,0x2f
    24c6:	e0060613          	addi	a2,a2,-512 # 2ee00 <_data_lma+0x28784>
    24ca:	6589                	lui	a1,0x2
E:\Project\tp78_v2\mounriver_project\RF_CH582M\obj/../HAL/MCU.c:229
}
    24cc:	0141                	addi	sp,sp,16
E:\Project\tp78_v2\mounriver_project\RF_CH582M\obj/../HAL/MCU.c:226
    tmos_start_task(halTaskID, HAL_REG_INIT_EVENT, MS1_TO_SYSTEM_TIME(BLE_CALIBRATION_PERIOD)); // 添加校准任务，单次校准耗时小于10ms
    24ce:	4970006f          	j	3164 <tmos_start_task>

000024d2 <HAL_TimeInit>:
HAL_TimeInit():
E:\Project\tp78_v2\mounriver_project\RF_CH582M\obj/../HAL/RTC.c:72
 * @param   None.
 *
 * @return  None.
 */
void HAL_TimeInit(void)
{
    24d2:	1141                	addi	sp,sp,-16
    24d4:	c606                	sw	ra,12(sp)
E:\Project\tp78_v2\mounriver_project\RF_CH582M\obj/../HAL/RTC.c:74
#if(CLK_OSC32K)
    R8_SAFE_ACCESS_SIG = SAFE_ACCESS_SIG1;
    24d6:	400017b7          	lui	a5,0x40001
    24da:	05700713          	li	a4,87
    24de:	04e78023          	sb	a4,64(a5) # 40001040 <_eusrstack+0x1fff9040>
E:\Project\tp78_v2\mounriver_project\RF_CH582M\obj/../HAL/RTC.c:75
    R8_SAFE_ACCESS_SIG = SAFE_ACCESS_SIG2;
    24e2:	fa800713          	li	a4,-88
    24e6:	04e78023          	sb	a4,64(a5)
E:\Project\tp78_v2\mounriver_project\RF_CH582M\obj/../HAL/RTC.c:76
    SAFEOPERATE;
    24ea:	0001                	nop
    24ec:	0001                	nop
E:\Project\tp78_v2\mounriver_project\RF_CH582M\obj/../HAL/RTC.c:77
    R8_CK32K_CONFIG &= ~(RB_CLK_OSC32K_XT | RB_CLK_XT32K_PON);
    24ee:	02f7c703          	lbu	a4,47(a5)
    24f2:	0fa77713          	andi	a4,a4,250
    24f6:	02e787a3          	sb	a4,47(a5)
E:\Project\tp78_v2\mounriver_project\RF_CH582M\obj/../HAL/RTC.c:78
    R8_CK32K_CONFIG |= RB_CLK_INT32K_PON;
    24fa:	02f7c703          	lbu	a4,47(a5)
    24fe:	00276713          	ori	a4,a4,2
    2502:	02e787a3          	sb	a4,47(a5)
E:\Project\tp78_v2\mounriver_project\RF_CH582M\obj/../HAL/RTC.c:79
    R8_SAFE_ACCESS_SIG = 0;
    2506:	04078023          	sb	zero,64(a5)
E:\Project\tp78_v2\mounriver_project\RF_CH582M\obj/../HAL/RTC.c:80
    Lib_Calibration_LSI();
    250a:	3b15                	jal	223e <Lib_Calibration_LSI>
E:\Project\tp78_v2\mounriver_project\RF_CH582M\obj/../HAL/RTC.c:88
    R8_SAFE_ACCESS_SIG = SAFE_ACCESS_SIG2;
    SAFEOPERATE;
    R8_CK32K_CONFIG |= RB_CLK_OSC32K_XT | RB_CLK_INT32K_PON | RB_CLK_XT32K_PON;
    R8_SAFE_ACCESS_SIG = 0;
#endif
    RTC_InitTime(2020, 1, 1, 0, 0, 0); //RTC时钟初始化当前时间
    250c:	7e400513          	li	a0,2020
    2510:	4781                	li	a5,0
    2512:	4701                	li	a4,0
    2514:	4681                	li	a3,0
    2516:	4605                	li	a2,1
    2518:	4585                	li	a1,1
    251a:	e7aff0ef          	jal	ra,1b94 <RTC_InitTime>
E:\Project\tp78_v2\mounriver_project\RF_CH582M\obj/../HAL/RTC.c:90
    TMOS_TimerInit(0);
}
    251e:	40b2                	lw	ra,12(sp)
E:\Project\tp78_v2\mounriver_project\RF_CH582M\obj/../HAL/RTC.c:89
    TMOS_TimerInit(0);
    2520:	4501                	li	a0,0
E:\Project\tp78_v2\mounriver_project\RF_CH582M\obj/../HAL/RTC.c:90
}
    2522:	0141                	addi	sp,sp,16
E:\Project\tp78_v2\mounriver_project\RF_CH582M\obj/../HAL/RTC.c:89
    TMOS_TimerInit(0);
    2524:	1020106f          	j	3626 <TMOS_TimerInit>

00002528 <USB_ProcessEvent>:
USB_ProcessEvent():
E:\Project\tp78_v2\mounriver_project\RF_CH582M\obj/../HAL/USB.c:85
  if ( events & START_USB_EVENT )
    2528:	0085f793          	andi	a5,a1,8
    252c:	cb91                	beqz	a5,2540 <USB_ProcessEvent+0x18>
PFIC_EnableIRQ():
E:\Project\tp78_v2\mounriver_project\RF_CH582M\RVMSIS/core_riscv.h:110
    PFIC->IENR[((uint32_t)(IRQn) >> 5)] = (1 << ((uint32_t)(IRQn)&0x1F));
    252e:	e000e7b7          	lui	a5,0xe000e
    2532:	00400737          	lui	a4,0x400
    2536:	10e7a023          	sw	a4,256(a5) # e000e100 <_eusrstack+0xc0006100>
USB_ProcessEvent():
E:\Project\tp78_v2\mounriver_project\RF_CH582M\obj/../HAL/USB.c:88
    return events ^ START_USB_EVENT;
    253a:	0085c513          	xori	a0,a1,8
E:\Project\tp78_v2\mounriver_project\RF_CH582M\obj/../HAL/USB.c:123
}
    253e:	8082                	ret
E:\Project\tp78_v2\mounriver_project\RF_CH582M\obj/../HAL/USB.c:84
{
    2540:	1141                	addi	sp,sp,-16
    2542:	c422                	sw	s0,8(sp)
    2544:	c606                	sw	ra,12(sp)
E:\Project\tp78_v2\mounriver_project\RF_CH582M\obj/../HAL/USB.c:91
  if ( events & USB_MOUSE_EVENT )
    2546:	0015f793          	andi	a5,a1,1
    254a:	842e                	mv	s0,a1
    254c:	c39d                	beqz	a5,2572 <USB_ProcessEvent+0x4a>
E:\Project\tp78_v2\mounriver_project\RF_CH582M\obj/../HAL/USB.c:93
    memcpy(pEP2_IN_DataBuf, &HID_dat.Mouse[0], 4);
    254e:	85018793          	addi	a5,gp,-1968 # 20001868 <pEP2_RAM_Addr>
    2552:	4388                	lw	a0,0(a5)
    2554:	4611                	li	a2,4
    2556:	9b518593          	addi	a1,gp,-1611 # 200019cd <HID_dat+0x1>
    255a:	04050513          	addi	a0,a0,64
    255e:	6a5030ef          	jal	ra,6402 <memcpy>
E:\Project\tp78_v2\mounriver_project\RF_CH582M\obj/../HAL/USB.c:94
    DevEP2_IN_Deal( 4 );
    2562:	4511                	li	a0,4
    2564:	3aa1                	jal	1ebc <DevEP2_IN_Deal>
E:\Project\tp78_v2\mounriver_project\RF_CH582M\obj/../HAL/USB.c:95
    return events ^ USB_MOUSE_EVENT;
    2566:	00144513          	xori	a0,s0,1
E:\Project\tp78_v2\mounriver_project\RF_CH582M\obj/../HAL/USB.c:123
}
    256a:	40b2                	lw	ra,12(sp)
    256c:	4422                	lw	s0,8(sp)
    256e:	0141                	addi	sp,sp,16
    2570:	8082                	ret
E:\Project\tp78_v2\mounriver_project\RF_CH582M\obj/../HAL/USB.c:98
  if ( events & USB_KEYBOARD_EVENT )
    2572:	0025f793          	andi	a5,a1,2
    2576:	c385                	beqz	a5,2596 <USB_ProcessEvent+0x6e>
E:\Project\tp78_v2\mounriver_project\RF_CH582M\obj/../HAL/USB.c:100
    memcpy(pEP1_IN_DataBuf, &HID_dat.Keyboard[0], 8);
    2578:	85c18793          	addi	a5,gp,-1956 # 20001874 <pEP1_RAM_Addr>
    257c:	4388                	lw	a0,0(a5)
    257e:	4621                	li	a2,8
    2580:	9b518593          	addi	a1,gp,-1611 # 200019cd <HID_dat+0x1>
    2584:	04050513          	addi	a0,a0,64
    2588:	67b030ef          	jal	ra,6402 <memcpy>
E:\Project\tp78_v2\mounriver_project\RF_CH582M\obj/../HAL/USB.c:101
    DevEP1_IN_Deal( 8 );
    258c:	4521                	li	a0,8
    258e:	3a21                	jal	1ea6 <DevEP1_IN_Deal>
E:\Project\tp78_v2\mounriver_project\RF_CH582M\obj/../HAL/USB.c:102
    return events ^ USB_KEYBOARD_EVENT;
    2590:	00244513          	xori	a0,s0,2
    2594:	bfd9                	j	256a <USB_ProcessEvent+0x42>
E:\Project\tp78_v2\mounriver_project\RF_CH582M\obj/../HAL/USB.c:105
  if ( events & USB_VOL_EVENT )
    2596:	0045f793          	andi	a5,a1,4
    259a:	cf99                	beqz	a5,25b8 <USB_ProcessEvent+0x90>
E:\Project\tp78_v2\mounriver_project\RF_CH582M\obj/../HAL/USB.c:107
    memcpy(pEP3_IN_DataBuf, &HID_dat.Volume[0], 1);
    259c:	85418793          	addi	a5,gp,-1964 # 2000186c <pEP3_RAM_Addr>
    25a0:	9b418713          	addi	a4,gp,-1612 # 200019cc <HID_dat>
    25a4:	439c                	lw	a5,0(a5)
    25a6:	00174703          	lbu	a4,1(a4) # 400001 <_data_lma+0x3f9985>
E:\Project\tp78_v2\mounriver_project\RF_CH582M\obj/../HAL/USB.c:108
    DevEP3_IN_Deal( 1 );
    25aa:	4505                	li	a0,1
E:\Project\tp78_v2\mounriver_project\RF_CH582M\obj/../HAL/USB.c:107
    memcpy(pEP3_IN_DataBuf, &HID_dat.Volume[0], 1);
    25ac:	04e78023          	sb	a4,64(a5)
E:\Project\tp78_v2\mounriver_project\RF_CH582M\obj/../HAL/USB.c:108
    DevEP3_IN_Deal( 1 );
    25b0:	320d                	jal	1ed2 <DevEP3_IN_Deal>
E:\Project\tp78_v2\mounriver_project\RF_CH582M\obj/../HAL/USB.c:109
    return events ^ USB_VOL_EVENT;
    25b2:	00444513          	xori	a0,s0,4
    25b6:	bf55                	j	256a <USB_ProcessEvent+0x42>
E:\Project\tp78_v2\mounriver_project\RF_CH582M\obj/../HAL/USB.c:112
  if ( events & USB_TEST_EVENT )
    25b8:	01359793          	slli	a5,a1,0x13
E:\Project\tp78_v2\mounriver_project\RF_CH582M\obj/../HAL/USB.c:122
  return 0;
    25bc:	4501                	li	a0,0
E:\Project\tp78_v2\mounriver_project\RF_CH582M\obj/../HAL/USB.c:112
  if ( events & USB_TEST_EVENT )
    25be:	fa07d6e3          	bgez	a5,256a <USB_ProcessEvent+0x42>
E:\Project\tp78_v2\mounriver_project\RF_CH582M\obj/../HAL/USB.c:114
    HID_dat.Mouse[1] = 2;
    25c2:	4789                	li	a5,2
    25c4:	9af18b23          	sb	a5,-1610(gp) # 200019ce <HID_dat+0x2>
E:\Project\tp78_v2\mounriver_project\RF_CH582M\obj/../HAL/USB.c:115
    HID_dat.Mouse[2] = 2;
    25c8:	9af18ba3          	sb	a5,-1609(gp) # 200019cf <HID_dat+0x3>
E:\Project\tp78_v2\mounriver_project\RF_CH582M\obj/../HAL/USB.c:116
    memcpy(pEP2_IN_DataBuf, &HID_dat.Mouse[0], 4);
    25cc:	85018793          	addi	a5,gp,-1968 # 20001868 <pEP2_RAM_Addr>
    25d0:	4388                	lw	a0,0(a5)
    25d2:	4611                	li	a2,4
    25d4:	9b518593          	addi	a1,gp,-1611 # 200019cd <HID_dat+0x1>
    25d8:	04050513          	addi	a0,a0,64
    25dc:	627030ef          	jal	ra,6402 <memcpy>
E:\Project\tp78_v2\mounriver_project\RF_CH582M\obj/../HAL/USB.c:117
    DevEP2_IN_Deal( 4 );
    25e0:	4511                	li	a0,4
    25e2:	8dbff0ef          	jal	ra,1ebc <DevEP2_IN_Deal>
E:\Project\tp78_v2\mounriver_project\RF_CH582M\obj/../HAL/USB.c:118
    tmos_start_task(usbTaskID, USB_TEST_EVENT, MS1_TO_SYSTEM_TIME(500));
    25e6:	6585                	lui	a1,0x1
    25e8:	32000613          	li	a2,800
    25ec:	1ffff517          	auipc	a0,0x1ffff
    25f0:	22c54503          	lbu	a0,556(a0) # 20001818 <usbTaskID>
    25f4:	371000ef          	jal	ra,3164 <tmos_start_task>
E:\Project\tp78_v2\mounriver_project\RF_CH582M\obj/../HAL/USB.c:119
    return events ^ USB_TEST_EVENT;
    25f8:	6585                	lui	a1,0x1
    25fa:	00b44533          	xor	a0,s0,a1
    25fe:	b7b5                	j	256a <USB_ProcessEvent+0x42>

00002600 <HAL_USBInit>:
HAL_USBInit():
E:\Project\tp78_v2\mounriver_project\RF_CH582M\obj/../HAL/USB.c:132
{
    2600:	1141                	addi	sp,sp,-16
E:\Project\tp78_v2\mounriver_project\RF_CH582M\obj/../HAL/USB.c:133
  usbTaskID = TMOS_ProcessEventRegister( USB_ProcessEvent );
    2602:	00000517          	auipc	a0,0x0
    2606:	f2650513          	addi	a0,a0,-218 # 2528 <USB_ProcessEvent>
E:\Project\tp78_v2\mounriver_project\RF_CH582M\obj/../HAL/USB.c:132
{
    260a:	c606                	sw	ra,12(sp)
    260c:	c422                	sw	s0,8(sp)
E:\Project\tp78_v2\mounriver_project\RF_CH582M\obj/../HAL/USB.c:133
  usbTaskID = TMOS_ProcessEventRegister( USB_ProcessEvent );
    260e:	5af000ef          	jal	ra,33bc <TMOS_ProcessEventRegister>
E:\Project\tp78_v2\mounriver_project\RF_CH582M\obj/../HAL/USB.c:134
  pEP0_RAM_Addr = EP0_Databuf;
    2612:	1ffff797          	auipc	a5,0x1ffff
    2616:	27a78793          	addi	a5,a5,634 # 2000188c <EP0_Databuf>
    261a:	84f1ac23          	sw	a5,-1960(gp) # 20001870 <pEP0_RAM_Addr>
E:\Project\tp78_v2\mounriver_project\RF_CH582M\obj/../HAL/USB.c:135
  pEP1_RAM_Addr = EP1_Databuf;
    261e:	93418793          	addi	a5,gp,-1740 # 2000194c <EP1_Databuf>
    2622:	84f1ae23          	sw	a5,-1956(gp) # 20001874 <pEP1_RAM_Addr>
E:\Project\tp78_v2\mounriver_project\RF_CH582M\obj/../HAL/USB.c:136
  pEP2_RAM_Addr = EP2_Databuf;
    2626:	9c018793          	addi	a5,gp,-1600 # 200019d8 <EP2_Databuf>
E:\Project\tp78_v2\mounriver_project\RF_CH582M\obj/../HAL/USB.c:133
  usbTaskID = TMOS_ProcessEventRegister( USB_ProcessEvent );
    262a:	1ffff417          	auipc	s0,0x1ffff
    262e:	1ee40413          	addi	s0,s0,494 # 20001818 <usbTaskID>
E:\Project\tp78_v2\mounriver_project\RF_CH582M\obj/../HAL/USB.c:136
  pEP2_RAM_Addr = EP2_Databuf;
    2632:	84f1a823          	sw	a5,-1968(gp) # 20001868 <pEP2_RAM_Addr>
E:\Project\tp78_v2\mounriver_project\RF_CH582M\obj/../HAL/USB.c:137
  pEP3_RAM_Addr = EP3_Databuf;
    2636:	a4018793          	addi	a5,gp,-1472 # 20001a58 <EP3_Databuf>
E:\Project\tp78_v2\mounriver_project\RF_CH582M\obj/../HAL/USB.c:133
  usbTaskID = TMOS_ProcessEventRegister( USB_ProcessEvent );
    263a:	00a40023          	sb	a0,0(s0)
E:\Project\tp78_v2\mounriver_project\RF_CH582M\obj/../HAL/USB.c:137
  pEP3_RAM_Addr = EP3_Databuf;
    263e:	84f1aa23          	sw	a5,-1964(gp) # 2000186c <pEP3_RAM_Addr>
E:\Project\tp78_v2\mounriver_project\RF_CH582M\obj/../HAL/USB.c:138
  USB_DeviceInit();
    2642:	fe6ff0ef          	jal	ra,1e28 <USB_DeviceInit>
E:\Project\tp78_v2\mounriver_project\RF_CH582M\obj/../HAL/USB.c:139
  tmos_start_task( usbTaskID, START_USB_EVENT, 0 );
    2646:	00044503          	lbu	a0,0(s0)
E:\Project\tp78_v2\mounriver_project\RF_CH582M\obj/../HAL/USB.c:140
}
    264a:	4422                	lw	s0,8(sp)
    264c:	40b2                	lw	ra,12(sp)
E:\Project\tp78_v2\mounriver_project\RF_CH582M\obj/../HAL/USB.c:139
  tmos_start_task( usbTaskID, START_USB_EVENT, 0 );
    264e:	4601                	li	a2,0
    2650:	45a1                	li	a1,8
E:\Project\tp78_v2\mounriver_project\RF_CH582M\obj/../HAL/USB.c:140
}
    2652:	0141                	addi	sp,sp,16
E:\Project\tp78_v2\mounriver_project\RF_CH582M\obj/../HAL/USB.c:139
  tmos_start_task( usbTaskID, START_USB_EVENT, 0 );
    2654:	3110006f          	j	3164 <tmos_start_task>

00002658 <DevEP1_OUT_Deal>:
DevEP1_OUT_Deal():
E:\Project\tp78_v2\mounriver_project\RF_CH582M\obj/../HAL/USB.c:492
  for ( i = 0; i < l; i++ )
    2658:	4781                	li	a5,0
E:\Project\tp78_v2\mounriver_project\RF_CH582M\obj/../HAL/USB.c:494
    pEP1_IN_DataBuf[i] = ~pEP1_OUT_DataBuf[i];
    265a:	85c18613          	addi	a2,gp,-1956 # 20001874 <pEP1_RAM_Addr>
E:\Project\tp78_v2\mounriver_project\RF_CH582M\obj/../HAL/USB.c:492 (discriminator 1)
  for ( i = 0; i < l; i++ )
    265e:	0ff7f713          	andi	a4,a5,255
    2662:	00a76463          	bltu	a4,a0,266a <DevEP1_OUT_Deal+0x12>
E:\Project\tp78_v2\mounriver_project\RF_CH582M\obj/../HAL/USB.c:496
  DevEP1_IN_Deal( l );
    2666:	841ff06f          	j	1ea6 <DevEP1_IN_Deal>
E:\Project\tp78_v2\mounriver_project\RF_CH582M\obj/../HAL/USB.c:494 (discriminator 3)
    pEP1_IN_DataBuf[i] = ~pEP1_OUT_DataBuf[i];
    266a:	4218                	lw	a4,0(a2)
    266c:	973e                	add	a4,a4,a5
    266e:	00074683          	lbu	a3,0(a4)
    2672:	0785                	addi	a5,a5,1
    2674:	fff6c693          	not	a3,a3
    2678:	04d70023          	sb	a3,64(a4)
    267c:	b7cd                	j	265e <DevEP1_OUT_Deal+0x6>

0000267e <DevEP2_OUT_Deal>:
DevEP2_OUT_Deal():
E:\Project\tp78_v2\mounriver_project\RF_CH582M\obj/../HAL/USB.c:509
  for ( i = 0; i < l; i++ )
    267e:	4781                	li	a5,0
E:\Project\tp78_v2\mounriver_project\RF_CH582M\obj/../HAL/USB.c:511
    pEP2_IN_DataBuf[i] = ~pEP2_OUT_DataBuf[i];
    2680:	85018613          	addi	a2,gp,-1968 # 20001868 <pEP2_RAM_Addr>
E:\Project\tp78_v2\mounriver_project\RF_CH582M\obj/../HAL/USB.c:509 (discriminator 1)
  for ( i = 0; i < l; i++ )
    2684:	0ff7f713          	andi	a4,a5,255
    2688:	00a76463          	bltu	a4,a0,2690 <DevEP2_OUT_Deal+0x12>
E:\Project\tp78_v2\mounriver_project\RF_CH582M\obj/../HAL/USB.c:513
  DevEP2_IN_Deal( l );
    268c:	831ff06f          	j	1ebc <DevEP2_IN_Deal>
E:\Project\tp78_v2\mounriver_project\RF_CH582M\obj/../HAL/USB.c:511 (discriminator 3)
    pEP2_IN_DataBuf[i] = ~pEP2_OUT_DataBuf[i];
    2690:	4218                	lw	a4,0(a2)
    2692:	973e                	add	a4,a4,a5
    2694:	00074683          	lbu	a3,0(a4)
    2698:	0785                	addi	a5,a5,1
    269a:	fff6c693          	not	a3,a3
    269e:	04d70023          	sb	a3,64(a4)
    26a2:	b7cd                	j	2684 <DevEP2_OUT_Deal+0x6>

000026a4 <DevEP3_OUT_Deal>:
DevEP3_OUT_Deal():
E:\Project\tp78_v2\mounriver_project\RF_CH582M\obj/../HAL/USB.c:526
  for ( i = 0; i < l; i++ )
    26a4:	4781                	li	a5,0
E:\Project\tp78_v2\mounriver_project\RF_CH582M\obj/../HAL/USB.c:528
    pEP3_IN_DataBuf[i] = ~pEP3_OUT_DataBuf[i];
    26a6:	85418613          	addi	a2,gp,-1964 # 2000186c <pEP3_RAM_Addr>
E:\Project\tp78_v2\mounriver_project\RF_CH582M\obj/../HAL/USB.c:526 (discriminator 1)
  for ( i = 0; i < l; i++ )
    26aa:	0ff7f713          	andi	a4,a5,255
    26ae:	00a76463          	bltu	a4,a0,26b6 <DevEP3_OUT_Deal+0x12>
E:\Project\tp78_v2\mounriver_project\RF_CH582M\obj/../HAL/USB.c:530
  DevEP3_IN_Deal( l );
    26b2:	821ff06f          	j	1ed2 <DevEP3_IN_Deal>
E:\Project\tp78_v2\mounriver_project\RF_CH582M\obj/../HAL/USB.c:528 (discriminator 3)
    pEP3_IN_DataBuf[i] = ~pEP3_OUT_DataBuf[i];
    26b6:	4218                	lw	a4,0(a2)
    26b8:	973e                	add	a4,a4,a5
    26ba:	00074683          	lbu	a3,0(a4)
    26be:	0785                	addi	a5,a5,1
    26c0:	fff6c693          	not	a3,a3
    26c4:	04d70023          	sb	a3,64(a4)
    26c8:	b7cd                	j	26aa <DevEP3_OUT_Deal+0x6>

000026ca <DevEP4_OUT_Deal>:
DevEP4_OUT_Deal():
E:\Project\tp78_v2\mounriver_project\RF_CH582M\obj/../HAL/USB.c:543
  for ( i = 0; i < l; i++ )
    26ca:	4781                	li	a5,0
E:\Project\tp78_v2\mounriver_project\RF_CH582M\obj/../HAL/USB.c:545
    pEP4_IN_DataBuf[i] = ~pEP4_OUT_DataBuf[i];
    26cc:	85818613          	addi	a2,gp,-1960 # 20001870 <pEP0_RAM_Addr>
E:\Project\tp78_v2\mounriver_project\RF_CH582M\obj/../HAL/USB.c:543 (discriminator 1)
  for ( i = 0; i < l; i++ )
    26d0:	0ff7f713          	andi	a4,a5,255
    26d4:	00a76463          	bltu	a4,a0,26dc <DevEP4_OUT_Deal+0x12>
E:\Project\tp78_v2\mounriver_project\RF_CH582M\obj/../HAL/USB.c:547
  DevEP4_IN_Deal( l );
    26d8:	811ff06f          	j	1ee8 <DevEP4_IN_Deal>
E:\Project\tp78_v2\mounriver_project\RF_CH582M\obj/../HAL/USB.c:545 (discriminator 3)
    pEP4_IN_DataBuf[i] = ~pEP4_OUT_DataBuf[i];
    26dc:	4218                	lw	a4,0(a2)
    26de:	973e                	add	a4,a4,a5
    26e0:	04074683          	lbu	a3,64(a4)
    26e4:	0785                	addi	a5,a5,1
    26e6:	fff6c693          	not	a3,a3
    26ea:	08d70023          	sb	a3,128(a4)
    26ee:	b7cd                	j	26d0 <DevEP4_OUT_Deal+0x6>

000026f0 <USB_DevTransProcess>:
USB_DevTransProcess():
E:\Project\tp78_v2\mounriver_project\RF_CH582M\obj/../HAL/USB.c:153
  intflag = R8_USB_INT_FG;
    26f0:	400087b7          	lui	a5,0x40008
    26f4:	0067c703          	lbu	a4,6(a5) # 40008006 <_eusrstack+0x20000006>
    26f8:	0ff77713          	andi	a4,a4,255
E:\Project\tp78_v2\mounriver_project\RF_CH582M\obj/../HAL/USB.c:154
  if ( intflag & RB_UIF_TRANSFER )
    26fc:	00277693          	andi	a3,a4,2
    2700:	4a068163          	beqz	a3,2ba2 <USB_DevTransProcess+0x4b2>
E:\Project\tp78_v2\mounriver_project\RF_CH582M\obj/../HAL/USB.c:149
{
    2704:	1101                	addi	sp,sp,-32
    2706:	ce06                	sw	ra,28(sp)
    2708:	cc22                	sw	s0,24(sp)
    270a:	ca26                	sw	s1,20(sp)
    270c:	c84a                	sw	s2,16(sp)
    270e:	c64e                	sw	s3,12(sp)
E:\Project\tp78_v2\mounriver_project\RF_CH582M\obj/../HAL/USB.c:156
    if ( ( R8_USB_INT_ST & MASK_UIS_TOKEN ) != MASK_UIS_TOKEN )    // 非空闲
    2710:	0077c703          	lbu	a4,7(a5)
    2714:	03000693          	li	a3,48
    2718:	03077713          	andi	a4,a4,48
    271c:	02d70b63          	beq	a4,a3,2752 <USB_DevTransProcess+0x62>
E:\Project\tp78_v2\mounriver_project\RF_CH582M\obj/../HAL/USB.c:158
      switch ( R8_USB_INT_ST & ( MASK_UIS_TOKEN | MASK_UIS_ENDP ) )
    2720:	0077c703          	lbu	a4,7(a5)
    2724:	4691                	li	a3,4
    2726:	03f77713          	andi	a4,a4,63
    272a:	22d70463          	beq	a4,a3,2952 <USB_DevTransProcess+0x262>
    272e:	0ae6e463          	bltu	a3,a4,27d6 <USB_DevTransProcess+0xe6>
    2732:	4685                	li	a3,1
    2734:	1ad70f63          	beq	a4,a3,28f2 <USB_DevTransProcess+0x202>
    2738:	18070163          	beqz	a4,28ba <USB_DevTransProcess+0x1ca>
    273c:	4689                	li	a3,2
    273e:	1cd70463          	beq	a4,a3,2906 <USB_DevTransProcess+0x216>
    2742:	468d                	li	a3,3
    2744:	1ed70463          	beq	a4,a3,292c <USB_DevTransProcess+0x23c>
E:\Project\tp78_v2\mounriver_project\RF_CH582M\obj/../HAL/USB.c:267
      R8_USB_INT_FG = RB_UIF_TRANSFER;
    2748:	400087b7          	lui	a5,0x40008
    274c:	4709                	li	a4,2
    274e:	00e78323          	sb	a4,6(a5) # 40008006 <_eusrstack+0x20000006>
E:\Project\tp78_v2\mounriver_project\RF_CH582M\obj/../HAL/USB.c:269
    if ( R8_USB_INT_ST & RB_UIS_SETUP_ACT )                  // Setup包处理
    2752:	40008737          	lui	a4,0x40008
    2756:	00774783          	lbu	a5,7(a4) # 40008007 <_eusrstack+0x20000007>
    275a:	07e2                	slli	a5,a5,0x18
    275c:	87e1                	srai	a5,a5,0x18
    275e:	2e07d463          	bgez	a5,2a46 <USB_DevTransProcess+0x356>
E:\Project\tp78_v2\mounriver_project\RF_CH582M\obj/../HAL/USB.c:271
      R8_UEP0_CTRL = RB_UEP_R_TOG | RB_UEP_T_TOG | UEP_R_RES_ACK | UEP_T_RES_NAK;
    2762:	fc200793          	li	a5,-62
    2766:	02f70123          	sb	a5,34(a4)
E:\Project\tp78_v2\mounriver_project\RF_CH582M\obj/../HAL/USB.c:272
      SetupReqLen = pSetupReqPak->wLength;
    276a:	85818693          	addi	a3,gp,-1960 # 20001870 <pEP0_RAM_Addr>
    276e:	4288                	lw	a0,0(a3)
    2770:	00754703          	lbu	a4,7(a0)
    2774:	00654783          	lbu	a5,6(a0)
    2778:	0722                	slli	a4,a4,0x8
    277a:	8f5d                	or	a4,a4,a5
    277c:	86e19523          	sh	a4,-1942(gp) # 20001882 <SetupReqLen>
E:\Project\tp78_v2\mounriver_project\RF_CH582M\obj/../HAL/USB.c:273
      SetupReqCode = pSetupReqPak->bRequest;
    2780:	00154783          	lbu	a5,1(a0)
    2784:	86f18623          	sb	a5,-1940(gp) # 20001884 <SetupReqCode>
E:\Project\tp78_v2\mounriver_project\RF_CH582M\obj/../HAL/USB.c:274
      chtype = pSetupReqPak->bRequestType;
    2788:	00054903          	lbu	s2,0(a0)
E:\Project\tp78_v2\mounriver_project\RF_CH582M\obj/../HAL/USB.c:278
      if ( ( pSetupReqPak->bRequestType & USB_REQ_TYP_MASK ) != USB_REQ_TYP_STANDARD )
    278c:	06097613          	andi	a2,s2,96
    2790:	1e060163          	beqz	a2,2972 <USB_DevTransProcess+0x282>
E:\Project\tp78_v2\mounriver_project\RF_CH582M\obj/../HAL/USB.c:280
        switch ( SetupReqCode )
    2794:	17dd                	addi	a5,a5,-9
    2796:	4705                	li	a4,1
    2798:	28f76c63          	bltu	a4,a5,2a30 <USB_DevTransProcess+0x340>
E:\Project\tp78_v2\mounriver_project\RF_CH582M\obj/../HAL/USB.c:440
        if ( chtype & 0x80 )     // 上传
    279c:	0962                	slli	s2,s2,0x18
    279e:	41895913          	srai	s2,s2,0x18
E:\Project\tp78_v2\mounriver_project\RF_CH582M\obj/../HAL/USB.c:447
          len = 0;        // 下传
    27a2:	4681                	li	a3,0
E:\Project\tp78_v2\mounriver_project\RF_CH582M\obj/../HAL/USB.c:440
        if ( chtype & 0x80 )     // 上传
    27a4:	02095263          	bgez	s2,27c8 <USB_DevTransProcess+0xd8>
E:\Project\tp78_v2\mounriver_project\RF_CH582M\obj/../HAL/USB.c:443
              DevEP0SIZE : SetupReqLen;
    27a8:	86a1d783          	lhu	a5,-1942(gp) # 20001882 <SetupReqLen>
    27ac:	04000693          	li	a3,64
    27b0:	873e                	mv	a4,a5
    27b2:	00f6f463          	bgeu	a3,a5,27ba <USB_DevTransProcess+0xca>
    27b6:	04000713          	li	a4,64
    27ba:	0742                	slli	a4,a4,0x10
    27bc:	8341                	srli	a4,a4,0x10
E:\Project\tp78_v2\mounriver_project\RF_CH582M\obj/../HAL/USB.c:444
          SetupReqLen -= len;
    27be:	8f99                	sub	a5,a5,a4
E:\Project\tp78_v2\mounriver_project\RF_CH582M\obj/../HAL/USB.c:442
          len = ( SetupReqLen > DevEP0SIZE ) ?
    27c0:	0ff77693          	andi	a3,a4,255
E:\Project\tp78_v2\mounriver_project\RF_CH582M\obj/../HAL/USB.c:444
          SetupReqLen -= len;
    27c4:	86f19523          	sh	a5,-1942(gp) # 20001882 <SetupReqLen>
E:\Project\tp78_v2\mounriver_project\RF_CH582M\obj/../HAL/USB.c:448
        R8_UEP0_T_LEN = len;
    27c8:	400087b7          	lui	a5,0x40008
    27cc:	02d78023          	sb	a3,32(a5) # 40008020 <_eusrstack+0x20000020>
E:\Project\tp78_v2\mounriver_project\RF_CH582M\obj/../HAL/USB.c:449
        R8_UEP0_CTRL = RB_UEP_R_TOG | RB_UEP_T_TOG | UEP_R_RES_ACK | UEP_T_RES_ACK;    // 默认数据包是DATA1
    27d0:	fc000713          	li	a4,-64
    27d4:	a495                	j	2a38 <USB_DevTransProcess+0x348>
    27d6:	02200693          	li	a3,34
    27da:	14d70063          	beq	a4,a3,291a <USB_DevTransProcess+0x22a>
    27de:	02e6e363          	bltu	a3,a4,2804 <USB_DevTransProcess+0x114>
    27e2:	02000693          	li	a3,32
    27e6:	04d70663          	beq	a4,a3,2832 <USB_DevTransProcess+0x142>
    27ea:	02100693          	li	a3,33
    27ee:	f4d71de3          	bne	a4,a3,2748 <USB_DevTransProcess+0x58>
E:\Project\tp78_v2\mounriver_project\RF_CH582M\obj/../HAL/USB.c:217
          R8_UEP1_CTRL = ( R8_UEP1_CTRL & ~MASK_UEP_T_RES ) | UEP_T_RES_NAK;
    27f2:	0267c703          	lbu	a4,38(a5)
    27f6:	0fc77713          	andi	a4,a4,252
    27fa:	00276713          	ori	a4,a4,2
    27fe:	02e78323          	sb	a4,38(a5)
E:\Project\tp78_v2\mounriver_project\RF_CH582M\obj/../HAL/USB.c:218
          break;
    2802:	b799                	j	2748 <USB_DevTransProcess+0x58>
    2804:	02300693          	li	a3,35
    2808:	12d70c63          	beq	a4,a3,2940 <USB_DevTransProcess+0x250>
    280c:	02400693          	li	a3,36
    2810:	f2d71ce3          	bne	a4,a3,2748 <USB_DevTransProcess+0x58>
E:\Project\tp78_v2\mounriver_project\RF_CH582M\obj/../HAL/USB.c:260
          R8_UEP4_CTRL ^= RB_UEP_T_TOG;
    2814:	0327c703          	lbu	a4,50(a5)
    2818:	04074713          	xori	a4,a4,64
    281c:	02e78923          	sb	a4,50(a5)
E:\Project\tp78_v2\mounriver_project\RF_CH582M\obj/../HAL/USB.c:261
          R8_UEP4_CTRL = ( R8_UEP4_CTRL & ~MASK_UEP_T_RES ) | UEP_T_RES_NAK;
    2820:	0327c703          	lbu	a4,50(a5)
    2824:	0fc77713          	andi	a4,a4,252
    2828:	00276713          	ori	a4,a4,2
    282c:	02e78923          	sb	a4,50(a5)
E:\Project\tp78_v2\mounriver_project\RF_CH582M\obj/../HAL/USB.c:262
          break;
    2830:	bf21                	j	2748 <USB_DevTransProcess+0x58>
E:\Project\tp78_v2\mounriver_project\RF_CH582M\obj/../HAL/USB.c:163
          switch ( SetupReqCode )
    2832:	86c1c703          	lbu	a4,-1940(gp) # 20001884 <SetupReqCode>
    2836:	4695                	li	a3,5
    2838:	06d70363          	beq	a4,a3,289e <USB_DevTransProcess+0x1ae>
    283c:	4699                	li	a3,6
    283e:	06d71b63          	bne	a4,a3,28b4 <USB_DevTransProcess+0x1c4>
E:\Project\tp78_v2\mounriver_project\RF_CH582M\obj/../HAL/USB.c:167
                  DevEP0SIZE : SetupReqLen;    // 本次传输长度
    2842:	86a18793          	addi	a5,gp,-1942 # 20001882 <SetupReqLen>
    2846:	0007d403          	lhu	s0,0(a5)
    284a:	04000713          	li	a4,64
    284e:	84be                	mv	s1,a5
    2850:	00877463          	bgeu	a4,s0,2858 <USB_DevTransProcess+0x168>
    2854:	04000413          	li	s0,64
E:\Project\tp78_v2\mounriver_project\RF_CH582M\obj/../HAL/USB.c:168
              memcpy( pEP0_DataBuf, pDescr, len ); /* 加载上传数据 */
    2858:	85818793          	addi	a5,gp,-1960 # 20001870 <pEP0_RAM_Addr>
    285c:	87018913          	addi	s2,gp,-1936 # 20001888 <pDescr>
    2860:	4388                	lw	a0,0(a5)
E:\Project\tp78_v2\mounriver_project\RF_CH582M\obj/../HAL/USB.c:167
                  DevEP0SIZE : SetupReqLen;    // 本次传输长度
    2862:	0442                	slli	s0,s0,0x10
E:\Project\tp78_v2\mounriver_project\RF_CH582M\obj/../HAL/USB.c:168
              memcpy( pEP0_DataBuf, pDescr, len ); /* 加载上传数据 */
    2864:	00092583          	lw	a1,0(s2)
E:\Project\tp78_v2\mounriver_project\RF_CH582M\obj/../HAL/USB.c:167
                  DevEP0SIZE : SetupReqLen;    // 本次传输长度
    2868:	8041                	srli	s0,s0,0x10
E:\Project\tp78_v2\mounriver_project\RF_CH582M\obj/../HAL/USB.c:168
              memcpy( pEP0_DataBuf, pDescr, len ); /* 加载上传数据 */
    286a:	8622                	mv	a2,s0
    286c:	397030ef          	jal	ra,6402 <memcpy>
E:\Project\tp78_v2\mounriver_project\RF_CH582M\obj/../HAL/USB.c:169
              SetupReqLen -= len;
    2870:	0004d783          	lhu	a5,0(s1)
E:\Project\tp78_v2\mounriver_project\RF_CH582M\obj/../HAL/USB.c:166
              len = SetupReqLen >= DevEP0SIZE ?
    2874:	0ff47993          	andi	s3,s0,255
E:\Project\tp78_v2\mounriver_project\RF_CH582M\obj/../HAL/USB.c:169
              SetupReqLen -= len;
    2878:	8f81                	sub	a5,a5,s0
    287a:	86f19523          	sh	a5,-1942(gp) # 20001882 <SetupReqLen>
E:\Project\tp78_v2\mounriver_project\RF_CH582M\obj/../HAL/USB.c:170
              pDescr += len;
    287e:	00092783          	lw	a5,0(s2)
    2882:	943e                	add	s0,s0,a5
    2884:	8681a823          	sw	s0,-1936(gp) # 20001888 <pDescr>
E:\Project\tp78_v2\mounriver_project\RF_CH582M\obj/../HAL/USB.c:171
              R8_UEP0_T_LEN = len;
    2888:	400087b7          	lui	a5,0x40008
    288c:	03378023          	sb	s3,32(a5) # 40008020 <_eusrstack+0x20000020>
E:\Project\tp78_v2\mounriver_project\RF_CH582M\obj/../HAL/USB.c:172
              R8_UEP0_CTRL ^= RB_UEP_T_TOG;                             // 翻转
    2890:	0227c703          	lbu	a4,34(a5)
    2894:	04074713          	xori	a4,a4,64
E:\Project\tp78_v2\mounriver_project\RF_CH582M\obj/../HAL/USB.c:176
              R8_UEP0_CTRL = UEP_R_RES_ACK | UEP_T_RES_NAK;
    2898:	02e78123          	sb	a4,34(a5)
E:\Project\tp78_v2\mounriver_project\RF_CH582M\obj/../HAL/USB.c:177
              break;
    289c:	b575                	j	2748 <USB_DevTransProcess+0x58>
E:\Project\tp78_v2\mounriver_project\RF_CH582M\obj/../HAL/USB.c:175
              R8_USB_DEV_AD = ( R8_USB_DEV_AD & RB_UDA_GP_BIT ) | SetupReqLen;
    289e:	0037c703          	lbu	a4,3(a5)
    28a2:	86a1c683          	lbu	a3,-1942(gp) # 20001882 <SetupReqLen>
    28a6:	08077713          	andi	a4,a4,128
    28aa:	8f55                	or	a4,a4,a3
    28ac:	00e781a3          	sb	a4,3(a5)
E:\Project\tp78_v2\mounriver_project\RF_CH582M\obj/../HAL/USB.c:176
              R8_UEP0_CTRL = UEP_R_RES_ACK | UEP_T_RES_NAK;
    28b0:	4709                	li	a4,2
    28b2:	b7dd                	j	2898 <USB_DevTransProcess+0x1a8>
E:\Project\tp78_v2\mounriver_project\RF_CH582M\obj/../HAL/USB.c:179
              R8_UEP0_T_LEN = 0;                                      // 状态阶段完成中断或者是强制上传0长度数据包结束控制传输
    28b4:	02078023          	sb	zero,32(a5)
E:\Project\tp78_v2\mounriver_project\RF_CH582M\obj/../HAL/USB.c:180
              R8_UEP0_CTRL = UEP_R_RES_ACK | UEP_T_RES_NAK;
    28b8:	bfe5                	j	28b0 <USB_DevTransProcess+0x1c0>
E:\Project\tp78_v2\mounriver_project\RF_CH582M\obj/../HAL/USB.c:188
          len = R8_USB_RX_LEN;
    28ba:	0087c783          	lbu	a5,8(a5)
E:\Project\tp78_v2\mounriver_project\RF_CH582M\obj/../HAL/USB.c:189
          if ( SetupReqCode == 0x09 )
    28be:	86c1c703          	lbu	a4,-1940(gp) # 20001884 <SetupReqCode>
    28c2:	47a5                	li	a5,9
    28c4:	e8f712e3          	bne	a4,a5,2748 <USB_DevTransProcess+0x58>
E:\Project\tp78_v2\mounriver_project\RF_CH582M\obj/../HAL/USB.c:191
            if ( (pEP0_DataBuf[0] & (1<<0)) == 0 ) {
    28c8:	85818793          	addi	a5,gp,-1960 # 20001870 <pEP0_RAM_Addr>
    28cc:	4398                	lw	a4,0(a5)
E:\Project\tp78_v2\mounriver_project\RF_CH582M\obj/../HAL/USB.c:201
            tmos_start_task(RFtaskID, SBP_RF_LEDOUT_TX_EVT, 10);
    28ce:	4629                	li	a2,10
    28d0:	45a1                	li	a1,8
    28d2:	00074783          	lbu	a5,0(a4)
    28d6:	ac01c503          	lbu	a0,-1344(gp) # 20001ad8 <RFtaskID>
    28da:	8b85                	andi	a5,a5,1
    28dc:	80f18623          	sb	a5,-2036(gp) # 20001824 <LEDOUT_DATA>
E:\Project\tp78_v2\mounriver_project\RF_CH582M\obj/../HAL/USB.c:196
            if ( (pEP0_DataBuf[0] & (1<<1)) == 0 ) {
    28e0:	00074783          	lbu	a5,0(a4)
    28e4:	8385                	srli	a5,a5,0x1
    28e6:	8b85                	andi	a5,a5,1
    28e8:	80f186a3          	sb	a5,-2035(gp) # 20001825 <LEDOUT_DATA+0x1>
E:\Project\tp78_v2\mounriver_project\RF_CH582M\obj/../HAL/USB.c:201
            tmos_start_task(RFtaskID, SBP_RF_LEDOUT_TX_EVT, 10);
    28ec:	079000ef          	jal	ra,3164 <tmos_start_task>
    28f0:	bda1                	j	2748 <USB_DevTransProcess+0x58>
E:\Project\tp78_v2\mounriver_project\RF_CH582M\obj/../HAL/USB.c:208
          if ( R8_USB_INT_ST & RB_UIS_TOG_OK )
    28f2:	0077c703          	lbu	a4,7(a5)
    28f6:	04077713          	andi	a4,a4,64
    28fa:	e40707e3          	beqz	a4,2748 <USB_DevTransProcess+0x58>
E:\Project\tp78_v2\mounriver_project\RF_CH582M\obj/../HAL/USB.c:210
            len = R8_USB_RX_LEN;
    28fe:	0087c503          	lbu	a0,8(a5)
E:\Project\tp78_v2\mounriver_project\RF_CH582M\obj/../HAL/USB.c:211
            DevEP1_OUT_Deal( len );
    2902:	3b99                	jal	2658 <DevEP1_OUT_Deal>
    2904:	b591                	j	2748 <USB_DevTransProcess+0x58>
E:\Project\tp78_v2\mounriver_project\RF_CH582M\obj/../HAL/USB.c:222
          if ( R8_USB_INT_ST & RB_UIS_TOG_OK )
    2906:	0077c703          	lbu	a4,7(a5)
    290a:	04077713          	andi	a4,a4,64
    290e:	e2070de3          	beqz	a4,2748 <USB_DevTransProcess+0x58>
E:\Project\tp78_v2\mounriver_project\RF_CH582M\obj/../HAL/USB.c:224
            len = R8_USB_RX_LEN;
    2912:	0087c503          	lbu	a0,8(a5)
E:\Project\tp78_v2\mounriver_project\RF_CH582M\obj/../HAL/USB.c:225
            DevEP2_OUT_Deal( len );
    2916:	33a5                	jal	267e <DevEP2_OUT_Deal>
    2918:	bd05                	j	2748 <USB_DevTransProcess+0x58>
E:\Project\tp78_v2\mounriver_project\RF_CH582M\obj/../HAL/USB.c:231
          R8_UEP2_CTRL = ( R8_UEP2_CTRL & ~MASK_UEP_T_RES ) | UEP_T_RES_NAK;
    291a:	02a7c703          	lbu	a4,42(a5)
    291e:	0fc77713          	andi	a4,a4,252
    2922:	00276713          	ori	a4,a4,2
    2926:	02e78523          	sb	a4,42(a5)
E:\Project\tp78_v2\mounriver_project\RF_CH582M\obj/../HAL/USB.c:232
          break;
    292a:	bd39                	j	2748 <USB_DevTransProcess+0x58>
E:\Project\tp78_v2\mounriver_project\RF_CH582M\obj/../HAL/USB.c:236
          if ( R8_USB_INT_ST & RB_UIS_TOG_OK )
    292c:	0077c703          	lbu	a4,7(a5)
    2930:	04077713          	andi	a4,a4,64
    2934:	e0070ae3          	beqz	a4,2748 <USB_DevTransProcess+0x58>
E:\Project\tp78_v2\mounriver_project\RF_CH582M\obj/../HAL/USB.c:238
            len = R8_USB_RX_LEN;
    2938:	0087c503          	lbu	a0,8(a5)
E:\Project\tp78_v2\mounriver_project\RF_CH582M\obj/../HAL/USB.c:239
            DevEP3_OUT_Deal( len );
    293c:	33a5                	jal	26a4 <DevEP3_OUT_Deal>
    293e:	b529                	j	2748 <USB_DevTransProcess+0x58>
E:\Project\tp78_v2\mounriver_project\RF_CH582M\obj/../HAL/USB.c:245
          R8_UEP3_CTRL = ( R8_UEP3_CTRL & ~MASK_UEP_T_RES ) | UEP_T_RES_NAK;
    2940:	02e7c703          	lbu	a4,46(a5)
    2944:	0fc77713          	andi	a4,a4,252
    2948:	00276713          	ori	a4,a4,2
    294c:	02e78723          	sb	a4,46(a5)
E:\Project\tp78_v2\mounriver_project\RF_CH582M\obj/../HAL/USB.c:246
          break;
    2950:	bbe5                	j	2748 <USB_DevTransProcess+0x58>
E:\Project\tp78_v2\mounriver_project\RF_CH582M\obj/../HAL/USB.c:250
          if ( R8_USB_INT_ST & RB_UIS_TOG_OK )
    2952:	0077c703          	lbu	a4,7(a5)
    2956:	04077713          	andi	a4,a4,64
    295a:	de0707e3          	beqz	a4,2748 <USB_DevTransProcess+0x58>
E:\Project\tp78_v2\mounriver_project\RF_CH582M\obj/../HAL/USB.c:252
            R8_UEP4_CTRL ^= RB_UEP_R_TOG;
    295e:	0327c703          	lbu	a4,50(a5)
    2962:	08074713          	xori	a4,a4,128
    2966:	02e78923          	sb	a4,50(a5)
E:\Project\tp78_v2\mounriver_project\RF_CH582M\obj/../HAL/USB.c:253
            len = R8_USB_RX_LEN;
    296a:	0087c503          	lbu	a0,8(a5)
E:\Project\tp78_v2\mounriver_project\RF_CH582M\obj/../HAL/USB.c:254
            DevEP4_OUT_Deal( len );
    296e:	3bb1                	jal	26ca <DevEP4_OUT_Deal>
    2970:	bbe1                	j	2748 <USB_DevTransProcess+0x58>
E:\Project\tp78_v2\mounriver_project\RF_CH582M\obj/../HAL/USB.c:292
        switch ( SetupReqCode )
    2972:	4629                	li	a2,10
    2974:	0af66e63          	bltu	a2,a5,2a30 <USB_DevTransProcess+0x340>
    2978:	00004617          	auipc	a2,0x4
    297c:	b8c60613          	addi	a2,a2,-1140 # 6504 <memcpy+0x102>
    2980:	078a                	slli	a5,a5,0x2
    2982:	97b2                	add	a5,a5,a2
    2984:	439c                	lw	a5,0(a5)
    2986:	97b2                	add	a5,a5,a2
    2988:	8782                	jr	a5
E:\Project\tp78_v2\mounriver_project\RF_CH582M\obj/../HAL/USB.c:296
            switch ( ( ( pSetupReqPak->wValue ) >> 8 ) )
    298a:	00354783          	lbu	a5,3(a0)
    298e:	00254683          	lbu	a3,2(a0)
    2992:	4609                	li	a2,2
    2994:	07a2                	slli	a5,a5,0x8
    2996:	8fd5                	or	a5,a5,a3
    2998:	0087d693          	srli	a3,a5,0x8
    299c:	0ac68c63          	beq	a3,a2,2a54 <USB_DevTransProcess+0x364>
    29a0:	00d66963          	bltu	a2,a3,29b2 <USB_DevTransProcess+0x2c2>
    29a4:	4785                	li	a5,1
    29a6:	02f68a63          	beq	a3,a5,29da <USB_DevTransProcess+0x2ea>
E:\Project\tp78_v2\mounriver_project\RF_CH582M\obj/../HAL/USB.c:361
                errflag = 0xff;
    29aa:	0ff00413          	li	s0,255
E:\Project\tp78_v2\mounriver_project\RF_CH582M\obj/../HAL/USB.c:276
      len = 0;
    29ae:	4781                	li	a5,0
    29b0:	a82d                	j	29ea <USB_DevTransProcess+0x2fa>
    29b2:	458d                	li	a1,3
    29b4:	0eb68363          	beq	a3,a1,2a9a <USB_DevTransProcess+0x3aa>
    29b8:	02200793          	li	a5,34
    29bc:	fef697e3          	bne	a3,a5,29aa <USB_DevTransProcess+0x2ba>
E:\Project\tp78_v2\mounriver_project\RF_CH582M\obj/../HAL/USB.c:314
                if ( ( ( pSetupReqPak->wIndex ) & 0xff ) == 0 )         //接口0报表描述符
    29c0:	00454783          	lbu	a5,4(a0)
    29c4:	e3d5                	bnez	a5,2a68 <USB_DevTransProcess+0x378>
E:\Project\tp78_v2\mounriver_project\RF_CH582M\obj/../HAL/USB.c:316
                  pDescr = KeyRepDesc;                                  //数据准备上传
    29c6:	00004797          	auipc	a5,0x4
    29ca:	b6a78793          	addi	a5,a5,-1174 # 6530 <KeyRepDesc>
    29ce:	86f1a823          	sw	a5,-1936(gp) # 20001888 <pDescr>
E:\Project\tp78_v2\mounriver_project\RF_CH582M\obj/../HAL/USB.c:277
      errflag = 0;
    29d2:	4401                	li	s0,0
E:\Project\tp78_v2\mounriver_project\RF_CH582M\obj/../HAL/USB.c:317
                  len = sizeof( KeyRepDesc );
    29d4:	03e00793          	li	a5,62
    29d8:	a809                	j	29ea <USB_DevTransProcess+0x2fa>
E:\Project\tp78_v2\mounriver_project\RF_CH582M\obj/../HAL/USB.c:300
                pDescr = MyDevDescr;
    29da:	00004797          	auipc	a5,0x4
    29de:	c3678793          	addi	a5,a5,-970 # 6610 <MyDevDescr>
    29e2:	86f1a823          	sw	a5,-1936(gp) # 20001888 <pDescr>
E:\Project\tp78_v2\mounriver_project\RF_CH582M\obj/../HAL/USB.c:277
      errflag = 0;
    29e6:	4401                	li	s0,0
E:\Project\tp78_v2\mounriver_project\RF_CH582M\obj/../HAL/USB.c:301
                len = MyDevDescr[0];
    29e8:	47c9                	li	a5,18
E:\Project\tp78_v2\mounriver_project\RF_CH582M\obj/../HAL/USB.c:364
            if ( SetupReqLen > len )
    29ea:	07c2                	slli	a5,a5,0x10
    29ec:	83c1                	srli	a5,a5,0x10
    29ee:	00e7f463          	bgeu	a5,a4,29f6 <USB_DevTransProcess+0x306>
E:\Project\tp78_v2\mounriver_project\RF_CH582M\obj/../HAL/USB.c:365
              SetupReqLen = len;      //实际需上传总长度
    29f2:	86f19523          	sh	a5,-1942(gp) # 20001882 <SetupReqLen>
E:\Project\tp78_v2\mounriver_project\RF_CH582M\obj/../HAL/USB.c:367
                DevEP0SIZE : SetupReqLen;
    29f6:	86a18793          	addi	a5,gp,-1942 # 20001882 <SetupReqLen>
    29fa:	0007d603          	lhu	a2,0(a5)
    29fe:	04000793          	li	a5,64
    2a02:	00c7f463          	bgeu	a5,a2,2a0a <USB_DevTransProcess+0x31a>
    2a06:	04000613          	li	a2,64
E:\Project\tp78_v2\mounriver_project\RF_CH582M\obj/../HAL/USB.c:368
            memcpy( pEP0_DataBuf, pDescr, len );
    2a0a:	87018993          	addi	s3,gp,-1936 # 20001888 <pDescr>
    2a0e:	01061493          	slli	s1,a2,0x10
    2a12:	0009a583          	lw	a1,0(s3) # 10000 <_data_lma+0x9984>
    2a16:	80c1                	srli	s1,s1,0x10
    2a18:	8626                	mv	a2,s1
    2a1a:	1e9030ef          	jal	ra,6402 <memcpy>
E:\Project\tp78_v2\mounriver_project\RF_CH582M\obj/../HAL/USB.c:369
            pDescr += len;
    2a1e:	0009a603          	lw	a2,0(s3)
    2a22:	9626                	add	a2,a2,s1
    2a24:	86c1a823          	sw	a2,-1936(gp) # 20001888 <pDescr>
E:\Project\tp78_v2\mounriver_project\RF_CH582M\obj/../HAL/USB.c:433
      if ( errflag == 0xff )        // 错误或不支持
    2a28:	0ff00793          	li	a5,255
    2a2c:	d6f418e3          	bne	s0,a5,279c <USB_DevTransProcess+0xac>
E:\Project\tp78_v2\mounriver_project\RF_CH582M\obj/../HAL/USB.c:436
        R8_UEP0_CTRL = RB_UEP_R_TOG | RB_UEP_T_TOG | UEP_R_RES_STALL | UEP_T_RES_STALL;    // STALL
    2a30:	400087b7          	lui	a5,0x40008
    2a34:	fcf00713          	li	a4,-49
E:\Project\tp78_v2\mounriver_project\RF_CH582M\obj/../HAL/USB.c:449
        R8_UEP0_CTRL = RB_UEP_R_TOG | RB_UEP_T_TOG | UEP_R_RES_ACK | UEP_T_RES_ACK;    // 默认数据包是DATA1
    2a38:	02e78123          	sb	a4,34(a5) # 40008022 <_eusrstack+0x20000022>
E:\Project\tp78_v2\mounriver_project\RF_CH582M\obj/../HAL/USB.c:452
      R8_USB_INT_FG = RB_UIF_TRANSFER;
    2a3c:	400087b7          	lui	a5,0x40008
    2a40:	4709                	li	a4,2
    2a42:	00e78323          	sb	a4,6(a5) # 40008006 <_eusrstack+0x20000006>
E:\Project\tp78_v2\mounriver_project\RF_CH582M\obj/../HAL/USB.c:480
}
    2a46:	40f2                	lw	ra,28(sp)
    2a48:	4462                	lw	s0,24(sp)
    2a4a:	44d2                	lw	s1,20(sp)
    2a4c:	4942                	lw	s2,16(sp)
    2a4e:	49b2                	lw	s3,12(sp)
    2a50:	6105                	addi	sp,sp,32
    2a52:	8082                	ret
E:\Project\tp78_v2\mounriver_project\RF_CH582M\obj/../HAL/USB.c:307
                pDescr = MyCfgDescr;
    2a54:	00004797          	auipc	a5,0x4
    2a58:	b5078793          	addi	a5,a5,-1200 # 65a4 <MyCfgDescr>
    2a5c:	86f1a823          	sw	a5,-1936(gp) # 20001888 <pDescr>
E:\Project\tp78_v2\mounriver_project\RF_CH582M\obj/../HAL/USB.c:277
      errflag = 0;
    2a60:	4401                	li	s0,0
E:\Project\tp78_v2\mounriver_project\RF_CH582M\obj/../HAL/USB.c:308
                len = MyCfgDescr[2];
    2a62:	06b00793          	li	a5,107
    2a66:	b751                	j	29ea <USB_DevTransProcess+0x2fa>
E:\Project\tp78_v2\mounriver_project\RF_CH582M\obj/../HAL/USB.c:319
                else if ( ( ( pSetupReqPak->wIndex ) & 0xff ) == 1 )    //接口1报表描述符
    2a68:	4685                	li	a3,1
    2a6a:	00d79c63          	bne	a5,a3,2a82 <USB_DevTransProcess+0x392>
E:\Project\tp78_v2\mounriver_project\RF_CH582M\obj/../HAL/USB.c:321
                  pDescr = MouseRepDesc;                                //数据准备上传
    2a6e:	00004797          	auipc	a5,0x4
    2a72:	b0278793          	addi	a5,a5,-1278 # 6570 <MouseRepDesc>
    2a76:	86f1a823          	sw	a5,-1936(gp) # 20001888 <pDescr>
E:\Project\tp78_v2\mounriver_project\RF_CH582M\obj/../HAL/USB.c:277
      errflag = 0;
    2a7a:	4401                	li	s0,0
E:\Project\tp78_v2\mounriver_project\RF_CH582M\obj/../HAL/USB.c:322
                  len = sizeof( MouseRepDesc );
    2a7c:	03400793          	li	a5,52
    2a80:	b7ad                	j	29ea <USB_DevTransProcess+0x2fa>
E:\Project\tp78_v2\mounriver_project\RF_CH582M\obj/../HAL/USB.c:324
                else if ( ( ( pSetupReqPak->wIndex ) & 0xff ) == 2 )    //接口2报表描述符
    2a82:	04c79f63          	bne	a5,a2,2ae0 <USB_DevTransProcess+0x3f0>
E:\Project\tp78_v2\mounriver_project\RF_CH582M\obj/../HAL/USB.c:326
                  pDescr = VolumeRepDesc;                               //数据准备上传
    2a86:	00004797          	auipc	a5,0x4
    2a8a:	bba78793          	addi	a5,a5,-1094 # 6640 <VolumeRepDesc>
    2a8e:	86f1a823          	sw	a5,-1936(gp) # 20001888 <pDescr>
E:\Project\tp78_v2\mounriver_project\RF_CH582M\obj/../HAL/USB.c:277
      errflag = 0;
    2a92:	4401                	li	s0,0
E:\Project\tp78_v2\mounriver_project\RF_CH582M\obj/../HAL/USB.c:327
                  len = sizeof( VolumeRepDesc );                        //如果有更多接口，该标准位应该在最后一个接口配置完成后有效
    2a94:	02100793          	li	a5,33
    2a98:	bf89                	j	29ea <USB_DevTransProcess+0x2fa>
E:\Project\tp78_v2\mounriver_project\RF_CH582M\obj/../HAL/USB.c:339
                switch ( ( pSetupReqPak->wValue ) & 0xff )
    2a9a:	0ff7f793          	andi	a5,a5,255
    2a9e:	4685                	li	a3,1
    2aa0:	00d78e63          	beq	a5,a3,2abc <USB_DevTransProcess+0x3cc>
    2aa4:	c78d                	beqz	a5,2ace <USB_DevTransProcess+0x3de>
    2aa6:	f0c792e3          	bne	a5,a2,29aa <USB_DevTransProcess+0x2ba>
E:\Project\tp78_v2\mounriver_project\RF_CH582M\obj/../HAL/USB.c:346
                    pDescr = MyProdInfo;
    2aaa:	00004797          	auipc	a5,0x4
    2aae:	b8a78793          	addi	a5,a5,-1142 # 6634 <MyProdInfo>
    2ab2:	86f1a823          	sw	a5,-1936(gp) # 20001888 <pDescr>
E:\Project\tp78_v2\mounriver_project\RF_CH582M\obj/../HAL/USB.c:277
      errflag = 0;
    2ab6:	4401                	li	s0,0
E:\Project\tp78_v2\mounriver_project\RF_CH582M\obj/../HAL/USB.c:347
                    len = MyProdInfo[0];
    2ab8:	47a9                	li	a5,10
    2aba:	bf05                	j	29ea <USB_DevTransProcess+0x2fa>
E:\Project\tp78_v2\mounriver_project\RF_CH582M\obj/../HAL/USB.c:342
                    pDescr = MyManuInfo;
    2abc:	00004797          	auipc	a5,0x4
    2ac0:	b6878793          	addi	a5,a5,-1176 # 6624 <MyManuInfo>
    2ac4:	86f1a823          	sw	a5,-1936(gp) # 20001888 <pDescr>
E:\Project\tp78_v2\mounriver_project\RF_CH582M\obj/../HAL/USB.c:277
      errflag = 0;
    2ac8:	4401                	li	s0,0
E:\Project\tp78_v2\mounriver_project\RF_CH582M\obj/../HAL/USB.c:343
                    len = MyManuInfo[0];
    2aca:	47b9                	li	a5,14
    2acc:	bf39                	j	29ea <USB_DevTransProcess+0x2fa>
E:\Project\tp78_v2\mounriver_project\RF_CH582M\obj/../HAL/USB.c:350
                    pDescr = MyLangDescr;
    2ace:	00004797          	auipc	a5,0x4
    2ad2:	baa78793          	addi	a5,a5,-1110 # 6678 <MyLangDescr>
    2ad6:	86f1a823          	sw	a5,-1936(gp) # 20001888 <pDescr>
E:\Project\tp78_v2\mounriver_project\RF_CH582M\obj/../HAL/USB.c:277
      errflag = 0;
    2ada:	4401                	li	s0,0
E:\Project\tp78_v2\mounriver_project\RF_CH582M\obj/../HAL/USB.c:351
                    len = MyLangDescr[0];
    2adc:	4791                	li	a5,4
    2ade:	b731                	j	29ea <USB_DevTransProcess+0x2fa>
E:\Project\tp78_v2\mounriver_project\RF_CH582M\obj/../HAL/USB.c:277
      errflag = 0;
    2ae0:	4401                	li	s0,0
E:\Project\tp78_v2\mounriver_project\RF_CH582M\obj/../HAL/USB.c:332
                  len = 0xff;                                           //本程序只有4个接口，这句话正常不可能执行
    2ae2:	0ff00793          	li	a5,255
    2ae6:	b711                	j	29ea <USB_DevTransProcess+0x2fa>
E:\Project\tp78_v2\mounriver_project\RF_CH582M\obj/../HAL/USB.c:374
            SetupReqLen = ( pSetupReqPak->wValue ) & 0xff;
    2ae8:	00254783          	lbu	a5,2(a0)
E:\Project\tp78_v2\mounriver_project\RF_CH582M\obj/../HAL/USB.c:425
              SetupReqLen = 2;
    2aec:	86f19523          	sh	a5,-1942(gp) # 20001882 <SetupReqLen>
E:\Project\tp78_v2\mounriver_project\RF_CH582M\obj/../HAL/USB.c:433
      if ( errflag == 0xff )        // 错误或不支持
    2af0:	b175                	j	279c <USB_DevTransProcess+0xac>
E:\Project\tp78_v2\mounriver_project\RF_CH582M\obj/../HAL/USB.c:378
            pEP0_DataBuf[0] = DevConfig;
    2af2:	8681c783          	lbu	a5,-1944(gp) # 20001880 <DevConfig>
    2af6:	00f50023          	sb	a5,0(a0)
E:\Project\tp78_v2\mounriver_project\RF_CH582M\obj/../HAL/USB.c:379
            if ( SetupReqLen > 1 )
    2afa:	86a1d703          	lhu	a4,-1942(gp) # 20001882 <SetupReqLen>
    2afe:	4785                	li	a5,1
    2b00:	c8e7fee3          	bgeu	a5,a4,279c <USB_DevTransProcess+0xac>
E:\Project\tp78_v2\mounriver_project\RF_CH582M\obj/../HAL/USB.c:380
              SetupReqLen = 1;
    2b04:	4785                	li	a5,1
    2b06:	b7dd                	j	2aec <USB_DevTransProcess+0x3fc>
E:\Project\tp78_v2\mounriver_project\RF_CH582M\obj/../HAL/USB.c:384
            DevConfig = ( pSetupReqPak->wValue ) & 0xff;
    2b08:	00254783          	lbu	a5,2(a0)
    2b0c:	86f18423          	sb	a5,-1944(gp) # 20001880 <DevConfig>
E:\Project\tp78_v2\mounriver_project\RF_CH582M\obj/../HAL/USB.c:433
      if ( errflag == 0xff )        // 错误或不支持
    2b10:	b171                	j	279c <USB_DevTransProcess+0xac>
E:\Project\tp78_v2\mounriver_project\RF_CH582M\obj/../HAL/USB.c:389
            if ( ( pSetupReqPak->bRequestType & USB_REQ_RECIP_MASK ) == USB_REQ_RECIP_ENDP )    // 端点
    2b12:	01f97713          	andi	a4,s2,31
    2b16:	4789                	li	a5,2
    2b18:	f0f71ce3          	bne	a4,a5,2a30 <USB_DevTransProcess+0x340>
E:\Project\tp78_v2\mounriver_project\RF_CH582M\obj/../HAL/USB.c:391
              switch ( ( pSetupReqPak->wIndex ) & 0xff )
    2b1c:	00454783          	lbu	a5,4(a0)
    2b20:	04e78163          	beq	a5,a4,2b62 <USB_DevTransProcess+0x472>
    2b24:	00f76c63          	bltu	a4,a5,2b3c <USB_DevTransProcess+0x44c>
    2b28:	4705                	li	a4,1
    2b2a:	f0e793e3          	bne	a5,a4,2a30 <USB_DevTransProcess+0x340>
E:\Project\tp78_v2\mounriver_project\RF_CH582M\obj/../HAL/USB.c:403
                  R8_UEP1_CTRL = ( R8_UEP1_CTRL & ~( RB_UEP_R_TOG | MASK_UEP_R_RES ) ) | UEP_R_RES_ACK;
    2b2e:	40008737          	lui	a4,0x40008
    2b32:	02674783          	lbu	a5,38(a4) # 40008026 <_eusrstack+0x20000026>
    2b36:	0737f793          	andi	a5,a5,115
    2b3a:	a099                	j	2b80 <USB_DevTransProcess+0x490>
    2b3c:	08100713          	li	a4,129
    2b40:	02e78863          	beq	a5,a4,2b70 <USB_DevTransProcess+0x480>
    2b44:	08200713          	li	a4,130
    2b48:	eee794e3          	bne	a5,a4,2a30 <USB_DevTransProcess+0x340>
E:\Project\tp78_v2\mounriver_project\RF_CH582M\obj/../HAL/USB.c:394
                  R8_UEP2_CTRL = ( R8_UEP2_CTRL & ~( RB_UEP_T_TOG | MASK_UEP_T_RES ) ) | UEP_T_RES_NAK;
    2b4c:	40008737          	lui	a4,0x40008
    2b50:	02a74783          	lbu	a5,42(a4) # 4000802a <_eusrstack+0x2000002a>
    2b54:	0bc7f793          	andi	a5,a5,188
    2b58:	0027e793          	ori	a5,a5,2
E:\Project\tp78_v2\mounriver_project\RF_CH582M\obj/../HAL/USB.c:397
                  R8_UEP2_CTRL = ( R8_UEP2_CTRL & ~( RB_UEP_R_TOG | MASK_UEP_R_RES ) ) | UEP_R_RES_ACK;
    2b5c:	02f70523          	sb	a5,42(a4)
E:\Project\tp78_v2\mounriver_project\RF_CH582M\obj/../HAL/USB.c:433
      if ( errflag == 0xff )        // 错误或不支持
    2b60:	b935                	j	279c <USB_DevTransProcess+0xac>
E:\Project\tp78_v2\mounriver_project\RF_CH582M\obj/../HAL/USB.c:397
                  R8_UEP2_CTRL = ( R8_UEP2_CTRL & ~( RB_UEP_R_TOG | MASK_UEP_R_RES ) ) | UEP_R_RES_ACK;
    2b62:	40008737          	lui	a4,0x40008
    2b66:	02a74783          	lbu	a5,42(a4) # 4000802a <_eusrstack+0x2000002a>
    2b6a:	0737f793          	andi	a5,a5,115
    2b6e:	b7fd                	j	2b5c <USB_DevTransProcess+0x46c>
E:\Project\tp78_v2\mounriver_project\RF_CH582M\obj/../HAL/USB.c:400
                  R8_UEP1_CTRL = ( R8_UEP1_CTRL & ~( RB_UEP_T_TOG | MASK_UEP_T_RES ) ) | UEP_T_RES_NAK;
    2b70:	40008737          	lui	a4,0x40008
    2b74:	02674783          	lbu	a5,38(a4) # 40008026 <_eusrstack+0x20000026>
    2b78:	0bc7f793          	andi	a5,a5,188
    2b7c:	0027e793          	ori	a5,a5,2
E:\Project\tp78_v2\mounriver_project\RF_CH582M\obj/../HAL/USB.c:403
                  R8_UEP1_CTRL = ( R8_UEP1_CTRL & ~( RB_UEP_R_TOG | MASK_UEP_R_RES ) ) | UEP_R_RES_ACK;
    2b80:	02f70323          	sb	a5,38(a4)
E:\Project\tp78_v2\mounriver_project\RF_CH582M\obj/../HAL/USB.c:433
      if ( errflag == 0xff )        // 错误或不支持
    2b84:	b921                	j	279c <USB_DevTransProcess+0xac>
E:\Project\tp78_v2\mounriver_project\RF_CH582M\obj/../HAL/USB.c:416
            pEP0_DataBuf[0] = 0x00;
    2b86:	00050023          	sb	zero,0(a0)
E:\Project\tp78_v2\mounriver_project\RF_CH582M\obj/../HAL/USB.c:417
            if ( SetupReqLen > 1 )
    2b8a:	bf85                	j	2afa <USB_DevTransProcess+0x40a>
E:\Project\tp78_v2\mounriver_project\RF_CH582M\obj/../HAL/USB.c:422
            pEP0_DataBuf[0] = 0x00;
    2b8c:	00050023          	sb	zero,0(a0)
E:\Project\tp78_v2\mounriver_project\RF_CH582M\obj/../HAL/USB.c:423
            pEP0_DataBuf[1] = 0x00;
    2b90:	429c                	lw	a5,0(a3)
    2b92:	000780a3          	sb	zero,1(a5)
E:\Project\tp78_v2\mounriver_project\RF_CH582M\obj/../HAL/USB.c:424
            if ( SetupReqLen > 2 )
    2b96:	86a1d703          	lhu	a4,-1942(gp) # 20001882 <SetupReqLen>
    2b9a:	4789                	li	a5,2
    2b9c:	c0e7f0e3          	bgeu	a5,a4,279c <USB_DevTransProcess+0xac>
    2ba0:	b7b1                	j	2aec <USB_DevTransProcess+0x3fc>
E:\Project\tp78_v2\mounriver_project\RF_CH582M\obj/../HAL/USB.c:455
  else if ( intflag & RB_UIF_BUS_RST )
    2ba2:	00177693          	andi	a3,a4,1
    2ba6:	c28d                	beqz	a3,2bc8 <USB_DevTransProcess+0x4d8>
E:\Project\tp78_v2\mounriver_project\RF_CH582M\obj/../HAL/USB.c:457
    R8_USB_DEV_AD = 0;
    2ba8:	000781a3          	sb	zero,3(a5)
E:\Project\tp78_v2\mounriver_project\RF_CH582M\obj/../HAL/USB.c:458
    R8_UEP0_CTRL = UEP_R_RES_ACK | UEP_T_RES_NAK;
    2bac:	4709                	li	a4,2
    2bae:	02e78123          	sb	a4,34(a5)
E:\Project\tp78_v2\mounriver_project\RF_CH582M\obj/../HAL/USB.c:459
    R8_UEP1_CTRL = UEP_R_RES_ACK | UEP_T_RES_NAK | RB_UEP_AUTO_TOG;
    2bb2:	4749                	li	a4,18
    2bb4:	02e78323          	sb	a4,38(a5)
E:\Project\tp78_v2\mounriver_project\RF_CH582M\obj/../HAL/USB.c:460
    R8_UEP2_CTRL = UEP_R_RES_ACK | UEP_T_RES_NAK | RB_UEP_AUTO_TOG;
    2bb8:	02e78523          	sb	a4,42(a5)
E:\Project\tp78_v2\mounriver_project\RF_CH582M\obj/../HAL/USB.c:461
    R8_UEP3_CTRL = UEP_R_RES_ACK | UEP_T_RES_NAK | RB_UEP_AUTO_TOG;
    2bbc:	02e78723          	sb	a4,46(a5)
E:\Project\tp78_v2\mounriver_project\RF_CH582M\obj/../HAL/USB.c:462
    R8_USB_INT_FG = RB_UIF_BUS_RST;
    2bc0:	4705                	li	a4,1
E:\Project\tp78_v2\mounriver_project\RF_CH582M\obj/../HAL/USB.c:478
    R8_USB_INT_FG = intflag;
    2bc2:	00e78323          	sb	a4,6(a5)
    2bc6:	8082                	ret
E:\Project\tp78_v2\mounriver_project\RF_CH582M\obj/../HAL/USB.c:464
  else if ( intflag & RB_UIF_SUSPEND )
    2bc8:	00477693          	andi	a3,a4,4
    2bcc:	dafd                	beqz	a3,2bc2 <USB_DevTransProcess+0x4d2>
E:\Project\tp78_v2\mounriver_project\RF_CH582M\obj/../HAL/USB.c:466
    if ( R8_USB_MIS_ST & RB_UMS_SUSPEND )
    2bce:	0057c703          	lbu	a4,5(a5)
    2bd2:	8309                	srli	a4,a4,0x2
    2bd4:	00174713          	xori	a4,a4,1
    2bd8:	8b05                	andi	a4,a4,1
    2bda:	80e18523          	sb	a4,-2038(gp) # 20001822 <USB_Ready>
E:\Project\tp78_v2\mounriver_project\RF_CH582M\obj/../HAL/USB.c:474
    R8_USB_INT_FG = RB_UIF_SUSPEND;
    2bde:	4711                	li	a4,4
    2be0:	b7cd                	j	2bc2 <USB_DevTransProcess+0x4d2>

00002be2 <RF_2G4StatusCallBack>:
RF_2G4StatusCallBack():
E:\Project\tp78_v2\mounriver_project\RF_CH582M\obj/../APP/RF_PHY.c:39
    switch(sta)
    2be2:	478d                	li	a5,3
    2be4:	00f50a63          	beq	a0,a5,2bf8 <RF_2G4StatusCallBack+0x16>
    2be8:	4791                	li	a5,4
    2bea:	0af50363          	beq	a0,a5,2c90 <RF_2G4StatusCallBack+0xae>
    2bee:	4789                	li	a5,2
    2bf0:	0af51463          	bne	a0,a5,2c98 <RF_2G4StatusCallBack+0xb6>
E:\Project\tp78_v2\mounriver_project\RF_CH582M\obj/../APP/RF_PHY.c:51
            RF_Shut();
    2bf4:	2d20206f          	j	4ec6 <RF_Shut>
E:\Project\tp78_v2\mounriver_project\RF_CH582M\obj/../APP/RF_PHY.c:93
            if(crc == 1)
    2bf8:	15fd                	addi	a1,a1,-1
    2bfa:	0ff5f593          	andi	a1,a1,255
    2bfe:	4785                	li	a5,1
    2c00:	08b7fc63          	bgeu	a5,a1,2c98 <RF_2G4StatusCallBack+0xb6>
E:\Project\tp78_v2\mounriver_project\RF_CH582M\obj/../APP/RF_PHY.c:108
                if (rxBuf[1] <= sizeof(HID_dat)) {
    2c04:	00164703          	lbu	a4,1(a2)
    2c08:	47a5                	li	a5,9
    2c0a:	08e7e763          	bltu	a5,a4,2c98 <RF_2G4StatusCallBack+0xb6>
E:\Project\tp78_v2\mounriver_project\RF_CH582M\obj/../APP/RF_PHY.c:109
                    if (rxBuf[2] == 0x7A) {   //jump to boot
    2c0e:	00264703          	lbu	a4,2(a2)
E:\Project\tp78_v2\mounriver_project\RF_CH582M\obj/../APP/RF_PHY.c:37
{
    2c12:	1141                	addi	sp,sp,-16
    2c14:	c606                	sw	ra,12(sp)
E:\Project\tp78_v2\mounriver_project\RF_CH582M\obj/../APP/RF_PHY.c:109
                    if (rxBuf[2] == 0x7A) {   //jump to boot
    2c16:	07a00793          	li	a5,122
    2c1a:	00f71c63          	bne	a4,a5,2c32 <RF_2G4StatusCallBack+0x50>
E:\Project\tp78_v2\mounriver_project\RF_CH582M\obj/../APP/RF_PHY.c:111
                        APPJumpBoot();
    2c1e:	1fffd097          	auipc	ra,0x1fffd
    2c22:	6c4080e7          	jalr	1732(ra) # 200002e2 <APPJumpBoot>
E:\Project\tp78_v2\mounriver_project\RF_CH582M\obj/../APP/RF_PHY.c:145
}
    2c26:	40b2                	lw	ra,12(sp)
E:\Project\tp78_v2\mounriver_project\RF_CH582M\obj/../APP/RF_PHY.c:131
                tmos_set_event(RFtaskID, SBP_RF_RF_RX_EVT);
    2c28:	ac01c503          	lbu	a0,-1344(gp) # 20001ad8 <RFtaskID>
    2c2c:	4591                	li	a1,4
E:\Project\tp78_v2\mounriver_project\RF_CH582M\obj/../APP/RF_PHY.c:145
}
    2c2e:	0141                	addi	sp,sp,16
E:\Project\tp78_v2\mounriver_project\RF_CH582M\obj/../APP/RF_PHY.c:136
            tmos_set_event(RFtaskID, SBP_RF_RF_RX_EVT);
    2c30:	a9d1                	j	3104 <tmos_set_event>
E:\Project\tp78_v2\mounriver_project\RF_CH582M\obj/../APP/RF_PHY.c:112
                    } else if (rxBuf[2] == 0x78) {   //heartbeat
    2c32:	07800593          	li	a1,120
E:\Project\tp78_v2\mounriver_project\RF_CH582M\obj/../APP/RF_PHY.c:115
                        for(i = 0; i < rxBuf[1]; i++) {
    2c36:	4781                	li	a5,0
E:\Project\tp78_v2\mounriver_project\RF_CH582M\obj/../APP/RF_PHY.c:117
                            *((uint8_t*)&HID_dat + i) = rxBuf[i + 2];
    2c38:	9b418693          	addi	a3,gp,-1612 # 200019cc <HID_dat>
E:\Project\tp78_v2\mounriver_project\RF_CH582M\obj/../APP/RF_PHY.c:112
                    } else if (rxBuf[2] == 0x78) {   //heartbeat
    2c3c:	02b71063          	bne	a4,a1,2c5c <RF_2G4StatusCallBack+0x7a>
E:\Project\tp78_v2\mounriver_project\RF_CH582M\obj/../APP/RF_PHY.c:113
                        heartbeat_cnt = 0;
    2c40:	8001a823          	sw	zero,-2032(gp) # 20001828 <heartbeat_cnt>
E:\Project\tp78_v2\mounriver_project\RF_CH582M\obj/../APP/RF_PHY.c:130
            if (err == 0)
    2c44:	b7cd                	j	2c26 <RF_2G4StatusCallBack+0x44>
E:\Project\tp78_v2\mounriver_project\RF_CH582M\obj/../APP/RF_PHY.c:117
                            *((uint8_t*)&HID_dat + i) = rxBuf[i + 2];
    2c46:	00f60733          	add	a4,a2,a5
    2c4a:	00274583          	lbu	a1,2(a4)
    2c4e:	00d78733          	add	a4,a5,a3
E:\Project\tp78_v2\mounriver_project\RF_CH582M\obj/../APP/RF_PHY.c:115
                        for(i = 0; i < rxBuf[1]; i++) {
    2c52:	0785                	addi	a5,a5,1
E:\Project\tp78_v2\mounriver_project\RF_CH582M\obj/../APP/RF_PHY.c:117
                            *((uint8_t*)&HID_dat + i) = rxBuf[i + 2];
    2c54:	00b70023          	sb	a1,0(a4)
E:\Project\tp78_v2\mounriver_project\RF_CH582M\obj/../APP/RF_PHY.c:115
                        for(i = 0; i < rxBuf[1]; i++) {
    2c58:	0ff7f793          	andi	a5,a5,255
    2c5c:	00164703          	lbu	a4,1(a2)
    2c60:	fee7e3e3          	bltu	a5,a4,2c46 <RF_2G4StatusCallBack+0x64>
E:\Project\tp78_v2\mounriver_project\RF_CH582M\obj/../APP/RF_PHY.c:119
                        if (USB_Ready == TRUE) {
    2c64:	80a1c703          	lbu	a4,-2038(gp) # 20001822 <USB_Ready>
    2c68:	4785                	li	a5,1
    2c6a:	faf71ee3          	bne	a4,a5,2c26 <RF_2G4StatusCallBack+0x44>
E:\Project\tp78_v2\mounriver_project\RF_CH582M\obj/../APP/RF_PHY.c:120
                            lastevent[1<<HID_dat.label] = TRUE;
    2c6e:	9b41c583          	lbu	a1,-1612(gp) # 200019cc <HID_dat>
    2c72:	00b715b3          	sll	a1,a4,a1
    2c76:	81418793          	addi	a5,gp,-2028 # 2000182c <lastevent>
    2c7a:	97ae                	add	a5,a5,a1
E:\Project\tp78_v2\mounriver_project\RF_CH582M\obj/../APP/RF_PHY.c:121
                            tmos_set_event(usbTaskID, 1<<HID_dat.label);
    2c7c:	05c2                	slli	a1,a1,0x10
    2c7e:	81c1                	srli	a1,a1,0x10
    2c80:	1ffff517          	auipc	a0,0x1ffff
    2c84:	b9854503          	lbu	a0,-1128(a0) # 20001818 <usbTaskID>
E:\Project\tp78_v2\mounriver_project\RF_CH582M\obj/../APP/RF_PHY.c:120
                            lastevent[1<<HID_dat.label] = TRUE;
    2c88:	00e78023          	sb	a4,0(a5)
E:\Project\tp78_v2\mounriver_project\RF_CH582M\obj/../APP/RF_PHY.c:121
                            tmos_set_event(usbTaskID, 1<<HID_dat.label);
    2c8c:	29a5                	jal	3104 <tmos_set_event>
E:\Project\tp78_v2\mounriver_project\RF_CH582M\obj/../APP/RF_PHY.c:130
            if (err == 0)
    2c8e:	bf61                	j	2c26 <RF_2G4StatusCallBack+0x44>
E:\Project\tp78_v2\mounriver_project\RF_CH582M\obj/../APP/RF_PHY.c:136
            tmos_set_event(RFtaskID, SBP_RF_RF_RX_EVT);
    2c90:	4591                	li	a1,4
    2c92:	ac01c503          	lbu	a0,-1344(gp) # 20001ad8 <RFtaskID>
    2c96:	bf69                	j	2c30 <RF_2G4StatusCallBack+0x4e>
    2c98:	8082                	ret

00002c9a <RF_ProcessEvent>:
RF_ProcessEvent():
E:\Project\tp78_v2\mounriver_project\RF_CH582M\obj/../APP/RF_PHY.c:158
{
    2c9a:	1141                	addi	sp,sp,-16
E:\Project\tp78_v2\mounriver_project\RF_CH582M\obj/../APP/RF_PHY.c:159
    if(events & SYS_EVENT_MSG)
    2c9c:	01059793          	slli	a5,a1,0x10
E:\Project\tp78_v2\mounriver_project\RF_CH582M\obj/../APP/RF_PHY.c:158
{
    2ca0:	c422                	sw	s0,8(sp)
    2ca2:	c606                	sw	ra,12(sp)
E:\Project\tp78_v2\mounriver_project\RF_CH582M\obj/../APP/RF_PHY.c:159
    if(events & SYS_EVENT_MSG)
    2ca4:	87c1                	srai	a5,a5,0x10
E:\Project\tp78_v2\mounriver_project\RF_CH582M\obj/../APP/RF_PHY.c:158
{
    2ca6:	842e                	mv	s0,a1
E:\Project\tp78_v2\mounriver_project\RF_CH582M\obj/../APP/RF_PHY.c:159
    if(events & SYS_EVENT_MSG)
    2ca8:	0007db63          	bgez	a5,2cbe <RF_ProcessEvent+0x24>
E:\Project\tp78_v2\mounriver_project\RF_CH582M\obj/../APP/RF_PHY.c:163
        if((pMsg = tmos_msg_receive(task_id)) != NULL)
    2cac:	2a81                	jal	2dfc <tmos_msg_receive>
    2cae:	c111                	beqz	a0,2cb2 <RF_ProcessEvent+0x18>
E:\Project\tp78_v2\mounriver_project\RF_CH582M\obj/../APP/RF_PHY.c:166
            tmos_msg_deallocate(pMsg);
    2cb0:	2205                	jal	2dd0 <tmos_msg_deallocate>
E:\Project\tp78_v2\mounriver_project\RF_CH582M\obj/../APP/RF_PHY.c:169
        return (events ^ SYS_EVENT_MSG);
    2cb2:	6521                	lui	a0,0x8
    2cb4:	8d21                	xor	a0,a0,s0
E:\Project\tp78_v2\mounriver_project\RF_CH582M\obj/../APP/RF_PHY.c:200
}
    2cb6:	40b2                	lw	ra,12(sp)
    2cb8:	4422                	lw	s0,8(sp)
    2cba:	0141                	addi	sp,sp,16
    2cbc:	8082                	ret
E:\Project\tp78_v2\mounriver_project\RF_CH582M\obj/../APP/RF_PHY.c:183
    if(events & SBP_RF_RF_RX_EVT)
    2cbe:	0045f793          	andi	a5,a1,4
    2cc2:	cf99                	beqz	a5,2ce0 <RF_ProcessEvent+0x46>
E:\Project\tp78_v2\mounriver_project\RF_CH582M\obj/../APP/RF_PHY.c:186
        RF_Shut();
    2cc4:	202020ef          	jal	ra,4ec6 <RF_Shut>
E:\Project\tp78_v2\mounriver_project\RF_CH582M\obj/../APP/RF_PHY.c:187
        state = RF_Rx(LEDOUT_DATA, 2, 0xFF, 0xFF);
    2cc8:	0ff00693          	li	a3,255
    2ccc:	0ff00613          	li	a2,255
    2cd0:	4589                	li	a1,2
    2cd2:	80c18513          	addi	a0,gp,-2036 # 20001824 <LEDOUT_DATA>
    2cd6:	26b010ef          	jal	ra,4740 <RF_Rx>
E:\Project\tp78_v2\mounriver_project\RF_CH582M\obj/../APP/RF_PHY.c:189
        return events ^ SBP_RF_RF_RX_EVT;
    2cda:	00444513          	xori	a0,s0,4
    2cde:	bfe1                	j	2cb6 <RF_ProcessEvent+0x1c>
E:\Project\tp78_v2\mounriver_project\RF_CH582M\obj/../APP/RF_PHY.c:191
    if(events & SBP_RF_LEDOUT_TX_EVT)
    2ce0:	0085f793          	andi	a5,a1,8
E:\Project\tp78_v2\mounriver_project\RF_CH582M\obj/../APP/RF_PHY.c:199
    return 0;
    2ce4:	4501                	li	a0,0
E:\Project\tp78_v2\mounriver_project\RF_CH582M\obj/../APP/RF_PHY.c:191
    if(events & SBP_RF_LEDOUT_TX_EVT)
    2ce6:	dbe1                	beqz	a5,2cb6 <RF_ProcessEvent+0x1c>
E:\Project\tp78_v2\mounriver_project\RF_CH582M\obj/../APP/RF_PHY.c:194
        RF_Shut();
    2ce8:	1de020ef          	jal	ra,4ec6 <RF_Shut>
E:\Project\tp78_v2\mounriver_project\RF_CH582M\obj/../APP/RF_PHY.c:195
        state = RF_Rx(LEDOUT_DATA, 2, 0xFF, 0xFF);
    2cec:	0ff00693          	li	a3,255
    2cf0:	0ff00613          	li	a2,255
    2cf4:	4589                	li	a1,2
    2cf6:	80c18513          	addi	a0,gp,-2036 # 20001824 <LEDOUT_DATA>
    2cfa:	247010ef          	jal	ra,4740 <RF_Rx>
E:\Project\tp78_v2\mounriver_project\RF_CH582M\obj/../APP/RF_PHY.c:197
        return events ^ SBP_RF_LEDOUT_TX_EVT;
    2cfe:	00844513          	xori	a0,s0,8
    2d02:	bf55                	j	2cb6 <RF_ProcessEvent+0x1c>

00002d04 <RF_Init>:
RF_Init():
E:\Project\tp78_v2\mounriver_project\RF_CH582M\obj/../APP/RF_PHY.c:210
{
    2d04:	7179                	addi	sp,sp,-48
E:\Project\tp78_v2\mounriver_project\RF_CH582M\obj/../APP/RF_PHY.c:214
    tmos_memset(&rfConfig, 0, sizeof(rfConfig_t));
    2d06:	02000613          	li	a2,32
    2d0a:	4581                	li	a1,0
    2d0c:	850a                	mv	a0,sp
E:\Project\tp78_v2\mounriver_project\RF_CH582M\obj/../APP/RF_PHY.c:210
{
    2d0e:	d606                	sw	ra,44(sp)
E:\Project\tp78_v2\mounriver_project\RF_CH582M\obj/../APP/RF_PHY.c:214
    tmos_memset(&rfConfig, 0, sizeof(rfConfig_t));
    2d10:	1fffe097          	auipc	ra,0x1fffe
    2d14:	b9a080e7          	jalr	-1126(ra) # 200008aa <tmos_memset>
E:\Project\tp78_v2\mounriver_project\RF_CH582M\obj/../APP/RF_PHY.c:215
    RFtaskID = TMOS_ProcessEventRegister(RF_ProcessEvent);
    2d18:	00000517          	auipc	a0,0x0
    2d1c:	f8250513          	addi	a0,a0,-126 # 2c9a <RF_ProcessEvent>
    2d20:	2d71                	jal	33bc <TMOS_ProcessEventRegister>
    2d22:	aca18023          	sb	a0,-1344(gp) # 20001ad8 <RFtaskID>
E:\Project\tp78_v2\mounriver_project\RF_CH582M\obj/../APP/RF_PHY.c:216
    rfConfig.accessAddress = 0x71764129; // 禁止使用0x55555555以及0xAAAAAAAA ( 建议不超过24次位反转，且不超过连续的6个0或1 )
    2d26:	717647b7          	lui	a5,0x71764
    2d2a:	12978793          	addi	a5,a5,297 # 71764129 <_eusrstack+0x5175c129>
    2d2e:	c43e                	sw	a5,8(sp)
E:\Project\tp78_v2\mounriver_project\RF_CH582M\obj/../APP/RF_PHY.c:217
    rfConfig.CRCInit = 0x555555;
    2d30:	005557b7          	lui	a5,0x555
    2d34:	55578793          	addi	a5,a5,1365 # 555555 <_data_lma+0x54eed9>
    2d38:	c63e                	sw	a5,12(sp)
E:\Project\tp78_v2\mounriver_project\RF_CH582M\obj/../APP/RF_PHY.c:219
    rfConfig.Frequency = 2405000;
    2d3a:	0024b7b7          	lui	a5,0x24b
    2d3e:	28878793          	addi	a5,a5,648 # 24b288 <_data_lma+0x244c0c>
    2d42:	c23e                	sw	a5,4(sp)
E:\Project\tp78_v2\mounriver_project\RF_CH582M\obj/../APP/RF_PHY.c:220
    rfConfig.LLEMode = LLE_MODE_AUTO | LLE_MODE_EX_CHANNEL; // 使能 LLE_MODE_EX_CHANNEL 表示 选择 rfConfig.Frequency 作为通信频点
    2d44:	6785                	lui	a5,0x1
    2d46:	84178793          	addi	a5,a5,-1983 # 841 <_einit+0x83d>
    2d4a:	00f11023          	sh	a5,0(sp)
E:\Project\tp78_v2\mounriver_project\RF_CH582M\obj/../APP/RF_PHY.c:221
    rfConfig.rfStatusCB = RF_2G4StatusCallBack;
    2d4e:	00000797          	auipc	a5,0x0
    2d52:	e9478793          	addi	a5,a5,-364 # 2be2 <RF_2G4StatusCallBack>
    2d56:	c83e                	sw	a5,16(sp)
E:\Project\tp78_v2\mounriver_project\RF_CH582M\obj/../APP/RF_PHY.c:223
    state = RF_Config(&rfConfig);
    2d58:	850a                	mv	a0,sp
E:\Project\tp78_v2\mounriver_project\RF_CH582M\obj/../APP/RF_PHY.c:222
    rfConfig.RxMaxlen = 251;
    2d5a:	57ed                	li	a5,-5
    2d5c:	00f10e23          	sb	a5,28(sp)
E:\Project\tp78_v2\mounriver_project\RF_CH582M\obj/../APP/RF_PHY.c:223
    state = RF_Config(&rfConfig);
    2d60:	5fc010ef          	jal	ra,435c <RF_Config>
E:\Project\tp78_v2\mounriver_project\RF_CH582M\obj/../APP/RF_PHY.c:226
        state = RF_Rx(LEDOUT_DATA, 2, 0xFF, 0xFF);
    2d64:	0ff00693          	li	a3,255
    2d68:	0ff00613          	li	a2,255
    2d6c:	4589                	li	a1,2
    2d6e:	80c18513          	addi	a0,gp,-2036 # 20001824 <LEDOUT_DATA>
    2d72:	1cf010ef          	jal	ra,4740 <RF_Rx>
E:\Project\tp78_v2\mounriver_project\RF_CH582M\obj/../APP/RF_PHY.c:231
    TMR0_TimerInit(FREQ_SYS / 1000);
    2d76:	653d                	lui	a0,0xf
    2d78:	a6050513          	addi	a0,a0,-1440 # ea60 <_data_lma+0x83e4>
    2d7c:	898ff0ef          	jal	ra,1e14 <TMR0_TimerInit>
E:\Project\tp78_v2\mounriver_project\RF_CH582M\obj/../APP/RF_PHY.c:232
    TMR0_ITCfg(ENABLE, TMR0_3_IT_CYC_END);
    2d80:	40002737          	lui	a4,0x40002
    2d84:	00274783          	lbu	a5,2(a4) # 40002002 <_eusrstack+0x1fffa002>
    2d88:	0017e793          	ori	a5,a5,1
    2d8c:	00f70123          	sb	a5,2(a4)
PFIC_EnableIRQ():
E:\Project\tp78_v2\mounriver_project\RF_CH582M\RVMSIS/core_riscv.h:110
    2d90:	e000e7b7          	lui	a5,0xe000e
    2d94:	6741                	lui	a4,0x10
    2d96:	10e7a023          	sw	a4,256(a5) # e000e100 <_eusrstack+0xc0006100>
PFIC_SetPriority():
E:\Project\tp78_v2\mounriver_project\RF_CH582M\RVMSIS/core_riscv.h:207
    PFIC->IPRIOR[(uint32_t)(IRQn)] = priority;
    2d9a:	4751                	li	a4,20
    2d9c:	40e78823          	sb	a4,1040(a5)
RF_Init():
E:\Project\tp78_v2\mounriver_project\RF_CH582M\obj/../APP/RF_PHY.c:239
}
    2da0:	50b2                	lw	ra,44(sp)
    2da2:	6145                	addi	sp,sp,48
    2da4:	8082                	ret

00002da6 <main>:
main():
E:\Project\tp78_v2\mounriver_project\RF_CH582M\obj/../APP/RF_main.c:56
 * @brief   主函数
 *
 * @return  none
 */
int main(void)
{
    2da6:	1141                	addi	sp,sp,-16
E:\Project\tp78_v2\mounriver_project\RF_CH582M\obj/../APP/RF_main.c:60
#if(defined(DCDC_ENABLE)) && (DCDC_ENABLE == TRUE)
    PWR_DCDCCfg(ENABLE);
#endif
    SetSysClock(CLK_SOURCE_PLL_60MHz);
    2da8:	04800513          	li	a0,72
E:\Project\tp78_v2\mounriver_project\RF_CH582M\obj/../APP/RF_main.c:56
{
    2dac:	c606                	sw	ra,12(sp)
E:\Project\tp78_v2\mounriver_project\RF_CH582M\obj/../APP/RF_main.c:60
    SetSysClock(CLK_SOURCE_PLL_60MHz);
    2dae:	1fffd097          	auipc	ra,0x1fffd
    2db2:	318080e7          	jalr	792(ra) # 200000c6 <SetSysClock>
E:\Project\tp78_v2\mounriver_project\RF_CH582M\obj/../APP/RF_main.c:72
    GPIOA_ModeCfg(bTXD1, GPIO_ModeOut_PP_5mA);
    UART1_DefInit();
#endif
    PRINT("start.\n");
    PRINT("%s\n", VER_LIB);
    CH58X_BLEInit();
    2db6:	dd2ff0ef          	jal	ra,2388 <CH58X_BLEInit>
E:\Project\tp78_v2\mounriver_project\RF_CH582M\obj/../APP/RF_main.c:73
    HAL_Init();
    2dba:	ee2ff0ef          	jal	ra,249c <HAL_Init>
E:\Project\tp78_v2\mounriver_project\RF_CH582M\obj/../APP/RF_main.c:74
    RF_RoleInit();
    2dbe:	45a020ef          	jal	ra,5218 <RF_RoleInit>
E:\Project\tp78_v2\mounriver_project\RF_CH582M\obj/../APP/RF_main.c:75
    RF_Init();
    2dc2:	3789                	jal	2d04 <RF_Init>
E:\Project\tp78_v2\mounriver_project\RF_CH582M\obj/../APP/RF_main.c:76
    HAL_USBInit();
    2dc4:	83dff0ef          	jal	ra,2600 <HAL_USBInit>
E:\Project\tp78_v2\mounriver_project\RF_CH582M\obj/../APP/RF_main.c:77
    Main_Circulation();
    2dc8:	1fffd097          	auipc	ra,0x1fffd
    2dcc:	67c080e7          	jalr	1660(ra) # 20000444 <Main_Circulation>

00002dd0 <tmos_msg_deallocate>:
tmos_msg_deallocate():
    2dd0:	c11d                	beqz	a0,2df6 <tmos_msg_deallocate+0x26>
    2dd2:	ffe54683          	lbu	a3,-2(a0)
    2dd6:	0ff00713          	li	a4,255
    2dda:	4791                	li	a5,4
    2ddc:	00e69e63          	bne	a3,a4,2df8 <tmos_msg_deallocate+0x28>
    2de0:	1141                	addi	sp,sp,-16
    2de2:	c606                	sw	ra,12(sp)
    2de4:	1ffff097          	auipc	ra,0x1ffff
    2de8:	946080e7          	jalr	-1722(ra) # 2000172a <tmos_memory_free>
    2dec:	40b2                	lw	ra,12(sp)
    2dee:	4781                	li	a5,0
    2df0:	853e                	mv	a0,a5
    2df2:	0141                	addi	sp,sp,16
    2df4:	8082                	ret
    2df6:	4795                	li	a5,5
    2df8:	853e                	mv	a0,a5
    2dfa:	8082                	ret

00002dfc <tmos_msg_receive>:
tmos_msg_receive():
    2dfc:	20000717          	auipc	a4,0x20000
    2e00:	4e070713          	addi	a4,a4,1248 # 200032dc <msg_qHead>
    2e04:	431c                	lw	a5,0(a4)
    2e06:	1141                	addi	sp,sp,-16
    2e08:	c422                	sw	s0,8(sp)
    2e0a:	c226                	sw	s1,4(sp)
    2e0c:	c04a                	sw	s2,0(sp)
    2e0e:	c606                	sw	ra,12(sp)
    2e10:	4401                	li	s0,0
    2e12:	4901                	li	s2,0
    2e14:	84ba                	mv	s1,a4
    2e16:	e789                	bnez	a5,2e20 <tmos_msg_receive+0x24>
    2e18:	65a1                	lui	a1,0x8
    2e1a:	212d                	jal	3244 <tmos_stop_task>
    2e1c:	c41d                	beqz	s0,2e4a <tmos_msg_receive+0x4e>
    2e1e:	a801                	j	2e2e <tmos_msg_receive+0x32>
    2e20:	ffe7c703          	lbu	a4,-2(a5)
    2e24:	02a71a63          	bne	a4,a0,2e58 <tmos_msg_receive+0x5c>
    2e28:	cc0d                	beqz	s0,2e62 <tmos_msg_receive+0x66>
    2e2a:	65a1                	lui	a1,0x8
    2e2c:	2ce1                	jal	3104 <tmos_set_event>
    2e2e:	4098                	lw	a4,0(s1)
    2e30:	ff842783          	lw	a5,-8(s0)
    2e34:	02e41963          	bne	s0,a4,2e66 <tmos_msg_receive+0x6a>
    2e38:	20000717          	auipc	a4,0x20000
    2e3c:	4af72223          	sw	a5,1188(a4) # 200032dc <msg_qHead>
    2e40:	57fd                	li	a5,-1
    2e42:	fe042c23          	sw	zero,-8(s0)
    2e46:	fef40f23          	sb	a5,-2(s0)
    2e4a:	8522                	mv	a0,s0
    2e4c:	40b2                	lw	ra,12(sp)
    2e4e:	4422                	lw	s0,8(sp)
    2e50:	4492                	lw	s1,4(sp)
    2e52:	4902                	lw	s2,0(sp)
    2e54:	0141                	addi	sp,sp,16
    2e56:	8082                	ret
    2e58:	e011                	bnez	s0,2e5c <tmos_msg_receive+0x60>
    2e5a:	893e                	mv	s2,a5
    2e5c:	ff87a783          	lw	a5,-8(a5)
    2e60:	bf5d                	j	2e16 <tmos_msg_receive+0x1a>
    2e62:	843e                	mv	s0,a5
    2e64:	bfe5                	j	2e5c <tmos_msg_receive+0x60>
    2e66:	fef92c23          	sw	a5,-8(s2)
    2e6a:	bfd9                	j	2e40 <tmos_msg_receive+0x44>

00002e6c <tmos_msg_init>:
tmos_msg_init():
    2e6c:	20000797          	auipc	a5,0x20000
    2e70:	4607a823          	sw	zero,1136(a5) # 200032dc <msg_qHead>
    2e74:	8082                	ret

00002e76 <tmosFindTask>:
tmosFindTask():
    2e76:	20000797          	auipc	a5,0x20000
    2e7a:	4be78793          	addi	a5,a5,1214 # 20003334 <taskHead>
    2e7e:	439c                	lw	a5,0(a5)
    2e80:	e399                	bnez	a5,2e86 <tmosFindTask+0x10>
    2e82:	853e                	mv	a0,a5
    2e84:	8082                	ret
    2e86:	0027d703          	lhu	a4,2(a5)
    2e8a:	00b71663          	bne	a4,a1,2e96 <tmosFindTask+0x20>
    2e8e:	0007c703          	lbu	a4,0(a5)
    2e92:	fea708e3          	beq	a4,a0,2e82 <tmosFindTask+0xc>
    2e96:	47dc                	lw	a5,12(a5)
    2e98:	b7e5                	j	2e80 <tmosFindTask+0xa>

00002e9a <TMOS_CB_PeriodicProcessEvent>:
TMOS_CB_PeriodicProcessEvent():
    2e9a:	c1c9                	beqz	a1,2f1c <TMOS_CB_PeriodicProcessEvent+0x82>
    2e9c:	7179                	addi	sp,sp,-48
    2e9e:	d422                	sw	s0,40(sp)
    2ea0:	d606                	sw	ra,44(sp)
    2ea2:	d226                	sw	s1,36(sp)
    2ea4:	d04a                	sw	s2,32(sp)
    2ea6:	ce4e                	sw	s3,28(sp)
    2ea8:	4401                	li	s0,0
    2eaa:	4741                	li	a4,16
    2eac:	4085d7b3          	sra	a5,a1,s0
    2eb0:	8b85                	andi	a5,a5,1
    2eb2:	c3a5                	beqz	a5,2f12 <TMOS_CB_PeriodicProcessEvent+0x78>
    2eb4:	0512                	slli	a0,a0,0x4
    2eb6:	4731                	li	a4,12
    2eb8:	9522                	add	a0,a0,s0
    2eba:	02e50533          	mul	a0,a0,a4
    2ebe:	20000797          	auipc	a5,0x20000
    2ec2:	4b678793          	addi	a5,a5,1206 # 20003374 <cbTimersHead>
    2ec6:	0007a903          	lw	s2,0(a5)
    2eca:	4485                	li	s1,1
    2ecc:	008494b3          	sll	s1,s1,s0
    2ed0:	04c2                	slli	s1,s1,0x10
    2ed2:	80c1                	srli	s1,s1,0x10
    2ed4:	89be                	mv	s3,a5
    2ed6:	992a                	add	s2,s2,a0
    2ed8:	00092703          	lw	a4,0(s2)
    2edc:	c711                	beqz	a4,2ee8 <TMOS_CB_PeriodicProcessEvent+0x4e>
    2ede:	00492503          	lw	a0,4(s2)
    2ee2:	c62e                	sw	a1,12(sp)
    2ee4:	9702                	jalr	a4
    2ee6:	45b2                	lw	a1,12(sp)
    2ee8:	4731                	li	a4,12
    2eea:	02e40433          	mul	s0,s0,a4
    2eee:	0009a783          	lw	a5,0(s3)
    2ef2:	943e                	add	s0,s0,a5
    2ef4:	441c                	lw	a5,8(s0)
    2ef6:	e789                	bnez	a5,2f00 <TMOS_CB_PeriodicProcessEvent+0x66>
    2ef8:	00092023          	sw	zero,0(s2)
    2efc:	00092223          	sw	zero,4(s2)
    2f00:	50b2                	lw	ra,44(sp)
    2f02:	5422                	lw	s0,40(sp)
    2f04:	8da5                	xor	a1,a1,s1
    2f06:	5902                	lw	s2,32(sp)
    2f08:	5492                	lw	s1,36(sp)
    2f0a:	49f2                	lw	s3,28(sp)
    2f0c:	852e                	mv	a0,a1
    2f0e:	6145                	addi	sp,sp,48
    2f10:	8082                	ret
    2f12:	0405                	addi	s0,s0,1
    2f14:	f8e41ce3          	bne	s0,a4,2eac <TMOS_CB_PeriodicProcessEvent+0x12>
    2f18:	4481                	li	s1,0
    2f1a:	b7dd                	j	2f00 <TMOS_CB_PeriodicProcessEvent+0x66>
    2f1c:	852e                	mv	a0,a1
    2f1e:	8082                	ret

00002f20 <TMOS_CB_ProcessEvent>:
TMOS_CB_ProcessEvent():
    2f20:	1141                	addi	sp,sp,-16
    2f22:	01059713          	slli	a4,a1,0x10
    2f26:	c422                	sw	s0,8(sp)
    2f28:	c606                	sw	ra,12(sp)
    2f2a:	c226                	sw	s1,4(sp)
    2f2c:	c04a                	sw	s2,0(sp)
    2f2e:	8741                	srai	a4,a4,0x10
    2f30:	842e                	mv	s0,a1
    2f32:	00075e63          	bgez	a4,2f4e <TMOS_CB_ProcessEvent+0x2e>
    2f36:	35d9                	jal	2dfc <tmos_msg_receive>
    2f38:	c111                	beqz	a0,2f3c <TMOS_CB_ProcessEvent+0x1c>
    2f3a:	3d59                	jal	2dd0 <tmos_msg_deallocate>
    2f3c:	67a1                	lui	a5,0x8
    2f3e:	8c3d                	xor	s0,s0,a5
    2f40:	8522                	mv	a0,s0
    2f42:	40b2                	lw	ra,12(sp)
    2f44:	4422                	lw	s0,8(sp)
    2f46:	4492                	lw	s1,4(sp)
    2f48:	4902                	lw	s2,0(sp)
    2f4a:	0141                	addi	sp,sp,16
    2f4c:	8082                	ret
    2f4e:	d9ed                	beqz	a1,2f40 <TMOS_CB_ProcessEvent+0x20>
    2f50:	87aa                	mv	a5,a0
    2f52:	4701                	li	a4,0
    2f54:	4641                	li	a2,16
    2f56:	40e456b3          	sra	a3,s0,a4
    2f5a:	8a85                	andi	a3,a3,1
    2f5c:	ce8d                	beqz	a3,2f96 <TMOS_CB_ProcessEvent+0x76>
    2f5e:	0792                	slli	a5,a5,0x4
    2f60:	97ba                	add	a5,a5,a4
    2f62:	46b1                	li	a3,12
    2f64:	02d787b3          	mul	a5,a5,a3
    2f68:	20000697          	auipc	a3,0x20000
    2f6c:	40c68693          	addi	a3,a3,1036 # 20003374 <cbTimersHead>
    2f70:	0006a903          	lw	s2,0(a3)
    2f74:	4485                	li	s1,1
    2f76:	00e494b3          	sll	s1,s1,a4
    2f7a:	04c2                	slli	s1,s1,0x10
    2f7c:	80c1                	srli	s1,s1,0x10
    2f7e:	993e                	add	s2,s2,a5
    2f80:	00092783          	lw	a5,0(s2)
    2f84:	00492503          	lw	a0,4(s2)
    2f88:	9782                	jalr	a5
    2f8a:	00092023          	sw	zero,0(s2)
    2f8e:	00092223          	sw	zero,4(s2)
    2f92:	8c25                	xor	s0,s0,s1
    2f94:	b775                	j	2f40 <TMOS_CB_ProcessEvent+0x20>
    2f96:	0705                	addi	a4,a4,1
    2f98:	fac71fe3          	bne	a4,a2,2f56 <TMOS_CB_ProcessEvent+0x36>
    2f9c:	4481                	li	s1,0
    2f9e:	bfd5                	j	2f92 <TMOS_CB_ProcessEvent+0x72>

00002fa0 <tmos_proces_sleep>:
tmos_proces_sleep():
    2fa0:	1101                	addi	sp,sp,-32
    2fa2:	0068                	addi	a0,sp,12
    2fa4:	ce06                	sw	ra,28(sp)
    2fa6:	cc22                	sw	s0,24(sp)
    2fa8:	ca26                	sw	s1,20(sp)
    2faa:	005000ef          	jal	ra,37ae <LL_GetNextConnectEventTime>
    2fae:	57fd                	li	a5,-1
    2fb0:	0ef50063          	beq	a0,a5,3090 <tmos_proces_sleep+0xf0>
    2fb4:	4732                	lw	a4,12(sp)
    2fb6:	20000697          	auipc	a3,0x20000
    2fba:	38268693          	addi	a3,a3,898 # 20003338 <ble>
    2fbe:	20000797          	auipc	a5,0x20000
    2fc2:	38f7c783          	lbu	a5,911(a5) # 2000334d <ble+0x15>
    2fc6:	84b6                	mv	s1,a3
    2fc8:	0ae7f963          	bgeu	a5,a4,307a <tmos_proces_sleep+0xda>
    2fcc:	20000417          	auipc	s0,0x20000
    2fd0:	31440413          	addi	s0,s0,788 # 200032e0 <gTmosPara>
    2fd4:	4818                	lw	a4,16(s0)
    2fd6:	a8c00637          	lui	a2,0xa8c00
    2fda:	02c70e63          	beq	a4,a2,3016 <tmos_proces_sleep+0x76>
    2fde:	20000797          	auipc	a5,0x20000
    2fe2:	39e78793          	addi	a5,a5,926 # 2000337c <fnGetClockCBs>
    2fe6:	439c                	lw	a5,0(a5)
    2fe8:	9782                	jalr	a5
    2fea:	4732                	lw	a4,12(sp)
    2fec:	481c                	lw	a5,16(s0)
    2fee:	00f77363          	bgeu	a4,a5,2ff4 <tmos_proces_sleep+0x54>
    2ff2:	87ba                	mv	a5,a4
    2ff4:	20000717          	auipc	a4,0x20000
    2ff8:	35974703          	lbu	a4,857(a4) # 2000334d <ble+0x15>
    2ffc:	8f99                	sub	a5,a5,a4
    2ffe:	953e                	add	a0,a0,a5
    3000:	01648783          	lb	a5,22(s1)
    3004:	0007ce63          	bltz	a5,3020 <tmos_proces_sleep+0x80>
    3008:	a8c007b7          	lui	a5,0xa8c00
    300c:	00f56a63          	bltu	a0,a5,3020 <tmos_proces_sleep+0x80>
    3010:	574007b7          	lui	a5,0x57400
    3014:	a8a5                	j	308c <tmos_proces_sleep+0xec>
    3016:	01668683          	lb	a3,22(a3)
    301a:	0606d563          	bgez	a3,3084 <tmos_proces_sleep+0xe4>
    301e:	8d1d                	sub	a0,a0,a5
    3020:	20000417          	auipc	s0,0x20000
    3024:	36c40413          	addi	s0,s0,876 # 2000338c <gBleIPPara>
    3028:	4c1c                	lw	a5,24(s0)
    302a:	cf81                	beqz	a5,3042 <tmos_proces_sleep+0xa2>
    302c:	20000797          	auipc	a5,0x20000
    3030:	3c078793          	addi	a5,a5,960 # 200033ec <gptrRFENDReg>
    3034:	4394                	lw	a3,0(a5)
    3036:	ffcd0737          	lui	a4,0xffcd0
    303a:	177d                	addi	a4,a4,-1
    303c:	469c                	lw	a5,8(a3)
    303e:	8ff9                	and	a5,a5,a4
    3040:	c69c                	sw	a5,8(a3)
    3042:	e119                	bnez	a0,3048 <tmos_proces_sleep+0xa8>
    3044:	a8c00537          	lui	a0,0xa8c00
    3048:	20000797          	auipc	a5,0x20000
    304c:	2f078793          	addi	a5,a5,752 # 20003338 <ble>
    3050:	53dc                	lw	a5,36(a5)
    3052:	9782                	jalr	a5
    3054:	e519                	bnez	a0,3062 <tmos_proces_sleep+0xc2>
    3056:	4c1c                	lw	a5,24(s0)
    3058:	c38d                	beqz	a5,307a <tmos_proces_sleep+0xda>
    305a:	7bd000ef          	jal	ra,4016 <LLE_DevInit>
    305e:	23f000ef          	jal	ra,3a9c <BB_DevInit>
    3062:	4c1c                	lw	a5,24(s0)
    3064:	cb99                	beqz	a5,307a <tmos_proces_sleep+0xda>
    3066:	20000797          	auipc	a5,0x20000
    306a:	38678793          	addi	a5,a5,902 # 200033ec <gptrRFENDReg>
    306e:	4398                	lw	a4,0(a5)
    3070:	003306b7          	lui	a3,0x330
    3074:	471c                	lw	a5,8(a4)
    3076:	8fd5                	or	a5,a5,a3
    3078:	c71c                	sw	a5,8(a4)
    307a:	40f2                	lw	ra,28(sp)
    307c:	4462                	lw	s0,24(sp)
    307e:	44d2                	lw	s1,20(sp)
    3080:	6105                	addi	sp,sp,32
    3082:	8082                	ret
    3084:	f8f57de3          	bgeu	a0,a5,301e <tmos_proces_sleep+0x7e>
    3088:	40f707b3          	sub	a5,a4,a5
    308c:	953e                	add	a0,a0,a5
    308e:	bf49                	j	3020 <tmos_proces_sleep+0x80>
    3090:	20000497          	auipc	s1,0x20000
    3094:	25048493          	addi	s1,s1,592 # 200032e0 <gTmosPara>
    3098:	489c                	lw	a5,16(s1)
    309a:	a8c00437          	lui	s0,0xa8c00
    309e:	fc878ee3          	beq	a5,s0,307a <tmos_proces_sleep+0xda>
    30a2:	20000797          	auipc	a5,0x20000
    30a6:	2da78793          	addi	a5,a5,730 # 2000337c <fnGetClockCBs>
    30aa:	439c                	lw	a5,0(a5)
    30ac:	9782                	jalr	a5
    30ae:	489c                	lw	a5,16(s1)
    30b0:	20000717          	auipc	a4,0x20000
    30b4:	29d74703          	lbu	a4,669(a4) # 2000334d <ble+0x15>
    30b8:	8f99                	sub	a5,a5,a4
    30ba:	953e                	add	a0,a0,a5
    30bc:	20000797          	auipc	a5,0x20000
    30c0:	27c78793          	addi	a5,a5,636 # 20003338 <ble>
    30c4:	01678783          	lb	a5,22(a5)
    30c8:	f407cce3          	bltz	a5,3020 <tmos_proces_sleep+0x80>
    30cc:	f4856ae3          	bltu	a0,s0,3020 <tmos_proces_sleep+0x80>
    30d0:	b781                	j	3010 <tmos_proces_sleep+0x70>

000030d2 <TMOS_GetSystemClock>:
TMOS_GetSystemClock():
    30d2:	20000797          	auipc	a5,0x20000
    30d6:	2a678793          	addi	a5,a5,678 # 20003378 <pfnTimerCBs>
    30da:	439c                	lw	a5,0(a5)
    30dc:	1141                	addi	sp,sp,-16
    30de:	c422                	sw	s0,8(sp)
    30e0:	c606                	sw	ra,12(sp)
    30e2:	20000417          	auipc	s0,0x20000
    30e6:	1fe40413          	addi	s0,s0,510 # 200032e0 <gTmosPara>
    30ea:	cb81                	beqz	a5,30fa <TMOS_GetSystemClock+0x28>
    30ec:	9782                	jalr	a5
    30ee:	485c                	lw	a5,20(s0)
    30f0:	953e                	add	a0,a0,a5
    30f2:	20000797          	auipc	a5,0x20000
    30f6:	20a7a123          	sw	a0,514(a5) # 200032f4 <gTmosPara+0x14>
    30fa:	4848                	lw	a0,20(s0)
    30fc:	40b2                	lw	ra,12(sp)
    30fe:	4422                	lw	s0,8(sp)
    3100:	0141                	addi	sp,sp,16
    3102:	8082                	ret

00003104 <tmos_set_event>:
tmos_set_event():
    3104:	20000797          	auipc	a5,0x20000
    3108:	1dd7c783          	lbu	a5,477(a5) # 200032e1 <gTmosPara+0x1>
    310c:	02f57163          	bgeu	a0,a5,312e <tmos_set_event+0x2a>
    3110:	20000717          	auipc	a4,0x20000
    3114:	22070713          	addi	a4,a4,544 # 20003330 <EventsArr>
    3118:	00151793          	slli	a5,a0,0x1
    311c:	4308                	lw	a0,0(a4)
    311e:	953e                	add	a0,a0,a5
    3120:	00055783          	lhu	a5,0(a0) # a8c00000 <_eusrstack+0x88bf8000>
    3124:	8ddd                	or	a1,a1,a5
    3126:	00b51023          	sh	a1,0(a0)
    312a:	4501                	li	a0,0
    312c:	8082                	ret
    312e:	450d                	li	a0,3
    3130:	8082                	ret

00003132 <tmos_clear_event>:
tmos_clear_event():
    3132:	20000797          	auipc	a5,0x20000
    3136:	1af7c783          	lbu	a5,431(a5) # 200032e1 <gTmosPara+0x1>
    313a:	02f57363          	bgeu	a0,a5,3160 <tmos_clear_event+0x2e>
    313e:	20000717          	auipc	a4,0x20000
    3142:	1f270713          	addi	a4,a4,498 # 20003330 <EventsArr>
    3146:	00151793          	slli	a5,a0,0x1
    314a:	4308                	lw	a0,0(a4)
    314c:	fff5c593          	not	a1,a1
    3150:	953e                	add	a0,a0,a5
    3152:	00055783          	lhu	a5,0(a0)
    3156:	8dfd                	and	a1,a1,a5
    3158:	00b51023          	sh	a1,0(a0)
    315c:	4501                	li	a0,0
    315e:	8082                	ret
    3160:	450d                	li	a0,3
    3162:	8082                	ret

00003164 <tmos_start_task>:
tmos_start_task():
    3164:	20000797          	auipc	a5,0x20000
    3168:	17d7c783          	lbu	a5,381(a5) # 200032e1 <gTmosPara+0x1>
    316c:	00f56463          	bltu	a0,a5,3174 <tmos_start_task+0x10>
    3170:	4501                	li	a0,0
    3172:	8082                	ret
    3174:	20000797          	auipc	a5,0x20000
    3178:	20878793          	addi	a5,a5,520 # 2000337c <fnGetClockCBs>
    317c:	439c                	lw	a5,0(a5)
    317e:	dbed                	beqz	a5,3170 <tmos_start_task+0xc>
    3180:	1101                	addi	sp,sp,-32
    3182:	cc22                	sw	s0,24(sp)
    3184:	ca26                	sw	s1,20(sp)
    3186:	c84a                	sw	s2,16(sp)
    3188:	c64e                	sw	s3,12(sp)
    318a:	ce06                	sw	ra,28(sp)
    318c:	89b2                	mv	s3,a2
    318e:	892e                	mv	s2,a1
    3190:	84aa                	mv	s1,a0
    3192:	9782                	jalr	a5
    3194:	20000417          	auipc	s0,0x20000
    3198:	17445403          	lhu	s0,372(s0) # 20003308 <gTmosPara+0x28>
    319c:	03340433          	mul	s0,s0,s3
    31a0:	64000793          	li	a5,1600
    31a4:	32040413          	addi	s0,s0,800
    31a8:	02f45433          	divu	s0,s0,a5
    31ac:	20000797          	auipc	a5,0x20000
    31b0:	18c78793          	addi	a5,a5,396 # 20003338 <ble>
    31b4:	01678703          	lb	a4,22(a5)
    31b8:	89be                	mv	s3,a5
    31ba:	942a                	add	s0,s0,a0
    31bc:	00074963          	bltz	a4,31ce <tmos_start_task+0x6a>
    31c0:	a8c007b7          	lui	a5,0xa8c00
    31c4:	00f46563          	bltu	s0,a5,31ce <tmos_start_task+0x6a>
    31c8:	574007b7          	lui	a5,0x57400
    31cc:	943e                	add	s0,s0,a5
    31ce:	85ca                	mv	a1,s2
    31d0:	8526                	mv	a0,s1
    31d2:	3155                	jal	2e76 <tmosFindTask>
    31d4:	c501                	beqz	a0,31dc <tmos_start_task+0x78>
    31d6:	c500                	sw	s0,8(a0)
    31d8:	4505                	li	a0,1
    31da:	a015                	j	31fe <tmos_start_task+0x9a>
    31dc:	f004e593          	ori	a1,s1,-256
    31e0:	05c2                	slli	a1,a1,0x10
    31e2:	81c1                	srli	a1,a1,0x10
    31e4:	4541                	li	a0,16
    31e6:	1fffe097          	auipc	ra,0x1fffe
    31ea:	472080e7          	jalr	1138(ra) # 20001658 <tmos_memory_allocate>
    31ee:	ed19                	bnez	a0,320c <tmos_start_task+0xa8>
    31f0:	0309a783          	lw	a5,48(s3)
    31f4:	c781                	beqz	a5,31fc <tmos_start_task+0x98>
    31f6:	85a6                	mv	a1,s1
    31f8:	4511                	li	a0,4
    31fa:	9782                	jalr	a5
    31fc:	4501                	li	a0,0
    31fe:	40f2                	lw	ra,28(sp)
    3200:	4462                	lw	s0,24(sp)
    3202:	44d2                	lw	s1,20(sp)
    3204:	4942                	lw	s2,16(sp)
    3206:	49b2                	lw	s3,12(sp)
    3208:	6105                	addi	sp,sp,32
    320a:	8082                	ret
    320c:	20000797          	auipc	a5,0x20000
    3210:	12878793          	addi	a5,a5,296 # 20003334 <taskHead>
    3214:	439c                	lw	a5,0(a5)
    3216:	e39d                	bnez	a5,323c <tmos_start_task+0xd8>
    3218:	20000797          	auipc	a5,0x20000
    321c:	10a7ae23          	sw	a0,284(a5) # 20003334 <taskHead>
    3220:	4785                	li	a5,1
    3222:	00052623          	sw	zero,12(a0)
    3226:	c500                	sw	s0,8(a0)
    3228:	01251123          	sh	s2,2(a0)
    322c:	00950023          	sb	s1,0(a0)
    3230:	00f500a3          	sb	a5,1(a0)
    3234:	00052223          	sw	zero,4(a0)
    3238:	b745                	j	31d8 <tmos_start_task+0x74>
    323a:	87ba                	mv	a5,a4
    323c:	47d8                	lw	a4,12(a5)
    323e:	ff75                	bnez	a4,323a <tmos_start_task+0xd6>
    3240:	c7c8                	sw	a0,12(a5)
    3242:	bff9                	j	3220 <tmos_start_task+0xbc>

00003244 <tmos_stop_task>:
tmos_stop_task():
    3244:	1141                	addi	sp,sp,-16
    3246:	c422                	sw	s0,8(sp)
    3248:	c226                	sw	s1,4(sp)
    324a:	c04a                	sw	s2,0(sp)
    324c:	c606                	sw	ra,12(sp)
    324e:	892a                	mv	s2,a0
    3250:	842e                	mv	s0,a1
    3252:	3115                	jal	2e76 <tmosFindTask>
    3254:	84aa                	mv	s1,a0
    3256:	c119                	beqz	a0,325c <tmos_stop_task+0x18>
    3258:	00051123          	sh	zero,2(a0)
    325c:	85a2                	mv	a1,s0
    325e:	854a                	mv	a0,s2
    3260:	3dc9                	jal	3132 <tmos_clear_event>
    3262:	20000797          	auipc	a5,0x20000
    3266:	07e7c783          	lbu	a5,126(a5) # 200032e0 <gTmosPara>
    326a:	01279b63          	bne	a5,s2,3280 <tmos_stop_task+0x3c>
    326e:	20000797          	auipc	a5,0x20000
    3272:	0be7d783          	lhu	a5,190(a5) # 2000332c <eventsClear>
    3276:	8c5d                	or	s0,s0,a5
    3278:	20000797          	auipc	a5,0x20000
    327c:	0a879a23          	sh	s0,180(a5) # 2000332c <eventsClear>
    3280:	4501                	li	a0,0
    3282:	e091                	bnez	s1,3286 <tmos_stop_task+0x42>
    3284:	4519                	li	a0,6
    3286:	40b2                	lw	ra,12(sp)
    3288:	4422                	lw	s0,8(sp)
    328a:	4492                	lw	s1,4(sp)
    328c:	4902                	lw	s2,0(sp)
    328e:	0141                	addi	sp,sp,16
    3290:	8082                	ret

00003292 <TMOS_TimerRegister>:
TMOS_TimerRegister():
    3292:	1141                	addi	sp,sp,-16
    3294:	c606                	sw	ra,12(sp)
    3296:	20000797          	auipc	a5,0x20000
    329a:	0ea7a123          	sw	a0,226(a5) # 20003378 <pfnTimerCBs>
    329e:	9502                	jalr	a0
    32a0:	40b2                	lw	ra,12(sp)
    32a2:	20000797          	auipc	a5,0x20000
    32a6:	04a7ab23          	sw	a0,86(a5) # 200032f8 <gTmosPara+0x18>
    32aa:	4501                	li	a0,0
    32ac:	0141                	addi	sp,sp,16
    32ae:	8082                	ret

000032b0 <TMOS_ProcessRegister>:
TMOS_ProcessRegister():
    32b0:	4799                	li	a5,6
    32b2:	00b7e963          	bltu	a5,a1,32c4 <TMOS_ProcessRegister+0x14>
    32b6:	058a                	slli	a1,a1,0x2
    32b8:	20000797          	auipc	a5,0x20000
    32bc:	05878793          	addi	a5,a5,88 # 20003310 <pfnProcessCBs>
    32c0:	95be                	add	a1,a1,a5
    32c2:	c188                	sw	a0,0(a1)
    32c4:	8082                	ret

000032c6 <TMOS_Init>:
TMOS_Init():
    32c6:	1141                	addi	sp,sp,-16
    32c8:	4671                	li	a2,28
    32ca:	4581                	li	a1,0
    32cc:	20000517          	auipc	a0,0x20000
    32d0:	04450513          	addi	a0,a0,68 # 20003310 <pfnProcessCBs>
    32d4:	c606                	sw	ra,12(sp)
    32d6:	c422                	sw	s0,8(sp)
    32d8:	c226                	sw	s1,4(sp)
    32da:	1fffd097          	auipc	ra,0x1fffd
    32de:	5d0080e7          	jalr	1488(ra) # 200008aa <tmos_memset>
    32e2:	02c00613          	li	a2,44
    32e6:	4581                	li	a1,0
    32e8:	20000517          	auipc	a0,0x20000
    32ec:	ff850513          	addi	a0,a0,-8 # 200032e0 <gTmosPara>
    32f0:	1fffd097          	auipc	ra,0x1fffd
    32f4:	5ba080e7          	jalr	1466(ra) # 200008aa <tmos_memset>
    32f8:	72b020ef          	jal	ra,6222 <tmos_memory_init>
    32fc:	20000797          	auipc	a5,0x20000
    3300:	0207ac23          	sw	zero,56(a5) # 20003334 <taskHead>
    3304:	20000797          	auipc	a5,0x20000
    3308:	0607aa23          	sw	zero,116(a5) # 20003378 <pfnTimerCBs>
    330c:	20000797          	auipc	a5,0x20000
    3310:	0437c783          	lbu	a5,67(a5) # 2000334f <ble+0x17>
    3314:	0027d513          	srli	a0,a5,0x2
    3318:	8b8d                	andi	a5,a5,3
    331a:	953e                	add	a0,a0,a5
    331c:	478d                	li	a5,3
    331e:	02f50533          	mul	a0,a0,a5
    3322:	20000417          	auipc	s0,0x20000
    3326:	fbe40413          	addi	s0,s0,-66 # 200032e0 <gTmosPara>
    332a:	4799                	li	a5,6
    332c:	4585                	li	a1,1
    332e:	20000497          	auipc	s1,0x20000
    3332:	fde48493          	addi	s1,s1,-34 # 2000330c <tasksArr>
    3336:	0539                	addi	a0,a0,14
    3338:	0ff57513          	andi	a0,a0,255
    333c:	00a40123          	sb	a0,2(s0)
    3340:	02f50533          	mul	a0,a0,a5
    3344:	24050513          	addi	a0,a0,576
    3348:	1fffe097          	auipc	ra,0x1fffe
    334c:	310080e7          	jalr	784(ra) # 20001658 <tmos_memory_allocate>
    3350:	20000797          	auipc	a5,0x20000
    3354:	02a7a223          	sw	a0,36(a5) # 20003374 <cbTimersHead>
    3358:	00244783          	lbu	a5,2(s0)
    335c:	24050513          	addi	a0,a0,576
    3360:	c088                	sw	a0,0(s1)
    3362:	078a                	slli	a5,a5,0x2
    3364:	953e                	add	a0,a0,a5
    3366:	20000797          	auipc	a5,0x20000
    336a:	fca7a523          	sw	a0,-54(a5) # 20003330 <EventsArr>
    336e:	3cfd                	jal	2e6c <tmos_msg_init>
    3370:	2ebd                	jal	36ee <tmos_snv_init>
    3372:	00144783          	lbu	a5,1(s0)
    3376:	4094                	lw	a3,0(s1)
    3378:	00000617          	auipc	a2,0x0
    337c:	b2260613          	addi	a2,a2,-1246 # 2e9a <TMOS_CB_PeriodicProcessEvent>
    3380:	00279713          	slli	a4,a5,0x2
    3384:	9736                	add	a4,a4,a3
    3386:	c310                	sw	a2,0(a4)
    3388:	00178713          	addi	a4,a5,1
    338c:	0ff77713          	andi	a4,a4,255
    3390:	070a                	slli	a4,a4,0x2
    3392:	9736                	add	a4,a4,a3
    3394:	00000617          	auipc	a2,0x0
    3398:	b8c60613          	addi	a2,a2,-1140 # 2f20 <TMOS_CB_ProcessEvent>
    339c:	c310                	sw	a2,0(a4)
    339e:	00378713          	addi	a4,a5,3
    33a2:	0789                	addi	a5,a5,2
    33a4:	0ff7f793          	andi	a5,a5,255
    33a8:	00e400a3          	sb	a4,1(s0)
    33ac:	40b2                	lw	ra,12(sp)
    33ae:	4422                	lw	s0,8(sp)
    33b0:	078a                	slli	a5,a5,0x2
    33b2:	97b6                	add	a5,a5,a3
    33b4:	c390                	sw	a2,0(a5)
    33b6:	4492                	lw	s1,4(sp)
    33b8:	0141                	addi	sp,sp,16
    33ba:	8082                	ret

000033bc <TMOS_ProcessEventRegister>:
TMOS_ProcessEventRegister():
    33bc:	20000797          	auipc	a5,0x20000
    33c0:	f257c783          	lbu	a5,-219(a5) # 200032e1 <gTmosPara+0x1>
    33c4:	20000717          	auipc	a4,0x20000
    33c8:	f1e74703          	lbu	a4,-226(a4) # 200032e2 <gTmosPara+0x2>
    33cc:	02e7f363          	bgeu	a5,a4,33f2 <TMOS_ProcessEventRegister+0x36>
    33d0:	20000717          	auipc	a4,0x20000
    33d4:	f3c70713          	addi	a4,a4,-196 # 2000330c <tasksArr>
    33d8:	4318                	lw	a4,0(a4)
    33da:	00178693          	addi	a3,a5,1
    33de:	20000617          	auipc	a2,0x20000
    33e2:	f0d601a3          	sb	a3,-253(a2) # 200032e1 <gTmosPara+0x1>
    33e6:	00279693          	slli	a3,a5,0x2
    33ea:	9736                	add	a4,a4,a3
    33ec:	c308                	sw	a0,0(a4)
    33ee:	853e                	mv	a0,a5
    33f0:	8082                	ret
    33f2:	0ff00793          	li	a5,255
    33f6:	bfe5                	j	33ee <TMOS_ProcessEventRegister+0x32>

000033f8 <BLE_LibInit>:
BLE_LibInit():
    33f8:	411c                	lw	a5,0(a0)
    33fa:	16078763          	beqz	a5,3568 <BLE_LibInit+0x170>
    33fe:	7741                	lui	a4,0xffff0
    3400:	8f7d                	and	a4,a4,a5
    3402:	200006b7          	lui	a3,0x20000
    3406:	4789                	li	a5,2
    3408:	16d71163          	bne	a4,a3,356a <BLE_LibInit+0x172>
    340c:	00455703          	lhu	a4,4(a0)
    3410:	14070d63          	beqz	a4,356a <BLE_LibInit+0x172>
    3414:	1141                	addi	sp,sp,-16
    3416:	c226                	sw	s1,4(sp)
    3418:	4619                	li	a2,6
    341a:	84aa                	mv	s1,a0
    341c:	0ff00593          	li	a1,255
    3420:	0569                	addi	a0,a0,26
    3422:	c606                	sw	ra,12(sp)
    3424:	c422                	sw	s0,8(sp)
    3426:	1fffd097          	auipc	ra,0x1fffd
    342a:	526080e7          	jalr	1318(ra) # 2000094c <tmos_isbufset>
    342e:	4705                	li	a4,1
    3430:	478d                	li	a5,3
    3432:	12e50563          	beq	a0,a4,355c <BLE_LibInit+0x164>
    3436:	20000417          	auipc	s0,0x20000
    343a:	f0240413          	addi	s0,s0,-254 # 20003338 <ble>
    343e:	441c                	lw	a5,8(s0)
    3440:	cb81                	beqz	a5,3450 <BLE_LibInit+0x58>
    3442:	5858                	lw	a4,52(s0)
    3444:	4799                	li	a5,6
    3446:	10071b63          	bnez	a4,355c <BLE_LibInit+0x164>
    344a:	5c18                	lw	a4,56(s0)
    344c:	10071863          	bnez	a4,355c <BLE_LibInit+0x164>
    3450:	03c00613          	li	a2,60
    3454:	4581                	li	a1,0
    3456:	20000517          	auipc	a0,0x20000
    345a:	ee250513          	addi	a0,a0,-286 # 20003338 <ble>
    345e:	1fffd097          	auipc	ra,0x1fffd
    3462:	44c080e7          	jalr	1100(ra) # 200008aa <tmos_memset>
    3466:	03c00613          	li	a2,60
    346a:	85a6                	mv	a1,s1
    346c:	20000517          	auipc	a0,0x20000
    3470:	ecc50513          	addi	a0,a0,-308 # 20003338 <ble>
    3474:	1fffd097          	auipc	ra,0x1fffd
    3478:	3fe080e7          	jalr	1022(ra) # 20000872 <tmos_memcpy>
    347c:	20000797          	auipc	a5,0x20000
    3480:	ec87d783          	lhu	a5,-312(a5) # 20003344 <ble+0xc>
    3484:	e799                	bnez	a5,3492 <BLE_LibInit+0x9a>
    3486:	10000793          	li	a5,256
    348a:	20000717          	auipc	a4,0x20000
    348e:	eaf71d23          	sh	a5,-326(a4) # 20003344 <ble+0xc>
    3492:	20000797          	auipc	a5,0x20000
    3496:	eb47c783          	lbu	a5,-332(a5) # 20003346 <ble+0xe>
    349a:	e791                	bnez	a5,34a6 <BLE_LibInit+0xae>
    349c:	4785                	li	a5,1
    349e:	20000717          	auipc	a4,0x20000
    34a2:	eaf70423          	sb	a5,-344(a4) # 20003346 <ble+0xe>
    34a6:	20000797          	auipc	a5,0x20000
    34aa:	ea27d783          	lhu	a5,-350(a5) # 20003348 <ble+0x10>
    34ae:	e791                	bnez	a5,34ba <BLE_LibInit+0xc2>
    34b0:	47ed                	li	a5,27
    34b2:	20000717          	auipc	a4,0x20000
    34b6:	e8f71b23          	sh	a5,-362(a4) # 20003348 <ble+0x10>
    34ba:	20000797          	auipc	a5,0x20000
    34be:	e8d7c783          	lbu	a5,-371(a5) # 20003347 <ble+0xf>
    34c2:	e791                	bnez	a5,34ce <BLE_LibInit+0xd6>
    34c4:	4795                	li	a5,5
    34c6:	20000717          	auipc	a4,0x20000
    34ca:	e8f700a3          	sb	a5,-383(a4) # 20003347 <ble+0xf>
    34ce:	20000797          	auipc	a5,0x20000
    34d2:	e7c7c783          	lbu	a5,-388(a5) # 2000334a <ble+0x12>
    34d6:	e791                	bnez	a5,34e2 <BLE_LibInit+0xea>
    34d8:	4785                	li	a5,1
    34da:	20000717          	auipc	a4,0x20000
    34de:	e6f70823          	sb	a5,-400(a4) # 2000334a <ble+0x12>
    34e2:	20000797          	auipc	a5,0x20000
    34e6:	e697c783          	lbu	a5,-407(a5) # 2000334b <ble+0x13>
    34ea:	e799                	bnez	a5,34f8 <BLE_LibInit+0x100>
    34ec:	00f44783          	lbu	a5,15(s0)
    34f0:	20000717          	auipc	a4,0x20000
    34f4:	e4f70da3          	sb	a5,-421(a4) # 2000334b <ble+0x13>
    34f8:	20000797          	auipc	a5,0x20000
    34fc:	e547c783          	lbu	a5,-428(a5) # 2000334c <ble+0x14>
    3500:	e791                	bnez	a5,350c <BLE_LibInit+0x114>
    3502:	47b5                	li	a5,13
    3504:	20000717          	auipc	a4,0x20000
    3508:	e4f70423          	sb	a5,-440(a4) # 2000334c <ble+0x14>
    350c:	20000797          	auipc	a5,0x20000
    3510:	e457c783          	lbu	a5,-443(a5) # 20003351 <ble+0x19>
    3514:	e799                	bnez	a5,3522 <BLE_LibInit+0x12a>
    3516:	02800793          	li	a5,40
    351a:	20000717          	auipc	a4,0x20000
    351e:	e2f70ba3          	sb	a5,-457(a4) # 20003351 <ble+0x19>
    3522:	20000797          	auipc	a5,0x20000
    3526:	e2b7c783          	lbu	a5,-469(a5) # 2000334d <ble+0x15>
    352a:	e799                	bnez	a5,3538 <BLE_LibInit+0x140>
    352c:	02d00793          	li	a5,45
    3530:	20000717          	auipc	a4,0x20000
    3534:	e0f70ea3          	sb	a5,-483(a4) # 2000334d <ble+0x15>
    3538:	0184c783          	lbu	a5,24(s1)
    353c:	e799                	bnez	a5,354a <BLE_LibInit+0x152>
    353e:	03c00793          	li	a5,60
    3542:	20000717          	auipc	a4,0x20000
    3546:	e0f70723          	sb	a5,-498(a4) # 20003350 <ble+0x18>
    354a:	541c                	lw	a5,40(s0)
    354c:	c791                	beqz	a5,3558 <BLE_LibInit+0x160>
    354e:	9782                	jalr	a5
    3550:	20000797          	auipc	a5,0x20000
    3554:	d8a79c23          	sh	a0,-616(a5) # 200032e8 <gTmosPara+0x8>
    3558:	33bd                	jal	32c6 <TMOS_Init>
    355a:	4781                	li	a5,0
    355c:	40b2                	lw	ra,12(sp)
    355e:	4422                	lw	s0,8(sp)
    3560:	4492                	lw	s1,4(sp)
    3562:	853e                	mv	a0,a5
    3564:	0141                	addi	sp,sp,16
    3566:	8082                	ret
    3568:	4789                	li	a5,2
    356a:	853e                	mv	a0,a5
    356c:	8082                	ret

0000356e <clockGetTickValve>:
clockGetTickValve():
    356e:	20000797          	auipc	a5,0x20000
    3572:	e0e78793          	addi	a5,a5,-498 # 2000337c <fnGetClockCBs>
    3576:	439c                	lw	a5,0(a5)
    3578:	1141                	addi	sp,sp,-16
    357a:	c606                	sw	ra,12(sp)
    357c:	9782                	jalr	a5
    357e:	64000793          	li	a5,1600
    3582:	02f507b3          	mul	a5,a0,a5
    3586:	20000697          	auipc	a3,0x20000
    358a:	d826d683          	lhu	a3,-638(a3) # 20003308 <gTmosPara+0x28>
    358e:	20000717          	auipc	a4,0x20000
    3592:	d5270713          	addi	a4,a4,-686 # 200032e0 <gTmosPara>
    3596:	4f18                	lw	a4,24(a4)
    3598:	4501                	li	a0,0
    359a:	02d7d7b3          	divu	a5,a5,a3
    359e:	02f70063          	beq	a4,a5,35be <clockGetTickValve+0x50>
    35a2:	40e78533          	sub	a0,a5,a4
    35a6:	00f76863          	bltu	a4,a5,35b6 <clockGetTickValve+0x48>
    35aa:	b0000537          	lui	a0,0xb0000
    35ae:	02d55533          	divu	a0,a0,a3
    35b2:	8d19                	sub	a0,a0,a4
    35b4:	953e                	add	a0,a0,a5
    35b6:	20000717          	auipc	a4,0x20000
    35ba:	d4f72123          	sw	a5,-702(a4) # 200032f8 <gTmosPara+0x18>
    35be:	40b2                	lw	ra,12(sp)
    35c0:	0141                	addi	sp,sp,16
    35c2:	8082                	ret

000035c4 <TMOS_TempSample>:
TMOS_TempSample():
    35c4:	20000797          	auipc	a5,0x20000
    35c8:	d7478793          	addi	a5,a5,-652 # 20003338 <ble>
    35cc:	5798                	lw	a4,40(a5)
    35ce:	cb39                	beqz	a4,3624 <TMOS_TempSample+0x60>
    35d0:	1141                	addi	sp,sp,-16
    35d2:	c422                	sw	s0,8(sp)
    35d4:	c226                	sw	s1,4(sp)
    35d6:	c606                	sw	ra,12(sp)
    35d8:	84be                	mv	s1,a5
    35da:	9702                	jalr	a4
    35dc:	20000717          	auipc	a4,0x20000
    35e0:	d0c75703          	lhu	a4,-756(a4) # 200032e8 <gTmosPara+0x8>
    35e4:	842a                	mv	s0,a0
    35e6:	cb15                	beqz	a4,361a <TMOS_TempSample+0x56>
    35e8:	87ba                	mv	a5,a4
    35ea:	00a77363          	bgeu	a4,a0,35f0 <TMOS_TempSample+0x2c>
    35ee:	87aa                	mv	a5,a0
    35f0:	07c2                	slli	a5,a5,0x10
    35f2:	83c1                	srli	a5,a5,0x10
    35f4:	86ba                	mv	a3,a4
    35f6:	00e47363          	bgeu	s0,a4,35fc <TMOS_TempSample+0x38>
    35fa:	86a2                	mv	a3,s0
    35fc:	06c2                	slli	a3,a3,0x10
    35fe:	82c1                	srli	a3,a3,0x10
    3600:	8f95                	sub	a5,a5,a3
    3602:	4751                	li	a4,20
    3604:	00f75b63          	bge	a4,a5,361a <TMOS_TempSample+0x56>
    3608:	54dc                	lw	a5,44(s1)
    360a:	c391                	beqz	a5,360e <TMOS_TempSample+0x4a>
    360c:	9782                	jalr	a5
    360e:	0d3000ef          	jal	ra,3ee0 <BLE_RegInit>
    3612:	20000797          	auipc	a5,0x20000
    3616:	cc879b23          	sh	s0,-810(a5) # 200032e8 <gTmosPara+0x8>
    361a:	40b2                	lw	ra,12(sp)
    361c:	4422                	lw	s0,8(sp)
    361e:	4492                	lw	s1,4(sp)
    3620:	0141                	addi	sp,sp,16
    3622:	8082                	ret
    3624:	8082                	ret

00003626 <TMOS_TimerInit>:
TMOS_TimerInit():
    3626:	20000797          	auipc	a5,0x20000
    362a:	d1278793          	addi	a5,a5,-750 # 20003338 <ble>
    362e:	57dc                	lw	a5,44(a5)
    3630:	1101                	addi	sp,sp,-32
    3632:	ce06                	sw	ra,28(sp)
    3634:	c781                	beqz	a5,363c <TMOS_TimerInit+0x16>
    3636:	c62a                	sw	a0,12(sp)
    3638:	9782                	jalr	a5
    363a:	4532                	lw	a0,12(sp)
    363c:	c515                	beqz	a0,3668 <TMOS_TimerInit+0x42>
    363e:	003287b7          	lui	a5,0x328
    3642:	a1278793          	addi	a5,a5,-1518 # 327a12 <_data_lma+0x321396>
    3646:	20000717          	auipc	a4,0x20000
    364a:	ccf72123          	sw	a5,-830(a4) # 20003308 <gTmosPara+0x28>
    364e:	20000797          	auipc	a5,0x20000
    3652:	d2a7a723          	sw	a0,-722(a5) # 2000337c <fnGetClockCBs>
    3656:	00000517          	auipc	a0,0x0
    365a:	f1850513          	addi	a0,a0,-232 # 356e <clockGetTickValve>
    365e:	3915                	jal	3292 <TMOS_TimerRegister>
    3660:	40f2                	lw	ra,28(sp)
    3662:	4501                	li	a0,0
    3664:	6105                	addi	sp,sp,32
    3666:	8082                	ret
    3668:	20000797          	auipc	a5,0x20000
    366c:	ce67c783          	lbu	a5,-794(a5) # 2000334e <ble+0x16>
    3670:	01879713          	slli	a4,a5,0x18
    3674:	8761                	srai	a4,a4,0x18
    3676:	02075c63          	bgez	a4,36ae <TMOS_TimerInit+0x88>
    367a:	20000797          	auipc	a5,0x20000
    367e:	c807a123          	sw	zero,-894(a5) # 200032fc <gTmosPara+0x1c>
    3682:	003287b7          	lui	a5,0x328
    3686:	a1278793          	addi	a5,a5,-1518 # 327a12 <_data_lma+0x321396>
    368a:	20000717          	auipc	a4,0x20000
    368e:	c6f72f23          	sw	a5,-898(a4) # 20003308 <gTmosPara+0x28>
    3692:	577d                	li	a4,-1
    3694:	4000c7b7          	lui	a5,0x4000c
    3698:	26e7a423          	sw	a4,616(a5) # 4000c268 <_eusrstack+0x20004268>
    369c:	1fffd797          	auipc	a5,0x1fffd
    36a0:	62078793          	addi	a5,a5,1568 # 20000cbc <clockGetHSEValue>
    36a4:	20000717          	auipc	a4,0x20000
    36a8:	ccf72c23          	sw	a5,-808(a4) # 2000337c <fnGetClockCBs>
    36ac:	b76d                	j	3656 <TMOS_TimerInit+0x30>
    36ae:	0017f713          	andi	a4,a5,1
    36b2:	cf11                	beqz	a4,36ce <TMOS_TimerInit+0xa8>
    36b4:	032087b7          	lui	a5,0x3208
    36b8:	d0078793          	addi	a5,a5,-768 # 3207d00 <_data_lma+0x3201684>
    36bc:	20000717          	auipc	a4,0x20000
    36c0:	c4f72623          	sw	a5,-948(a4) # 20003308 <gTmosPara+0x28>
    36c4:	1fffd797          	auipc	a5,0x1fffd
    36c8:	62a78793          	addi	a5,a5,1578 # 20000cee <clockGetLSEValue>
    36cc:	bfe1                	j	36a4 <TMOS_TimerInit+0x7e>
    36ce:	7761                	lui	a4,0xffff8
    36d0:	20000697          	auipc	a3,0x20000
    36d4:	c2e69c23          	sh	a4,-968(a3) # 20003308 <gTmosPara+0x28>
    36d8:	cb81                	beqz	a5,36e8 <TMOS_TimerInit+0xc2>
    36da:	32000793          	li	a5,800
    36de:	20000717          	auipc	a4,0x20000
    36e2:	c2f71623          	sh	a5,-980(a4) # 2000330a <gTmosPara+0x2a>
    36e6:	bff9                	j	36c4 <TMOS_TimerInit+0x9e>
    36e8:	03200793          	li	a5,50
    36ec:	bfcd                	j	36de <TMOS_TimerInit+0xb8>

000036ee <tmos_snv_init>:
tmos_snv_init():
    36ee:	1101                	addi	sp,sp,-32
    36f0:	cc22                	sw	s0,24(sp)
    36f2:	20000417          	auipc	s0,0x20000
    36f6:	c4640413          	addi	s0,s0,-954 # 20003338 <ble>
    36fa:	4408                	lw	a0,8(s0)
    36fc:	ce06                	sw	ra,28(sp)
    36fe:	ca26                	sw	s1,20(sp)
    3700:	c84a                	sw	s2,16(sp)
    3702:	e901                	bnez	a0,3712 <tmos_snv_init+0x24>
    3704:	4505                	li	a0,1
    3706:	40f2                	lw	ra,28(sp)
    3708:	4462                	lw	s0,24(sp)
    370a:	44d2                	lw	s1,20(sp)
    370c:	4942                	lw	s2,16(sp)
    370e:	6105                	addi	sp,sp,32
    3710:	8082                	ret
    3712:	585c                	lw	a5,52(s0)
    3714:	dbe5                	beqz	a5,3704 <tmos_snv_init+0x16>
    3716:	5c18                	lw	a4,56(s0)
    3718:	d775                	beqz	a4,3704 <tmos_snv_init+0x16>
    371a:	0070                	addi	a2,sp,12
    371c:	4585                	li	a1,1
    371e:	9782                	jalr	a5
    3720:	4418                	lw	a4,8(s0)
    3722:	47b2                	lw	a5,12(sp)
    3724:	fef700e3          	beq	a4,a5,3704 <tmos_snv_init+0x16>
    3728:	04e00593          	li	a1,78
    372c:	20000517          	auipc	a0,0x20000
    3730:	c1855503          	lhu	a0,-1000(a0) # 20003344 <ble+0xc>
    3734:	1fffe097          	auipc	ra,0x1fffe
    3738:	f24080e7          	jalr	-220(ra) # 20001658 <tmos_memory_allocate>
    373c:	20000717          	auipc	a4,0x20000
    3740:	bca72223          	sw	a0,-1084(a4) # 20003300 <gTmosPara+0x20>
    3744:	d161                	beqz	a0,3704 <tmos_snv_init+0x16>
    3746:	20000617          	auipc	a2,0x20000
    374a:	bfe65603          	lhu	a2,-1026(a2) # 20003344 <ble+0xc>
    374e:	0ff00593          	li	a1,255
    3752:	1fffd097          	auipc	ra,0x1fffd
    3756:	158080e7          	jalr	344(ra) # 200008aa <tmos_memset>
    375a:	4481                	li	s1,0
    375c:	20000917          	auipc	s2,0x20000
    3760:	b8490913          	addi	s2,s2,-1148 # 200032e0 <gTmosPara>
    3764:	20000797          	auipc	a5,0x20000
    3768:	be27c783          	lbu	a5,-1054(a5) # 20003346 <ble+0xe>
    376c:	02092603          	lw	a2,32(s2)
    3770:	02f4c163          	blt	s1,a5,3792 <tmos_snv_init+0xa4>
    3774:	8532                	mv	a0,a2
    3776:	1fffe097          	auipc	ra,0x1fffe
    377a:	fb4080e7          	jalr	-76(ra) # 2000172a <tmos_memory_free>
    377e:	4501                	li	a0,0
    3780:	20000797          	auipc	a5,0x20000
    3784:	b807a023          	sw	zero,-1152(a5) # 20003300 <gTmosPara+0x20>
    3788:	20000797          	auipc	a5,0x20000
    378c:	b607ae23          	sw	zero,-1156(a5) # 20003304 <gTmosPara+0x24>
    3790:	bf9d                	j	3706 <tmos_snv_init+0x18>
    3792:	20000597          	auipc	a1,0x20000
    3796:	bb25d583          	lhu	a1,-1102(a1) # 20003344 <ble+0xc>
    379a:	029587b3          	mul	a5,a1,s1
    379e:	4408                	lw	a0,8(s0)
    37a0:	5c18                	lw	a4,56(s0)
    37a2:	8189                	srli	a1,a1,0x2
    37a4:	0485                	addi	s1,s1,1
    37a6:	953e                	add	a0,a0,a5
    37a8:	c208                	sw	a0,0(a2)
    37aa:	9702                	jalr	a4
    37ac:	bf65                	j	3764 <tmos_snv_init+0x76>

000037ae <LL_GetNextConnectEventTime>:
LL_GetNextConnectEventTime():
    37ae:	20000797          	auipc	a5,0x20000
    37b2:	b357c783          	lbu	a5,-1227(a5) # 200032e3 <gTmosPara+0x3>
    37b6:	18078263          	beqz	a5,393a <LL_GetNextConnectEventTime+0x18c>
    37ba:	1141                	addi	sp,sp,-16
    37bc:	c04a                	sw	s2,0(sp)
    37be:	c606                	sw	ra,12(sp)
    37c0:	892a                	mv	s2,a0
    37c2:	c422                	sw	s0,8(sp)
    37c4:	c226                	sw	s1,4(sp)
    37c6:	557d                	li	a0,-1
    37c8:	0e090c63          	beqz	s2,38c0 <LL_GetNextConnectEventTime+0x112>
    37cc:	20000797          	auipc	a5,0x20000
    37d0:	c3478793          	addi	a5,a5,-972 # 20003400 <gBleLlPara>
    37d4:	08c7a683          	lw	a3,140(a5)
    37d8:	c6e5                	beqz	a3,38c0 <LL_GetNextConnectEventTime+0x112>
    37da:	20000497          	auipc	s1,0x20000
    37de:	b5e48493          	addi	s1,s1,-1186 # 20003338 <ble>
    37e2:	01648883          	lb	a7,22(s1)
    37e6:	000f4537          	lui	a0,0xf4
    37ea:	23f50f13          	addi	t5,a0,575 # f423f <_data_lma+0xedbc3>
    37ee:	20000317          	auipc	t1,0x20000
    37f2:	b1a35303          	lhu	t1,-1254(t1) # 20003308 <gTmosPara+0x28>
    37f6:	20000f97          	auipc	t6,0x20000
    37fa:	b5afcf83          	lbu	t6,-1190(t6) # 20003350 <ble+0x18>
    37fe:	547d                	li	s0,-1
    3800:	4e85                	li	t4,1
    3802:	24050513          	addi	a0,a0,576
    3806:	a8c00e37          	lui	t3,0xa8c00
    380a:	429d                	li	t0,7
    380c:	4e200393          	li	t2,1250
    3810:	574000b7          	lui	ra,0x57400
    3814:	00b6c703          	lbu	a4,11(a3)
    3818:	0906a783          	lw	a5,144(a3)
    381c:	07d71a63          	bne	a4,t4,3890 <LL_GetNextConnectEventTime+0xe2>
    3820:	07e6d703          	lhu	a4,126(a3)
    3824:	03a6d603          	lhu	a2,58(a3)
    3828:	0ac77863          	bgeu	a4,a2,38d8 <LL_GetNextConnectEventTime+0x12a>
    382c:	0106c583          	lbu	a1,16(a3)
    3830:	0bd59463          	bne	a1,t4,38d8 <LL_GetNextConnectEventTime+0x12a>
    3834:	1186a583          	lw	a1,280(a3)
    3838:	e1c5                	bnez	a1,38d8 <LL_GetNextConnectEventTime+0x12a>
    383a:	0a46a583          	lw	a1,164(a3)
    383e:	edc9                	bnez	a1,38d8 <LL_GetNextConnectEventTime+0x12a>
    3840:	00f6c583          	lbu	a1,15(a3)
    3844:	08559a63          	bne	a1,t0,38d8 <LL_GetNextConnectEventTime+0x12a>
    3848:	0386d583          	lhu	a1,56(a3)
    384c:	8e19                	sub	a2,a2,a4
    384e:	0946a703          	lw	a4,148(a3)
    3852:	02c585b3          	mul	a1,a1,a2
    3856:	02654633          	div	a2,a0,t1
    385a:	027585b3          	mul	a1,a1,t2
    385e:	02e5d733          	divu	a4,a1,a4
    3862:	02c5d5b3          	divu	a1,a1,a2
    3866:	977e                	add	a4,a4,t6
    3868:	0742                	slli	a4,a4,0x10
    386a:	8341                	srli	a4,a4,0x10
    386c:	08e69223          	sh	a4,132(a3)
    3870:	00f58633          	add	a2,a1,a5
    3874:	0008c563          	bltz	a7,387e <LL_GetNextConnectEventTime+0xd0>
    3878:	01c66363          	bltu	a2,t3,387e <LL_GetNextConnectEventTime+0xd0>
    387c:	9606                	add	a2,a2,ra
    387e:	026707b3          	mul	a5,a4,t1
    3882:	97fa                	add	a5,a5,t5
    3884:	02a7d7b3          	divu	a5,a5,a0
    3888:	0408d263          	bgez	a7,38cc <LL_GetNextConnectEventTime+0x11e>
    388c:	40f607b3          	sub	a5,a2,a5
    3890:	0087f363          	bgeu	a5,s0,3896 <LL_GetNextConnectEventTime+0xe8>
    3894:	843e                	mv	s0,a5
    3896:	4294                	lw	a3,0(a3)
    3898:	feb5                	bnez	a3,3814 <LL_GetNextConnectEventTime+0x66>
    389a:	20000797          	auipc	a5,0x20000
    389e:	ae278793          	addi	a5,a5,-1310 # 2000337c <fnGetClockCBs>
    38a2:	439c                	lw	a5,0(a5)
    38a4:	9782                	jalr	a5
    38a6:	04a46863          	bltu	s0,a0,38f6 <LL_GetNextConnectEventTime+0x148>
    38aa:	40a407b3          	sub	a5,s0,a0
    38ae:	00f92023          	sw	a5,0(s2)
    38b2:	00092783          	lw	a5,0(s2)
    38b6:	4729                	li	a4,10
    38b8:	04f76f63          	bltu	a4,a5,3916 <LL_GetNextConnectEventTime+0x168>
    38bc:	00092023          	sw	zero,0(s2)
    38c0:	40b2                	lw	ra,12(sp)
    38c2:	4422                	lw	s0,8(sp)
    38c4:	4492                	lw	s1,4(sp)
    38c6:	4902                	lw	s2,0(sp)
    38c8:	0141                	addi	sp,sp,16
    38ca:	8082                	ret
    38cc:	fcf670e3          	bgeu	a2,a5,388c <LL_GetNextConnectEventTime+0xde>
    38d0:	40fe07b3          	sub	a5,t3,a5
    38d4:	97b2                	add	a5,a5,a2
    38d6:	bf6d                	j	3890 <LL_GetNextConnectEventTime+0xe2>
    38d8:	0846d703          	lhu	a4,132(a3)
    38dc:	02670733          	mul	a4,a4,t1
    38e0:	977a                	add	a4,a4,t5
    38e2:	02a75733          	divu	a4,a4,a0
    38e6:	0008d463          	bgez	a7,38ee <LL_GetNextConnectEventTime+0x140>
    38ea:	8f99                	sub	a5,a5,a4
    38ec:	b755                	j	3890 <LL_GetNextConnectEventTime+0xe2>
    38ee:	fee7fee3          	bgeu	a5,a4,38ea <LL_GetNextConnectEventTime+0x13c>
    38f2:	97f2                	add	a5,a5,t3
    38f4:	bfdd                	j	38ea <LL_GetNextConnectEventTime+0x13c>
    38f6:	408507b3          	sub	a5,a0,s0
    38fa:	0007db63          	bgez	a5,3910 <LL_GetNextConnectEventTime+0x162>
    38fe:	01648783          	lb	a5,22(s1)
    3902:	fa07c4e3          	bltz	a5,38aa <LL_GetNextConnectEventTime+0xfc>
    3906:	a8c007b7          	lui	a5,0xa8c00
    390a:	97a2                	add	a5,a5,s0
    390c:	8f89                	sub	a5,a5,a0
    390e:	b745                	j	38ae <LL_GetNextConnectEventTime+0x100>
    3910:	00092023          	sw	zero,0(s2)
    3914:	bf79                	j	38b2 <LL_GetNextConnectEventTime+0x104>
    3916:	17d9                	addi	a5,a5,-10
    3918:	00f92023          	sw	a5,0(s2)
    391c:	01648783          	lb	a5,22(s1)
    3920:	0007d563          	bgez	a5,392a <LL_GetNextConnectEventTime+0x17c>
    3924:	ff640513          	addi	a0,s0,-10
    3928:	bf61                	j	38c0 <LL_GetNextConnectEventTime+0x112>
    392a:	47a5                	li	a5,9
    392c:	fe87ece3          	bltu	a5,s0,3924 <LL_GetNextConnectEventTime+0x176>
    3930:	a8c00537          	lui	a0,0xa8c00
    3934:	1559                	addi	a0,a0,-10
    3936:	9522                	add	a0,a0,s0
    3938:	b761                	j	38c0 <LL_GetNextConnectEventTime+0x112>
    393a:	557d                	li	a0,-1
    393c:	8082                	ret

0000393e <LL_ScanSetRF>:
LL_ScanSetRF():
    393e:	1141                	addi	sp,sp,-16
    3940:	20000797          	auipc	a5,0x20000
    3944:	ac078793          	addi	a5,a5,-1344 # 20003400 <gBleLlPara>
    3948:	c226                	sw	s1,4(sp)
    394a:	20000497          	auipc	s1,0x20000
    394e:	a5e48493          	addi	s1,s1,-1442 # 200033a8 <gptrLLEReg>
    3952:	c422                	sw	s0,8(sp)
    3954:	5be0                	lw	s0,116(a5)
    3956:	409c                	lw	a5,0(s1)
    3958:	c606                	sw	ra,12(sp)
    395a:	c04a                	sw	s2,0(sp)
    395c:	4398                	lw	a4,0(a5)
    395e:	8b0d                	andi	a4,a4,3
    3960:	c305                	beqz	a4,3980 <LL_ScanSetRF+0x42>
    3962:	4bb8                	lw	a4,80(a5)
    3964:	9b61                	andi	a4,a4,-8
    3966:	cbb8                	sw	a4,80(a5)
    3968:	4398                	lw	a4,0(a5)
    396a:	00876713          	ori	a4,a4,8
    396e:	c398                	sw	a4,0(a5)
    3970:	439c                	lw	a5,0(a5)
    3972:	838d                	srli	a5,a5,0x3
    3974:	8b85                	andi	a5,a5,1
    3976:	c789                	beqz	a5,3980 <LL_ScanSetRF+0x42>
    3978:	0001                	nop
    397a:	0001                	nop
    397c:	0001                	nop
    397e:	0001                	nop
    3980:	20000797          	auipc	a5,0x20000
    3984:	a0478793          	addi	a5,a5,-1532 # 20003384 <gptrBBReg>
    3988:	4394                	lw	a3,0(a5)
    398a:	8e89c737          	lui	a4,0x8e89c
    398e:	ed670713          	addi	a4,a4,-298 # 8e89bed6 <_eusrstack+0x6e893ed6>
    3992:	c698                	sw	a4,8(a3)
    3994:	00555737          	lui	a4,0x555
    3998:	55570713          	addi	a4,a4,1365 # 555555 <_data_lma+0x54eed9>
    399c:	c2d8                	sw	a4,4(a3)
    399e:	02244703          	lbu	a4,34(s0)
    39a2:	0ff00693          	li	a3,255
    39a6:	893e                	mv	s2,a5
    39a8:	00d70763          	beq	a4,a3,39b6 <LL_ScanSetRF+0x78>
    39ac:	57fd                	li	a5,-1
    39ae:	02e400a3          	sb	a4,33(s0)
    39b2:	02f40123          	sb	a5,34(s0)
    39b6:	02144503          	lbu	a0,33(s0)
    39ba:	4789                	li	a5,2
    39bc:	00f50363          	beq	a0,a5,39c2 <LL_ScanSetRF+0x84>
    39c0:	4501                	li	a0,0
    39c2:	4098                	lw	a4,0(s1)
    39c4:	435c                	lw	a5,4(a4)
    39c6:	0017e793          	ori	a5,a5,1
    39ca:	c35c                	sw	a5,4(a4)
    39cc:	fa100793          	li	a5,-95
    39d0:	00f40523          	sb	a5,10(s0)
    39d4:	20000797          	auipc	a5,0x20000
    39d8:	9c17c783          	lbu	a5,-1599(a5) # 20003395 <gBleIPPara+0x9>
    39dc:	cf81                	beqz	a5,39f4 <LL_ScanSetRF+0xb6>
    39de:	20000717          	auipc	a4,0x20000
    39e2:	9b674703          	lbu	a4,-1610(a4) # 20003394 <gBleIPPara+0x8>
    39e6:	4795                	li	a5,5
    39e8:	00f71663          	bne	a4,a5,39f4 <LL_ScanSetRF+0xb6>
    39ec:	20000797          	auipc	a5,0x20000
    39f0:	9a0784a3          	sb	zero,-1623(a5) # 20003395 <gBleIPPara+0x9>
    39f4:	20000717          	auipc	a4,0x20000
    39f8:	99f74703          	lbu	a4,-1633(a4) # 20003393 <gBleIPPara+0x7>
    39fc:	479d                	li	a5,7
    39fe:	00f71863          	bne	a4,a5,3a0e <LL_ScanSetRF+0xd0>
    3a02:	10700793          	li	a5,263
    3a06:	20000717          	auipc	a4,0x20000
    3a0a:	98f71723          	sh	a5,-1650(a4) # 20003394 <gBleIPPara+0x8>
    3a0e:	4795                	li	a5,5
    3a10:	20000717          	auipc	a4,0x20000
    3a14:	98f701a3          	sb	a5,-1661(a4) # 20003393 <gBleIPPara+0x7>
    3a18:	4601                	li	a2,0
    3a1a:	20000797          	auipc	a5,0x20000
    3a1e:	96078923          	sb	zero,-1678(a5) # 2000338c <gBleIPPara>
    3a22:	0ff00593          	li	a1,255
    3a26:	20000797          	auipc	a5,0x20000
    3a2a:	96078523          	sb	zero,-1686(a5) # 20003390 <gBleIPPara+0x4>
    3a2e:	24b9                	jal	3c7c <BLE_SetPHYRxMode>
    3a30:	4090                	lw	a2,0(s1)
    3a32:	20000797          	auipc	a5,0x20000
    3a36:	94078fa3          	sb	zero,-1697(a5) # 20003391 <gBleIPPara+0x5>
    3a3a:	20000797          	auipc	a5,0x20000
    3a3e:	940789a3          	sb	zero,-1709(a5) # 2000338d <gBleIPPara+0x1>
    3a42:	4785                	li	a5,1
    3a44:	c21c                	sw	a5,0(a2)
    3a46:	00092783          	lw	a5,0(s2)
    3a4a:	003305b7          	lui	a1,0x330
    3a4e:	4398                	lw	a4,0(a5)
    3a50:	e7f77713          	andi	a4,a4,-385
    3a54:	c398                	sw	a4,0(a5)
    3a56:	4398                	lw	a4,0(a5)
    3a58:	e7f77713          	andi	a4,a4,-385
    3a5c:	10076713          	ori	a4,a4,256
    3a60:	c398                	sw	a4,0(a5)
    3a62:	20000717          	auipc	a4,0x20000
    3a66:	98a70713          	addi	a4,a4,-1654 # 200033ec <gptrRFENDReg>
    3a6a:	4318                	lw	a4,0(a4)
    3a6c:	4714                	lw	a3,8(a4)
    3a6e:	8ecd                	or	a3,a3,a1
    3a70:	c714                	sw	a3,8(a4)
    3a72:	0d900693          	li	a3,217
    3a76:	ca34                	sw	a3,80(a2)
    3a78:	5754                	lw	a3,44(a4)
    3a7a:	9af5                	andi	a3,a3,-3
    3a7c:	d754                	sw	a3,44(a4)
    3a7e:	00944703          	lbu	a4,9(s0)
    3a82:	07f77693          	andi	a3,a4,127
    3a86:	4398                	lw	a4,0(a5)
    3a88:	f8077713          	andi	a4,a4,-128
    3a8c:	8f55                	or	a4,a4,a3
    3a8e:	c398                	sw	a4,0(a5)
    3a90:	40b2                	lw	ra,12(sp)
    3a92:	4422                	lw	s0,8(sp)
    3a94:	4492                	lw	s1,4(sp)
    3a96:	4902                	lw	s2,0(sp)
    3a98:	0141                	addi	sp,sp,16
    3a9a:	8082                	ret

00003a9c <BB_DevInit>:
BB_DevInit():
    3a9c:	20000617          	auipc	a2,0x20000
    3aa0:	8e860613          	addi	a2,a2,-1816 # 20003384 <gptrBBReg>
    3aa4:	421c                	lw	a5,0(a2)
    3aa6:	008006b7          	lui	a3,0x800
    3aaa:	800115b7          	lui	a1,0x80011
    3aae:	4398                	lw	a4,0(a5)
    3ab0:	e7858593          	addi	a1,a1,-392 # 80010e78 <_eusrstack+0x60008e78>
    3ab4:	8f55                	or	a4,a4,a3
    3ab6:	c398                	sw	a4,0(a5)
    3ab8:	4398                	lw	a4,0(a5)
    3aba:	100006b7          	lui	a3,0x10000
    3abe:	8f55                	or	a4,a4,a3
    3ac0:	c398                	sw	a4,0(a5)
    3ac2:	1d000713          	li	a4,464
    3ac6:	dbd8                	sw	a4,52(a5)
    3ac8:	20000717          	auipc	a4,0x20000
    3acc:	88474703          	lbu	a4,-1916(a4) # 2000334c <ble+0x14>
    3ad0:	01971693          	slli	a3,a4,0x19
    3ad4:	8ecd                	or	a3,a3,a1
    3ad6:	d7d4                	sw	a3,44(a5)
    3ad8:	57d4                	lw	a3,44(a5)
    3ada:	820005b7          	lui	a1,0x82000
    3ade:	03f77713          	andi	a4,a4,63
    3ae2:	15fd                	addi	a1,a1,-1
    3ae4:	8eed                	and	a3,a3,a1
    3ae6:	0766                	slli	a4,a4,0x19
    3ae8:	8f55                	or	a4,a4,a3
    3aea:	d7d8                	sw	a4,44(a5)
    3aec:	40001737          	lui	a4,0x40001
    3af0:	05700793          	li	a5,87
    3af4:	04f70023          	sb	a5,64(a4) # 40001040 <_eusrstack+0x1fff9040>
    3af8:	fa800793          	li	a5,-88
    3afc:	04f70023          	sb	a5,64(a4)
    3b00:	20000697          	auipc	a3,0x20000
    3b04:	84c6c683          	lbu	a3,-1972(a3) # 2000334c <ble+0x14>
    3b08:	47b5                	li	a5,13
    3b0a:	02d7fb63          	bgeu	a5,a3,3b40 <BB_DevInit+0xa4>
    3b0e:	02275783          	lhu	a5,34(a4)
    3b12:	0107e793          	ori	a5,a5,16
    3b16:	02f71123          	sh	a5,34(a4)
    3b1a:	4218                	lw	a4,0(a2)
    3b1c:	000907b7          	lui	a5,0x90
    3b20:	08378793          	addi	a5,a5,131 # 90083 <_data_lma+0x89a07>
    3b24:	d31c                	sw	a5,32(a4)
    3b26:	e000e737          	lui	a4,0xe000e
    3b2a:	47d1                	li	a5,20
    3b2c:	04f709a3          	sb	a5,83(a4) # e000e053 <_eusrstack+0xc0006053>
    3b30:	1fffd797          	auipc	a5,0x1fffd
    3b34:	1d878793          	addi	a5,a5,472 # 20000d08 <BB_IRQLibHandler>
    3b38:	0017e793          	ori	a5,a5,1
    3b3c:	d77c                	sw	a5,108(a4)
    3b3e:	8082                	ret
    3b40:	02275783          	lhu	a5,34(a4)
    3b44:	07c2                	slli	a5,a5,0x10
    3b46:	83c1                	srli	a5,a5,0x10
    3b48:	9bbd                	andi	a5,a5,-17
    3b4a:	07c2                	slli	a5,a5,0x10
    3b4c:	83c1                	srli	a5,a5,0x10
    3b4e:	b7e1                	j	3b16 <BB_DevInit+0x7a>

00003b50 <BLE_SetPHYTxMode>:
BLE_SetPHYTxMode():
    3b50:	20000797          	auipc	a5,0x20000
    3b54:	83878793          	addi	a5,a5,-1992 # 20003388 <gPaControl>
    3b58:	439c                	lw	a5,0(a5)
    3b5a:	cb99                	beqz	a5,3b70 <BLE_SetPHYTxMode+0x20>
    3b5c:	4b94                	lw	a3,16(a5)
    3b5e:	4bd0                	lw	a2,20(a5)
    3b60:	4298                	lw	a4,0(a3)
    3b62:	8f51                	or	a4,a4,a2
    3b64:	c298                	sw	a4,0(a3)
    3b66:	4394                	lw	a3,0(a5)
    3b68:	479c                	lw	a5,8(a5)
    3b6a:	4298                	lw	a4,0(a3)
    3b6c:	8fd9                	or	a5,a5,a4
    3b6e:	c29c                	sw	a5,0(a3)
    3b70:	20000797          	auipc	a5,0x20000
    3b74:	81478793          	addi	a5,a5,-2028 # 20003384 <gptrBBReg>
    3b78:	20000617          	auipc	a2,0x20000
    3b7c:	83060613          	addi	a2,a2,-2000 # 200033a8 <gptrLLEReg>
    3b80:	00257693          	andi	a3,a0,2
    3b84:	4398                	lw	a4,0(a5)
    3b86:	00062803          	lw	a6,0(a2)
    3b8a:	20000797          	auipc	a5,0x20000
    3b8e:	80c7c783          	lbu	a5,-2036(a5) # 20003396 <gBleIPPara+0xa>
    3b92:	c6c1                	beqz	a3,3c1a <BLE_SetPHYTxMode+0xca>
    3b94:	4314                	lw	a3,0(a4)
    3b96:	78f5                	lui	a7,0xffffd
    3b98:	18fd                	addi	a7,a7,-1
    3b9a:	0116f6b3          	and	a3,a3,a7
    3b9e:	6309                	lui	t1,0x2
    3ba0:	0066e6b3          	or	a3,a3,t1
    3ba4:	c314                	sw	a3,0(a4)
    3ba6:	76d1                	lui	a3,0xffff4
    3ba8:	fff68893          	addi	a7,a3,-1 # ffff3fff <_eusrstack+0xdffebfff>
    3bac:	4314                	lw	a3,0(a4)
    3bae:	058e                	slli	a1,a1,0x3
    3bb0:	4e0d                	li	t3,3
    3bb2:	02b58593          	addi	a1,a1,43 # 8200002b <_eusrstack+0x61ff802b>
    3bb6:	23678793          	addi	a5,a5,566
    3bba:	0116f6b3          	and	a3,a3,a7
    3bbe:	03c51c63          	bne	a0,t3,3bf6 <BLE_SetPHYTxMode+0xa6>
    3bc2:	6511                	lui	a0,0x4
    3bc4:	8ec9                	or	a3,a3,a0
    3bc6:	c314                	sw	a3,0(a4)
    3bc8:	6735                	lui	a4,0xd
    3bca:	073d                	addi	a4,a4,15
    3bcc:	00e82623          	sw	a4,12(a6)
    3bd0:	0000100f          	fence.i
    3bd4:	4218                	lw	a4,0(a2)
    3bd6:	f8000693          	li	a3,-128
    3bda:	0586                	slli	a1,a1,0x1
    3bdc:	00672423          	sw	t1,8(a4) # d008 <_data_lma+0x698c>
    3be0:	1ffff617          	auipc	a2,0x1ffff
    3be4:	7ad60823          	sb	a3,1968(a2) # 20003390 <gBleIPPara+0x4>
    3be8:	95be                	add	a1,a1,a5
    3bea:	0586                	slli	a1,a1,0x1
    3bec:	67bd                	lui	a5,0xf
    3bee:	d36c                	sw	a1,100(a4)
    3bf0:	07bd                	addi	a5,a5,15
    3bf2:	c75c                	sw	a5,12(a4)
    3bf4:	8082                	ret
    3bf6:	c314                	sw	a3,0(a4)
    3bf8:	6735                	lui	a4,0xd
    3bfa:	073d                	addi	a4,a4,15
    3bfc:	00e82623          	sw	a4,12(a6)
    3c00:	0000100f          	fence.i
    3c04:	4218                	lw	a4,0(a2)
    3c06:	f8000693          	li	a3,-128
    3c0a:	00672423          	sw	t1,8(a4) # d008 <_data_lma+0x698c>
    3c0e:	1ffff617          	auipc	a2,0x1ffff
    3c12:	78d60123          	sb	a3,1922(a2) # 20003390 <gBleIPPara+0x4>
    3c16:	058e                	slli	a1,a1,0x3
    3c18:	bfc1                	j	3be8 <BLE_SetPHYTxMode+0x98>
    3c1a:	76f5                	lui	a3,0xffffd
    3c1c:	fff68893          	addi	a7,a3,-1 # ffffcfff <_eusrstack+0xdfff4fff>
    3c20:	4314                	lw	a3,0(a4)
    3c22:	8905                	andi	a0,a0,1
    3c24:	09e78793          	addi	a5,a5,158 # f09e <_data_lma+0x8a22>
    3c28:	0116f6b3          	and	a3,a3,a7
    3c2c:	c505                	beqz	a0,3c54 <BLE_SetPHYTxMode+0x104>
    3c2e:	c314                	sw	a3,0(a4)
    3c30:	6735                	lui	a4,0xd
    3c32:	073d                	addi	a4,a4,15
    3c34:	00e82623          	sw	a4,12(a6)
    3c38:	0000100f          	fence.i
    3c3c:	4218                	lw	a4,0(a2)
    3c3e:	6689                	lui	a3,0x2
    3c40:	05ad                	addi	a1,a1,11
    3c42:	c714                	sw	a3,8(a4)
    3c44:	f8000693          	li	a3,-128
    3c48:	1ffff617          	auipc	a2,0x1ffff
    3c4c:	74d60423          	sb	a3,1864(a2) # 20003390 <gBleIPPara+0x4>
    3c50:	058a                	slli	a1,a1,0x2
    3c52:	bf59                	j	3be8 <BLE_SetPHYTxMode+0x98>
    3c54:	6505                	lui	a0,0x1
    3c56:	8ec9                	or	a3,a3,a0
    3c58:	c314                	sw	a3,0(a4)
    3c5a:	6735                	lui	a4,0xd
    3c5c:	073d                	addi	a4,a4,15
    3c5e:	00e82623          	sw	a4,12(a6)
    3c62:	0000100f          	fence.i
    3c66:	4218                	lw	a4,0(a2)
    3c68:	6689                	lui	a3,0x2
    3c6a:	05a9                	addi	a1,a1,10
    3c6c:	c714                	sw	a3,8(a4)
    3c6e:	f8000693          	li	a3,-128
    3c72:	1ffff617          	auipc	a2,0x1ffff
    3c76:	70d60f23          	sb	a3,1822(a2) # 20003390 <gBleIPPara+0x4>
    3c7a:	bf71                	j	3c16 <BLE_SetPHYTxMode+0xc6>

00003c7c <BLE_SetPHYRxMode>:
BLE_SetPHYRxMode():
    3c7c:	1ffff797          	auipc	a5,0x1ffff
    3c80:	70c78793          	addi	a5,a5,1804 # 20003388 <gPaControl>
    3c84:	439c                	lw	a5,0(a5)
    3c86:	cf89                	beqz	a5,3ca0 <BLE_SetPHYRxMode+0x24>
    3c88:	43d4                	lw	a3,4(a5)
    3c8a:	0087a803          	lw	a6,8(a5)
    3c8e:	4298                	lw	a4,0(a3)
    3c90:	01076733          	or	a4,a4,a6
    3c94:	c298                	sw	a4,0(a3)
    3c96:	47d4                	lw	a3,12(a5)
    3c98:	4bdc                	lw	a5,20(a5)
    3c9a:	4298                	lw	a4,0(a3)
    3c9c:	8fd9                	or	a5,a5,a4
    3c9e:	c29c                	sw	a5,0(a3)
    3ca0:	1ffff797          	auipc	a5,0x1ffff
    3ca4:	6e478793          	addi	a5,a5,1764 # 20003384 <gptrBBReg>
    3ca8:	00257713          	andi	a4,a0,2
    3cac:	439c                	lw	a5,0(a5)
    3cae:	c335                	beqz	a4,3d12 <BLE_SetPHYRxMode+0x96>
    3cb0:	4398                	lw	a4,0(a5)
    3cb2:	76f5                	lui	a3,0xffffd
    3cb4:	16fd                	addi	a3,a3,-1
    3cb6:	8f75                	and	a4,a4,a3
    3cb8:	6689                	lui	a3,0x2
    3cba:	8f55                	or	a4,a4,a3
    3cbc:	c398                	sw	a4,0(a5)
    3cbe:	00090737          	lui	a4,0x90
    3cc2:	08670713          	addi	a4,a4,134 # 90086 <_data_lma+0x89a0a>
    3cc6:	d398                	sw	a4,32(a5)
    3cc8:	00372737          	lui	a4,0x372
    3ccc:	2df70713          	addi	a4,a4,735 # 3722df <_data_lma+0x36bc63>
    3cd0:	cb98                	sw	a4,16(a5)
    3cd2:	08302737          	lui	a4,0x8302
    3cd6:	1745                	addi	a4,a4,-15
    3cd8:	cbd8                	sw	a4,20(a5)
    3cda:	00031737          	lui	a4,0x31
    3cde:	61970713          	addi	a4,a4,1561 # 31619 <_data_lma+0x2af9d>
    3ce2:	cf98                	sw	a4,24(a5)
    3ce4:	670d                	lui	a4,0x3
    3ce6:	8de70713          	addi	a4,a4,-1826 # 28de <USB_DevTransProcess+0x1ee>
    3cea:	d798                	sw	a4,40(a5)
    3cec:	01006737          	lui	a4,0x1006
    3cf0:	31070713          	addi	a4,a4,784 # 1006310 <_data_lma+0xfffc94>
    3cf4:	059e                	slli	a1,a1,0x7
    3cf6:	d3d8                	sw	a4,36(a5)
    3cf8:	36458593          	addi	a1,a1,868
    3cfc:	1ffff797          	auipc	a5,0x1ffff
    3d00:	68b7ae23          	sw	a1,1692(a5) # 20003398 <gBleIPPara+0xc>
    3d04:	c611                	beqz	a2,3d10 <BLE_SetPHYRxMode+0x94>
    3d06:	0606                	slli	a2,a2,0x1
    3d08:	1ffff797          	auipc	a5,0x1ffff
    3d0c:	68c7a823          	sw	a2,1680(a5) # 20003398 <gBleIPPara+0xc>
    3d10:	8082                	ret
    3d12:	00090737          	lui	a4,0x90
    3d16:	08370713          	addi	a4,a4,131 # 90083 <_data_lma+0x89a07>
    3d1a:	d398                	sw	a4,32(a5)
    3d1c:	08102737          	lui	a4,0x8102
    3d20:	90170713          	addi	a4,a4,-1791 # 8101901 <_data_lma+0x80fb285>
    3d24:	cbd8                	sw	a4,20(a5)
    3d26:	00031737          	lui	a4,0x31
    3d2a:	62470713          	addi	a4,a4,1572 # 31624 <_data_lma+0x2afa8>
    3d2e:	cf98                	sw	a4,24(a5)
    3d30:	670d                	lui	a4,0x3
    3d32:	8be70713          	addi	a4,a4,-1858 # 28be <USB_DevTransProcess+0x1ce>
    3d36:	d798                	sw	a4,40(a5)
    3d38:	01006737          	lui	a4,0x1006
    3d3c:	31070713          	addi	a4,a4,784 # 1006310 <_data_lma+0xfffc94>
    3d40:	d3d8                	sw	a4,36(a5)
    3d42:	7775                	lui	a4,0xffffd
    3d44:	fff70693          	addi	a3,a4,-1 # ffffcfff <_eusrstack+0xdfff4fff>
    3d48:	4398                	lw	a4,0(a5)
    3d4a:	4805                	li	a6,1
    3d4c:	0595                	addi	a1,a1,5
    3d4e:	8f75                	and	a4,a4,a3
    3d50:	01051c63          	bne	a0,a6,3d68 <BLE_SetPHYRxMode+0xec>
    3d54:	c398                	sw	a4,0(a5)
    3d56:	002d2737          	lui	a4,0x2d2
    3d5a:	2d070713          	addi	a4,a4,720 # 2d22d0 <_data_lma+0x2cbc54>
    3d5e:	cb98                	sw	a4,16(a5)
    3d60:	058e                	slli	a1,a1,0x3
    3d62:	03c58593          	addi	a1,a1,60
    3d66:	bf59                	j	3cfc <BLE_SetPHYRxMode+0x80>
    3d68:	6685                	lui	a3,0x1
    3d6a:	8f55                	or	a4,a4,a3
    3d6c:	c398                	sw	a4,0(a5)
    3d6e:	00372737          	lui	a4,0x372
    3d72:	2d070713          	addi	a4,a4,720 # 3722d0 <_data_lma+0x36bc54>
    3d76:	cb98                	sw	a4,16(a5)
    3d78:	0592                	slli	a1,a1,0x4
    3d7a:	b7e5                	j	3d62 <BLE_SetPHYRxMode+0xe6>

00003d7c <ll_multi_states_check>:
ll_multi_states_check():
    3d7c:	1ffff797          	auipc	a5,0x1ffff
    3d80:	6197c783          	lbu	a5,1561(a5) # 20003395 <gBleIPPara+0x9>
    3d84:	e78d                	bnez	a5,3dae <ll_multi_states_check+0x32>
    3d86:	1ffff717          	auipc	a4,0x1ffff
    3d8a:	60d74703          	lbu	a4,1549(a4) # 20003393 <gBleIPPara+0x7>
    3d8e:	ffb70793          	addi	a5,a4,-5
    3d92:	0ff7f793          	andi	a5,a5,255
    3d96:	4689                	li	a3,2
    3d98:	00f6eb63          	bltu	a3,a5,3dae <ll_multi_states_check+0x32>
    3d9c:	1ffff797          	auipc	a5,0x1ffff
    3da0:	5ee78c23          	sb	a4,1528(a5) # 20003394 <gBleIPPara+0x8>
    3da4:	4785                	li	a5,1
    3da6:	1ffff717          	auipc	a4,0x1ffff
    3daa:	5ef707a3          	sb	a5,1519(a4) # 20003395 <gBleIPPara+0x9>
    3dae:	8082                	ret

00003db0 <ll_multi_states_process>:
ll_multi_states_process():
    3db0:	1141                	addi	sp,sp,-16
    3db2:	c606                	sw	ra,12(sp)
    3db4:	1ffff717          	auipc	a4,0x1ffff
    3db8:	5e074703          	lbu	a4,1504(a4) # 20003394 <gBleIPPara+0x8>
    3dbc:	479d                	li	a5,7
    3dbe:	04f71163          	bne	a4,a5,3e00 <ll_multi_states_process+0x50>
    3dc2:	1ffff797          	auipc	a5,0x1ffff
    3dc6:	5ea7c783          	lbu	a5,1514(a5) # 200033ac <rfConfig>
    3dca:	8b85                	andi	a5,a5,1
    3dcc:	1ffff617          	auipc	a2,0x1ffff
    3dd0:	60364603          	lbu	a2,1539(a2) # 200033cf <rfInfo+0x3>
    3dd4:	1ffff697          	auipc	a3,0x1ffff
    3dd8:	5fa6c683          	lbu	a3,1530(a3) # 200033ce <rfInfo+0x2>
    3ddc:	c7b5                	beqz	a5,3e48 <ll_multi_states_process+0x98>
    3dde:	1ffff797          	auipc	a5,0x1ffff
    3de2:	5ee78793          	addi	a5,a5,1518 # 200033cc <rfInfo>
    3de6:	43c8                	lw	a0,4(a5)
    3de8:	c125                	beqz	a0,3e48 <ll_multi_states_process+0x98>
    3dea:	00154583          	lbu	a1,1(a0) # 1001 <_einit+0xffd>
    3dee:	0509                	addi	a0,a0,2
    3df0:	151000ef          	jal	ra,4740 <RF_Rx>
    3df4:	c511                	beqz	a0,3e00 <ll_multi_states_process+0x50>
    3df6:	4785                	li	a5,1
    3df8:	1ffff717          	auipc	a4,0x1ffff
    3dfc:	58f70ea3          	sb	a5,1437(a4) # 20003395 <gBleIPPara+0x9>
    3e00:	1ffff717          	auipc	a4,0x1ffff
    3e04:	59474703          	lbu	a4,1428(a4) # 20003394 <gBleIPPara+0x8>
    3e08:	4795                	li	a5,5
    3e0a:	00f71b63          	bne	a4,a5,3e20 <ll_multi_states_process+0x70>
    3e0e:	1ffff797          	auipc	a5,0x1ffff
    3e12:	5f278793          	addi	a5,a5,1522 # 20003400 <gBleLlPara>
    3e16:	5bfc                	lw	a5,116(a5)
    3e18:	00b7c783          	lbu	a5,11(a5)
    3e1c:	cb8d                	beqz	a5,3e4e <ll_multi_states_process+0x9e>
    3e1e:	3605                	jal	393e <LL_ScanSetRF>
    3e20:	1ffff717          	auipc	a4,0x1ffff
    3e24:	57474703          	lbu	a4,1396(a4) # 20003394 <gBleIPPara+0x8>
    3e28:	4799                	li	a5,6
    3e2a:	02f71263          	bne	a4,a5,3e4e <ll_multi_states_process+0x9e>
    3e2e:	1ffff797          	auipc	a5,0x1ffff
    3e32:	5d278793          	addi	a5,a5,1490 # 20003400 <gBleLlPara>
    3e36:	0847a783          	lw	a5,132(a5)
    3e3a:	0077c783          	lbu	a5,7(a5)
    3e3e:	cb81                	beqz	a5,3e4e <ll_multi_states_process+0x9e>
    3e40:	40b2                	lw	ra,12(sp)
    3e42:	0141                	addi	sp,sp,16
    3e44:	4560206f          	j	629a <LL_InitiateSetRF>
    3e48:	4581                	li	a1,0
    3e4a:	4501                	li	a0,0
    3e4c:	b755                	j	3df0 <ll_multi_states_process+0x40>
    3e4e:	40b2                	lw	ra,12(sp)
    3e50:	0141                	addi	sp,sp,16
    3e52:	8082                	ret

00003e54 <ble_ll_hw_api_shut>:
ble_ll_hw_api_shut():
    3e54:	1ffff717          	auipc	a4,0x1ffff
    3e58:	55470713          	addi	a4,a4,1364 # 200033a8 <gptrLLEReg>
    3e5c:	431c                	lw	a5,0(a4)
    3e5e:	4394                	lw	a3,0(a5)
    3e60:	8a8d                	andi	a3,a3,3
    3e62:	c285                	beqz	a3,3e82 <ble_ll_hw_api_shut+0x2e>
    3e64:	4bb4                	lw	a3,80(a5)
    3e66:	9ae1                	andi	a3,a3,-8
    3e68:	cbb4                	sw	a3,80(a5)
    3e6a:	4394                	lw	a3,0(a5)
    3e6c:	0086e693          	ori	a3,a3,8
    3e70:	c394                	sw	a3,0(a5)
    3e72:	439c                	lw	a5,0(a5)
    3e74:	838d                	srli	a5,a5,0x3
    3e76:	8b85                	andi	a5,a5,1
    3e78:	c789                	beqz	a5,3e82 <ble_ll_hw_api_shut+0x2e>
    3e7a:	0001                	nop
    3e7c:	0001                	nop
    3e7e:	0001                	nop
    3e80:	0001                	nop
    3e82:	1ffff797          	auipc	a5,0x1ffff
    3e86:	50278793          	addi	a5,a5,1282 # 20003384 <gptrBBReg>
    3e8a:	4394                	lw	a3,0(a5)
    3e8c:	429c                	lw	a5,0(a3)
    3e8e:	e7f7f793          	andi	a5,a5,-385
    3e92:	0807e793          	ori	a5,a5,128
    3e96:	c29c                	sw	a5,0(a3)
    3e98:	1ffff797          	auipc	a5,0x1ffff
    3e9c:	55478793          	addi	a5,a5,1364 # 200033ec <gptrRFENDReg>
    3ea0:	4390                	lw	a2,0(a5)
    3ea2:	ffce06b7          	lui	a3,0xffce0
    3ea6:	16fd                	addi	a3,a3,-1
    3ea8:	461c                	lw	a5,8(a2)
    3eaa:	8ff5                	and	a5,a5,a3
    3eac:	c61c                	sw	a5,8(a2)
    3eae:	431c                	lw	a5,0(a4)
    3eb0:	08000713          	li	a4,128
    3eb4:	cbb8                	sw	a4,80(a5)
    3eb6:	1ffff797          	auipc	a5,0x1ffff
    3eba:	4d278793          	addi	a5,a5,1234 # 20003388 <gPaControl>
    3ebe:	439c                	lw	a5,0(a5)
    3ec0:	cb99                	beqz	a5,3ed6 <ble_ll_hw_api_shut+0x82>
    3ec2:	43d4                	lw	a3,4(a5)
    3ec4:	4790                	lw	a2,8(a5)
    3ec6:	4298                	lw	a4,0(a3)
    3ec8:	8f51                	or	a4,a4,a2
    3eca:	c298                	sw	a4,0(a3)
    3ecc:	4b94                	lw	a3,16(a5)
    3ece:	4bdc                	lw	a5,20(a5)
    3ed0:	4298                	lw	a4,0(a3)
    3ed2:	8fd9                	or	a5,a5,a4
    3ed4:	c29c                	sw	a5,0(a3)
    3ed6:	1ffff797          	auipc	a5,0x1ffff
    3eda:	4a078ea3          	sb	zero,1213(a5) # 20003393 <gBleIPPara+0x7>
    3ede:	8082                	ret

00003ee0 <BLE_RegInit>:
BLE_RegInit():
    3ee0:	1ffff797          	auipc	a5,0x1ffff
    3ee4:	4ac78793          	addi	a5,a5,1196 # 2000338c <gBleIPPara>
    3ee8:	4f9c                	lw	a5,24(a5)
    3eea:	c7dd                	beqz	a5,3f98 <BLE_RegInit+0xb8>
    3eec:	1141                	addi	sp,sp,-16
    3eee:	c606                	sw	ra,12(sp)
    3ef0:	c422                	sw	s0,8(sp)
    3ef2:	c226                	sw	s1,4(sp)
    3ef4:	c04a                	sw	s2,0(sp)
    3ef6:	2205                	jal	4016 <LLE_DevInit>
    3ef8:	1ffff917          	auipc	s2,0x1ffff
    3efc:	48c90913          	addi	s2,s2,1164 # 20003384 <gptrBBReg>
    3f00:	39e010ef          	jal	ra,529e <RFEND_DevInit>
    3f04:	3e61                	jal	3a9c <BB_DevInit>
    3f06:	00092783          	lw	a5,0(s2)
    3f0a:	76f5                	lui	a3,0xffffd
    3f0c:	16fd                	addi	a3,a3,-1
    3f0e:	4398                	lw	a4,0(a5)
    3f10:	1ffff497          	auipc	s1,0x1ffff
    3f14:	4dc48493          	addi	s1,s1,1244 # 200033ec <gptrRFENDReg>
    3f18:	1ffff417          	auipc	s0,0x1ffff
    3f1c:	49040413          	addi	s0,s0,1168 # 200033a8 <gptrLLEReg>
    3f20:	8f75                	and	a4,a4,a3
    3f22:	c398                	sw	a4,0(a5)
    3f24:	4398                	lw	a4,0(a5)
    3f26:	003306b7          	lui	a3,0x330
    3f2a:	e7f77713          	andi	a4,a4,-385
    3f2e:	c398                	sw	a4,0(a5)
    3f30:	4398                	lw	a4,0(a5)
    3f32:	e7f77713          	andi	a4,a4,-385
    3f36:	10076713          	ori	a4,a4,256
    3f3a:	c398                	sw	a4,0(a5)
    3f3c:	4098                	lw	a4,0(s1)
    3f3e:	471c                	lw	a5,8(a4)
    3f40:	8fd5                	or	a5,a5,a3
    3f42:	c71c                	sw	a5,8(a4)
    3f44:	401c                	lw	a5,0(s0)
    3f46:	0dd00713          	li	a4,221
    3f4a:	cbb8                	sw	a4,80(a5)
    3f4c:	580010ef          	jal	ra,54cc <RFEND_TXCtune>
    3f50:	292020ef          	jal	ra,61e2 <RFEND_TXFtune>
    3f54:	4be010ef          	jal	ra,5412 <RFEND_RXFilter>
    3f58:	53a010ef          	jal	ra,5492 <RFEND_RXAdc>
    3f5c:	00092703          	lw	a4,0(s2)
    3f60:	431c                	lw	a5,0(a4)
    3f62:	e7f7f793          	andi	a5,a5,-385
    3f66:	0807e793          	ori	a5,a5,128
    3f6a:	c31c                	sw	a5,0(a4)
    3f6c:	4094                	lw	a3,0(s1)
    3f6e:	ffce0737          	lui	a4,0xffce0
    3f72:	177d                	addi	a4,a4,-1
    3f74:	469c                	lw	a5,8(a3)
    3f76:	8ff9                	and	a5,a5,a4
    3f78:	c69c                	sw	a5,8(a3)
    3f7a:	401c                	lw	a5,0(s0)
    3f7c:	08000713          	li	a4,128
    3f80:	cbb8                	sw	a4,80(a5)
    3f82:	3bed                	jal	3d7c <ll_multi_states_check>
    3f84:	40b2                	lw	ra,12(sp)
    3f86:	4422                	lw	s0,8(sp)
    3f88:	1ffff797          	auipc	a5,0x1ffff
    3f8c:	400785a3          	sb	zero,1035(a5) # 20003393 <gBleIPPara+0x7>
    3f90:	4492                	lw	s1,4(sp)
    3f92:	4902                	lw	s2,0(sp)
    3f94:	0141                	addi	sp,sp,16
    3f96:	8082                	ret
    3f98:	8082                	ret

00003f9a <BLE_IPCoreInit>:
BLE_IPCoreInit():
    3f9a:	1ffff797          	auipc	a5,0x1ffff
    3f9e:	3e07a723          	sw	zero,1006(a5) # 20003388 <gPaControl>
    3fa2:	4000c7b7          	lui	a5,0x4000c
    3fa6:	30078713          	addi	a4,a5,768 # 4000c300 <_eusrstack+0x20004300>
    3faa:	1ffff697          	auipc	a3,0x1ffff
    3fae:	3ce6ab23          	sw	a4,982(a3) # 20003380 <gptrAESReg>
    3fb2:	20078713          	addi	a4,a5,512
    3fb6:	1ffff697          	auipc	a3,0x1ffff
    3fba:	3ee6a923          	sw	a4,1010(a3) # 200033a8 <gptrLLEReg>
    3fbe:	10078793          	addi	a5,a5,256
    3fc2:	4000d737          	lui	a4,0x4000d
    3fc6:	1141                	addi	sp,sp,-16
    3fc8:	1ffff697          	auipc	a3,0x1ffff
    3fcc:	42e6a223          	sw	a4,1060(a3) # 200033ec <gptrRFENDReg>
    3fd0:	1ffff717          	auipc	a4,0x1ffff
    3fd4:	3af72a23          	sw	a5,948(a4) # 20003384 <gptrBBReg>
    3fd8:	c606                	sw	ra,12(sp)
    3fda:	1ffff717          	auipc	a4,0x1ffff
    3fde:	3b270713          	addi	a4,a4,946 # 2000338c <gBleIPPara>
    3fe2:	4785                	li	a5,1
    3fe4:	00f703a3          	sb	a5,7(a4)
    3fe8:	1ffff797          	auipc	a5,0x1ffff
    3fec:	35078793          	addi	a5,a5,848 # 20003338 <ble>
    3ff0:	439c                	lw	a5,0(a5)
    3ff2:	cf1c                	sw	a5,24(a4)
    3ff4:	11078793          	addi	a5,a5,272
    3ff8:	cb5c                	sw	a5,20(a4)
    3ffa:	35dd                	jal	3ee0 <BLE_RegInit>
    3ffc:	e000e7b7          	lui	a5,0xe000e
    4000:	00100737          	lui	a4,0x100
    4004:	40b2                	lw	ra,12(sp)
    4006:	10e7a023          	sw	a4,256(a5) # e000e100 <_eusrstack+0xc0006100>
    400a:	00200737          	lui	a4,0x200
    400e:	10e7a023          	sw	a4,256(a5)
    4012:	0141                	addi	sp,sp,16
    4014:	8082                	ret

00004016 <LLE_DevInit>:
LLE_DevInit():
    4016:	1ffff797          	auipc	a5,0x1ffff
    401a:	39278793          	addi	a5,a5,914 # 200033a8 <gptrLLEReg>
    401e:	439c                	lw	a5,0(a5)
    4020:	08c00713          	li	a4,140
    4024:	07600693          	li	a3,118
    4028:	cbd8                	sw	a4,20(a5)
    402a:	cfd4                	sw	a3,28(a5)
    402c:	d3d8                	sw	a4,36(a5)
    402e:	03c00613          	li	a2,60
    4032:	d7d0                	sw	a2,44(a5)
    4034:	dbd8                	sw	a4,52(a5)
    4036:	dfd0                	sw	a2,60(a5)
    4038:	c3f8                	sw	a4,68(a5)
    403a:	1ffff717          	auipc	a4,0x1ffff
    403e:	35270713          	addi	a4,a4,850 # 2000338c <gBleIPPara>
    4042:	4f18                	lw	a4,24(a4)
    4044:	c7f4                	sw	a3,76(a5)
    4046:	dbf8                	sw	a4,116(a5)
    4048:	6741                	lui	a4,0x10
    404a:	177d                	addi	a4,a4,-1
    404c:	c798                	sw	a4,8(a5)
    404e:	673d                	lui	a4,0xf
    4050:	073d                	addi	a4,a4,15
    4052:	c7d8                	sw	a4,12(a5)
    4054:	e000e737          	lui	a4,0xe000e
    4058:	47d5                	li	a5,21
    405a:	04f70923          	sb	a5,82(a4) # e000e052 <_eusrstack+0xc0006052>
    405e:	1fffd797          	auipc	a5,0x1fffd
    4062:	1e678793          	addi	a5,a5,486 # 20001244 <LLE_IRQLibHandler>
    4066:	0017e793          	ori	a5,a5,1
    406a:	d73c                	sw	a5,104(a4)
    406c:	8082                	ret

0000406e <RF_DevSetChannel>:
RF_DevSetChannel():
    406e:	1ffff797          	auipc	a5,0x1ffff
    4072:	37e78793          	addi	a5,a5,894 # 200033ec <gptrRFENDReg>
    4076:	4394                	lw	a3,0(a5)
    4078:	1ffff797          	auipc	a5,0x1ffff
    407c:	30c78793          	addi	a5,a5,780 # 20003384 <gptrBBReg>
    4080:	439c                	lw	a5,0(a5)
    4082:	10058763          	beqz	a1,4190 <RF_DevSetChannel+0x122>
    4086:	0024b737          	lui	a4,0x24b
    408a:	e9f70713          	addi	a4,a4,-353 # 24ae9f <_data_lma+0x244823>
    408e:	08a76663          	bltu	a4,a0,411a <RF_DevSetChannel+0xac>
    4092:	4398                	lw	a4,0(a5)
    4094:	f8077713          	andi	a4,a4,-128
    4098:	02576713          	ori	a4,a4,37
    409c:	c398                	sw	a4,0(a5)
    409e:	0015f713          	andi	a4,a1,1
    40a2:	cb01                	beqz	a4,40b2 <RF_DevSetChannel+0x44>
    40a4:	0305f593          	andi	a1,a1,48
    40a8:	4741                	li	a4,16
    40aa:	0ee59063          	bne	a1,a4,418a <RF_DevSetChannel+0x11c>
    40ae:	83050513          	addi	a0,a0,-2000
    40b2:	56d8                	lw	a4,44(a3)
    40b4:	fe100837          	lui	a6,0xfe100
    40b8:	187d                	addi	a6,a6,-1
    40ba:	00276713          	ori	a4,a4,2
    40be:	d6d8                	sw	a4,44(a3)
    40c0:	6741                	lui	a4,0x10
    40c2:	a0070713          	addi	a4,a4,-1536 # fa00 <_data_lma+0x9384>
    40c6:	02e55633          	divu	a2,a0,a4
    40ca:	02e57533          	remu	a0,a0,a4
    40ce:	0fa00713          	li	a4,250
    40d2:	8a7d                	andi	a2,a2,31
    40d4:	01461593          	slli	a1,a2,0x14
    40d8:	42f0                	lw	a2,68(a3)
    40da:	01067633          	and	a2,a2,a6
    40de:	8e4d                	or	a2,a2,a1
    40e0:	c2f0                	sw	a2,68(a3)
    40e2:	fffc0637          	lui	a2,0xfffc0
    40e6:	052a                	slli	a0,a0,0xa
    40e8:	02e55533          	divu	a0,a0,a4
    40ec:	42f8                	lw	a4,68(a3)
    40ee:	8f71                	and	a4,a4,a2
    40f0:	053a                	slli	a0,a0,0xe
    40f2:	8139                	srli	a0,a0,0xe
    40f4:	8d59                	or	a0,a0,a4
    40f6:	c2e8                	sw	a0,68(a3)
    40f8:	1ffff717          	auipc	a4,0x1ffff
    40fc:	2b474703          	lbu	a4,692(a4) # 200033ac <rfConfig>
    4100:	8b09                	andi	a4,a4,2
    4102:	cb19                	beqz	a4,4118 <RF_DevSetChannel+0xaa>
    4104:	4398                	lw	a4,0(a5)
    4106:	07f77713          	andi	a4,a4,127
    410a:	04076693          	ori	a3,a4,64
    410e:	4398                	lw	a4,0(a5)
    4110:	f8077713          	andi	a4,a4,-128
    4114:	8f55                	or	a4,a4,a3
    4116:	c398                	sw	a4,0(a5)
    4118:	8082                	ret
    411a:	00250737          	lui	a4,0x250
    411e:	48f70613          	addi	a2,a4,1167 # 25048f <_data_lma+0x249e13>
    4122:	02a66363          	bltu	a2,a0,4148 <RF_DevSetChannel+0xda>
    4126:	ffdb6737          	lui	a4,0xffdb6
    412a:	93070713          	addi	a4,a4,-1744 # ffdb5930 <_eusrstack+0xdfdad930>
    412e:	972a                	add	a4,a4,a0
    4130:	7d000613          	li	a2,2000
    4134:	02c75733          	divu	a4,a4,a2
    4138:	177d                	addi	a4,a4,-1
    413a:	4390                	lw	a2,0(a5)
    413c:	07f77713          	andi	a4,a4,127
    4140:	f8067613          	andi	a2,a2,-128
    4144:	8f51                	or	a4,a4,a2
    4146:	bf99                	j	409c <RF_DevSetChannel+0x2e>
    4148:	49070713          	addi	a4,a4,1168
    414c:	00e51863          	bne	a0,a4,415c <RF_DevSetChannel+0xee>
    4150:	4398                	lw	a4,0(a5)
    4152:	f8077713          	andi	a4,a4,-128
    4156:	02676713          	ori	a4,a4,38
    415a:	b789                	j	409c <RF_DevSetChannel+0x2e>
    415c:	0025d737          	lui	a4,0x25d
    4160:	77f70713          	addi	a4,a4,1919 # 25d77f <_data_lma+0x257103>
    4164:	00a76d63          	bltu	a4,a0,417e <RF_DevSetChannel+0x110>
    4168:	ffdb6737          	lui	a4,0xffdb6
    416c:	93070713          	addi	a4,a4,-1744 # ffdb5930 <_eusrstack+0xdfdad930>
    4170:	972a                	add	a4,a4,a0
    4172:	7d000613          	li	a2,2000
    4176:	02c75733          	divu	a4,a4,a2
    417a:	1779                	addi	a4,a4,-2
    417c:	bf7d                	j	413a <RF_DevSetChannel+0xcc>
    417e:	4398                	lw	a4,0(a5)
    4180:	f8077713          	andi	a4,a4,-128
    4184:	02776713          	ori	a4,a4,39
    4188:	bf11                	j	409c <RF_DevSetChannel+0x2e>
    418a:	c1850513          	addi	a0,a0,-1000
    418e:	b715                	j	40b2 <RF_DevSetChannel+0x44>
    4190:	56d8                	lw	a4,44(a3)
    4192:	07f57513          	andi	a0,a0,127
    4196:	9b75                	andi	a4,a4,-3
    4198:	d6d8                	sw	a4,44(a3)
    419a:	4398                	lw	a4,0(a5)
    419c:	f8077713          	andi	a4,a4,-128
    41a0:	8d59                	or	a0,a0,a4
    41a2:	c388                	sw	a0,0(a5)
    41a4:	bf91                	j	40f8 <RF_DevSetChannel+0x8a>

000041a6 <rf_stop>:
rf_stop():
    41a6:	1141                	addi	sp,sp,-16
    41a8:	c606                	sw	ra,12(sp)
    41aa:	1ffff797          	auipc	a5,0x1ffff
    41ae:	22078823          	sb	zero,560(a5) # 200033da <rfInfo+0xe>
    41b2:	314d                	jal	3e54 <ble_ll_hw_api_shut>
    41b4:	4501                	li	a0,0
    41b6:	4581                	li	a1,0
    41b8:	8f8ff0ef          	jal	ra,32b0 <TMOS_ProcessRegister>
    41bc:	40b2                	lw	ra,12(sp)
    41be:	4501                	li	a0,0
    41c0:	0141                	addi	sp,sp,16
    41c2:	8082                	ret

000041c4 <RF_TxProcess>:
RF_TxProcess():
    41c4:	1ffff797          	auipc	a5,0x1ffff
    41c8:	1e478793          	addi	a5,a5,484 # 200033a8 <gptrLLEReg>
    41cc:	4398                	lw	a4,0(a5)
    41ce:	7179                	addi	sp,sp,-48
    41d0:	1ffff517          	auipc	a0,0x1ffff
    41d4:	1dc54503          	lbu	a0,476(a0) # 200033ac <rfConfig>
    41d8:	d422                	sw	s0,40(sp)
    41da:	d226                	sw	s1,36(sp)
    41dc:	d606                	sw	ra,44(sp)
    41de:	d04a                	sw	s2,32(sp)
    41e0:	ce4e                	sw	s3,28(sp)
    41e2:	00157693          	andi	a3,a0,1
    41e6:	84be                	mv	s1,a5
    41e8:	1ffff417          	auipc	s0,0x1ffff
    41ec:	1a440413          	addi	s0,s0,420 # 2000338c <gBleIPPara>
    41f0:	12068c63          	beqz	a3,4328 <RF_TxProcess+0x164>
    41f4:	00244783          	lbu	a5,2(s0)
    41f8:	8b85                	andi	a5,a5,1
    41fa:	10078463          	beqz	a5,4302 <RF_TxProcess+0x13e>
    41fe:	8511                	srai	a0,a0,0x4
    4200:	4601                	li	a2,0
    4202:	1ffff597          	auipc	a1,0x1ffff
    4206:	1c65c583          	lbu	a1,454(a1) # 200033c8 <rfConfig+0x1c>
    420a:	890d                	andi	a0,a0,3
    420c:	1ffff797          	auipc	a5,0x1ffff
    4210:	18078123          	sb	zero,386(a5) # 2000338e <gBleIPPara+0x2>
    4214:	34a5                	jal	3c7c <BLE_SetPHYRxMode>
    4216:	1ffff597          	auipc	a1,0x1ffff
    421a:	1965c583          	lbu	a1,406(a1) # 200033ac <rfConfig>
    421e:	8591                	srai	a1,a1,0x4
    4220:	0ff00613          	li	a2,255
    4224:	898d                	andi	a1,a1,3
    4226:	4505                	li	a0,1
    4228:	1fffd097          	auipc	ra,0x1fffd
    422c:	d36080e7          	jalr	-714(ra) # 20000f5e <ll_tx_wait_finish>
    4230:	3f9d                	jal	41a6 <rf_stop>
    4232:	1ffff917          	auipc	s2,0x1ffff
    4236:	17a90913          	addi	s2,s2,378 # 200033ac <rfConfig>
    423a:	01092783          	lw	a5,16(s2)
    423e:	4601                	li	a2,0
    4240:	4581                	li	a1,0
    4242:	4505                	li	a0,1
    4244:	9782                	jalr	a5
    4246:	00344783          	lbu	a5,3(s0)
    424a:	89ca                	mv	s3,s2
    424c:	8b85                	andi	a5,a5,1
    424e:	cfc1                	beqz	a5,42e6 <RF_TxProcess+0x122>
    4250:	4c08                	lw	a0,24(s0)
    4252:	1ffff797          	auipc	a5,0x1ffff
    4256:	12078ea3          	sb	zero,317(a5) # 2000338f <gBleIPPara+0x3>
    425a:	4581                	li	a1,0
    425c:	4681                	li	a3,0
    425e:	00f10613          	addi	a2,sp,15
    4262:	000107a3          	sb	zero,15(sp)
    4266:	1ffff797          	auipc	a5,0x1ffff
    426a:	12078523          	sb	zero,298(a5) # 20003390 <gBleIPPara+0x4>
    426e:	1fffd097          	auipc	ra,0x1fffd
    4272:	c26080e7          	jalr	-986(ra) # 20000e94 <ble_ll_chkcrc>
    4276:	01851593          	slli	a1,a0,0x18
    427a:	85e1                	srai	a1,a1,0x18
    427c:	e18d                	bnez	a1,429e <RF_TxProcess+0xda>
    427e:	4c1c                	lw	a5,24(s0)
    4280:	0ff00693          	li	a3,255
    4284:	0007c703          	lbu	a4,0(a5)
    4288:	00d70b63          	beq	a4,a3,429e <RF_TxProcess+0xda>
    428c:	1ffff797          	auipc	a5,0x1ffff
    4290:	1417c783          	lbu	a5,321(a5) # 200033cd <rfInfo+0x1>
    4294:	00d78563          	beq	a5,a3,429e <RF_TxProcess+0xda>
    4298:	00f70363          	beq	a4,a5,429e <RF_TxProcess+0xda>
    429c:	4589                	li	a1,2
    429e:	00098783          	lb	a5,0(s3)
    42a2:	0007c763          	bltz	a5,42b0 <RF_TxProcess+0xec>
    42a6:	4c1c                	lw	a5,24(s0)
    42a8:	00f14703          	lbu	a4,15(sp)
    42ac:	00e78023          	sb	a4,0(a5)
    42b0:	0109a783          	lw	a5,16(s3)
    42b4:	4c10                	lw	a2,24(s0)
    42b6:	0ff5f593          	andi	a1,a1,255
    42ba:	4509                	li	a0,2
    42bc:	9782                	jalr	a5
    42be:	1ffff797          	auipc	a5,0x1ffff
    42c2:	11a7c783          	lbu	a5,282(a5) # 200033d8 <rfInfo+0xc>
    42c6:	8b89                	andi	a5,a5,2
    42c8:	cb81                	beqz	a5,42d8 <RF_TxProcess+0x114>
    42ca:	4585                	li	a1,1
    42cc:	1ffff517          	auipc	a0,0x1ffff
    42d0:	11054503          	lbu	a0,272(a0) # 200033dc <rfInfo+0x10>
    42d4:	e31fe0ef          	jal	ra,3104 <tmos_set_event>
    42d8:	50b2                	lw	ra,44(sp)
    42da:	5422                	lw	s0,40(sp)
    42dc:	5492                	lw	s1,36(sp)
    42de:	5902                	lw	s2,32(sp)
    42e0:	49f2                	lw	s3,28(sp)
    42e2:	6145                	addi	sp,sp,48
    42e4:	8082                	ret
    42e6:	409c                	lw	a5,0(s1)
    42e8:	53fc                	lw	a5,100(a5)
    42ea:	f7fd                	bnez	a5,42d8 <RF_TxProcess+0x114>
    42ec:	1ffff797          	auipc	a5,0x1ffff
    42f0:	0a078223          	sb	zero,164(a5) # 20003390 <gBleIPPara+0x4>
    42f4:	01092783          	lw	a5,16(s2)
    42f8:	4601                	li	a2,0
    42fa:	4581                	li	a1,0
    42fc:	4549                	li	a0,18
    42fe:	9782                	jalr	a5
    4300:	bfe1                	j	42d8 <RF_TxProcess+0x114>
    4302:	537c                	lw	a5,100(a4)
    4304:	ee0796e3          	bnez	a5,41f0 <RF_TxProcess+0x2c>
    4308:	3d79                	jal	41a6 <rf_stop>
    430a:	abaff0ef          	jal	ra,35c4 <TMOS_TempSample>
    430e:	1ffff797          	auipc	a5,0x1ffff
    4312:	08078123          	sb	zero,130(a5) # 20003390 <gBleIPPara+0x4>
    4316:	1ffff797          	auipc	a5,0x1ffff
    431a:	09678793          	addi	a5,a5,150 # 200033ac <rfConfig>
    431e:	4b9c                	lw	a5,16(a5)
    4320:	4601                	li	a2,0
    4322:	4581                	li	a1,0
    4324:	4545                	li	a0,17
    4326:	bfe1                	j	42fe <RF_TxProcess+0x13a>
    4328:	00344783          	lbu	a5,3(s0)
    432c:	8b85                	andi	a5,a5,1
    432e:	c39d                	beqz	a5,4354 <RF_TxProcess+0x190>
    4330:	3d9d                	jal	41a6 <rf_stop>
    4332:	1ffff797          	auipc	a5,0x1ffff
    4336:	04078ea3          	sb	zero,93(a5) # 2000338f <gBleIPPara+0x3>
    433a:	1ffff797          	auipc	a5,0x1ffff
    433e:	04078b23          	sb	zero,86(a5) # 20003390 <gBleIPPara+0x4>
    4342:	1ffff797          	auipc	a5,0x1ffff
    4346:	06a78793          	addi	a5,a5,106 # 200033ac <rfConfig>
    434a:	4b9c                	lw	a5,16(a5)
    434c:	4601                	li	a2,0
    434e:	4581                	li	a1,0
    4350:	4505                	li	a0,1
    4352:	b775                	j	42fe <RF_TxProcess+0x13a>
    4354:	537c                	lw	a5,100(a4)
    4356:	fbe9                	bnez	a5,4328 <RF_TxProcess+0x164>
    4358:	35b9                	jal	41a6 <rf_stop>
    435a:	bf55                	j	430e <RF_TxProcess+0x14a>

0000435c <RF_Config>:
RF_Config():
    435c:	491c                	lw	a5,16(a0)
    435e:	10078c63          	beqz	a5,4476 <RF_Config+0x11a>
    4362:	1141                	addi	sp,sp,-16
    4364:	c422                	sw	s0,8(sp)
    4366:	c606                	sw	ra,12(sp)
    4368:	00054783          	lbu	a5,0(a0)
    436c:	842a                	mv	s0,a0
    436e:	0407f793          	andi	a5,a5,64
    4372:	c781                	beqz	a5,437a <RF_Config+0x1e>
    4374:	415c                	lw	a5,4(a0)
    4376:	4509                	li	a0,2
    4378:	cbfd                	beqz	a5,446e <RF_Config+0x112>
    437a:	02000613          	li	a2,32
    437e:	4581                	li	a1,0
    4380:	1ffff517          	auipc	a0,0x1ffff
    4384:	02c50513          	addi	a0,a0,44 # 200033ac <rfConfig>
    4388:	1fffc097          	auipc	ra,0x1fffc
    438c:	522080e7          	jalr	1314(ra) # 200008aa <tmos_memset>
    4390:	85a2                	mv	a1,s0
    4392:	02000613          	li	a2,32
    4396:	1ffff517          	auipc	a0,0x1ffff
    439a:	01650513          	addi	a0,a0,22 # 200033ac <rfConfig>
    439e:	1fffc097          	auipc	ra,0x1fffc
    43a2:	4d4080e7          	jalr	1236(ra) # 20000872 <tmos_memcpy>
    43a6:	1ffff797          	auipc	a5,0x1ffff
    43aa:	01f7c783          	lbu	a5,31(a5) # 200033c5 <rfConfig+0x19>
    43ae:	1ffff417          	auipc	s0,0x1ffff
    43b2:	ffe40413          	addi	s0,s0,-2 # 200033ac <rfConfig>
    43b6:	e799                	bnez	a5,43c4 <RF_Config+0x68>
    43b8:	02800793          	li	a5,40
    43bc:	1ffff717          	auipc	a4,0x1ffff
    43c0:	00f704a3          	sb	a5,9(a4) # 200033c5 <rfConfig+0x19>
    43c4:	1ffff797          	auipc	a5,0x1ffff
    43c8:	0027c783          	lbu	a5,2(a5) # 200033c6 <rfConfig+0x1a>
    43cc:	e791                	bnez	a5,43d8 <RF_Config+0x7c>
    43ce:	47a1                	li	a5,8
    43d0:	1ffff717          	auipc	a4,0x1ffff
    43d4:	fef70b23          	sb	a5,-10(a4) # 200033c6 <rfConfig+0x1a>
    43d8:	1ffff797          	auipc	a5,0x1ffff
    43dc:	fef7c783          	lbu	a5,-17(a5) # 200033c7 <rfConfig+0x1b>
    43e0:	e791                	bnez	a5,43ec <RF_Config+0x90>
    43e2:	47c5                	li	a5,17
    43e4:	1ffff717          	auipc	a4,0x1ffff
    43e8:	fef701a3          	sb	a5,-29(a4) # 200033c7 <rfConfig+0x1b>
    43ec:	1ffff797          	auipc	a5,0x1ffff
    43f0:	fdc7c783          	lbu	a5,-36(a5) # 200033c8 <rfConfig+0x1c>
    43f4:	e791                	bnez	a5,4400 <RF_Config+0xa4>
    43f6:	57ed                	li	a5,-5
    43f8:	1ffff717          	auipc	a4,0x1ffff
    43fc:	fcf70823          	sb	a5,-48(a4) # 200033c8 <rfConfig+0x1c>
    4400:	1ffff797          	auipc	a5,0x1ffff
    4404:	fc97c783          	lbu	a5,-55(a5) # 200033c9 <rfConfig+0x1d>
    4408:	e791                	bnez	a5,4414 <RF_Config+0xb8>
    440a:	57ed                	li	a5,-5
    440c:	1ffff717          	auipc	a4,0x1ffff
    4410:	faf70ea3          	sb	a5,-67(a4) # 200033c9 <rfConfig+0x1d>
    4414:	1ffff797          	auipc	a5,0x1ffff
    4418:	fb878793          	addi	a5,a5,-72 # 200033cc <rfInfo>
    441c:	43c8                	lw	a0,4(a5)
    441e:	c509                	beqz	a0,4428 <RF_Config+0xcc>
    4420:	1fffd097          	auipc	ra,0x1fffd
    4424:	30a080e7          	jalr	778(ra) # 2000172a <tmos_memory_free>
    4428:	1ffff797          	auipc	a5,0x1ffff
    442c:	fa07a423          	sw	zero,-88(a5) # 200033d0 <rfInfo+0x4>
    4430:	00044783          	lbu	a5,0(s0)
    4434:	8b85                	andi	a5,a5,1
    4436:	c385                	beqz	a5,4456 <RF_Config+0xfa>
    4438:	1ffff517          	auipc	a0,0x1ffff
    443c:	f9154503          	lbu	a0,-111(a0) # 200033c9 <rfConfig+0x1d>
    4440:	04900593          	li	a1,73
    4444:	0509                	addi	a0,a0,2
    4446:	1fffd097          	auipc	ra,0x1fffd
    444a:	212080e7          	jalr	530(ra) # 20001658 <tmos_memory_allocate>
    444e:	1ffff797          	auipc	a5,0x1ffff
    4452:	f8a7a123          	sw	a0,-126(a5) # 200033d0 <rfInfo+0x4>
    4456:	00144783          	lbu	a5,1(s0)
    445a:	4501                	li	a0,0
    445c:	1ffff717          	auipc	a4,0x1ffff
    4460:	f6f70fa3          	sb	a5,-129(a4) # 200033db <rfInfo+0xf>
    4464:	441c                	lw	a5,8(s0)
    4466:	1ffff717          	auipc	a4,0x1ffff
    446a:	f6f72d23          	sw	a5,-134(a4) # 200033e0 <rfInfo+0x14>
    446e:	40b2                	lw	ra,12(sp)
    4470:	4422                	lw	s0,8(sp)
    4472:	0141                	addi	sp,sp,16
    4474:	8082                	ret
    4476:	4505                	li	a0,1
    4478:	8082                	ret

0000447a <RF_Tx>:
RF_Tx():
    447a:	7179                	addi	sp,sp,-48
    447c:	d422                	sw	s0,40(sp)
    447e:	1ffff417          	auipc	s0,0x1ffff
    4482:	f2e40413          	addi	s0,s0,-210 # 200033ac <rfConfig>
    4486:	441c                	lw	a5,8(s0)
    4488:	d606                	sw	ra,44(sp)
    448a:	d226                	sw	s1,36(sp)
    448c:	d04a                	sw	s2,32(sp)
    448e:	ce4e                	sw	s3,28(sp)
    4490:	cc52                	sw	s4,24(sp)
    4492:	ca56                	sw	s5,20(sp)
    4494:	c85a                	sw	s6,16(sp)
    4496:	c65e                	sw	s7,12(sp)
    4498:	c462                	sw	s8,8(sp)
    449a:	c266                	sw	s9,4(sp)
    449c:	2a078063          	beqz	a5,473c <RF_Tx+0x2c2>
    44a0:	1ffffc17          	auipc	s8,0x1ffff
    44a4:	ee4c0c13          	addi	s8,s8,-284 # 20003384 <gptrBBReg>
    44a8:	000c2703          	lw	a4,0(s8)
    44ac:	1ffffa17          	auipc	s4,0x1ffff
    44b0:	f40a0a13          	addi	s4,s4,-192 # 200033ec <gptrRFENDReg>
    44b4:	8ab6                	mv	s5,a3
    44b6:	431c                	lw	a5,0(a4)
    44b8:	1ffff997          	auipc	s3,0x1ffff
    44bc:	ef098993          	addi	s3,s3,-272 # 200033a8 <gptrLLEReg>
    44c0:	1ffff917          	auipc	s2,0x1ffff
    44c4:	f0c90913          	addi	s2,s2,-244 # 200033cc <rfInfo>
    44c8:	e7f7f793          	andi	a5,a5,-385
    44cc:	0807e793          	ori	a5,a5,128
    44d0:	c31c                	sw	a5,0(a4)
    44d2:	000a2683          	lw	a3,0(s4)
    44d6:	ffce0737          	lui	a4,0xffce0
    44da:	177d                	addi	a4,a4,-1
    44dc:	469c                	lw	a5,8(a3)
    44de:	8baa                	mv	s7,a0
    44e0:	84ae                	mv	s1,a1
    44e2:	8ff9                	and	a5,a5,a4
    44e4:	c69c                	sw	a5,8(a3)
    44e6:	0009a783          	lw	a5,0(s3)
    44ea:	08000713          	li	a4,128
    44ee:	8b32                	mv	s6,a2
    44f0:	cbb8                	sw	a4,80(a5)
    44f2:	00c94783          	lbu	a5,12(s2)
    44f6:	4cbd                	li	s9,15
    44f8:	8b89                	andi	a5,a5,2
    44fa:	1e079063          	bnez	a5,46da <RF_Tx+0x260>
    44fe:	000c2703          	lw	a4,0(s8)
    4502:	575c                	lw	a5,44(a4)
    4504:	9bf1                	andi	a5,a5,-4
    4506:	0017e793          	ori	a5,a5,1
    450a:	d75c                	sw	a5,44(a4)
    450c:	00c94783          	lbu	a5,12(s2)
    4510:	8b89                	andi	a5,a5,2
    4512:	1e078363          	beqz	a5,46f8 <RF_Tx+0x27e>
    4516:	4581                	li	a1,0
    4518:	1ffff517          	auipc	a0,0x1ffff
    451c:	e9554503          	lbu	a0,-363(a0) # 200033ad <rfConfig+0x1>
    4520:	36b9                	jal	406e <RF_DevSetChannel>
    4522:	000c2783          	lw	a5,0(s8)
    4526:	00330637          	lui	a2,0x330
    452a:	4398                	lw	a4,0(a5)
    452c:	e7f77713          	andi	a4,a4,-385
    4530:	c398                	sw	a4,0(a5)
    4532:	4398                	lw	a4,0(a5)
    4534:	e7f77713          	andi	a4,a4,-385
    4538:	10076713          	ori	a4,a4,256
    453c:	c398                	sw	a4,0(a5)
    453e:	000a2683          	lw	a3,0(s4)
    4542:	4698                	lw	a4,8(a3)
    4544:	8f51                	or	a4,a4,a2
    4546:	c698                	sw	a4,8(a3)
    4548:	0009a703          	lw	a4,0(s3)
    454c:	0da00693          	li	a3,218
    4550:	cb34                	sw	a3,80(a4)
    4552:	1ffff697          	auipc	a3,0x1ffff
    4556:	e5a6c683          	lbu	a3,-422(a3) # 200033ac <rfConfig>
    455a:	0406f613          	andi	a2,a3,64
    455e:	1a060663          	beqz	a2,470a <RF_Tx+0x290>
    4562:	404c                	lw	a1,4(s0)
    4564:	ffdb9637          	lui	a2,0xffdb9
    4568:	81060613          	addi	a2,a2,-2032 # ffdb8810 <_eusrstack+0xdfdb0810>
    456c:	95b2                	add	a1,a1,a2
    456e:	6661                	lui	a2,0x18
    4570:	6a060613          	addi	a2,a2,1696 # 186a0 <_data_lma+0x12024>
    4574:	18b67b63          	bgeu	a2,a1,470a <RF_Tx+0x290>
    4578:	0c800613          	li	a2,200
    457c:	d370                	sw	a2,100(a4)
    457e:	4410                	lw	a2,8(s0)
    4580:	8a85                	andi	a3,a3,1
    4582:	c790                	sw	a2,8(a5)
    4584:	4450                	lw	a2,12(s0)
    4586:	c3d0                	sw	a2,4(a5)
    4588:	c354                	sw	a3,4(a4)
    458a:	00e94783          	lbu	a5,14(s2)
    458e:	0027e793          	ori	a5,a5,2
    4592:	1ffff717          	auipc	a4,0x1ffff
    4596:	e4f70423          	sb	a5,-440(a4) # 200033da <rfInfo+0xe>
    459a:	1ffff797          	auipc	a5,0x1ffff
    459e:	e35789a3          	sb	s5,-461(a5) # 200033cd <rfInfo+0x1>
    45a2:	1ffff797          	auipc	a5,0x1ffff
    45a6:	e3678523          	sb	s6,-470(a5) # 200033cc <rfInfo>
    45aa:	1ffffa97          	auipc	s5,0x1ffff
    45ae:	de2a8a93          	addi	s5,s5,-542 # 2000338c <gBleIPPara>
    45b2:	014aa503          	lw	a0,20(s5)
    45b6:	140b8d63          	beqz	s7,4710 <RF_Tx+0x296>
    45ba:	01650023          	sb	s6,0(a0)
    45be:	009500a3          	sb	s1,1(a0)
    45c2:	8626                	mv	a2,s1
    45c4:	85de                	mv	a1,s7
    45c6:	0509                	addi	a0,a0,2
    45c8:	1fffc097          	auipc	ra,0x1fffc
    45cc:	2aa080e7          	jalr	682(ra) # 20000872 <tmos_memcpy>
    45d0:	0009a783          	lw	a5,0(s3)
    45d4:	014aa703          	lw	a4,20(s5)
    45d8:	4581                	li	a1,0
    45da:	00000517          	auipc	a0,0x0
    45de:	bea50513          	addi	a0,a0,-1046 # 41c4 <RF_TxProcess>
    45e2:	dbb8                	sw	a4,112(a5)
    45e4:	1ffff797          	auipc	a5,0x1ffff
    45e8:	da0785a3          	sb	zero,-597(a5) # 2000338f <gBleIPPara+0x3>
    45ec:	1ffff797          	auipc	a5,0x1ffff
    45f0:	da078223          	sb	zero,-604(a5) # 20003390 <gBleIPPara+0x4>
    45f4:	cbdfe0ef          	jal	ra,32b0 <TMOS_ProcessRegister>
    45f8:	f84ff0ef          	jal	ra,3d7c <ll_multi_states_check>
    45fc:	478d                	li	a5,3
    45fe:	1ffff717          	auipc	a4,0x1ffff
    4602:	d8f70aa3          	sb	a5,-619(a4) # 20003393 <gBleIPPara+0x7>
    4606:	00c94783          	lbu	a5,12(s2)
    460a:	8b89                	andi	a5,a5,2
    460c:	c7a9                	beqz	a5,4656 <RF_Tx+0x1dc>
    460e:	0009a703          	lw	a4,0(s3)
    4612:	537c                	lw	a5,100(a4)
    4614:	fffd                	bnez	a5,4612 <RF_Tx+0x198>
    4616:	1ffff797          	auipc	a5,0x1ffff
    461a:	d6678793          	addi	a5,a5,-666 # 2000337c <fnGetClockCBs>
    461e:	439c                	lw	a5,0(a5)
    4620:	9782                	jalr	a5
    4622:	1ffff717          	auipc	a4,0x1ffff
    4626:	d1670713          	addi	a4,a4,-746 # 20003338 <ble>
    462a:	01670703          	lb	a4,22(a4)
    462e:	00892783          	lw	a5,8(s2)
    4632:	0e075263          	bgez	a4,4716 <RF_Tx+0x29c>
    4636:	8d1d                	sub	a0,a0,a5
    4638:	00044703          	lbu	a4,0(s0)
    463c:	810d                	srli	a0,a0,0x3
    463e:	014aa783          	lw	a5,20(s5)
    4642:	8b21                	andi	a4,a4,8
    4644:	c36d                	beqz	a4,4726 <RF_Tx+0x2ac>
    4646:	00800737          	lui	a4,0x800
    464a:	0562                	slli	a0,a0,0x18
    464c:	2ff70713          	addi	a4,a4,767 # 8002ff <_data_lma+0x7f9c83>
    4650:	8d59                	or	a0,a0,a4
    4652:	c388                	sw	a0,0(a5)
    4654:	4489                	li	s1,2
    4656:	1ffff597          	auipc	a1,0x1ffff
    465a:	d565c583          	lbu	a1,-682(a1) # 200033ac <rfConfig>
    465e:	8591                	srai	a1,a1,0x4
    4660:	4501                	li	a0,0
    4662:	8626                	mv	a2,s1
    4664:	898d                	andi	a1,a1,3
    4666:	1fffd097          	auipc	ra,0x1fffd
    466a:	8f8080e7          	jalr	-1800(ra) # 20000f5e <ll_tx_wait_finish>
    466e:	000a2703          	lw	a4,0(s4)
    4672:	4501                	li	a0,0
    4674:	575c                	lw	a5,44(a4)
    4676:	8385                	srli	a5,a5,0x1
    4678:	8b85                	andi	a5,a5,1
    467a:	c3b9                	beqz	a5,46c0 <RF_Tx+0x246>
    467c:	405c                	lw	a5,4(s0)
    467e:	65c1                	lui	a1,0x10
    4680:	a0058593          	addi	a1,a1,-1536 # fa00 <_data_lma+0x9384>
    4684:	c1878793          	addi	a5,a5,-1000
    4688:	02b7d6b3          	divu	a3,a5,a1
    468c:	fe100837          	lui	a6,0xfe100
    4690:	187d                	addi	a6,a6,-1
    4692:	02b7f7b3          	remu	a5,a5,a1
    4696:	8afd                	andi	a3,a3,31
    4698:	01469613          	slli	a2,a3,0x14
    469c:	4374                	lw	a3,68(a4)
    469e:	0106f6b3          	and	a3,a3,a6
    46a2:	8ed1                	or	a3,a3,a2
    46a4:	c374                	sw	a3,68(a4)
    46a6:	0fa00693          	li	a3,250
    46aa:	fffc0637          	lui	a2,0xfffc0
    46ae:	07aa                	slli	a5,a5,0xa
    46b0:	02d7d7b3          	divu	a5,a5,a3
    46b4:	4374                	lw	a3,68(a4)
    46b6:	8ef1                	and	a3,a3,a2
    46b8:	07ba                	slli	a5,a5,0xe
    46ba:	83b9                	srli	a5,a5,0xe
    46bc:	8fd5                	or	a5,a5,a3
    46be:	c37c                	sw	a5,68(a4)
    46c0:	50b2                	lw	ra,44(sp)
    46c2:	5422                	lw	s0,40(sp)
    46c4:	5492                	lw	s1,36(sp)
    46c6:	5902                	lw	s2,32(sp)
    46c8:	49f2                	lw	s3,28(sp)
    46ca:	4a62                	lw	s4,24(sp)
    46cc:	4ad2                	lw	s5,20(sp)
    46ce:	4b42                	lw	s6,16(sp)
    46d0:	4bb2                	lw	s7,12(sp)
    46d2:	4c22                	lw	s8,8(sp)
    46d4:	4c92                	lw	s9,4(sp)
    46d6:	6145                	addi	sp,sp,48
    46d8:	8082                	ret
    46da:	1fffd097          	auipc	ra,0x1fffd
    46de:	dfe080e7          	jalr	-514(ra) # 200014d8 <RF_FrequencyHoppingGet>
    46e2:	feacfce3          	bgeu	s9,a0,46da <RF_Tx+0x260>
    46e6:	1ffff797          	auipc	a5,0x1ffff
    46ea:	ce07c783          	lbu	a5,-800(a5) # 200033c6 <rfConfig+0x1a>
    46ee:	0796                	slli	a5,a5,0x5
    46f0:	17c1                	addi	a5,a5,-16
    46f2:	fea7e4e3          	bltu	a5,a0,46da <RF_Tx+0x260>
    46f6:	b521                	j	44fe <RF_Tx+0x84>
    46f8:	00044783          	lbu	a5,0(s0)
    46fc:	0407f793          	andi	a5,a5,64
    4700:	e0078be3          	beqz	a5,4516 <RF_Tx+0x9c>
    4704:	4589                	li	a1,2
    4706:	4048                	lw	a0,4(s0)
    4708:	bd21                	j	4520 <RF_Tx+0xa6>
    470a:	0a000613          	li	a2,160
    470e:	b5bd                	j	457c <RF_Tx+0x102>
    4710:	01652023          	sw	s6,0(a0)
    4714:	bd75                	j	45d0 <RF_Tx+0x156>
    4716:	f2f570e3          	bgeu	a0,a5,4636 <RF_Tx+0x1bc>
    471a:	a8c00737          	lui	a4,0xa8c00
    471e:	40f707b3          	sub	a5,a4,a5
    4722:	953e                	add	a0,a0,a5
    4724:	bf11                	j	4638 <RF_Tx+0x1be>
    4726:	0489                	addi	s1,s1,2
    4728:	0ff4f493          	andi	s1,s1,255
    472c:	009780a3          	sb	s1,1(a5)
    4730:	97a6                	add	a5,a5,s1
    4732:	00078023          	sb	zero,0(a5)
    4736:	00a780a3          	sb	a0,1(a5)
    473a:	bf31                	j	4656 <RF_Tx+0x1dc>
    473c:	4505                	li	a0,1
    473e:	b749                	j	46c0 <RF_Tx+0x246>

00004740 <RF_Rx>:
RF_Rx():
    4740:	1ffff797          	auipc	a5,0x1ffff
    4744:	cc078793          	addi	a5,a5,-832 # 20003400 <gBleLlPara>
    4748:	0987a783          	lw	a5,152(a5)
    474c:	cf91                	beqz	a5,4768 <RF_Rx+0x28>
    474e:	4505                	li	a0,1
    4750:	8082                	ret
    4752:	4505                	li	a0,1
    4754:	40f2                	lw	ra,28(sp)
    4756:	4462                	lw	s0,24(sp)
    4758:	44d2                	lw	s1,20(sp)
    475a:	4942                	lw	s2,16(sp)
    475c:	49b2                	lw	s3,12(sp)
    475e:	4a22                	lw	s4,8(sp)
    4760:	4a92                	lw	s5,4(sp)
    4762:	4b02                	lw	s6,0(sp)
    4764:	6105                	addi	sp,sp,32
    4766:	8082                	ret
    4768:	1101                	addi	sp,sp,-32
    476a:	ca26                	sw	s1,20(sp)
    476c:	1ffff497          	auipc	s1,0x1ffff
    4770:	c4048493          	addi	s1,s1,-960 # 200033ac <rfConfig>
    4774:	449c                	lw	a5,8(s1)
    4776:	ce06                	sw	ra,28(sp)
    4778:	cc22                	sw	s0,24(sp)
    477a:	c84a                	sw	s2,16(sp)
    477c:	c64e                	sw	s3,12(sp)
    477e:	c452                	sw	s4,8(sp)
    4780:	c256                	sw	s5,4(sp)
    4782:	c05a                	sw	s6,0(sp)
    4784:	d7f9                	beqz	a5,4752 <RF_Rx+0x12>
    4786:	1ffff917          	auipc	s2,0x1ffff
    478a:	c2290913          	addi	s2,s2,-990 # 200033a8 <gptrLLEReg>
    478e:	00092783          	lw	a5,0(s2)
    4792:	4398                	lw	a4,0(a5)
    4794:	8b0d                	andi	a4,a4,3
    4796:	c305                	beqz	a4,47b6 <RF_Rx+0x76>
    4798:	4bb8                	lw	a4,80(a5)
    479a:	9b61                	andi	a4,a4,-8
    479c:	cbb8                	sw	a4,80(a5)
    479e:	4398                	lw	a4,0(a5)
    47a0:	00876713          	ori	a4,a4,8
    47a4:	c398                	sw	a4,0(a5)
    47a6:	439c                	lw	a5,0(a5)
    47a8:	838d                	srli	a5,a5,0x3
    47aa:	8b85                	andi	a5,a5,1
    47ac:	c789                	beqz	a5,47b6 <RF_Rx+0x76>
    47ae:	0001                	nop
    47b0:	0001                	nop
    47b2:	0001                	nop
    47b4:	0001                	nop
    47b6:	1ffff417          	auipc	s0,0x1ffff
    47ba:	c1640413          	addi	s0,s0,-1002 # 200033cc <rfInfo>
    47be:	00c44783          	lbu	a5,12(s0)
    47c2:	8ab6                	mv	s5,a3
    47c4:	8b32                	mv	s6,a2
    47c6:	8b91                	andi	a5,a5,4
    47c8:	89ae                	mv	s3,a1
    47ca:	8a2a                	mv	s4,a0
    47cc:	eb89                	bnez	a5,47de <RF_Rx+0x9e>
    47ce:	1ffff597          	auipc	a1,0x1ffff
    47d2:	bde5c583          	lbu	a1,-1058(a1) # 200033ac <rfConfig>
    47d6:	0405f793          	andi	a5,a1,64
    47da:	14079c63          	bnez	a5,4932 <RF_Rx+0x1f2>
    47de:	4581                	li	a1,0
    47e0:	1ffff517          	auipc	a0,0x1ffff
    47e4:	bcd54503          	lbu	a0,-1075(a0) # 200033ad <rfConfig+0x1>
    47e8:	887ff0ef          	jal	ra,406e <RF_DevSetChannel>
    47ec:	1ffff517          	auipc	a0,0x1ffff
    47f0:	bc054503          	lbu	a0,-1088(a0) # 200033ac <rfConfig>
    47f4:	8511                	srai	a0,a0,0x4
    47f6:	4601                	li	a2,0
    47f8:	1ffff597          	auipc	a1,0x1ffff
    47fc:	bd05c583          	lbu	a1,-1072(a1) # 200033c8 <rfConfig+0x1c>
    4800:	890d                	andi	a0,a0,3
    4802:	c7aff0ef          	jal	ra,3c7c <BLE_SetPHYRxMode>
    4806:	1ffff717          	auipc	a4,0x1ffff
    480a:	b7e70713          	addi	a4,a4,-1154 # 20003384 <gptrBBReg>
    480e:	4494                	lw	a3,8(s1)
    4810:	431c                	lw	a5,0(a4)
    4812:	c794                	sw	a3,8(a5)
    4814:	44d4                	lw	a3,12(s1)
    4816:	c3d4                	sw	a3,4(a5)
    4818:	0004c783          	lbu	a5,0(s1)
    481c:	00092683          	lw	a3,0(s2)
    4820:	84ba                	mv	s1,a4
    4822:	8b85                	andi	a5,a5,1
    4824:	c2dc                	sw	a5,4(a3)
    4826:	1ffff797          	auipc	a5,0x1ffff
    482a:	bb6784a3          	sb	s6,-1111(a5) # 200033cf <rfInfo+0x3>
    482e:	1ffff797          	auipc	a5,0x1ffff
    4832:	bb578023          	sb	s5,-1120(a5) # 200033ce <rfInfo+0x2>
    4836:	42dc                	lw	a5,4(a3)
    4838:	8b85                	andi	a5,a5,1
    483a:	cfb1                	beqz	a5,4896 <RF_Rx+0x156>
    483c:	405c                	lw	a5,4(s0)
    483e:	e385                	bnez	a5,485e <RF_Rx+0x11e>
    4840:	1ffff517          	auipc	a0,0x1ffff
    4844:	b8954503          	lbu	a0,-1143(a0) # 200033c9 <rfConfig+0x1d>
    4848:	04900593          	li	a1,73
    484c:	0509                	addi	a0,a0,2
    484e:	1fffd097          	auipc	ra,0x1fffd
    4852:	e0a080e7          	jalr	-502(ra) # 20001658 <tmos_memory_allocate>
    4856:	1ffff797          	auipc	a5,0x1ffff
    485a:	b6a7ad23          	sw	a0,-1158(a5) # 200033d0 <rfInfo+0x4>
    485e:	405c                	lw	a5,4(s0)
    4860:	ee0789e3          	beqz	a5,4752 <RF_Rx+0x12>
    4864:	1ffff717          	auipc	a4,0x1ffff
    4868:	b6a74703          	lbu	a4,-1174(a4) # 200033ce <rfInfo+0x2>
    486c:	00e78023          	sb	a4,0(a5)
    4870:	405c                	lw	a5,4(s0)
    4872:	0c0a0663          	beqz	s4,493e <RF_Rx+0x1fe>
    4876:	0c098463          	beqz	s3,493e <RF_Rx+0x1fe>
    487a:	013780a3          	sb	s3,1(a5)
    487e:	4048                	lw	a0,4(s0)
    4880:	864e                	mv	a2,s3
    4882:	85d2                	mv	a1,s4
    4884:	0509                	addi	a0,a0,2
    4886:	1fffc097          	auipc	ra,0x1fffc
    488a:	fec080e7          	jalr	-20(ra) # 20000872 <tmos_memcpy>
    488e:	00092783          	lw	a5,0(s2)
    4892:	4058                	lw	a4,4(s0)
    4894:	dbb8                	sw	a4,112(a5)
    4896:	ce6ff0ef          	jal	ra,3d7c <ll_multi_states_check>
    489a:	00e44783          	lbu	a5,14(s0)
    489e:	0047e793          	ori	a5,a5,4
    48a2:	1ffff717          	auipc	a4,0x1ffff
    48a6:	b2f70c23          	sb	a5,-1224(a4) # 200033da <rfInfo+0xe>
    48aa:	04000793          	li	a5,64
    48ae:	1ffff717          	auipc	a4,0x1ffff
    48b2:	acf70f23          	sb	a5,-1314(a4) # 2000338c <gBleIPPara>
    48b6:	1ffff797          	auipc	a5,0x1ffff
    48ba:	ac078d23          	sb	zero,-1318(a5) # 20003390 <gBleIPPara+0x4>
    48be:	479d                	li	a5,7
    48c0:	1ffff717          	auipc	a4,0x1ffff
    48c4:	acf709a3          	sb	a5,-1325(a4) # 20003393 <gBleIPPara+0x7>
    48c8:	1ffff797          	auipc	a5,0x1ffff
    48cc:	a7078793          	addi	a5,a5,-1424 # 20003338 <ble>
    48d0:	579c                	lw	a5,40(a5)
    48d2:	cb91                	beqz	a5,48e6 <RF_Rx+0x1a6>
    48d4:	64000613          	li	a2,1600
    48d8:	45c1                	li	a1,16
    48da:	1ffff517          	auipc	a0,0x1ffff
    48de:	b0254503          	lbu	a0,-1278(a0) # 200033dc <rfInfo+0x10>
    48e2:	883fe0ef          	jal	ra,3164 <tmos_start_task>
    48e6:	1ffff797          	auipc	a5,0x1ffff
    48ea:	aa0785a3          	sb	zero,-1365(a5) # 20003391 <gBleIPPara+0x5>
    48ee:	00092683          	lw	a3,0(s2)
    48f2:	1ffff797          	auipc	a5,0x1ffff
    48f6:	a8078da3          	sb	zero,-1381(a5) # 2000338d <gBleIPPara+0x1>
    48fa:	4098                	lw	a4,0(s1)
    48fc:	4785                	li	a5,1
    48fe:	c29c                	sw	a5,0(a3)
    4900:	431c                	lw	a5,0(a4)
    4902:	00330637          	lui	a2,0x330
    4906:	4501                	li	a0,0
    4908:	e7f7f793          	andi	a5,a5,-385
    490c:	c31c                	sw	a5,0(a4)
    490e:	431c                	lw	a5,0(a4)
    4910:	e7f7f793          	andi	a5,a5,-385
    4914:	1007e793          	ori	a5,a5,256
    4918:	c31c                	sw	a5,0(a4)
    491a:	1ffff797          	auipc	a5,0x1ffff
    491e:	ad278793          	addi	a5,a5,-1326 # 200033ec <gptrRFENDReg>
    4922:	4398                	lw	a4,0(a5)
    4924:	471c                	lw	a5,8(a4)
    4926:	8fd1                	or	a5,a5,a2
    4928:	c71c                	sw	a5,8(a4)
    492a:	0d900793          	li	a5,217
    492e:	cabc                	sw	a5,80(a3)
    4930:	b515                	j	4754 <RF_Rx+0x14>
    4932:	0305f593          	andi	a1,a1,48
    4936:	0015e593          	ori	a1,a1,1
    493a:	40c8                	lw	a0,4(s1)
    493c:	b575                	j	47e8 <RF_Rx+0xa8>
    493e:	000780a3          	sb	zero,1(a5)
    4942:	b7b1                	j	488e <RF_Rx+0x14e>

00004944 <rfRxProcess>:
rfRxProcess():
    4944:	7179                	addi	sp,sp,-48
    4946:	d226                	sw	s1,36(sp)
    4948:	1ffff497          	auipc	s1,0x1ffff
    494c:	a6448493          	addi	s1,s1,-1436 # 200033ac <rfConfig>
    4950:	0004c783          	lbu	a5,0(s1)
    4954:	d422                	sw	s0,40(sp)
    4956:	d606                	sw	ra,44(sp)
    4958:	d04a                	sw	s2,32(sp)
    495a:	ce4e                	sw	s3,28(sp)
    495c:	cc52                	sw	s4,24(sp)
    495e:	8b85                	andi	a5,a5,1
    4960:	1ffff417          	auipc	s0,0x1ffff
    4964:	a2c40413          	addi	s0,s0,-1492 # 2000338c <gBleIPPara>
    4968:	30078463          	beqz	a5,4c70 <rfRxProcess+0x32c>
    496c:	00044783          	lbu	a5,0(s0)
    4970:	8b85                	andi	a5,a5,1
    4972:	2c078663          	beqz	a5,4c3e <rfRxProcess+0x2fa>
    4976:	1ffff797          	auipc	a5,0x1ffff
    497a:	a7678793          	addi	a5,a5,-1418 # 200033ec <gptrRFENDReg>
    497e:	4398                	lw	a4,0(a5)
    4980:	000107a3          	sb	zero,15(sp)
    4984:	01842903          	lw	s2,24(s0)
    4988:	575c                	lw	a5,44(a4)
    498a:	8385                	srli	a5,a5,0x1
    498c:	8b85                	andi	a5,a5,1
    498e:	c3a1                	beqz	a5,49ce <rfRxProcess+0x8a>
    4990:	40dc                	lw	a5,4(s1)
    4992:	65c1                	lui	a1,0x10
    4994:	a0058593          	addi	a1,a1,-1536 # fa00 <_data_lma+0x9384>
    4998:	02b7d6b3          	divu	a3,a5,a1
    499c:	fe100537          	lui	a0,0xfe100
    49a0:	157d                	addi	a0,a0,-1
    49a2:	02b7f7b3          	remu	a5,a5,a1
    49a6:	8afd                	andi	a3,a3,31
    49a8:	01469613          	slli	a2,a3,0x14
    49ac:	4374                	lw	a3,68(a4)
    49ae:	8ee9                	and	a3,a3,a0
    49b0:	8ed1                	or	a3,a3,a2
    49b2:	c374                	sw	a3,68(a4)
    49b4:	0fa00693          	li	a3,250
    49b8:	fffc0637          	lui	a2,0xfffc0
    49bc:	07aa                	slli	a5,a5,0xa
    49be:	02d7d7b3          	divu	a5,a5,a3
    49c2:	4374                	lw	a3,68(a4)
    49c4:	8ef1                	and	a3,a3,a2
    49c6:	07ba                	slli	a5,a5,0xe
    49c8:	83b9                	srli	a5,a5,0xe
    49ca:	8fd5                	or	a5,a5,a3
    49cc:	c37c                	sw	a5,68(a4)
    49ce:	4681                	li	a3,0
    49d0:	00f10613          	addi	a2,sp,15
    49d4:	4581                	li	a1,0
    49d6:	854a                	mv	a0,s2
    49d8:	1ffff797          	auipc	a5,0x1ffff
    49dc:	9a078a23          	sb	zero,-1612(a5) # 2000338c <gBleIPPara>
    49e0:	1fffc097          	auipc	ra,0x1fffc
    49e4:	4b4080e7          	jalr	1204(ra) # 20000e94 <ble_ll_chkcrc>
    49e8:	01851a13          	slli	s4,a0,0x18
    49ec:	418a5a13          	srai	s4,s4,0x18
    49f0:	020a1263          	bnez	s4,4a14 <rfRxProcess+0xd0>
    49f4:	1ffff797          	auipc	a5,0x1ffff
    49f8:	9db7c783          	lbu	a5,-1573(a5) # 200033cf <rfInfo+0x3>
    49fc:	0ff00693          	li	a3,255
    4a00:	00d78a63          	beq	a5,a3,4a14 <rfRxProcess+0xd0>
    4a04:	4c18                	lw	a4,24(s0)
    4a06:	00074703          	lbu	a4,0(a4)
    4a0a:	00d70563          	beq	a4,a3,4a14 <rfRxProcess+0xd0>
    4a0e:	00f70363          	beq	a4,a5,4a14 <rfRxProcess+0xd0>
    4a12:	4a09                	li	s4,2
    4a14:	00048783          	lb	a5,0(s1)
    4a18:	1ffff997          	auipc	s3,0x1ffff
    4a1c:	9b498993          	addi	s3,s3,-1612 # 200033cc <rfInfo>
    4a20:	1207ca63          	bltz	a5,4b54 <rfRxProcess+0x210>
    4a24:	120a1a63          	bnez	s4,4b58 <rfRxProcess+0x214>
    4a28:	00f14783          	lbu	a5,15(sp)
    4a2c:	00f90023          	sb	a5,0(s2)
    4a30:	00c9c783          	lbu	a5,12(s3)
    4a34:	8b91                	andi	a5,a5,4
    4a36:	c795                	beqz	a5,4a62 <rfRxProcess+0x11e>
    4a38:	00194783          	lbu	a5,1(s2)
    4a3c:	97ca                	add	a5,a5,s2
    4a3e:	0007c703          	lbu	a4,0(a5)
    4a42:	08000793          	li	a5,128
    4a46:	00f71e63          	bne	a4,a5,4a62 <rfRxProcess+0x11e>
    4a4a:	485c                	lw	a5,20(s0)
    4a4c:	0ff00713          	li	a4,255
    4a50:	c398                	sw	a4,0(a5)
    4a52:	0004c783          	lbu	a5,0(s1)
    4a56:	0087e793          	ori	a5,a5,8
    4a5a:	1ffff717          	auipc	a4,0x1ffff
    4a5e:	94f70923          	sb	a5,-1710(a4) # 200033ac <rfConfig>
    4a62:	1ffff797          	auipc	a5,0x1ffff
    4a66:	92278793          	addi	a5,a5,-1758 # 20003384 <gptrBBReg>
    4a6a:	439c                	lw	a5,0(a5)
    4a6c:	008006b7          	lui	a3,0x800
    4a70:	4398                	lw	a4,0(a5)
    4a72:	8f55                	or	a4,a4,a3
    4a74:	c398                	sw	a4,0(a5)
    4a76:	57d8                	lw	a4,44(a5)
    4a78:	9b71                	andi	a4,a4,-4
    4a7a:	d7d8                	sw	a4,44(a5)
    4a7c:	0049a783          	lw	a5,4(s3)
    4a80:	1ffff517          	auipc	a0,0x1ffff
    4a84:	92c54503          	lbu	a0,-1748(a0) # 200033ac <rfConfig>
    4a88:	8511                	srai	a0,a0,0x4
    4a8a:	0017c583          	lbu	a1,1(a5)
    4a8e:	890d                	andi	a0,a0,3
    4a90:	8c0ff0ef          	jal	ra,3b50 <BLE_SetPHYTxMode>
    4a94:	1fffc097          	auipc	ra,0x1fffc
    4a98:	3c2080e7          	jalr	962(ra) # 20000e56 <ll_rx_wait_finish>
    4a9c:	bb8ff0ef          	jal	ra,3e54 <ble_ll_hw_api_shut>
    4aa0:	1ffff697          	auipc	a3,0x1ffff
    4aa4:	9386c683          	lbu	a3,-1736(a3) # 200033d8 <rfInfo+0xc>
    4aa8:	0046f793          	andi	a5,a3,4
    4aac:	14078b63          	beqz	a5,4c02 <rfRxProcess+0x2be>
    4ab0:	1ffff717          	auipc	a4,0x1ffff
    4ab4:	88870713          	addi	a4,a4,-1912 # 20003338 <ble>
    4ab8:	01670603          	lb	a2,22(a4)
    4abc:	481c                	lw	a5,16(s0)
    4abe:	0c065d63          	bgez	a2,4b98 <rfRxProcess+0x254>
    4ac2:	17f1                	addi	a5,a5,-4
    4ac4:	1ffff717          	auipc	a4,0x1ffff
    4ac8:	8cf72c23          	sw	a5,-1832(a4) # 2000339c <gBleIPPara+0x10>
    4acc:	481c                	lw	a5,16(s0)
    4ace:	0089a703          	lw	a4,8(s3)
    4ad2:	0c065b63          	bgez	a2,4ba8 <rfRxProcess+0x264>
    4ad6:	40e78733          	sub	a4,a5,a4
    4ada:	00194783          	lbu	a5,1(s2)
    4ade:	01869593          	slli	a1,a3,0x18
    4ae2:	85e1                	srai	a1,a1,0x18
    4ae4:	97ca                	add	a5,a5,s2
    4ae6:	0017c783          	lbu	a5,1(a5)
    4aea:	078e                	slli	a5,a5,0x3
    4aec:	0c05dd63          	bgez	a1,4bc6 <rfRxProcess+0x282>
    4af0:	0ce7f263          	bgeu	a5,a4,4bb4 <rfRxProcess+0x270>
    4af4:	8f1d                	sub	a4,a4,a5
    4af6:	02000693          	li	a3,32
    4afa:	00e6eb63          	bltu	a3,a4,4b10 <rfRxProcess+0x1cc>
    4afe:	4818                	lw	a4,16(s0)
    4b00:	0a065d63          	bgez	a2,4bba <rfRxProcess+0x276>
    4b04:	40f707b3          	sub	a5,a4,a5
    4b08:	1ffff717          	auipc	a4,0x1ffff
    4b0c:	8cf72623          	sw	a5,-1844(a4) # 200033d4 <rfInfo+0x8>
    4b10:	4589                	li	a1,2
    4b12:	1ffff517          	auipc	a0,0x1ffff
    4b16:	8ca54503          	lbu	a0,-1846(a0) # 200033dc <rfInfo+0x10>
    4b1a:	deafe0ef          	jal	ra,3104 <tmos_set_event>
    4b1e:	0004c783          	lbu	a5,0(s1)
    4b22:	8ba1                	andi	a5,a5,8
    4b24:	cbf1                	beqz	a5,4bf8 <rfRxProcess+0x2b4>
    4b26:	0049a503          	lw	a0,4(s3)
    4b2a:	1ffff617          	auipc	a2,0x1ffff
    4b2e:	8a564603          	lbu	a2,-1883(a2) # 200033cf <rfInfo+0x3>
    4b32:	1ffff697          	auipc	a3,0x1ffff
    4b36:	89c6c683          	lbu	a3,-1892(a3) # 200033ce <rfInfo+0x2>
    4b3a:	cd45                	beqz	a0,4bf2 <rfRxProcess+0x2ae>
    4b3c:	00154583          	lbu	a1,1(a0)
    4b40:	0509                	addi	a0,a0,2
    4b42:	3efd                	jal	4740 <RF_Rx>
    4b44:	0004c783          	lbu	a5,0(s1)
    4b48:	9bdd                	andi	a5,a5,-9
    4b4a:	1ffff717          	auipc	a4,0x1ffff
    4b4e:	86f70123          	sb	a5,-1950(a4) # 200033ac <rfConfig>
    4b52:	a81d                	j	4b88 <rfRxProcess+0x244>
    4b54:	ec0a0ee3          	beqz	s4,4a30 <rfRxProcess+0xec>
    4b58:	afcff0ef          	jal	ra,3e54 <ble_ll_hw_api_shut>
    4b5c:	4c10                	lw	a2,24(s0)
    4b5e:	489c                	lw	a5,16(s1)
    4b60:	450d                	li	a0,3
    4b62:	0ffa7593          	andi	a1,s4,255
    4b66:	9782                	jalr	a5
    4b68:	0049a503          	lw	a0,4(s3)
    4b6c:	1ffff617          	auipc	a2,0x1ffff
    4b70:	86364603          	lbu	a2,-1949(a2) # 200033cf <rfInfo+0x3>
    4b74:	1ffff697          	auipc	a3,0x1ffff
    4b78:	85a6c683          	lbu	a3,-1958(a3) # 200033ce <rfInfo+0x2>
    4b7c:	26050263          	beqz	a0,4de0 <rfRxProcess+0x49c>
    4b80:	00154583          	lbu	a1,1(a0)
    4b84:	0509                	addi	a0,a0,2
    4b86:	3e6d                	jal	4740 <RF_Rx>
    4b88:	50b2                	lw	ra,44(sp)
    4b8a:	5422                	lw	s0,40(sp)
    4b8c:	5492                	lw	s1,36(sp)
    4b8e:	5902                	lw	s2,32(sp)
    4b90:	49f2                	lw	s3,28(sp)
    4b92:	4a62                	lw	s4,24(sp)
    4b94:	6145                	addi	sp,sp,48
    4b96:	8082                	ret
    4b98:	470d                	li	a4,3
    4b9a:	f2f764e3          	bltu	a4,a5,4ac2 <rfRxProcess+0x17e>
    4b9e:	a8c00737          	lui	a4,0xa8c00
    4ba2:	1771                	addi	a4,a4,-4
    4ba4:	97ba                	add	a5,a5,a4
    4ba6:	bf39                	j	4ac4 <rfRxProcess+0x180>
    4ba8:	f2e7f7e3          	bgeu	a5,a4,4ad6 <rfRxProcess+0x192>
    4bac:	a8c005b7          	lui	a1,0xa8c00
    4bb0:	97ae                	add	a5,a5,a1
    4bb2:	b715                	j	4ad6 <rfRxProcess+0x192>
    4bb4:	40e78733          	sub	a4,a5,a4
    4bb8:	bf3d                	j	4af6 <rfRxProcess+0x1b2>
    4bba:	f4f775e3          	bgeu	a4,a5,4b04 <rfRxProcess+0x1c0>
    4bbe:	a8c006b7          	lui	a3,0xa8c00
    4bc2:	9736                	add	a4,a4,a3
    4bc4:	b781                	j	4b04 <rfRxProcess+0x1c0>
    4bc6:	4818                	lw	a4,16(s0)
    4bc8:	00065f63          	bgez	a2,4be6 <rfRxProcess+0x2a2>
    4bcc:	40f707b3          	sub	a5,a4,a5
    4bd0:	f806e693          	ori	a3,a3,-128
    4bd4:	1ffff717          	auipc	a4,0x1ffff
    4bd8:	80f72023          	sw	a5,-2048(a4) # 200033d4 <rfInfo+0x8>
    4bdc:	1fffe797          	auipc	a5,0x1fffe
    4be0:	7ed78e23          	sb	a3,2044(a5) # 200033d8 <rfInfo+0xc>
    4be4:	b735                	j	4b10 <rfRxProcess+0x1cc>
    4be6:	fef773e3          	bgeu	a4,a5,4bcc <rfRxProcess+0x288>
    4bea:	a8c00637          	lui	a2,0xa8c00
    4bee:	9732                	add	a4,a4,a2
    4bf0:	bff1                	j	4bcc <rfRxProcess+0x288>
    4bf2:	4581                	li	a1,0
    4bf4:	4501                	li	a0,0
    4bf6:	b7b1                	j	4b42 <rfRxProcess+0x1fe>
    4bf8:	00194783          	lbu	a5,1(s2)
    4bfc:	17f9                	addi	a5,a5,-2
    4bfe:	00f900a3          	sb	a5,1(s2)
    4c02:	da4ff0ef          	jal	ra,41a6 <rf_stop>
    4c06:	489c                	lw	a5,16(s1)
    4c08:	4c10                	lw	a2,24(s0)
    4c0a:	4581                	li	a1,0
    4c0c:	450d                	li	a0,3
    4c0e:	9782                	jalr	a5
    4c10:	00144783          	lbu	a5,1(s0)
    4c14:	8b85                	andi	a5,a5,1
    4c16:	cb99                	beqz	a5,4c2c <rfRxProcess+0x2e8>
    4c18:	1fffe797          	auipc	a5,0x1fffe
    4c1c:	76078aa3          	sb	zero,1909(a5) # 2000338d <gBleIPPara+0x1>
    4c20:	489c                	lw	a5,16(s1)
    4c22:	4601                	li	a2,0
    4c24:	4581                	li	a1,0
    4c26:	4511                	li	a0,4
    4c28:	9782                	jalr	a5
    4c2a:	bfb9                	j	4b88 <rfRxProcess+0x244>
    4c2c:	1fffe797          	auipc	a5,0x1fffe
    4c30:	76078223          	sb	zero,1892(a5) # 20003390 <gBleIPPara+0x4>
    4c34:	489c                	lw	a5,16(s1)
    4c36:	4601                	li	a2,0
    4c38:	4581                	li	a1,0
    4c3a:	4551                	li	a0,20
    4c3c:	b7f5                	j	4c28 <rfRxProcess+0x2e4>
    4c3e:	93eff0ef          	jal	ra,3d7c <ll_multi_states_check>
    4c42:	1fffe797          	auipc	a5,0x1fffe
    4c46:	74278793          	addi	a5,a5,1858 # 20003384 <gptrBBReg>
    4c4a:	4398                	lw	a4,0(a5)
    4c4c:	008006b7          	lui	a3,0x800
    4c50:	431c                	lw	a5,0(a4)
    4c52:	8fd5                	or	a5,a5,a3
    4c54:	c31c                	sw	a5,0(a4)
    4c56:	d50ff0ef          	jal	ra,41a6 <rf_stop>
    4c5a:	1fffe797          	auipc	a5,0x1fffe
    4c5e:	6de78793          	addi	a5,a5,1758 # 20003338 <ble>
    4c62:	5b9c                	lw	a5,48(a5)
    4c64:	4589                	li	a1,2
    4c66:	d38d                	beqz	a5,4b88 <rfRxProcess+0x244>
    4c68:	08100513          	li	a0,129
    4c6c:	9782                	jalr	a5
    4c6e:	bf29                	j	4b88 <rfRxProcess+0x244>
    4c70:	00144783          	lbu	a5,1(s0)
    4c74:	8b85                	andi	a5,a5,1
    4c76:	22078163          	beqz	a5,4e98 <rfRxProcess+0x554>
    4c7a:	1fffe797          	auipc	a5,0x1fffe
    4c7e:	700789a3          	sb	zero,1811(a5) # 2000338d <gBleIPPara+0x1>
    4c82:	01842903          	lw	s2,24(s0)
    4c86:	d20ff0ef          	jal	ra,41a6 <rf_stop>
    4c8a:	1fffe697          	auipc	a3,0x1fffe
    4c8e:	74e6c683          	lbu	a3,1870(a3) # 200033d8 <rfInfo+0xc>
    4c92:	0046f793          	andi	a5,a3,4
    4c96:	1a078a63          	beqz	a5,4e4a <rfRxProcess+0x506>
    4c9a:	00194783          	lbu	a5,1(s2)
    4c9e:	97ca                	add	a5,a5,s2
    4ca0:	0007c703          	lbu	a4,0(a5)
    4ca4:	08000793          	li	a5,128
    4ca8:	00f71a63          	bne	a4,a5,4cbc <rfRxProcess+0x378>
    4cac:	0004c783          	lbu	a5,0(s1)
    4cb0:	0087e793          	ori	a5,a5,8
    4cb4:	1fffe717          	auipc	a4,0x1fffe
    4cb8:	6ef70c23          	sb	a5,1784(a4) # 200033ac <rfConfig>
    4cbc:	1fffe717          	auipc	a4,0x1fffe
    4cc0:	67c70713          	addi	a4,a4,1660 # 20003338 <ble>
    4cc4:	01670603          	lb	a2,22(a4)
    4cc8:	481c                	lw	a5,16(s0)
    4cca:	10065e63          	bgez	a2,4de6 <rfRxProcess+0x4a2>
    4cce:	17f1                	addi	a5,a5,-4
    4cd0:	1fffe717          	auipc	a4,0x1fffe
    4cd4:	6cf72623          	sw	a5,1740(a4) # 2000339c <gBleIPPara+0x10>
    4cd8:	481c                	lw	a5,16(s0)
    4cda:	1fffe717          	auipc	a4,0x1fffe
    4cde:	6f270713          	addi	a4,a4,1778 # 200033cc <rfInfo>
    4ce2:	4718                	lw	a4,8(a4)
    4ce4:	10065963          	bgez	a2,4df6 <rfRxProcess+0x4b2>
    4ce8:	40e78733          	sub	a4,a5,a4
    4cec:	00194783          	lbu	a5,1(s2)
    4cf0:	01869593          	slli	a1,a3,0x18
    4cf4:	85e1                	srai	a1,a1,0x18
    4cf6:	97ca                	add	a5,a5,s2
    4cf8:	0017c783          	lbu	a5,1(a5)
    4cfc:	078e                	slli	a5,a5,0x3
    4cfe:	1005db63          	bgez	a1,4e14 <rfRxProcess+0x4d0>
    4d02:	10e7f063          	bgeu	a5,a4,4e02 <rfRxProcess+0x4be>
    4d06:	8f1d                	sub	a4,a4,a5
    4d08:	02000693          	li	a3,32
    4d0c:	00e6eb63          	bltu	a3,a4,4d22 <rfRxProcess+0x3de>
    4d10:	4818                	lw	a4,16(s0)
    4d12:	0e065b63          	bgez	a2,4e08 <rfRxProcess+0x4c4>
    4d16:	40f707b3          	sub	a5,a4,a5
    4d1a:	1fffe717          	auipc	a4,0x1fffe
    4d1e:	6af72d23          	sw	a5,1722(a4) # 200033d4 <rfInfo+0x8>
    4d22:	4589                	li	a1,2
    4d24:	1fffe517          	auipc	a0,0x1fffe
    4d28:	6b854503          	lbu	a0,1720(a0) # 200033dc <rfInfo+0x10>
    4d2c:	bd8fe0ef          	jal	ra,3104 <tmos_set_event>
    4d30:	0004c783          	lbu	a5,0(s1)
    4d34:	8ba1                	andi	a5,a5,8
    4d36:	10078563          	beqz	a5,4e40 <rfRxProcess+0x4fc>
    4d3a:	1fffe797          	auipc	a5,0x1fffe
    4d3e:	66e78793          	addi	a5,a5,1646 # 200033a8 <gptrLLEReg>
    4d42:	4394                	lw	a3,0(a5)
    4d44:	0c800793          	li	a5,200
    4d48:	0ff00713          	li	a4,255
    4d4c:	d2fc                	sw	a5,100(a3)
    4d4e:	485c                	lw	a5,20(s0)
    4d50:	00330637          	lui	a2,0x330
    4d54:	4501                	li	a0,0
    4d56:	c398                	sw	a4,0(a5)
    4d58:	1fffe797          	auipc	a5,0x1fffe
    4d5c:	62078b23          	sb	zero,1590(a5) # 2000338e <gBleIPPara+0x2>
    4d60:	1fffe797          	auipc	a5,0x1fffe
    4d64:	620787a3          	sb	zero,1583(a5) # 2000338f <gBleIPPara+0x3>
    4d68:	1fffe797          	auipc	a5,0x1fffe
    4d6c:	62078423          	sb	zero,1576(a5) # 20003390 <gBleIPPara+0x4>
    4d70:	1fffe797          	auipc	a5,0x1fffe
    4d74:	620780a3          	sb	zero,1569(a5) # 20003391 <gBleIPPara+0x5>
    4d78:	1fffe797          	auipc	a5,0x1fffe
    4d7c:	60c78793          	addi	a5,a5,1548 # 20003384 <gptrBBReg>
    4d80:	4398                	lw	a4,0(a5)
    4d82:	431c                	lw	a5,0(a4)
    4d84:	e7f7f793          	andi	a5,a5,-385
    4d88:	c31c                	sw	a5,0(a4)
    4d8a:	431c                	lw	a5,0(a4)
    4d8c:	e7f7f793          	andi	a5,a5,-385
    4d90:	1007e793          	ori	a5,a5,256
    4d94:	c31c                	sw	a5,0(a4)
    4d96:	1fffe797          	auipc	a5,0x1fffe
    4d9a:	65678793          	addi	a5,a5,1622 # 200033ec <gptrRFENDReg>
    4d9e:	4398                	lw	a4,0(a5)
    4da0:	1fffe597          	auipc	a1,0x1fffe
    4da4:	60c5c583          	lbu	a1,1548(a1) # 200033ac <rfConfig>
    4da8:	8591                	srai	a1,a1,0x4
    4daa:	471c                	lw	a5,8(a4)
    4dac:	898d                	andi	a1,a1,3
    4dae:	8fd1                	or	a5,a5,a2
    4db0:	c71c                	sw	a5,8(a4)
    4db2:	0da00793          	li	a5,218
    4db6:	cabc                	sw	a5,80(a3)
    4db8:	4605                	li	a2,1
    4dba:	1fffc097          	auipc	ra,0x1fffc
    4dbe:	1a4080e7          	jalr	420(ra) # 20000f5e <ll_tx_wait_finish>
    4dc2:	0004c783          	lbu	a5,0(s1)
    4dc6:	1fffe697          	auipc	a3,0x1fffe
    4dca:	6086c683          	lbu	a3,1544(a3) # 200033ce <rfInfo+0x2>
    4dce:	1fffe617          	auipc	a2,0x1fffe
    4dd2:	60164603          	lbu	a2,1537(a2) # 200033cf <rfInfo+0x3>
    4dd6:	9bdd                	andi	a5,a5,-9
    4dd8:	1fffe717          	auipc	a4,0x1fffe
    4ddc:	5cf70a23          	sb	a5,1492(a4) # 200033ac <rfConfig>
    4de0:	4581                	li	a1,0
    4de2:	4501                	li	a0,0
    4de4:	b34d                	j	4b86 <rfRxProcess+0x242>
    4de6:	470d                	li	a4,3
    4de8:	eef763e3          	bltu	a4,a5,4cce <rfRxProcess+0x38a>
    4dec:	a8c00737          	lui	a4,0xa8c00
    4df0:	1771                	addi	a4,a4,-4
    4df2:	97ba                	add	a5,a5,a4
    4df4:	bdf1                	j	4cd0 <rfRxProcess+0x38c>
    4df6:	eee7f9e3          	bgeu	a5,a4,4ce8 <rfRxProcess+0x3a4>
    4dfa:	a8c005b7          	lui	a1,0xa8c00
    4dfe:	97ae                	add	a5,a5,a1
    4e00:	b5e5                	j	4ce8 <rfRxProcess+0x3a4>
    4e02:	40e78733          	sub	a4,a5,a4
    4e06:	b709                	j	4d08 <rfRxProcess+0x3c4>
    4e08:	f0f777e3          	bgeu	a4,a5,4d16 <rfRxProcess+0x3d2>
    4e0c:	a8c006b7          	lui	a3,0xa8c00
    4e10:	9736                	add	a4,a4,a3
    4e12:	b711                	j	4d16 <rfRxProcess+0x3d2>
    4e14:	4818                	lw	a4,16(s0)
    4e16:	00065f63          	bgez	a2,4e34 <rfRxProcess+0x4f0>
    4e1a:	40f707b3          	sub	a5,a4,a5
    4e1e:	f806e693          	ori	a3,a3,-128
    4e22:	1fffe717          	auipc	a4,0x1fffe
    4e26:	5af72923          	sw	a5,1458(a4) # 200033d4 <rfInfo+0x8>
    4e2a:	1fffe797          	auipc	a5,0x1fffe
    4e2e:	5ad78723          	sb	a3,1454(a5) # 200033d8 <rfInfo+0xc>
    4e32:	bdc5                	j	4d22 <rfRxProcess+0x3de>
    4e34:	fef773e3          	bgeu	a4,a5,4e1a <rfRxProcess+0x4d6>
    4e38:	a8c00637          	lui	a2,0xa8c00
    4e3c:	9732                	add	a4,a4,a2
    4e3e:	bff1                	j	4e1a <rfRxProcess+0x4d6>
    4e40:	00194783          	lbu	a5,1(s2)
    4e44:	17f9                	addi	a5,a5,-2
    4e46:	00f900a3          	sb	a5,1(s2)
    4e4a:	4c08                	lw	a0,24(s0)
    4e4c:	0ff00693          	li	a3,255
    4e50:	4901                	li	s2,0
    4e52:	00054703          	lbu	a4,0(a0)
    4e56:	00d70b63          	beq	a4,a3,4e6c <rfRxProcess+0x528>
    4e5a:	1fffe797          	auipc	a5,0x1fffe
    4e5e:	5757c783          	lbu	a5,1397(a5) # 200033cf <rfInfo+0x3>
    4e62:	00d78563          	beq	a5,a3,4e6c <rfRxProcess+0x528>
    4e66:	00f70363          	beq	a4,a5,4e6c <rfRxProcess+0x528>
    4e6a:	4909                	li	s2,2
    4e6c:	00048783          	lb	a5,0(s1)
    4e70:	4681                	li	a3,0
    4e72:	0207d063          	bgez	a5,4e92 <rfRxProcess+0x54e>
    4e76:	4601                	li	a2,0
    4e78:	4581                	li	a1,0
    4e7a:	1fffc097          	auipc	ra,0x1fffc
    4e7e:	01a080e7          	jalr	26(ra) # 20000e94 <ble_ll_chkcrc>
    4e82:	00a96533          	or	a0,s2,a0
    4e86:	0ff57593          	andi	a1,a0,255
    4e8a:	489c                	lw	a5,16(s1)
    4e8c:	4c10                	lw	a2,24(s0)
    4e8e:	450d                	li	a0,3
    4e90:	bb61                	j	4c28 <rfRxProcess+0x2e4>
    4e92:	862a                	mv	a2,a0
    4e94:	4581                	li	a1,0
    4e96:	b7d5                	j	4e7a <rfRxProcess+0x536>
    4e98:	ee5fe0ef          	jal	ra,3d7c <ll_multi_states_check>
    4e9c:	1fffe797          	auipc	a5,0x1fffe
    4ea0:	4e878793          	addi	a5,a5,1256 # 20003384 <gptrBBReg>
    4ea4:	4398                	lw	a4,0(a5)
    4ea6:	008006b7          	lui	a3,0x800
    4eaa:	431c                	lw	a5,0(a4)
    4eac:	8fd5                	or	a5,a5,a3
    4eae:	c31c                	sw	a5,0(a4)
    4eb0:	af6ff0ef          	jal	ra,41a6 <rf_stop>
    4eb4:	1fffe797          	auipc	a5,0x1fffe
    4eb8:	48478793          	addi	a5,a5,1156 # 20003338 <ble>
    4ebc:	5b9c                	lw	a5,48(a5)
    4ebe:	cc0785e3          	beqz	a5,4b88 <rfRxProcess+0x244>
    4ec2:	4585                	li	a1,1
    4ec4:	b355                	j	4c68 <rfRxProcess+0x324>

00004ec6 <RF_Shut>:
RF_Shut():
    4ec6:	1fffe797          	auipc	a5,0x1fffe
    4eca:	50078a23          	sb	zero,1300(a5) # 200033da <rfInfo+0xe>
    4ece:	1fffe797          	auipc	a5,0x1fffe
    4ed2:	4fe78793          	addi	a5,a5,1278 # 200033cc <rfInfo>
    4ed6:	43c8                	lw	a0,4(a5)
    4ed8:	1141                	addi	sp,sp,-16
    4eda:	c606                	sw	ra,12(sp)
    4edc:	c509                	beqz	a0,4ee6 <RF_Shut+0x20>
    4ede:	1fffd097          	auipc	ra,0x1fffd
    4ee2:	84c080e7          	jalr	-1972(ra) # 2000172a <tmos_memory_free>
    4ee6:	1fffe797          	auipc	a5,0x1fffe
    4eea:	4e07a523          	sw	zero,1258(a5) # 200033d0 <rfInfo+0x4>
    4eee:	1fffe797          	auipc	a5,0x1fffe
    4ef2:	4a77c783          	lbu	a5,1191(a5) # 20003395 <gBleIPPara+0x9>
    4ef6:	cf81                	beqz	a5,4f0e <RF_Shut+0x48>
    4ef8:	1fffe717          	auipc	a4,0x1fffe
    4efc:	49c74703          	lbu	a4,1180(a4) # 20003394 <gBleIPPara+0x8>
    4f00:	479d                	li	a5,7
    4f02:	00f71663          	bne	a4,a5,4f0e <RF_Shut+0x48>
    4f06:	1fffe797          	auipc	a5,0x1fffe
    4f0a:	480787a3          	sb	zero,1167(a5) # 20003395 <gBleIPPara+0x9>
    4f0e:	1fffe697          	auipc	a3,0x1fffe
    4f12:	4856c683          	lbu	a3,1157(a3) # 20003393 <gBleIPPara+0x7>
    4f16:	ffb68793          	addi	a5,a3,-5
    4f1a:	0ff7f793          	andi	a5,a5,255
    4f1e:	4705                	li	a4,1
    4f20:	00f76a63          	bltu	a4,a5,4f34 <RF_Shut+0x6e>
    4f24:	1fffe797          	auipc	a5,0x1fffe
    4f28:	46d78823          	sb	a3,1136(a5) # 20003394 <gBleIPPara+0x8>
    4f2c:	1fffe797          	auipc	a5,0x1fffe
    4f30:	46e784a3          	sb	a4,1129(a5) # 20003395 <gBleIPPara+0x9>
    4f34:	f21fe0ef          	jal	ra,3e54 <ble_ll_hw_api_shut>
    4f38:	45c1                	li	a1,16
    4f3a:	1fffe517          	auipc	a0,0x1fffe
    4f3e:	4a254503          	lbu	a0,1186(a0) # 200033dc <rfInfo+0x10>
    4f42:	b02fe0ef          	jal	ra,3244 <tmos_stop_task>
    4f46:	4501                	li	a0,0
    4f48:	4581                	li	a1,0
    4f4a:	b66fe0ef          	jal	ra,32b0 <TMOS_ProcessRegister>
    4f4e:	40b2                	lw	ra,12(sp)
    4f50:	4501                	li	a0,0
    4f52:	0141                	addi	sp,sp,16
    4f54:	8082                	ret

00004f56 <RF_FrequencyHoppingShut>:
RF_FrequencyHoppingShut():
    4f56:	1141                	addi	sp,sp,-16
    4f58:	c606                	sw	ra,12(sp)
    4f5a:	c422                	sw	s0,8(sp)
    4f5c:	37ad                	jal	4ec6 <RF_Shut>
    4f5e:	1fffe797          	auipc	a5,0x1fffe
    4f62:	46e78793          	addi	a5,a5,1134 # 200033cc <rfInfo>
    4f66:	00f7c703          	lbu	a4,15(a5)
    4f6a:	4bdc                	lw	a5,20(a5)
    4f6c:	45a1                	li	a1,8
    4f6e:	1fffe517          	auipc	a0,0x1fffe
    4f72:	46e54503          	lbu	a0,1134(a0) # 200033dc <rfInfo+0x10>
    4f76:	1fffe697          	auipc	a3,0x1fffe
    4f7a:	42e68ba3          	sb	a4,1079(a3) # 200033ad <rfConfig+0x1>
    4f7e:	1fffe717          	auipc	a4,0x1fffe
    4f82:	42f72b23          	sw	a5,1078(a4) # 200033b4 <rfConfig+0x8>
    4f86:	abefe0ef          	jal	ra,3244 <tmos_stop_task>
    4f8a:	4591                	li	a1,4
    4f8c:	1fffe517          	auipc	a0,0x1fffe
    4f90:	45054503          	lbu	a0,1104(a0) # 200033dc <rfInfo+0x10>
    4f94:	ab0fe0ef          	jal	ra,3244 <tmos_stop_task>
    4f98:	1fffe797          	auipc	a5,0x1fffe
    4f9c:	4407c783          	lbu	a5,1088(a5) # 200033d8 <rfInfo+0xc>
    4fa0:	0027f713          	andi	a4,a5,2
    4fa4:	1fffe417          	auipc	s0,0x1fffe
    4fa8:	40840413          	addi	s0,s0,1032 # 200033ac <rfConfig>
    4fac:	cf19                	beqz	a4,4fca <RF_FrequencyHoppingShut+0x74>
    4fae:	481c                	lw	a5,16(s0)
    4fb0:	4601                	li	a2,0
    4fb2:	4581                	li	a1,0
    4fb4:	02200513          	li	a0,34
    4fb8:	9782                	jalr	a5
    4fba:	40b2                	lw	ra,12(sp)
    4fbc:	4422                	lw	s0,8(sp)
    4fbe:	1fffe797          	auipc	a5,0x1fffe
    4fc2:	40078d23          	sb	zero,1050(a5) # 200033d8 <rfInfo+0xc>
    4fc6:	0141                	addi	sp,sp,16
    4fc8:	8082                	ret
    4fca:	8b91                	andi	a5,a5,4
    4fcc:	d7fd                	beqz	a5,4fba <RF_FrequencyHoppingShut+0x64>
    4fce:	481c                	lw	a5,16(s0)
    4fd0:	4601                	li	a2,0
    4fd2:	4581                	li	a1,0
    4fd4:	02400513          	li	a0,36
    4fd8:	b7c5                	j	4fb8 <RF_FrequencyHoppingShut+0x62>

00004fda <rf_hop_heart_beat>:
rf_hop_heart_beat():
    4fda:	7179                	addi	sp,sp,-48
    4fdc:	d226                	sw	s1,36(sp)
    4fde:	1fffe497          	auipc	s1,0x1fffe
    4fe2:	3ee48493          	addi	s1,s1,1006 # 200033cc <rfInfo>
    4fe6:	00c4c783          	lbu	a5,12(s1)
    4fea:	d606                	sw	ra,44(sp)
    4fec:	d422                	sw	s0,40(sp)
    4fee:	d04a                	sw	s2,32(sp)
    4ff0:	ce4e                	sw	s3,28(sp)
    4ff2:	cc52                	sw	s4,24(sp)
    4ff4:	ca56                	sw	s5,20(sp)
    4ff6:	c85a                	sw	s6,16(sp)
    4ff8:	c65e                	sw	s7,12(sp)
    4ffa:	8b89                	andi	a5,a5,2
    4ffc:	cbe1                	beqz	a5,50cc <rf_hop_heart_beat+0xf2>
    4ffe:	1fffea97          	auipc	s5,0x1fffe
    5002:	3aeaca83          	lbu	s5,942(s5) # 200033ac <rfConfig>
    5006:	009ae793          	ori	a5,s5,9
    500a:	6935                	lui	s2,0xd
    500c:	6985                	lui	s3,0x1
    500e:	6a3d                	lui	s4,0xf
    5010:	1fffe717          	auipc	a4,0x1fffe
    5014:	38f70e23          	sb	a5,924(a4) # 200033ac <rfConfig>
    5018:	4401                	li	s0,0
    501a:	1fffeb17          	auipc	s6,0x1fffe
    501e:	372b0b13          	addi	s6,s6,882 # 2000338c <gBleIPPara>
    5022:	1fffeb97          	auipc	s7,0x1fffe
    5026:	386b8b93          	addi	s7,s7,902 # 200033a8 <gptrLLEReg>
    502a:	093d                	addi	s2,s2,15
    502c:	f9298993          	addi	s3,s3,-110 # f92 <_einit+0xf8e>
    5030:	0a3d                	addi	s4,s4,15
    5032:	1fffe697          	auipc	a3,0x1fffe
    5036:	39b6c683          	lbu	a3,923(a3) # 200033cd <rfInfo+0x1>
    503a:	1fffe617          	auipc	a2,0x1fffe
    503e:	39264603          	lbu	a2,914(a2) # 200033cc <rfInfo>
    5042:	4581                	li	a1,0
    5044:	4501                	li	a0,0
    5046:	c34ff0ef          	jal	ra,447a <RF_Tx>
    504a:	002b4783          	lbu	a5,2(s6)
    504e:	8b85                	andi	a5,a5,1
    5050:	d3ed                	beqz	a5,5032 <rf_hop_heart_beat+0x58>
    5052:	1fffe517          	auipc	a0,0x1fffe
    5056:	35a54503          	lbu	a0,858(a0) # 200033ac <rfConfig>
    505a:	8511                	srai	a0,a0,0x4
    505c:	4601                	li	a2,0
    505e:	0ff00593          	li	a1,255
    5062:	890d                	andi	a0,a0,3
    5064:	1fffe797          	auipc	a5,0x1fffe
    5068:	32078523          	sb	zero,810(a5) # 2000338e <gBleIPPara+0x2>
    506c:	c11fe0ef          	jal	ra,3c7c <BLE_SetPHYRxMode>
    5070:	47f9                	li	a5,30
    5072:	0001                	nop
    5074:	17fd                	addi	a5,a5,-1
    5076:	fff5                	bnez	a5,5072 <rf_hop_heart_beat+0x98>
    5078:	1fffe597          	auipc	a1,0x1fffe
    507c:	3345c583          	lbu	a1,820(a1) # 200033ac <rfConfig>
    5080:	8591                	srai	a1,a1,0x4
    5082:	0ff00613          	li	a2,255
    5086:	898d                	andi	a1,a1,3
    5088:	4505                	li	a0,1
    508a:	1fffc097          	auipc	ra,0x1fffc
    508e:	ed4080e7          	jalr	-300(ra) # 20000f5e <ll_tx_wait_finish>
    5092:	003b4783          	lbu	a5,3(s6)
    5096:	8b85                	andi	a5,a5,1
    5098:	c7a9                	beqz	a5,50e2 <rf_hop_heart_beat+0x108>
    509a:	1fffe797          	auipc	a5,0x1fffe
    509e:	2e078aa3          	sb	zero,757(a5) # 2000338f <gBleIPPara+0x3>
    50a2:	904ff0ef          	jal	ra,41a6 <rf_stop>
    50a6:	00c4c783          	lbu	a5,12(s1)
    50aa:	4585                	li	a1,1
    50ac:	1fffe517          	auipc	a0,0x1fffe
    50b0:	33054503          	lbu	a0,816(a0) # 200033dc <rfInfo+0x10>
    50b4:	f807e793          	ori	a5,a5,-128
    50b8:	1fffe717          	auipc	a4,0x1fffe
    50bc:	32f70023          	sb	a5,800(a4) # 200033d8 <rfInfo+0xc>
    50c0:	844fe0ef          	jal	ra,3104 <tmos_set_event>
    50c4:	1fffe797          	auipc	a5,0x1fffe
    50c8:	2f578423          	sb	s5,744(a5) # 200033ac <rfConfig>
    50cc:	50b2                	lw	ra,44(sp)
    50ce:	5422                	lw	s0,40(sp)
    50d0:	5492                	lw	s1,36(sp)
    50d2:	5902                	lw	s2,32(sp)
    50d4:	49f2                	lw	s3,28(sp)
    50d6:	4a62                	lw	s4,24(sp)
    50d8:	4ad2                	lw	s5,20(sp)
    50da:	4b42                	lw	s6,16(sp)
    50dc:	4bb2                	lw	s7,12(sp)
    50de:	6145                	addi	sp,sp,48
    50e0:	8082                	ret
    50e2:	8c4ff0ef          	jal	ra,41a6 <rf_stop>
    50e6:	0405                	addi	s0,s0,1
    50e8:	0ff47413          	andi	s0,s0,255
    50ec:	47a1                	li	a5,8
    50ee:	00f41463          	bne	s0,a5,50f6 <rf_hop_heart_beat+0x11c>
    50f2:	3595                	jal	4f56 <RF_FrequencyHoppingShut>
    50f4:	bfc1                	j	50c4 <rf_hop_heart_beat+0xea>
    50f6:	000ba783          	lw	a5,0(s7)
    50fa:	0127a623          	sw	s2,12(a5)
    50fe:	0000100f          	fence.i
    5102:	000ba783          	lw	a5,0(s7)
    5106:	6709                	lui	a4,0x2
    5108:	c798                	sw	a4,8(a5)
    510a:	f8000713          	li	a4,-128
    510e:	1fffe697          	auipc	a3,0x1fffe
    5112:	28e68123          	sb	a4,642(a3) # 20003390 <gBleIPPara+0x4>
    5116:	0737a223          	sw	s3,100(a5)
    511a:	0147a623          	sw	s4,12(a5)
    511e:	53f8                	lw	a4,100(a5)
    5120:	ff7d                	bnez	a4,511e <rf_hop_heart_beat+0x144>
    5122:	bf01                	j	5032 <rf_hop_heart_beat+0x58>

00005124 <RFFH_ProcessEvent>:
RFFH_ProcessEvent():
    5124:	1141                	addi	sp,sp,-16
    5126:	c422                	sw	s0,8(sp)
    5128:	c606                	sw	ra,12(sp)
    512a:	0015f793          	andi	a5,a1,1
    512e:	842e                	mv	s0,a1
    5130:	c3b9                	beqz	a5,5176 <RFFH_ProcessEvent+0x52>
    5132:	1fffe797          	auipc	a5,0x1fffe
    5136:	2a67c783          	lbu	a5,678(a5) # 200033d8 <rfInfo+0xc>
    513a:	0027f713          	andi	a4,a5,2
    513e:	c715                	beqz	a4,516a <RFFH_ProcessEvent+0x46>
    5140:	07e2                	slli	a5,a5,0x18
    5142:	87e1                	srai	a5,a5,0x18
    5144:	1fffe517          	auipc	a0,0x1fffe
    5148:	29854503          	lbu	a0,664(a0) # 200033dc <rfInfo+0x10>
    514c:	05000613          	li	a2,80
    5150:	0007da63          	bgez	a5,5164 <RFFH_ProcessEvent+0x40>
    5154:	1fffe617          	auipc	a2,0x1fffe
    5158:	27164603          	lbu	a2,625(a2) # 200033c5 <rfConfig+0x19>
    515c:	0a000793          	li	a5,160
    5160:	02f60633          	mul	a2,a2,a5
    5164:	4591                	li	a1,4
    5166:	ffffd0ef          	jal	ra,3164 <tmos_start_task>
    516a:	00144513          	xori	a0,s0,1
    516e:	40b2                	lw	ra,12(sp)
    5170:	4422                	lw	s0,8(sp)
    5172:	0141                	addi	sp,sp,16
    5174:	8082                	ret
    5176:	0025f793          	andi	a5,a1,2
    517a:	c3b1                	beqz	a5,51be <RFFH_ProcessEvent+0x9a>
    517c:	1fffe797          	auipc	a5,0x1fffe
    5180:	25c7c783          	lbu	a5,604(a5) # 200033d8 <rfInfo+0xc>
    5184:	0047f713          	andi	a4,a5,4
    5188:	cb05                	beqz	a4,51b8 <RFFH_ProcessEvent+0x94>
    518a:	07e2                	slli	a5,a5,0x18
    518c:	87e1                	srai	a5,a5,0x18
    518e:	1fffe517          	auipc	a0,0x1fffe
    5192:	24e54503          	lbu	a0,590(a0) # 200033dc <rfInfo+0x10>
    5196:	0a000613          	li	a2,160
    519a:	0007dc63          	bgez	a5,51b2 <RFFH_ProcessEvent+0x8e>
    519e:	1fffe617          	auipc	a2,0x1fffe
    51a2:	22764603          	lbu	a2,551(a2) # 200033c5 <rfConfig+0x19>
    51a6:	0a000793          	li	a5,160
    51aa:	02f60633          	mul	a2,a2,a5
    51ae:	02860613          	addi	a2,a2,40
    51b2:	45a1                	li	a1,8
    51b4:	fb1fd0ef          	jal	ra,3164 <tmos_start_task>
    51b8:	00244513          	xori	a0,s0,2
    51bc:	bf4d                	j	516e <RFFH_ProcessEvent+0x4a>
    51be:	0045f793          	andi	a5,a1,4
    51c2:	c789                	beqz	a5,51cc <RFFH_ProcessEvent+0xa8>
    51c4:	3d19                	jal	4fda <rf_hop_heart_beat>
    51c6:	00444513          	xori	a0,s0,4
    51ca:	b755                	j	516e <RFFH_ProcessEvent+0x4a>
    51cc:	0085f793          	andi	a5,a1,8
    51d0:	cb99                	beqz	a5,51e6 <RFFH_ProcessEvent+0xc2>
    51d2:	1fffe797          	auipc	a5,0x1fffe
    51d6:	2067c783          	lbu	a5,518(a5) # 200033d8 <rfInfo+0xc>
    51da:	8b91                	andi	a5,a5,4
    51dc:	c391                	beqz	a5,51e0 <RFFH_ProcessEvent+0xbc>
    51de:	3ba5                	jal	4f56 <RF_FrequencyHoppingShut>
    51e0:	00844513          	xori	a0,s0,8
    51e4:	b769                	j	516e <RFFH_ProcessEvent+0x4a>
    51e6:	0105f793          	andi	a5,a1,16
    51ea:	4501                	li	a0,0
    51ec:	d3c9                	beqz	a5,516e <RFFH_ProcessEvent+0x4a>
    51ee:	bd6fe0ef          	jal	ra,35c4 <TMOS_TempSample>
    51f2:	1fffe717          	auipc	a4,0x1fffe
    51f6:	1a174703          	lbu	a4,417(a4) # 20003393 <gBleIPPara+0x7>
    51fa:	479d                	li	a5,7
    51fc:	00f71b63          	bne	a4,a5,5212 <RFFH_ProcessEvent+0xee>
    5200:	64000613          	li	a2,1600
    5204:	45c1                	li	a1,16
    5206:	1fffe517          	auipc	a0,0x1fffe
    520a:	1d654503          	lbu	a0,470(a0) # 200033dc <rfInfo+0x10>
    520e:	f57fd0ef          	jal	ra,3164 <tmos_start_task>
    5212:	01044513          	xori	a0,s0,16
    5216:	bfa1                	j	516e <RFFH_ProcessEvent+0x4a>

00005218 <RF_RoleInit>:
RF_RoleInit():
    5218:	1141                	addi	sp,sp,-16
    521a:	c606                	sw	ra,12(sp)
    521c:	c422                	sw	s0,8(sp)
    521e:	d7dfe0ef          	jal	ra,3f9a <BLE_IPCoreInit>
    5222:	4671                	li	a2,28
    5224:	4581                	li	a1,0
    5226:	1fffe517          	auipc	a0,0x1fffe
    522a:	1a650513          	addi	a0,a0,422 # 200033cc <rfInfo>
    522e:	1fffb097          	auipc	ra,0x1fffb
    5232:	67c080e7          	jalr	1660(ra) # 200008aa <tmos_memset>
    5236:	1fffe417          	auipc	s0,0x1fffe
    523a:	19640413          	addi	s0,s0,406 # 200033cc <rfInfo>
    523e:	57fd                	li	a5,-1
    5240:	00000517          	auipc	a0,0x0
    5244:	ee450513          	addi	a0,a0,-284 # 5124 <RFFH_ProcessEvent>
    5248:	c01c                	sw	a5,0(s0)
    524a:	972fe0ef          	jal	ra,33bc <TMOS_ProcessEventRegister>
    524e:	00a40823          	sb	a0,16(s0)
    5252:	4595                	li	a1,5
    5254:	fffff517          	auipc	a0,0xfffff
    5258:	6f050513          	addi	a0,a0,1776 # 4944 <rfRxProcess>
    525c:	854fe0ef          	jal	ra,32b0 <TMOS_ProcessRegister>
    5260:	40b2                	lw	ra,12(sp)
    5262:	4422                	lw	s0,8(sp)
    5264:	4501                	li	a0,0
    5266:	0141                	addi	sp,sp,16
    5268:	8082                	ret

0000526a <RFEND_Reset>:
RFEND_Reset():
    526a:	1fffe797          	auipc	a5,0x1fffe
    526e:	18278793          	addi	a5,a5,386 # 200033ec <gptrRFENDReg>
    5272:	4394                	lw	a3,0(a5)
    5274:	6705                	lui	a4,0x1
    5276:	10170713          	addi	a4,a4,257 # 1101 <_einit+0x10fd>
    527a:	c6d8                	sw	a4,12(a3)
    527c:	4751                	li	a4,20
    527e:	0001                	nop
    5280:	177d                	addi	a4,a4,-1
    5282:	ff75                	bnez	a4,527e <RFEND_Reset+0x14>
    5284:	4398                	lw	a4,0(a5)
    5286:	00072623          	sw	zero,12(a4)
    528a:	4751                	li	a4,20
    528c:	0001                	nop
    528e:	177d                	addi	a4,a4,-1
    5290:	ff75                	bnez	a4,528c <RFEND_Reset+0x22>
    5292:	4398                	lw	a4,0(a5)
    5294:	6785                	lui	a5,0x1
    5296:	10178793          	addi	a5,a5,257 # 1101 <_einit+0x10fd>
    529a:	c75c                	sw	a5,12(a4)
    529c:	8082                	ret

0000529e <RFEND_DevInit>:
RFEND_DevInit():
    529e:	1141                	addi	sp,sp,-16
    52a0:	c606                	sw	ra,12(sp)
    52a2:	37e1                	jal	526a <RFEND_Reset>
    52a4:	1fffe797          	auipc	a5,0x1fffe
    52a8:	14878793          	addi	a5,a5,328 # 200033ec <gptrRFENDReg>
    52ac:	439c                	lw	a5,0(a5)
    52ae:	48000713          	li	a4,1152
    52b2:	90000337          	lui	t1,0x90000
    52b6:	d798                	sw	a4,40(a5)
    52b8:	47b8                	lw	a4,72(a5)
    52ba:	137d                	addi	t1,t1,-1
    52bc:	20000e37          	lui	t3,0x20000
    52c0:	00677733          	and	a4,a4,t1
    52c4:	01c76733          	or	a4,a4,t3
    52c8:	c7b8                	sw	a4,72(a5)
    52ca:	47b8                	lw	a4,72(a5)
    52cc:	f90006b7          	lui	a3,0xf9000
    52d0:	16fd                	addi	a3,a3,-1
    52d2:	8f75                	and	a4,a4,a3
    52d4:	04000637          	lui	a2,0x4000
    52d8:	8f51                	or	a4,a4,a2
    52da:	c7b8                	sw	a4,72(a5)
    52dc:	47b8                	lw	a4,72(a5)
    52de:	fff90637          	lui	a2,0xfff90
    52e2:	167d                	addi	a2,a2,-1
    52e4:	9b41                	andi	a4,a4,-16
    52e6:	00976713          	ori	a4,a4,9
    52ea:	c7b8                	sw	a4,72(a5)
    52ec:	47b8                	lw	a4,72(a5)
    52ee:	800008b7          	lui	a7,0x80000
    52f2:	02000eb7          	lui	t4,0x2000
    52f6:	8f71                	and	a4,a4,a2
    52f8:	c7b8                	sw	a4,72(a5)
    52fa:	47b8                	lw	a4,72(a5)
    52fc:	ff000637          	lui	a2,0xff000
    5300:	167d                	addi	a2,a2,-1
    5302:	01176733          	or	a4,a4,a7
    5306:	c7b8                	sw	a4,72(a5)
    5308:	47f8                	lw	a4,76(a5)
    530a:	7545                	lui	a0,0xffff1
    530c:	1e7d                	addi	t3,t3,-1
    530e:	9b61                	andi	a4,a4,-8
    5310:	00376713          	ori	a4,a4,3
    5314:	c7f8                	sw	a4,76(a5)
    5316:	47f8                	lw	a4,76(a5)
    5318:	f8f77713          	andi	a4,a4,-113
    531c:	03076713          	ori	a4,a4,48
    5320:	c7f8                	sw	a4,76(a5)
    5322:	47ec                	lw	a1,76(a5)
    5324:	8ff5f593          	andi	a1,a1,-1793
    5328:	3005e593          	ori	a1,a1,768
    532c:	c7ec                	sw	a1,76(a5)
    532e:	47f8                	lw	a4,76(a5)
    5330:	8f71                	and	a4,a4,a2
    5332:	c7f8                	sw	a4,76(a5)
    5334:	47f8                	lw	a4,76(a5)
    5336:	6611                	lui	a2,0x4
    5338:	01d76733          	or	a4,a4,t4
    533c:	c7f8                	sw	a4,76(a5)
    533e:	0507a803          	lw	a6,80(a5)
    5342:	fff50713          	addi	a4,a0,-1 # ffff0fff <_eusrstack+0xdffe8fff>
    5346:	757d                	lui	a0,0xfffff
    5348:	00e87833          	and	a6,a6,a4
    534c:	00c86833          	or	a6,a6,a2
    5350:	0507a823          	sw	a6,80(a5)
    5354:	0547a803          	lw	a6,84(a5)
    5358:	157d                	addi	a0,a0,-1
    535a:	ff087813          	andi	a6,a6,-16
    535e:	00486813          	ori	a6,a6,4
    5362:	0507aa23          	sw	a6,84(a5)
    5366:	4bf0                	lw	a2,84(a5)
    5368:	08066613          	ori	a2,a2,128
    536c:	cbf0                	sw	a2,84(a5)
    536e:	4bf0                	lw	a2,84(a5)
    5370:	8e69                	and	a2,a2,a0
    5372:	cbf0                	sw	a2,84(a5)
    5374:	5fc8                	lw	a0,60(a5)
    5376:	8d79                	and	a0,a0,a4
    5378:	6721                	lui	a4,0x8
    537a:	8d59                	or	a0,a0,a4
    537c:	dfc8                	sw	a0,60(a5)
    537e:	5fcc                	lw	a1,60(a5)
    5380:	40000737          	lui	a4,0x40000
    5384:	8df5                	and	a1,a1,a3
    5386:	01d5e5b3          	or	a1,a1,t4
    538a:	dfcc                	sw	a1,60(a5)
    538c:	5fd0                	lw	a2,60(a5)
    538e:	007005b7          	lui	a1,0x700
    5392:	01c67633          	and	a2,a2,t3
    5396:	8e59                	or	a2,a2,a4
    5398:	dfd0                	sw	a2,60(a5)
    539a:	57d0                	lw	a2,44(a5)
    539c:	6709                	lui	a4,0x2
    539e:	8e4d                	or	a2,a2,a1
    53a0:	d7d0                	sw	a2,44(a5)
    53a2:	57d0                	lw	a2,44(a5)
    53a4:	8ef1                	and	a3,a3,a2
    53a6:	d7d4                	sw	a3,44(a5)
    53a8:	57d4                	lw	a3,44(a5)
    53aa:	7675                	lui	a2,0xffffd
    53ac:	167d                	addi	a2,a2,-1
    53ae:	8ef1                	and	a3,a3,a2
    53b0:	8ed9                	or	a3,a3,a4
    53b2:	d7d4                	sw	a3,44(a5)
    53b4:	57d4                	lw	a3,44(a5)
    53b6:	fffd0637          	lui	a2,0xfffd0
    53ba:	167d                	addi	a2,a2,-1
    53bc:	00020737          	lui	a4,0x20
    53c0:	8ef1                	and	a3,a3,a2
    53c2:	8ed9                	or	a3,a3,a4
    53c4:	d7d4                	sw	a3,44(a5)
    53c6:	5b94                	lw	a3,48(a5)
    53c8:	9ac1                	andi	a3,a3,-16
    53ca:	db94                	sw	a3,48(a5)
    53cc:	5b94                	lw	a3,48(a5)
    53ce:	f0f6f693          	andi	a3,a3,-241
    53d2:	db94                	sw	a3,48(a5)
    53d4:	5b94                	lw	a3,48(a5)
    53d6:	8ff6f693          	andi	a3,a3,-1793
    53da:	db94                	sw	a3,48(a5)
    53dc:	5b98                	lw	a4,48(a5)
    53de:	500006b7          	lui	a3,0x50000
    53e2:	8f4d                	or	a4,a4,a1
    53e4:	db98                	sw	a4,48(a5)
    53e6:	5b98                	lw	a4,48(a5)
    53e8:	00677733          	and	a4,a4,t1
    53ec:	8f55                	or	a4,a4,a3
    53ee:	db98                	sw	a4,48(a5)
    53f0:	5f98                	lw	a4,56(a5)
    53f2:	ff0806b7          	lui	a3,0xff080
    53f6:	16fd                	addi	a3,a3,-1
    53f8:	8f75                	and	a4,a4,a3
    53fa:	008806b7          	lui	a3,0x880
    53fe:	8f55                	or	a4,a4,a3
    5400:	df98                	sw	a4,56(a5)
    5402:	5f98                	lw	a4,56(a5)
    5404:	011768b3          	or	a7,a4,a7
    5408:	0317ac23          	sw	a7,56(a5)
    540c:	40b2                	lw	ra,12(sp)
    540e:	0141                	addi	sp,sp,16
    5410:	8082                	ret

00005412 <RFEND_RXFilter>:
RFEND_RXFilter():
    5412:	1fffe717          	auipc	a4,0x1fffe
    5416:	fda70713          	addi	a4,a4,-38 # 200033ec <gptrRFENDReg>
    541a:	431c                	lw	a5,0(a4)
    541c:	7641                	lui	a2,0xffff0
    541e:	167d                	addi	a2,a2,-1
    5420:	4bb4                	lw	a3,80(a5)
    5422:	8ef1                	and	a3,a3,a2
    5424:	cbb4                	sw	a3,80(a5)
    5426:	4794                	lw	a3,8(a5)
    5428:	00200637          	lui	a2,0x200
    542c:	8ed1                	or	a3,a3,a2
    542e:	c794                	sw	a3,8(a5)
    5430:	47d4                	lw	a3,12(a5)
    5432:	0106e693          	ori	a3,a3,16
    5436:	c7d4                	sw	a3,12(a5)
    5438:	47d4                	lw	a3,12(a5)
    543a:	9abd                	andi	a3,a3,-17
    543c:	c7d4                	sw	a3,12(a5)
    543e:	0001                	nop
    5440:	0001                	nop
    5442:	0001                	nop
    5444:	0001                	nop
    5446:	4314                	lw	a3,0(a4)
    5448:	6605                	lui	a2,0x1
    544a:	46dc                	lw	a5,12(a3)
    544c:	0107e793          	ori	a5,a5,16
    5450:	c6dc                	sw	a5,12(a3)
    5452:	42dc                	lw	a5,4(a3)
    5454:	8fd1                	or	a5,a5,a2
    5456:	c2dc                	sw	a5,4(a3)
    5458:	09c6a783          	lw	a5,156(a3) # 88009c <_data_lma+0x879a20>
    545c:	83a1                	srli	a5,a5,0x8
    545e:	8b85                	andi	a5,a5,1
    5460:	dfe5                	beqz	a5,5458 <RFEND_RXFilter+0x46>
    5462:	0001                	nop
    5464:	0001                	nop
    5466:	0001                	nop
    5468:	0001                	nop
    546a:	431c                	lw	a5,0(a4)
    546c:	6641                	lui	a2,0x10
    546e:	09c7a703          	lw	a4,156(a5)
    5472:	4bb4                	lw	a3,80(a5)
    5474:	8ed1                	or	a3,a3,a2
    5476:	cbb4                	sw	a3,80(a5)
    5478:	01f77693          	andi	a3,a4,31
    547c:	4bb8                	lw	a4,80(a5)
    547e:	9b01                	andi	a4,a4,-32
    5480:	8f55                	or	a4,a4,a3
    5482:	cbb8                	sw	a4,80(a5)
    5484:	4798                	lw	a4,8(a5)
    5486:	ffe006b7          	lui	a3,0xffe00
    548a:	16fd                	addi	a3,a3,-1
    548c:	8f75                	and	a4,a4,a3
    548e:	c798                	sw	a4,8(a5)
    5490:	8082                	ret

00005492 <RFEND_RXAdc>:
RFEND_RXAdc():
    5492:	1fffe797          	auipc	a5,0x1fffe
    5496:	f5a78793          	addi	a5,a5,-166 # 200033ec <gptrRFENDReg>
    549a:	439c                	lw	a5,0(a5)
    549c:	7741                	lui	a4,0xffff0
    549e:	177d                	addi	a4,a4,-1
    54a0:	4fb4                	lw	a3,88(a5)
    54a2:	6641                	lui	a2,0x10
    54a4:	8ef9                	and	a3,a3,a4
    54a6:	cfb4                	sw	a3,88(a5)
    54a8:	4794                	lw	a3,8(a5)
    54aa:	8ed1                	or	a3,a3,a2
    54ac:	c794                	sw	a3,8(a5)
    54ae:	47d4                	lw	a3,12(a5)
    54b0:	eff6f693          	andi	a3,a3,-257
    54b4:	c7d4                	sw	a3,12(a5)
    54b6:	43d4                	lw	a3,4(a5)
    54b8:	8f75                	and	a4,a4,a3
    54ba:	c3d8                	sw	a4,4(a5)
    54bc:	47d4                	lw	a3,12(a5)
    54be:	1006e693          	ori	a3,a3,256
    54c2:	c7d4                	sw	a3,12(a5)
    54c4:	43d8                	lw	a4,4(a5)
    54c6:	8f51                	or	a4,a4,a2
    54c8:	c3d8                	sw	a4,4(a5)
    54ca:	8082                	ret

000054cc <RFEND_TXCtune>:
RFEND_TXCtune():
    54cc:	7139                	addi	sp,sp,-64
    54ce:	dc22                	sw	s0,56(sp)
    54d0:	1fffe417          	auipc	s0,0x1fffe
    54d4:	f1c40413          	addi	s0,s0,-228 # 200033ec <gptrRFENDReg>
    54d8:	401c                	lw	a5,0(s0)
    54da:	de06                	sw	ra,60(sp)
    54dc:	da26                	sw	s1,52(sp)
    54de:	d84a                	sw	s2,48(sp)
    54e0:	d64e                	sw	s3,44(sp)
    54e2:	d452                	sw	s4,40(sp)
    54e4:	d256                	sw	s5,36(sp)
    54e6:	d05a                	sw	s6,32(sp)
    54e8:	ce5e                	sw	s7,28(sp)
    54ea:	cc62                	sw	s8,24(sp)
    54ec:	ca66                	sw	s9,20(sp)
    54ee:	c86a                	sw	s10,16(sp)
    54f0:	c66e                	sw	s11,12(sp)
    54f2:	43d8                	lw	a4,4(a5)
    54f4:	76fd                	lui	a3,0xfffff
    54f6:	16fd                	addi	a3,a3,-1
    54f8:	eff77713          	andi	a4,a4,-257
    54fc:	c3d8                	sw	a4,4(a5)
    54fe:	5798                	lw	a4,40(a5)
    5500:	8f75                	and	a4,a4,a3
    5502:	d798                	sw	a4,40(a5)
    5504:	57d8                	lw	a4,44(a5)
    5506:	000206b7          	lui	a3,0x20
    550a:	9b3d                	andi	a4,a4,-17
    550c:	d7d8                	sw	a4,44(a5)
    550e:	4798                	lw	a4,8(a5)
    5510:	8f55                	or	a4,a4,a3
    5512:	c798                	sw	a4,8(a5)
    5514:	43d8                	lw	a4,4(a5)
    5516:	01076713          	ori	a4,a4,16
    551a:	c3d8                	sw	a4,4(a5)
    551c:	8171c703          	lbu	a4,-2025(gp) # 2000182f <nCO2401>
    5520:	8181c683          	lbu	a3,-2024(gp) # 20001830 <nGA2401>
    5524:	8f55                	or	a4,a4,a3
    5526:	ef61                	bnez	a4,55fe <RFEND_TXCtune+0x132>
    5528:	43d8                	lw	a4,4(a5)
    552a:	7481                	lui	s1,0xfffe0
    552c:	0ff48493          	addi	s1,s1,255 # fffe00ff <_eusrstack+0xdffd80ff>
    5530:	9b79                	andi	a4,a4,-2
    5532:	c3d8                	sw	a4,4(a5)
    5534:	5f98                	lw	a4,56(a5)
    5536:	66b1                	lui	a3,0xc
    5538:	f0068693          	addi	a3,a3,-256 # bf00 <_data_lma+0x5884>
    553c:	8f65                	and	a4,a4,s1
    553e:	8f55                	or	a4,a4,a3
    5540:	df98                	sw	a4,56(a5)
    5542:	43d8                	lw	a4,4(a5)
    5544:	00176713          	ori	a4,a4,1
    5548:	c3d8                	sw	a4,4(a5)
    554a:	1fffc097          	auipc	ra,0x1fffc
    554e:	0de080e7          	jalr	222(ra) # 20001628 <RFEND_WaitTune>
    5552:	401c                	lw	a5,0(s0)
    5554:	0907a703          	lw	a4,144(a5)
    5558:	03f77713          	andi	a4,a4,63
    555c:	80e18ba3          	sb	a4,-2025(gp) # 2000182f <nCO2401>
    5560:	0947a703          	lw	a4,148(a5)
    5564:	8329                	srli	a4,a4,0xa
    5566:	07f77713          	andi	a4,a4,127
    556a:	80e18c23          	sb	a4,-2024(gp) # 20001830 <nGA2401>
    556e:	43d8                	lw	a4,4(a5)
    5570:	66b9                	lui	a3,0xe
    5572:	70068693          	addi	a3,a3,1792 # e700 <_data_lma+0x8084>
    5576:	9b79                	andi	a4,a4,-2
    5578:	c3d8                	sw	a4,4(a5)
    557a:	5f98                	lw	a4,56(a5)
    557c:	8f65                	and	a4,a4,s1
    557e:	8f55                	or	a4,a4,a3
    5580:	df98                	sw	a4,56(a5)
    5582:	43d8                	lw	a4,4(a5)
    5584:	00176713          	ori	a4,a4,1
    5588:	c3d8                	sw	a4,4(a5)
    558a:	1fffc097          	auipc	ra,0x1fffc
    558e:	09e080e7          	jalr	158(ra) # 20001628 <RFEND_WaitTune>
    5592:	401c                	lw	a5,0(s0)
    5594:	0907a703          	lw	a4,144(a5)
    5598:	03f77713          	andi	a4,a4,63
    559c:	1fffe697          	auipc	a3,0x1fffe
    55a0:	e4e68aa3          	sb	a4,-427(a3) # 200033f1 <nCO2480>
    55a4:	0947a703          	lw	a4,148(a5)
    55a8:	8329                	srli	a4,a4,0xa
    55aa:	07f77713          	andi	a4,a4,127
    55ae:	1fffe697          	auipc	a3,0x1fffe
    55b2:	e2e68da3          	sb	a4,-453(a3) # 200033e9 <nGA2480>
    55b6:	43d8                	lw	a4,4(a5)
    55b8:	66b5                	lui	a3,0xd
    55ba:	30068693          	addi	a3,a3,768 # d300 <_data_lma+0x6c84>
    55be:	9b79                	andi	a4,a4,-2
    55c0:	c3d8                	sw	a4,4(a5)
    55c2:	5f98                	lw	a4,56(a5)
    55c4:	8f65                	and	a4,a4,s1
    55c6:	8f55                	or	a4,a4,a3
    55c8:	df98                	sw	a4,56(a5)
    55ca:	43d8                	lw	a4,4(a5)
    55cc:	00176713          	ori	a4,a4,1
    55d0:	c3d8                	sw	a4,4(a5)
    55d2:	1fffc097          	auipc	ra,0x1fffc
    55d6:	056080e7          	jalr	86(ra) # 20001628 <RFEND_WaitTune>
    55da:	4018                	lw	a4,0(s0)
    55dc:	09072783          	lw	a5,144(a4) # ffff0090 <_eusrstack+0xdffe8090>
    55e0:	03f7f793          	andi	a5,a5,63
    55e4:	1fffe697          	auipc	a3,0x1fffe
    55e8:	e0f68623          	sb	a5,-500(a3) # 200033f0 <nCO2440>
    55ec:	09472783          	lw	a5,148(a4)
    55f0:	83a9                	srli	a5,a5,0xa
    55f2:	07f7f793          	andi	a5,a5,127
    55f6:	1fffe717          	auipc	a4,0x1fffe
    55fa:	def70923          	sb	a5,-526(a4) # 200033e8 <nGA2440>
    55fe:	401c                	lw	a5,0(s0)
    5600:	1fffec17          	auipc	s8,0x1fffe
    5604:	df0c4c03          	lbu	s8,-528(s8) # 200033f0 <nCO2440>
    5608:	8171c683          	lbu	a3,-2025(gp) # 2000182f <nCO2401>
    560c:	0a07a703          	lw	a4,160(a5)
    5610:	418686b3          	sub	a3,a3,s8
    5614:	00f6f613          	andi	a2,a3,15
    5618:	9b41                	andi	a4,a4,-16
    561a:	8f51                	or	a4,a4,a2
    561c:	0ae7a023          	sw	a4,160(a5)
    5620:	02600713          	li	a4,38
    5624:	02e68733          	mul	a4,a3,a4
    5628:	02700613          	li	a2,39
    562c:	0a07a583          	lw	a1,160(a5)
    5630:	7e7d                	lui	t3,0xfffff
    5632:	0ffe0e13          	addi	t3,t3,255 # fffff0ff <_eusrstack+0xdfff70ff>
    5636:	f0f5f593          	andi	a1,a1,-241
    563a:	02400513          	li	a0,36
    563e:	7345                	lui	t1,0xffff1
    5640:	137d                	addi	t1,t1,-1
    5642:	02300413          	li	s0,35
    5646:	02c74733          	div	a4,a4,a2
    564a:	fff108b7          	lui	a7,0xfff10
    564e:	18fd                	addi	a7,a7,-1
    5650:	02200813          	li	a6,34
    5654:	02100e93          	li	t4,33
    5658:	4f7d                	li	t5,31
    565a:	4ff9                	li	t6,30
    565c:	42f5                	li	t0,29
    565e:	43f1                	li	t2,28
    5660:	4d6d                	li	s10,27
    5662:	4bd1                	li	s7,20
    5664:	4b45                	li	s6,17
    5666:	44bd                	li	s1,15
    5668:	4939                	li	s2,14
    566a:	4a31                	li	s4,12
    566c:	4aad                	li	s5,11
    566e:	49b5                	li	s3,13
    5670:	8b3d                	andi	a4,a4,15
    5672:	0712                	slli	a4,a4,0x4
    5674:	8f4d                	or	a4,a4,a1
    5676:	02500593          	li	a1,37
    567a:	0ae7a023          	sw	a4,160(a5)
    567e:	02b68733          	mul	a4,a3,a1
    5682:	0a07a583          	lw	a1,160(a5)
    5686:	01c5f5b3          	and	a1,a1,t3
    568a:	02c74733          	div	a4,a4,a2
    568e:	8b3d                	andi	a4,a4,15
    5690:	0722                	slli	a4,a4,0x8
    5692:	8f4d                	or	a4,a4,a1
    5694:	0ae7a023          	sw	a4,160(a5)
    5698:	02a68733          	mul	a4,a3,a0
    569c:	0a07a583          	lw	a1,160(a5)
    56a0:	f1000537          	lui	a0,0xf1000
    56a4:	157d                	addi	a0,a0,-1
    56a6:	0065f5b3          	and	a1,a1,t1
    56aa:	02c74733          	div	a4,a4,a2
    56ae:	8b3d                	andi	a4,a4,15
    56b0:	0732                	slli	a4,a4,0xc
    56b2:	8f4d                	or	a4,a4,a1
    56b4:	0ae7a023          	sw	a4,160(a5)
    56b8:	02868733          	mul	a4,a3,s0
    56bc:	0a07a583          	lw	a1,160(a5)
    56c0:	4461                	li	s0,24
    56c2:	0115f5b3          	and	a1,a1,a7
    56c6:	02c74733          	div	a4,a4,a2
    56ca:	8b3d                	andi	a4,a4,15
    56cc:	0742                	slli	a4,a4,0x10
    56ce:	8f4d                	or	a4,a4,a1
    56d0:	0ae7a023          	sw	a4,160(a5)
    56d4:	03068733          	mul	a4,a3,a6
    56d8:	0a07a583          	lw	a1,160(a5)
    56dc:	ff100837          	lui	a6,0xff100
    56e0:	187d                	addi	a6,a6,-1
    56e2:	0105f5b3          	and	a1,a1,a6
    56e6:	02c74733          	div	a4,a4,a2
    56ea:	8b3d                	andi	a4,a4,15
    56ec:	0752                	slli	a4,a4,0x14
    56ee:	8f4d                	or	a4,a4,a1
    56f0:	0ae7a023          	sw	a4,160(a5)
    56f4:	03d68733          	mul	a4,a3,t4
    56f8:	0a07a583          	lw	a1,160(a5)
    56fc:	10000eb7          	lui	t4,0x10000
    5700:	1efd                	addi	t4,t4,-1
    5702:	8de9                	and	a1,a1,a0
    5704:	02c74733          	div	a4,a4,a2
    5708:	8b3d                	andi	a4,a4,15
    570a:	0762                	slli	a4,a4,0x18
    570c:	8f4d                	or	a4,a4,a1
    570e:	0ae7a023          	sw	a4,160(a5)
    5712:	00569713          	slli	a4,a3,0x5
    5716:	02c74733          	div	a4,a4,a2
    571a:	01c71593          	slli	a1,a4,0x1c
    571e:	0a07a703          	lw	a4,160(a5)
    5722:	01d77733          	and	a4,a4,t4
    5726:	8f4d                	or	a4,a4,a1
    5728:	0ae7a023          	sw	a4,160(a5)
    572c:	03e68733          	mul	a4,a3,t5
    5730:	4f5d                	li	t5,23
    5732:	02c74733          	div	a4,a4,a2
    5736:	00f77593          	andi	a1,a4,15
    573a:	0a47a703          	lw	a4,164(a5)
    573e:	9b41                	andi	a4,a4,-16
    5740:	8f4d                	or	a4,a4,a1
    5742:	0ae7a223          	sw	a4,164(a5)
    5746:	03f68733          	mul	a4,a3,t6
    574a:	0a47a583          	lw	a1,164(a5)
    574e:	4fd9                	li	t6,22
    5750:	f0f5f593          	andi	a1,a1,-241
    5754:	02c74733          	div	a4,a4,a2
    5758:	8b3d                	andi	a4,a4,15
    575a:	0712                	slli	a4,a4,0x4
    575c:	8f4d                	or	a4,a4,a1
    575e:	0ae7a223          	sw	a4,164(a5)
    5762:	02568733          	mul	a4,a3,t0
    5766:	0a47a583          	lw	a1,164(a5)
    576a:	42d5                	li	t0,21
    576c:	01c5f5b3          	and	a1,a1,t3
    5770:	02c74733          	div	a4,a4,a2
    5774:	8b3d                	andi	a4,a4,15
    5776:	0722                	slli	a4,a4,0x8
    5778:	8f4d                	or	a4,a4,a1
    577a:	0ae7a223          	sw	a4,164(a5)
    577e:	02768733          	mul	a4,a3,t2
    5782:	0a47a583          	lw	a1,164(a5)
    5786:	43cd                	li	t2,19
    5788:	0065f5b3          	and	a1,a1,t1
    578c:	02c74733          	div	a4,a4,a2
    5790:	8b3d                	andi	a4,a4,15
    5792:	0732                	slli	a4,a4,0xc
    5794:	8f4d                	or	a4,a4,a1
    5796:	0ae7a223          	sw	a4,164(a5)
    579a:	03a68733          	mul	a4,a3,s10
    579e:	0a47a583          	lw	a1,164(a5)
    57a2:	4d49                	li	s10,18
    57a4:	0115f5b3          	and	a1,a1,a7
    57a8:	02c74733          	div	a4,a4,a2
    57ac:	8b3d                	andi	a4,a4,15
    57ae:	0742                	slli	a4,a4,0x10
    57b0:	8f4d                	or	a4,a4,a1
    57b2:	0ae7a223          	sw	a4,164(a5)
    57b6:	4769                	li	a4,26
    57b8:	02e68733          	mul	a4,a3,a4
    57bc:	0a47a583          	lw	a1,164(a5)
    57c0:	0105f5b3          	and	a1,a1,a6
    57c4:	02c74733          	div	a4,a4,a2
    57c8:	8b3d                	andi	a4,a4,15
    57ca:	0752                	slli	a4,a4,0x14
    57cc:	8f4d                	or	a4,a4,a1
    57ce:	45e5                	li	a1,25
    57d0:	0ae7a223          	sw	a4,164(a5)
    57d4:	02b68733          	mul	a4,a3,a1
    57d8:	0a47a583          	lw	a1,164(a5)
    57dc:	8de9                	and	a1,a1,a0
    57de:	02c74733          	div	a4,a4,a2
    57e2:	8b3d                	andi	a4,a4,15
    57e4:	0762                	slli	a4,a4,0x18
    57e6:	8f4d                	or	a4,a4,a1
    57e8:	0ae7a223          	sw	a4,164(a5)
    57ec:	02868733          	mul	a4,a3,s0
    57f0:	440d                	li	s0,3
    57f2:	02c74733          	div	a4,a4,a2
    57f6:	01c71593          	slli	a1,a4,0x1c
    57fa:	0a47a703          	lw	a4,164(a5)
    57fe:	01d77733          	and	a4,a4,t4
    5802:	8f4d                	or	a4,a4,a1
    5804:	0ae7a223          	sw	a4,164(a5)
    5808:	03e68733          	mul	a4,a3,t5
    580c:	4f25                	li	t5,9
    580e:	02c74733          	div	a4,a4,a2
    5812:	00f77593          	andi	a1,a4,15
    5816:	0a87a703          	lw	a4,168(a5)
    581a:	9b41                	andi	a4,a4,-16
    581c:	8f4d                	or	a4,a4,a1
    581e:	0ae7a423          	sw	a4,168(a5)
    5822:	03f68733          	mul	a4,a3,t6
    5826:	0a87a583          	lw	a1,168(a5)
    582a:	4f9d                	li	t6,7
    582c:	f0f5f593          	andi	a1,a1,-241
    5830:	02c74733          	div	a4,a4,a2
    5834:	8b3d                	andi	a4,a4,15
    5836:	0712                	slli	a4,a4,0x4
    5838:	8f4d                	or	a4,a4,a1
    583a:	0ae7a423          	sw	a4,168(a5)
    583e:	02568733          	mul	a4,a3,t0
    5842:	0a87a583          	lw	a1,168(a5)
    5846:	4299                	li	t0,6
    5848:	01c5f5b3          	and	a1,a1,t3
    584c:	02c74733          	div	a4,a4,a2
    5850:	8b3d                	andi	a4,a4,15
    5852:	0722                	slli	a4,a4,0x8
    5854:	8f4d                	or	a4,a4,a1
    5856:	0ae7a423          	sw	a4,168(a5)
    585a:	03768733          	mul	a4,a3,s7
    585e:	0a87a583          	lw	a1,168(a5)
    5862:	0065f5b3          	and	a1,a1,t1
    5866:	02c74733          	div	a4,a4,a2
    586a:	8b3d                	andi	a4,a4,15
    586c:	0732                	slli	a4,a4,0xc
    586e:	8f4d                	or	a4,a4,a1
    5870:	0ae7a423          	sw	a4,168(a5)
    5874:	02768733          	mul	a4,a3,t2
    5878:	0a87a583          	lw	a1,168(a5)
    587c:	4395                	li	t2,5
    587e:	0115f5b3          	and	a1,a1,a7
    5882:	02c74733          	div	a4,a4,a2
    5886:	8b3d                	andi	a4,a4,15
    5888:	0742                	slli	a4,a4,0x10
    588a:	8f4d                	or	a4,a4,a1
    588c:	0ae7a423          	sw	a4,168(a5)
    5890:	03a68733          	mul	a4,a3,s10
    5894:	0a87a583          	lw	a1,168(a5)
    5898:	4d29                	li	s10,10
    589a:	0105f5b3          	and	a1,a1,a6
    589e:	02c74733          	div	a4,a4,a2
    58a2:	8b3d                	andi	a4,a4,15
    58a4:	0752                	slli	a4,a4,0x14
    58a6:	8f4d                	or	a4,a4,a1
    58a8:	0ae7a423          	sw	a4,168(a5)
    58ac:	03668733          	mul	a4,a3,s6
    58b0:	0a87a583          	lw	a1,168(a5)
    58b4:	8de9                	and	a1,a1,a0
    58b6:	02c74733          	div	a4,a4,a2
    58ba:	8b3d                	andi	a4,a4,15
    58bc:	0762                	slli	a4,a4,0x18
    58be:	8f4d                	or	a4,a4,a1
    58c0:	00469593          	slli	a1,a3,0x4
    58c4:	02c5c5b3          	div	a1,a1,a2
    58c8:	0ae7a423          	sw	a4,168(a5)
    58cc:	0a87a703          	lw	a4,168(a5)
    58d0:	01d77733          	and	a4,a4,t4
    58d4:	05f2                	slli	a1,a1,0x1c
    58d6:	8f4d                	or	a4,a4,a1
    58d8:	029685b3          	mul	a1,a3,s1
    58dc:	0ae7a423          	sw	a4,168(a5)
    58e0:	0ac7a703          	lw	a4,172(a5)
    58e4:	9b41                	andi	a4,a4,-16
    58e6:	02c5c5b3          	div	a1,a1,a2
    58ea:	89bd                	andi	a1,a1,15
    58ec:	8f4d                	or	a4,a4,a1
    58ee:	0ae7a623          	sw	a4,172(a5)
    58f2:	03268733          	mul	a4,a3,s2
    58f6:	0ac7a583          	lw	a1,172(a5)
    58fa:	f0f5f593          	andi	a1,a1,-241
    58fe:	02c74733          	div	a4,a4,a2
    5902:	8b3d                	andi	a4,a4,15
    5904:	0712                	slli	a4,a4,0x4
    5906:	8f4d                	or	a4,a4,a1
    5908:	0286c5b3          	div	a1,a3,s0
    590c:	0ae7a623          	sw	a4,172(a5)
    5910:	0ac7a703          	lw	a4,172(a5)
    5914:	01c77733          	and	a4,a4,t3
    5918:	89bd                	andi	a1,a1,15
    591a:	05a2                	slli	a1,a1,0x8
    591c:	8f4d                	or	a4,a4,a1
    591e:	0ae7a623          	sw	a4,172(a5)
    5922:	03468733          	mul	a4,a3,s4
    5926:	0ac7a583          	lw	a1,172(a5)
    592a:	0065f5b3          	and	a1,a1,t1
    592e:	02c74733          	div	a4,a4,a2
    5932:	8b3d                	andi	a4,a4,15
    5934:	0732                	slli	a4,a4,0xc
    5936:	8f4d                	or	a4,a4,a1
    5938:	0ae7a623          	sw	a4,172(a5)
    593c:	03568733          	mul	a4,a3,s5
    5940:	0ac7a583          	lw	a1,172(a5)
    5944:	0115f5b3          	and	a1,a1,a7
    5948:	02c74733          	div	a4,a4,a2
    594c:	8b3d                	andi	a4,a4,15
    594e:	0742                	slli	a4,a4,0x10
    5950:	8f4d                	or	a4,a4,a1
    5952:	0ae7a623          	sw	a4,172(a5)
    5956:	03a68733          	mul	a4,a3,s10
    595a:	0ac7a583          	lw	a1,172(a5)
    595e:	0105f5b3          	and	a1,a1,a6
    5962:	02c74733          	div	a4,a4,a2
    5966:	8b3d                	andi	a4,a4,15
    5968:	0752                	slli	a4,a4,0x14
    596a:	8f4d                	or	a4,a4,a1
    596c:	0ae7a623          	sw	a4,172(a5)
    5970:	03e68733          	mul	a4,a3,t5
    5974:	0ac7a583          	lw	a1,172(a5)
    5978:	8de9                	and	a1,a1,a0
    597a:	02c74733          	div	a4,a4,a2
    597e:	8b3d                	andi	a4,a4,15
    5980:	0762                	slli	a4,a4,0x18
    5982:	8f4d                	or	a4,a4,a1
    5984:	00369593          	slli	a1,a3,0x3
    5988:	02c5c5b3          	div	a1,a1,a2
    598c:	0ae7a623          	sw	a4,172(a5)
    5990:	0ac7a703          	lw	a4,172(a5)
    5994:	01d77733          	and	a4,a4,t4
    5998:	05f2                	slli	a1,a1,0x1c
    599a:	8f4d                	or	a4,a4,a1
    599c:	03f685b3          	mul	a1,a3,t6
    59a0:	0ae7a623          	sw	a4,172(a5)
    59a4:	0b07a703          	lw	a4,176(a5)
    59a8:	9b41                	andi	a4,a4,-16
    59aa:	02c5c5b3          	div	a1,a1,a2
    59ae:	89bd                	andi	a1,a1,15
    59b0:	8f4d                	or	a4,a4,a1
    59b2:	0ae7a823          	sw	a4,176(a5)
    59b6:	02568733          	mul	a4,a3,t0
    59ba:	0b07a583          	lw	a1,176(a5)
    59be:	f0f5f593          	andi	a1,a1,-241
    59c2:	02c74733          	div	a4,a4,a2
    59c6:	8b3d                	andi	a4,a4,15
    59c8:	0712                	slli	a4,a4,0x4
    59ca:	8f4d                	or	a4,a4,a1
    59cc:	0ae7a823          	sw	a4,176(a5)
    59d0:	02768733          	mul	a4,a3,t2
    59d4:	0b07a583          	lw	a1,176(a5)
    59d8:	01c5f5b3          	and	a1,a1,t3
    59dc:	02c74733          	div	a4,a4,a2
    59e0:	8b3d                	andi	a4,a4,15
    59e2:	0722                	slli	a4,a4,0x8
    59e4:	8f4d                	or	a4,a4,a1
    59e6:	0ae7a823          	sw	a4,176(a5)
    59ea:	00269713          	slli	a4,a3,0x2
    59ee:	02c74733          	div	a4,a4,a2
    59f2:	0b07a583          	lw	a1,176(a5)
    59f6:	0065f5b3          	and	a1,a1,t1
    59fa:	8b3d                	andi	a4,a4,15
    59fc:	0732                	slli	a4,a4,0xc
    59fe:	8f4d                	or	a4,a4,a1
    5a00:	0336c5b3          	div	a1,a3,s3
    5a04:	0ae7a823          	sw	a4,176(a5)
    5a08:	0b07a703          	lw	a4,176(a5)
    5a0c:	01177733          	and	a4,a4,a7
    5a10:	89bd                	andi	a1,a1,15
    5a12:	05c2                	slli	a1,a1,0x10
    5a14:	8f4d                	or	a4,a4,a1
    5a16:	0ae7a823          	sw	a4,176(a5)
    5a1a:	00169713          	slli	a4,a3,0x1
    5a1e:	02c74733          	div	a4,a4,a2
    5a22:	0b07a583          	lw	a1,176(a5)
    5a26:	0105f5b3          	and	a1,a1,a6
    5a2a:	8b3d                	andi	a4,a4,15
    5a2c:	0752                	slli	a4,a4,0x14
    5a2e:	8f4d                	or	a4,a4,a1
    5a30:	02c6c5b3          	div	a1,a3,a2
    5a34:	0ae7a823          	sw	a4,176(a5)
    5a38:	0b07a703          	lw	a4,176(a5)
    5a3c:	8f69                	and	a4,a4,a0
    5a3e:	89bd                	andi	a1,a1,15
    5a40:	05e2                	slli	a1,a1,0x18
    5a42:	8f4d                	or	a4,a4,a1
    5a44:	0ae7a823          	sw	a4,176(a5)
    5a48:	0b07a703          	lw	a4,176(a5)
    5a4c:	02800593          	li	a1,40
    5a50:	01d77733          	and	a4,a4,t4
    5a54:	0ae7a823          	sw	a4,176(a5)
    5a58:	1fffe717          	auipc	a4,0x1fffe
    5a5c:	99974703          	lbu	a4,-1639(a4) # 200033f1 <nCO2480>
    5a60:	40ec0733          	sub	a4,s8,a4
    5a64:	02b74db3          	div	s11,a4,a1
    5a68:	0b47ac83          	lw	s9,180(a5)
    5a6c:	ff0cfc93          	andi	s9,s9,-16
    5a70:	03774bb3          	div	s7,a4,s7
    5a74:	00fdfd93          	andi	s11,s11,15
    5a78:	01bcecb3          	or	s9,s9,s11
    5a7c:	0b97aa23          	sw	s9,180(a5)
    5a80:	0b47ac83          	lw	s9,180(a5)
    5a84:	4dcd                	li	s11,19
    5a86:	f0fcfc93          	andi	s9,s9,-241
    5a8a:	00fbfb93          	andi	s7,s7,15
    5a8e:	0b92                	slli	s7,s7,0x4
    5a90:	017cebb3          	or	s7,s9,s7
    5a94:	0b77aa23          	sw	s7,180(a5)
    5a98:	02870bb3          	mul	s7,a4,s0
    5a9c:	0b47ac83          	lw	s9,180(a5)
    5aa0:	01ccfcb3          	and	s9,s9,t3
    5aa4:	02bbcbb3          	div	s7,s7,a1
    5aa8:	00fbfb93          	andi	s7,s7,15
    5aac:	0ba2                	slli	s7,s7,0x8
    5aae:	017cebb3          	or	s7,s9,s7
    5ab2:	03a74cb3          	div	s9,a4,s10
    5ab6:	0b77aa23          	sw	s7,180(a5)
    5aba:	0b47ab83          	lw	s7,180(a5)
    5abe:	006bfbb3          	and	s7,s7,t1
    5ac2:	00fcfc93          	andi	s9,s9,15
    5ac6:	0cb2                	slli	s9,s9,0xc
    5ac8:	019bebb3          	or	s7,s7,s9
    5acc:	0b77aa23          	sw	s7,180(a5)
    5ad0:	4ba1                	li	s7,8
    5ad2:	03774bb3          	div	s7,a4,s7
    5ad6:	0b47ac83          	lw	s9,180(a5)
    5ada:	011cfcb3          	and	s9,s9,a7
    5ade:	00fbfb93          	andi	s7,s7,15
    5ae2:	0bc2                	slli	s7,s7,0x10
    5ae4:	017cebb3          	or	s7,s9,s7
    5ae8:	0b77aa23          	sw	s7,180(a5)
    5aec:	02570bb3          	mul	s7,a4,t0
    5af0:	0b47ac83          	lw	s9,180(a5)
    5af4:	010cfcb3          	and	s9,s9,a6
    5af8:	02bbcbb3          	div	s7,s7,a1
    5afc:	00fbfb93          	andi	s7,s7,15
    5b00:	0bd2                	slli	s7,s7,0x14
    5b02:	017cebb3          	or	s7,s9,s7
    5b06:	0b77aa23          	sw	s7,180(a5)
    5b0a:	03f70bb3          	mul	s7,a4,t6
    5b0e:	0b47ac83          	lw	s9,180(a5)
    5b12:	00acfcb3          	and	s9,s9,a0
    5b16:	02bbcbb3          	div	s7,s7,a1
    5b1a:	00fbfb93          	andi	s7,s7,15
    5b1e:	0be2                	slli	s7,s7,0x18
    5b20:	017cebb3          	or	s7,s9,s7
    5b24:	02774cb3          	div	s9,a4,t2
    5b28:	0b77aa23          	sw	s7,180(a5)
    5b2c:	0b47ab83          	lw	s7,180(a5)
    5b30:	01dbfbb3          	and	s7,s7,t4
    5b34:	0cf2                	slli	s9,s9,0x1c
    5b36:	019bebb3          	or	s7,s7,s9
    5b3a:	03e70cb3          	mul	s9,a4,t5
    5b3e:	0b77aa23          	sw	s7,180(a5)
    5b42:	0b87ab83          	lw	s7,184(a5)
    5b46:	ff0bfb93          	andi	s7,s7,-16
    5b4a:	02bcccb3          	div	s9,s9,a1
    5b4e:	03570ab3          	mul	s5,a4,s5
    5b52:	00fcfc93          	andi	s9,s9,15
    5b56:	019bebb3          	or	s7,s7,s9
    5b5a:	0b77ac23          	sw	s7,184(a5)
    5b5e:	4b91                	li	s7,4
    5b60:	0b87ac83          	lw	s9,184(a5)
    5b64:	f0fcfc93          	andi	s9,s9,-241
    5b68:	03774bb3          	div	s7,a4,s7
    5b6c:	03470a33          	mul	s4,a4,s4
    5b70:	00fbfb93          	andi	s7,s7,15
    5b74:	0b92                	slli	s7,s7,0x4
    5b76:	017cebb3          	or	s7,s9,s7
    5b7a:	0b77ac23          	sw	s7,184(a5)
    5b7e:	0b87ab83          	lw	s7,184(a5)
    5b82:	4cd5                	li	s9,21
    5b84:	01cbfbb3          	and	s7,s7,t3
    5b88:	02bacab3          	div	s5,s5,a1
    5b8c:	033709b3          	mul	s3,a4,s3
    5b90:	00fafa93          	andi	s5,s5,15
    5b94:	0aa2                	slli	s5,s5,0x8
    5b96:	015beab3          	or	s5,s7,s5
    5b9a:	0b57ac23          	sw	s5,184(a5)
    5b9e:	0b87aa83          	lw	s5,184(a5)
    5ba2:	4bd9                	li	s7,22
    5ba4:	006afab3          	and	s5,s5,t1
    5ba8:	02ba4a33          	div	s4,s4,a1
    5bac:	03270933          	mul	s2,a4,s2
    5bb0:	00fa7a13          	andi	s4,s4,15
    5bb4:	0a32                	slli	s4,s4,0xc
    5bb6:	014aea33          	or	s4,s5,s4
    5bba:	0b47ac23          	sw	s4,184(a5)
    5bbe:	0b87aa03          	lw	s4,184(a5)
    5bc2:	4ae1                	li	s5,24
    5bc4:	011a7a33          	and	s4,s4,a7
    5bc8:	02b9c9b3          	div	s3,s3,a1
    5bcc:	029704b3          	mul	s1,a4,s1
    5bd0:	00f9f993          	andi	s3,s3,15
    5bd4:	09c2                	slli	s3,s3,0x10
    5bd6:	013a69b3          	or	s3,s4,s3
    5bda:	0b37ac23          	sw	s3,184(a5)
    5bde:	0b87a983          	lw	s3,184(a5)
    5be2:	4a65                	li	s4,25
    5be4:	0109f9b3          	and	s3,s3,a6
    5be8:	02b94933          	div	s2,s2,a1
    5bec:	02b4c4b3          	div	s1,s1,a1
    5bf0:	00f97913          	andi	s2,s2,15
    5bf4:	0952                	slli	s2,s2,0x14
    5bf6:	0129e933          	or	s2,s3,s2
    5bfa:	0b27ac23          	sw	s2,184(a5)
    5bfe:	0b87a903          	lw	s2,184(a5)
    5c02:	49e9                	li	s3,26
    5c04:	00a97933          	and	s2,s2,a0
    5c08:	03670b33          	mul	s6,a4,s6
    5c0c:	88bd                	andi	s1,s1,15
    5c0e:	04e2                	slli	s1,s1,0x18
    5c10:	009964b3          	or	s1,s2,s1
    5c14:	00471913          	slli	s2,a4,0x4
    5c18:	0a97ac23          	sw	s1,184(a5)
    5c1c:	0b87a483          	lw	s1,184(a5)
    5c20:	01d4f4b3          	and	s1,s1,t4
    5c24:	02b94933          	div	s2,s2,a1
    5c28:	02bb4b33          	div	s6,s6,a1
    5c2c:	0972                	slli	s2,s2,0x1c
    5c2e:	0124e4b3          	or	s1,s1,s2
    5c32:	0a97ac23          	sw	s1,184(a5)
    5c36:	0bc7a483          	lw	s1,188(a5)
    5c3a:	98c1                	andi	s1,s1,-16
    5c3c:	00fb7b13          	andi	s6,s6,15
    5c40:	0164eb33          	or	s6,s1,s6
    5c44:	44c9                	li	s1,18
    5c46:	029704b3          	mul	s1,a4,s1
    5c4a:	0b67ae23          	sw	s6,188(a5)
    5c4e:	0bc7a903          	lw	s2,188(a5)
    5c52:	4b5d                	li	s6,23
    5c54:	f0f97913          	andi	s2,s2,-241
    5c58:	02b4c4b3          	div	s1,s1,a1
    5c5c:	88bd                	andi	s1,s1,15
    5c5e:	0492                	slli	s1,s1,0x4
    5c60:	009964b3          	or	s1,s2,s1
    5c64:	0a97ae23          	sw	s1,188(a5)
    5c68:	03b704b3          	mul	s1,a4,s11
    5c6c:	0bc7a903          	lw	s2,188(a5)
    5c70:	4df5                	li	s11,29
    5c72:	01c97933          	and	s2,s2,t3
    5c76:	02b4c4b3          	div	s1,s1,a1
    5c7a:	88bd                	andi	s1,s1,15
    5c7c:	04a2                	slli	s1,s1,0x8
    5c7e:	009964b3          	or	s1,s2,s1
    5c82:	0a97ae23          	sw	s1,188(a5)
    5c86:	4489                	li	s1,2
    5c88:	029744b3          	div	s1,a4,s1
    5c8c:	0bc7a903          	lw	s2,188(a5)
    5c90:	00697933          	and	s2,s2,t1
    5c94:	88bd                	andi	s1,s1,15
    5c96:	04b2                	slli	s1,s1,0xc
    5c98:	009964b3          	or	s1,s2,s1
    5c9c:	0a97ae23          	sw	s1,188(a5)
    5ca0:	039704b3          	mul	s1,a4,s9
    5ca4:	0bc7a903          	lw	s2,188(a5)
    5ca8:	4cf9                	li	s9,30
    5caa:	01197933          	and	s2,s2,a7
    5cae:	02b4c4b3          	div	s1,s1,a1
    5cb2:	88bd                	andi	s1,s1,15
    5cb4:	04c2                	slli	s1,s1,0x10
    5cb6:	009964b3          	or	s1,s2,s1
    5cba:	0a97ae23          	sw	s1,188(a5)
    5cbe:	037704b3          	mul	s1,a4,s7
    5cc2:	0bc7a903          	lw	s2,188(a5)
    5cc6:	4bfd                	li	s7,31
    5cc8:	01097933          	and	s2,s2,a6
    5ccc:	02b4c4b3          	div	s1,s1,a1
    5cd0:	88bd                	andi	s1,s1,15
    5cd2:	04d2                	slli	s1,s1,0x14
    5cd4:	009964b3          	or	s1,s2,s1
    5cd8:	0a97ae23          	sw	s1,188(a5)
    5cdc:	036704b3          	mul	s1,a4,s6
    5ce0:	0bc7a903          	lw	s2,188(a5)
    5ce4:	02100b13          	li	s6,33
    5ce8:	00a97933          	and	s2,s2,a0
    5cec:	02b4c4b3          	div	s1,s1,a1
    5cf0:	88bd                	andi	s1,s1,15
    5cf2:	04e2                	slli	s1,s1,0x18
    5cf4:	009964b3          	or	s1,s2,s1
    5cf8:	0a97ae23          	sw	s1,188(a5)
    5cfc:	035704b3          	mul	s1,a4,s5
    5d00:	0bc7a903          	lw	s2,188(a5)
    5d04:	02200a93          	li	s5,34
    5d08:	01d97933          	and	s2,s2,t4
    5d0c:	02b4c4b3          	div	s1,s1,a1
    5d10:	04f2                	slli	s1,s1,0x1c
    5d12:	009964b3          	or	s1,s2,s1
    5d16:	0a97ae23          	sw	s1,188(a5)
    5d1a:	034704b3          	mul	s1,a4,s4
    5d1e:	0c07a903          	lw	s2,192(a5)
    5d22:	02300a13          	li	s4,35
    5d26:	ff097913          	andi	s2,s2,-16
    5d2a:	02b4c4b3          	div	s1,s1,a1
    5d2e:	88bd                	andi	s1,s1,15
    5d30:	009964b3          	or	s1,s2,s1
    5d34:	0c97a023          	sw	s1,192(a5)
    5d38:	033704b3          	mul	s1,a4,s3
    5d3c:	0c07a903          	lw	s2,192(a5)
    5d40:	02400993          	li	s3,36
    5d44:	f0f97913          	andi	s2,s2,-241
    5d48:	02b4c4b3          	div	s1,s1,a1
    5d4c:	88bd                	andi	s1,s1,15
    5d4e:	0492                	slli	s1,s1,0x4
    5d50:	009964b3          	or	s1,s2,s1
    5d54:	496d                	li	s2,27
    5d56:	0c97a023          	sw	s1,192(a5)
    5d5a:	032704b3          	mul	s1,a4,s2
    5d5e:	0c07a903          	lw	s2,192(a5)
    5d62:	01c97933          	and	s2,s2,t3
    5d66:	02b4c4b3          	div	s1,s1,a1
    5d6a:	88bd                	andi	s1,s1,15
    5d6c:	04a2                	slli	s1,s1,0x8
    5d6e:	009964b3          	or	s1,s2,s1
    5d72:	0c97a023          	sw	s1,192(a5)
    5d76:	44f1                	li	s1,28
    5d78:	029704b3          	mul	s1,a4,s1
    5d7c:	0c07a903          	lw	s2,192(a5)
    5d80:	00697933          	and	s2,s2,t1
    5d84:	02b4c4b3          	div	s1,s1,a1
    5d88:	88bd                	andi	s1,s1,15
    5d8a:	04b2                	slli	s1,s1,0xc
    5d8c:	009964b3          	or	s1,s2,s1
    5d90:	0c97a023          	sw	s1,192(a5)
    5d94:	03b704b3          	mul	s1,a4,s11
    5d98:	0c07a903          	lw	s2,192(a5)
    5d9c:	01197933          	and	s2,s2,a7
    5da0:	02b4c4b3          	div	s1,s1,a1
    5da4:	88bd                	andi	s1,s1,15
    5da6:	04c2                	slli	s1,s1,0x10
    5da8:	009964b3          	or	s1,s2,s1
    5dac:	0c97a023          	sw	s1,192(a5)
    5db0:	039704b3          	mul	s1,a4,s9
    5db4:	0c07a903          	lw	s2,192(a5)
    5db8:	01097933          	and	s2,s2,a6
    5dbc:	02b4c4b3          	div	s1,s1,a1
    5dc0:	88bd                	andi	s1,s1,15
    5dc2:	04d2                	slli	s1,s1,0x14
    5dc4:	009964b3          	or	s1,s2,s1
    5dc8:	0c97a023          	sw	s1,192(a5)
    5dcc:	037704b3          	mul	s1,a4,s7
    5dd0:	0c07a903          	lw	s2,192(a5)
    5dd4:	00a97933          	and	s2,s2,a0
    5dd8:	02b4c4b3          	div	s1,s1,a1
    5ddc:	88bd                	andi	s1,s1,15
    5dde:	04e2                	slli	s1,s1,0x18
    5de0:	009964b3          	or	s1,s2,s1
    5de4:	0c97a023          	sw	s1,192(a5)
    5de8:	00571493          	slli	s1,a4,0x5
    5dec:	02b4c4b3          	div	s1,s1,a1
    5df0:	01c49913          	slli	s2,s1,0x1c
    5df4:	0c07a483          	lw	s1,192(a5)
    5df8:	02c70633          	mul	a2,a4,a2
    5dfc:	01d4f4b3          	and	s1,s1,t4
    5e00:	0124e4b3          	or	s1,s1,s2
    5e04:	0c97a023          	sw	s1,192(a5)
    5e08:	0c47a903          	lw	s2,196(a5)
    5e0c:	ff097913          	andi	s2,s2,-16
    5e10:	036704b3          	mul	s1,a4,s6
    5e14:	02b4c4b3          	div	s1,s1,a1
    5e18:	88bd                	andi	s1,s1,15
    5e1a:	009964b3          	or	s1,s2,s1
    5e1e:	0c97a223          	sw	s1,196(a5)
    5e22:	035704b3          	mul	s1,a4,s5
    5e26:	0c47a903          	lw	s2,196(a5)
    5e2a:	f0f97913          	andi	s2,s2,-241
    5e2e:	02b4c4b3          	div	s1,s1,a1
    5e32:	88bd                	andi	s1,s1,15
    5e34:	0492                	slli	s1,s1,0x4
    5e36:	009964b3          	or	s1,s2,s1
    5e3a:	0c97a223          	sw	s1,196(a5)
    5e3e:	034704b3          	mul	s1,a4,s4
    5e42:	0c47a903          	lw	s2,196(a5)
    5e46:	01c97933          	and	s2,s2,t3
    5e4a:	02b4c4b3          	div	s1,s1,a1
    5e4e:	88bd                	andi	s1,s1,15
    5e50:	04a2                	slli	s1,s1,0x8
    5e52:	009964b3          	or	s1,s2,s1
    5e56:	0c97a223          	sw	s1,196(a5)
    5e5a:	033704b3          	mul	s1,a4,s3
    5e5e:	0c47a903          	lw	s2,196(a5)
    5e62:	00697933          	and	s2,s2,t1
    5e66:	02b4c4b3          	div	s1,s1,a1
    5e6a:	88bd                	andi	s1,s1,15
    5e6c:	04b2                	slli	s1,s1,0xc
    5e6e:	009964b3          	or	s1,s2,s1
    5e72:	02500913          	li	s2,37
    5e76:	0c97a223          	sw	s1,196(a5)
    5e7a:	032704b3          	mul	s1,a4,s2
    5e7e:	0c47a903          	lw	s2,196(a5)
    5e82:	01197933          	and	s2,s2,a7
    5e86:	02b4c4b3          	div	s1,s1,a1
    5e8a:	88bd                	andi	s1,s1,15
    5e8c:	04c2                	slli	s1,s1,0x10
    5e8e:	009964b3          	or	s1,s2,s1
    5e92:	0c97a223          	sw	s1,196(a5)
    5e96:	02600493          	li	s1,38
    5e9a:	029704b3          	mul	s1,a4,s1
    5e9e:	0c47a903          	lw	s2,196(a5)
    5ea2:	01097933          	and	s2,s2,a6
    5ea6:	02b4c4b3          	div	s1,s1,a1
    5eaa:	02b64633          	div	a2,a2,a1
    5eae:	88bd                	andi	s1,s1,15
    5eb0:	04d2                	slli	s1,s1,0x14
    5eb2:	009964b3          	or	s1,s2,s1
    5eb6:	0c97a223          	sw	s1,196(a5)
    5eba:	0c47a483          	lw	s1,196(a5)
    5ebe:	8ce9                	and	s1,s1,a0
    5ec0:	8a3d                	andi	a2,a2,15
    5ec2:	0662                	slli	a2,a2,0x18
    5ec4:	8e45                	or	a2,a2,s1
    5ec6:	0cc7a223          	sw	a2,196(a5)
    5eca:	0c47a603          	lw	a2,196(a5)
    5ece:	01c71493          	slli	s1,a4,0x1c
    5ed2:	01d67633          	and	a2,a2,t4
    5ed6:	8e45                	or	a2,a2,s1
    5ed8:	0cc7a223          	sw	a2,196(a5)
    5edc:	02900613          	li	a2,41
    5ee0:	02c70633          	mul	a2,a4,a2
    5ee4:	0c87a483          	lw	s1,200(a5)
    5ee8:	98c1                	andi	s1,s1,-16
    5eea:	02b64633          	div	a2,a2,a1
    5eee:	8a3d                	andi	a2,a2,15
    5ef0:	8e45                	or	a2,a2,s1
    5ef2:	0cc7a423          	sw	a2,200(a5)
    5ef6:	02a00613          	li	a2,42
    5efa:	02c70633          	mul	a2,a4,a2
    5efe:	02b645b3          	div	a1,a2,a1
    5f02:	0c87a603          	lw	a2,200(a5)
    5f06:	f0f67613          	andi	a2,a2,-241
    5f0a:	89bd                	andi	a1,a1,15
    5f0c:	0592                	slli	a1,a1,0x4
    5f0e:	8dd1                	or	a1,a1,a2
    5f10:	0cb7a423          	sw	a1,200(a5)
    5f14:	1fffd597          	auipc	a1,0x1fffd
    5f18:	4d45c583          	lbu	a1,1236(a1) # 200033e8 <nGA2440>
    5f1c:	1fffd617          	auipc	a2,0x1fffd
    5f20:	4cd64603          	lbu	a2,1229(a2) # 200033e9 <nGA2480>
    5f24:	40c58633          	sub	a2,a1,a2
    5f28:	03a604b3          	mul	s1,a2,s10
    5f2c:	0c87a903          	lw	s2,200(a5)
    5f30:	01c97933          	and	s2,s2,t3
    5f34:	02e4c4b3          	div	s1,s1,a4
    5f38:	0084e493          	ori	s1,s1,8
    5f3c:	88bd                	andi	s1,s1,15
    5f3e:	04a2                	slli	s1,s1,0x8
    5f40:	009964b3          	or	s1,s2,s1
    5f44:	0c97a423          	sw	s1,200(a5)
    5f48:	03e604b3          	mul	s1,a2,t5
    5f4c:	0c87a903          	lw	s2,200(a5)
    5f50:	00697933          	and	s2,s2,t1
    5f54:	02e4c4b3          	div	s1,s1,a4
    5f58:	0084e493          	ori	s1,s1,8
    5f5c:	88bd                	andi	s1,s1,15
    5f5e:	04b2                	slli	s1,s1,0xc
    5f60:	009964b3          	or	s1,s2,s1
    5f64:	0c97a423          	sw	s1,200(a5)
    5f68:	00361493          	slli	s1,a2,0x3
    5f6c:	02e4c4b3          	div	s1,s1,a4
    5f70:	0c87a903          	lw	s2,200(a5)
    5f74:	01197933          	and	s2,s2,a7
    5f78:	0084e493          	ori	s1,s1,8
    5f7c:	88bd                	andi	s1,s1,15
    5f7e:	04c2                	slli	s1,s1,0x10
    5f80:	009964b3          	or	s1,s2,s1
    5f84:	0c97a423          	sw	s1,200(a5)
    5f88:	03f604b3          	mul	s1,a2,t6
    5f8c:	0c87a903          	lw	s2,200(a5)
    5f90:	01097933          	and	s2,s2,a6
    5f94:	02e4c4b3          	div	s1,s1,a4
    5f98:	0084e493          	ori	s1,s1,8
    5f9c:	88bd                	andi	s1,s1,15
    5f9e:	04d2                	slli	s1,s1,0x14
    5fa0:	009964b3          	or	s1,s2,s1
    5fa4:	0c97a423          	sw	s1,200(a5)
    5fa8:	025604b3          	mul	s1,a2,t0
    5fac:	0c87a903          	lw	s2,200(a5)
    5fb0:	00a97933          	and	s2,s2,a0
    5fb4:	02e4c4b3          	div	s1,s1,a4
    5fb8:	0084e493          	ori	s1,s1,8
    5fbc:	88bd                	andi	s1,s1,15
    5fbe:	04e2                	slli	s1,s1,0x18
    5fc0:	009964b3          	or	s1,s2,s1
    5fc4:	0c97a423          	sw	s1,200(a5)
    5fc8:	027604b3          	mul	s1,a2,t2
    5fcc:	0c87a903          	lw	s2,200(a5)
    5fd0:	01d97933          	and	s2,s2,t4
    5fd4:	02e4c4b3          	div	s1,s1,a4
    5fd8:	0084e493          	ori	s1,s1,8
    5fdc:	04f2                	slli	s1,s1,0x1c
    5fde:	009964b3          	or	s1,s2,s1
    5fe2:	0c97a423          	sw	s1,200(a5)
    5fe6:	00261493          	slli	s1,a2,0x2
    5fea:	02e4c4b3          	div	s1,s1,a4
    5fee:	0cc7a903          	lw	s2,204(a5)
    5ff2:	ff097913          	andi	s2,s2,-16
    5ff6:	0084e493          	ori	s1,s1,8
    5ffa:	88bd                	andi	s1,s1,15
    5ffc:	009964b3          	or	s1,s2,s1
    6000:	0c97a623          	sw	s1,204(a5)
    6004:	028604b3          	mul	s1,a2,s0
    6008:	0cc7a903          	lw	s2,204(a5)
    600c:	f0f97913          	andi	s2,s2,-241
    6010:	02e4c4b3          	div	s1,s1,a4
    6014:	0084e493          	ori	s1,s1,8
    6018:	88bd                	andi	s1,s1,15
    601a:	0492                	slli	s1,s1,0x4
    601c:	009964b3          	or	s1,s2,s1
    6020:	0c97a623          	sw	s1,204(a5)
    6024:	00161493          	slli	s1,a2,0x1
    6028:	02e4c4b3          	div	s1,s1,a4
    602c:	0cc7a903          	lw	s2,204(a5)
    6030:	01c97933          	and	s2,s2,t3
    6034:	02e64733          	div	a4,a2,a4
    6038:	0084e493          	ori	s1,s1,8
    603c:	88bd                	andi	s1,s1,15
    603e:	04a2                	slli	s1,s1,0x8
    6040:	009964b3          	or	s1,s2,s1
    6044:	0c97a623          	sw	s1,204(a5)
    6048:	0cc7a603          	lw	a2,204(a5)
    604c:	00667633          	and	a2,a2,t1
    6050:	00876713          	ori	a4,a4,8
    6054:	8b3d                	andi	a4,a4,15
    6056:	0732                	slli	a4,a4,0xc
    6058:	8f51                	or	a4,a4,a2
    605a:	0ce7a623          	sw	a4,204(a5)
    605e:	0cc7a703          	lw	a4,204(a5)
    6062:	01177733          	and	a4,a4,a7
    6066:	0ce7a623          	sw	a4,204(a5)
    606a:	8181c703          	lbu	a4,-2024(gp) # 20001830 <nGA2401>
    606e:	8f0d                	sub	a4,a4,a1
    6070:	02d74633          	div	a2,a4,a3
    6074:	07f5f593          	andi	a1,a1,127
    6078:	05e2                	slli	a1,a1,0x18
    607a:	8a3d                	andi	a2,a2,15
    607c:	01461493          	slli	s1,a2,0x14
    6080:	0cc7a603          	lw	a2,204(a5)
    6084:	02870433          	mul	s0,a4,s0
    6088:	01067633          	and	a2,a2,a6
    608c:	8e45                	or	a2,a2,s1
    608e:	0cc7a623          	sw	a2,204(a5)
    6092:	00171613          	slli	a2,a4,0x1
    6096:	0cc7a483          	lw	s1,204(a5)
    609a:	8ce9                	and	s1,s1,a0
    609c:	02d64633          	div	a2,a2,a3
    60a0:	8a3d                	andi	a2,a2,15
    60a2:	0662                	slli	a2,a2,0x18
    60a4:	8e45                	or	a2,a2,s1
    60a6:	0cc7a623          	sw	a2,204(a5)
    60aa:	0cc7a603          	lw	a2,204(a5)
    60ae:	02d44433          	div	s0,s0,a3
    60b2:	01d67eb3          	and	t4,a2,t4
    60b6:	00271613          	slli	a2,a4,0x2
    60ba:	027703b3          	mul	t2,a4,t2
    60be:	0472                	slli	s0,s0,0x1c
    60c0:	008ee433          	or	s0,t4,s0
    60c4:	0c87a623          	sw	s0,204(a5)
    60c8:	02d64633          	div	a2,a2,a3
    60cc:	025702b3          	mul	t0,a4,t0
    60d0:	00f67e93          	andi	t4,a2,15
    60d4:	0d07a603          	lw	a2,208(a5)
    60d8:	9a41                	andi	a2,a2,-16
    60da:	01d66633          	or	a2,a2,t4
    60de:	0cc7a823          	sw	a2,208(a5)
    60e2:	0d07a603          	lw	a2,208(a5)
    60e6:	02d3c3b3          	div	t2,t2,a3
    60ea:	f0f67613          	andi	a2,a2,-241
    60ee:	02d2c2b3          	div	t0,t0,a3
    60f2:	00f3f393          	andi	t2,t2,15
    60f6:	0392                	slli	t2,t2,0x4
    60f8:	007663b3          	or	t2,a2,t2
    60fc:	0c77a823          	sw	t2,208(a5)
    6100:	0d07a603          	lw	a2,208(a5)
    6104:	01c67e33          	and	t3,a2,t3
    6108:	03f70fb3          	mul	t6,a4,t6
    610c:	00f2f293          	andi	t0,t0,15
    6110:	02a2                	slli	t0,t0,0x8
    6112:	005e62b3          	or	t0,t3,t0
    6116:	0c57a823          	sw	t0,208(a5)
    611a:	0d07a603          	lw	a2,208(a5)
    611e:	00667333          	and	t1,a2,t1
    6122:	00371613          	slli	a2,a4,0x3
    6126:	02dfcfb3          	div	t6,t6,a3
    612a:	03e70f33          	mul	t5,a4,t5
    612e:	00ffff93          	andi	t6,t6,15
    6132:	0fb2                	slli	t6,t6,0xc
    6134:	01f36fb3          	or	t6,t1,t6
    6138:	0df7a823          	sw	t6,208(a5)
    613c:	0d07a303          	lw	t1,208(a5)
    6140:	011378b3          	and	a7,t1,a7
    6144:	02d64633          	div	a2,a2,a3
    6148:	03a70d33          	mul	s10,a4,s10
    614c:	8a3d                	andi	a2,a2,15
    614e:	0642                	slli	a2,a2,0x10
    6150:	00c8e633          	or	a2,a7,a2
    6154:	0cc7a823          	sw	a2,208(a5)
    6158:	0d07a603          	lw	a2,208(a5)
    615c:	01067833          	and	a6,a2,a6
    6160:	02df4f33          	div	t5,t5,a3
    6164:	02dd46b3          	div	a3,s10,a3
    6168:	00ff7f13          	andi	t5,t5,15
    616c:	0f52                	slli	t5,t5,0x14
    616e:	01e86f33          	or	t5,a6,t5
    6172:	0de7a823          	sw	t5,208(a5)
    6176:	0d07a703          	lw	a4,208(a5)
    617a:	8d79                	and	a0,a0,a4
    617c:	8abd                	andi	a3,a3,15
    617e:	06e2                	slli	a3,a3,0x18
    6180:	8ec9                	or	a3,a3,a0
    6182:	0cd7a823          	sw	a3,208(a5)
    6186:	43d8                	lw	a4,4(a5)
    6188:	6685                	lui	a3,0x1
    618a:	9b3d                	andi	a4,a4,-17
    618c:	c3d8                	sw	a4,4(a5)
    618e:	43d8                	lw	a4,4(a5)
    6190:	9b79                	andi	a4,a4,-2
    6192:	c3d8                	sw	a4,4(a5)
    6194:	5798                	lw	a4,40(a5)
    6196:	8f55                	or	a4,a4,a3
    6198:	d798                	sw	a4,40(a5)
    619a:	57d8                	lw	a4,44(a5)
    619c:	810006b7          	lui	a3,0x81000
    61a0:	16fd                	addi	a3,a3,-1
    61a2:	01076713          	ori	a4,a4,16
    61a6:	d7d8                	sw	a4,44(a5)
    61a8:	03fc7713          	andi	a4,s8,63
    61ac:	0387ac03          	lw	s8,56(a5)
    61b0:	fc0c7c13          	andi	s8,s8,-64
    61b4:	00ec6c33          	or	s8,s8,a4
    61b8:	0387ac23          	sw	s8,56(a5)
    61bc:	5f98                	lw	a4,56(a5)
    61be:	8f75                	and	a4,a4,a3
    61c0:	8dd9                	or	a1,a1,a4
    61c2:	df8c                	sw	a1,56(a5)
    61c4:	5462                	lw	s0,56(sp)
    61c6:	50f2                	lw	ra,60(sp)
    61c8:	54d2                	lw	s1,52(sp)
    61ca:	5942                	lw	s2,48(sp)
    61cc:	59b2                	lw	s3,44(sp)
    61ce:	5a22                	lw	s4,40(sp)
    61d0:	5a92                	lw	s5,36(sp)
    61d2:	5b02                	lw	s6,32(sp)
    61d4:	4bf2                	lw	s7,28(sp)
    61d6:	4c62                	lw	s8,24(sp)
    61d8:	4cd2                	lw	s9,20(sp)
    61da:	4d42                	lw	s10,16(sp)
    61dc:	4db2                	lw	s11,12(sp)
    61de:	6121                	addi	sp,sp,64
    61e0:	8082                	ret

000061e2 <RFEND_TXFtune>:
RFEND_TXFtune():
    61e2:	1fffd797          	auipc	a5,0x1fffd
    61e6:	20a78793          	addi	a5,a5,522 # 200033ec <gptrRFENDReg>
    61ea:	4398                	lw	a4,0(a5)
    61ec:	435c                	lw	a5,4(a4)
    61ee:	1007e793          	ori	a5,a5,256
    61f2:	c35c                	sw	a5,4(a4)
    61f4:	8082                	ret

000061f6 <tmos_memory_getlen>:
tmos_memory_getlen():
    61f6:	1fffd797          	auipc	a5,0x1fffd
    61fa:	20678793          	addi	a5,a5,518 # 200033fc <MemCtlStart>
    61fe:	1fffd717          	auipc	a4,0x1fffd
    6202:	1f670713          	addi	a4,a4,502 # 200033f4 <MemCtlEnd>
    6206:	439c                	lw	a5,0(a5)
    6208:	4318                	lw	a4,0(a4)
    620a:	4501                	li	a0,0
    620c:	00f71363          	bne	a4,a5,6212 <tmos_memory_getlen+0x1c>
    6210:	8082                	ret
    6212:	0067d683          	lhu	a3,6(a5)
    6216:	e681                	bnez	a3,621e <tmos_memory_getlen+0x28>
    6218:	0047d683          	lhu	a3,4(a5)
    621c:	9536                	add	a0,a0,a3
    621e:	439c                	lw	a5,0(a5)
    6220:	b7f5                	j	620c <tmos_memory_getlen+0x16>

00006222 <tmos_memory_init>:
tmos_memory_init():
    6222:	1fffd797          	auipc	a5,0x1fffd
    6226:	11678793          	addi	a5,a5,278 # 20003338 <ble>
    622a:	438c                	lw	a1,0(a5)
    622c:	1fffd717          	auipc	a4,0x1fffd
    6230:	11075703          	lhu	a4,272(a4) # 2000333c <ble+0x4>
    6234:	1141                	addi	sp,sp,-16
    6236:	22058613          	addi	a2,a1,544
    623a:	1fffd797          	auipc	a5,0x1fffd
    623e:	1cc7a123          	sw	a2,450(a5) # 200033fc <MemCtlStart>
    6242:	ff858793          	addi	a5,a1,-8
    6246:	97ba                	add	a5,a5,a4
    6248:	6505                	lui	a0,0x1
    624a:	1fffd697          	auipc	a3,0x1fffd
    624e:	1af6a523          	sw	a5,426(a3) # 200033f4 <MemCtlEnd>
    6252:	c606                	sw	ra,12(sp)
    6254:	051d                	addi	a0,a0,7
    6256:	00375693          	srli	a3,a4,0x3
    625a:	00e57463          	bgeu	a0,a4,6262 <tmos_memory_init+0x40>
    625e:	20000693          	li	a3,512
    6262:	00d60733          	add	a4,a2,a3
    6266:	1fffd517          	auipc	a0,0x1fffd
    626a:	18e52923          	sw	a4,402(a0) # 200033f8 <MemCtlPartition>
    626e:	22e5a023          	sw	a4,544(a1)
    6272:	16e1                	addi	a3,a3,-8
    6274:	00d61223          	sh	a3,4(a2)
    6278:	00061323          	sh	zero,6(a2)
    627c:	c31c                	sw	a5,0(a4)
    627e:	8f99                	sub	a5,a5,a4
    6280:	17e1                	addi	a5,a5,-8
    6282:	00f71223          	sh	a5,4(a4)
    6286:	00071323          	sh	zero,6(a4)
    628a:	37b5                	jal	61f6 <tmos_memory_getlen>
    628c:	40b2                	lw	ra,12(sp)
    628e:	1fffd797          	auipc	a5,0x1fffd
    6292:	04a79c23          	sh	a0,88(a5) # 200032e6 <gTmosPara+0x6>
    6296:	0141                	addi	sp,sp,16
    6298:	8082                	ret

0000629a <LL_InitiateSetRF>:
LL_InitiateSetRF():
    629a:	1141                	addi	sp,sp,-16
    629c:	1fffd797          	auipc	a5,0x1fffd
    62a0:	16478793          	addi	a5,a5,356 # 20003400 <gBleLlPara>
    62a4:	c226                	sw	s1,4(sp)
    62a6:	1fffd497          	auipc	s1,0x1fffd
    62aa:	10248493          	addi	s1,s1,258 # 200033a8 <gptrLLEReg>
    62ae:	c422                	sw	s0,8(sp)
    62b0:	0847a403          	lw	s0,132(a5)
    62b4:	409c                	lw	a5,0(s1)
    62b6:	c606                	sw	ra,12(sp)
    62b8:	c04a                	sw	s2,0(sp)
    62ba:	4398                	lw	a4,0(a5)
    62bc:	8b0d                	andi	a4,a4,3
    62be:	c305                	beqz	a4,62de <LL_InitiateSetRF+0x44>
    62c0:	4bb8                	lw	a4,80(a5)
    62c2:	9b61                	andi	a4,a4,-8
    62c4:	cbb8                	sw	a4,80(a5)
    62c6:	4398                	lw	a4,0(a5)
    62c8:	00876713          	ori	a4,a4,8
    62cc:	c398                	sw	a4,0(a5)
    62ce:	439c                	lw	a5,0(a5)
    62d0:	838d                	srli	a5,a5,0x3
    62d2:	8b85                	andi	a5,a5,1
    62d4:	c789                	beqz	a5,62de <LL_InitiateSetRF+0x44>
    62d6:	0001                	nop
    62d8:	0001                	nop
    62da:	0001                	nop
    62dc:	0001                	nop
    62de:	1fffd797          	auipc	a5,0x1fffd
    62e2:	0a678793          	addi	a5,a5,166 # 20003384 <gptrBBReg>
    62e6:	4394                	lw	a3,0(a5)
    62e8:	8e89c737          	lui	a4,0x8e89c
    62ec:	ed670713          	addi	a4,a4,-298 # 8e89bed6 <_eusrstack+0x6e893ed6>
    62f0:	c698                	sw	a4,8(a3)
    62f2:	00555737          	lui	a4,0x555
    62f6:	55570713          	addi	a4,a4,1365 # 555555 <_data_lma+0x54eed9>
    62fa:	c2d8                	sw	a4,4(a3)
    62fc:	03a44703          	lbu	a4,58(s0)
    6300:	0ff00693          	li	a3,255
    6304:	893e                	mv	s2,a5
    6306:	00d70763          	beq	a4,a3,6314 <LL_InitiateSetRF+0x7a>
    630a:	57fd                	li	a5,-1
    630c:	02e40ca3          	sb	a4,57(s0)
    6310:	02f40d23          	sb	a5,58(s0)
    6314:	03944503          	lbu	a0,57(s0)
    6318:	4789                	li	a5,2
    631a:	00f50663          	beq	a0,a5,6326 <LL_InitiateSetRF+0x8c>
    631e:	4785                	li	a5,1
    6320:	02f40ca3          	sb	a5,57(s0)
    6324:	4501                	li	a0,0
    6326:	4098                	lw	a4,0(s1)
    6328:	435c                	lw	a5,4(a4)
    632a:	0017e793          	ori	a5,a5,1
    632e:	c35c                	sw	a5,4(a4)
    6330:	fb200793          	li	a5,-78
    6334:	00f40323          	sb	a5,6(s0)
    6338:	1fffd797          	auipc	a5,0x1fffd
    633c:	05d7c783          	lbu	a5,93(a5) # 20003395 <gBleIPPara+0x9>
    6340:	cf81                	beqz	a5,6358 <LL_InitiateSetRF+0xbe>
    6342:	1fffd717          	auipc	a4,0x1fffd
    6346:	05274703          	lbu	a4,82(a4) # 20003394 <gBleIPPara+0x8>
    634a:	478d                	li	a5,3
    634c:	00f71663          	bne	a4,a5,6358 <LL_InitiateSetRF+0xbe>
    6350:	1fffd797          	auipc	a5,0x1fffd
    6354:	040782a3          	sb	zero,69(a5) # 20003395 <gBleIPPara+0x9>
    6358:	1fffd717          	auipc	a4,0x1fffd
    635c:	03b74703          	lbu	a4,59(a4) # 20003393 <gBleIPPara+0x7>
    6360:	479d                	li	a5,7
    6362:	00f71863          	bne	a4,a5,6372 <LL_InitiateSetRF+0xd8>
    6366:	10700793          	li	a5,263
    636a:	1fffd717          	auipc	a4,0x1fffd
    636e:	02f71523          	sh	a5,42(a4) # 20003394 <gBleIPPara+0x8>
    6372:	4799                	li	a5,6
    6374:	1fffd717          	auipc	a4,0x1fffd
    6378:	00f70fa3          	sb	a5,31(a4) # 20003393 <gBleIPPara+0x7>
    637c:	4601                	li	a2,0
    637e:	1fffd797          	auipc	a5,0x1fffd
    6382:	00078723          	sb	zero,14(a5) # 2000338c <gBleIPPara>
    6386:	02500593          	li	a1,37
    638a:	1fffd797          	auipc	a5,0x1fffd
    638e:	00078323          	sb	zero,6(a5) # 20003390 <gBleIPPara+0x4>
    6392:	8ebfd0ef          	jal	ra,3c7c <BLE_SetPHYRxMode>
    6396:	4090                	lw	a2,0(s1)
    6398:	1fffd797          	auipc	a5,0x1fffd
    639c:	fe078ca3          	sb	zero,-7(a5) # 20003391 <gBleIPPara+0x5>
    63a0:	1fffd797          	auipc	a5,0x1fffd
    63a4:	fe0786a3          	sb	zero,-19(a5) # 2000338d <gBleIPPara+0x1>
    63a8:	4785                	li	a5,1
    63aa:	c21c                	sw	a5,0(a2)
    63ac:	00092783          	lw	a5,0(s2) # d000 <_data_lma+0x6984>
    63b0:	003305b7          	lui	a1,0x330
    63b4:	4398                	lw	a4,0(a5)
    63b6:	e7f77713          	andi	a4,a4,-385
    63ba:	c398                	sw	a4,0(a5)
    63bc:	4398                	lw	a4,0(a5)
    63be:	e7f77713          	andi	a4,a4,-385
    63c2:	10076713          	ori	a4,a4,256
    63c6:	c398                	sw	a4,0(a5)
    63c8:	1fffd717          	auipc	a4,0x1fffd
    63cc:	02470713          	addi	a4,a4,36 # 200033ec <gptrRFENDReg>
    63d0:	4318                	lw	a4,0(a4)
    63d2:	4714                	lw	a3,8(a4)
    63d4:	8ecd                	or	a3,a3,a1
    63d6:	c714                	sw	a3,8(a4)
    63d8:	0d900693          	li	a3,217
    63dc:	ca34                	sw	a3,80(a2)
    63de:	5754                	lw	a3,44(a4)
    63e0:	9af5                	andi	a3,a3,-3
    63e2:	d754                	sw	a3,44(a4)
    63e4:	00544703          	lbu	a4,5(s0)
    63e8:	07f77693          	andi	a3,a4,127
    63ec:	4398                	lw	a4,0(a5)
    63ee:	f8077713          	andi	a4,a4,-128
    63f2:	8f55                	or	a4,a4,a3
    63f4:	c398                	sw	a4,0(a5)
    63f6:	40b2                	lw	ra,12(sp)
    63f8:	4422                	lw	s0,8(sp)
    63fa:	4492                	lw	s1,4(sp)
    63fc:	4902                	lw	s2,0(sp)
    63fe:	0141                	addi	sp,sp,16
    6400:	8082                	ret

00006402 <memcpy>:
memcpy():
    6402:	00a5c7b3          	xor	a5,a1,a0
    6406:	8b8d                	andi	a5,a5,3
    6408:	00c50733          	add	a4,a0,a2
    640c:	e781                	bnez	a5,6414 <memcpy+0x12>
    640e:	478d                	li	a5,3
    6410:	00c7ee63          	bltu	a5,a2,642c <memcpy+0x2a>
    6414:	87aa                	mv	a5,a0
    6416:	0ae57063          	bgeu	a0,a4,64b6 <memcpy+0xb4>
    641a:	0005c683          	lbu	a3,0(a1) # 330000 <_data_lma+0x329984>
    641e:	0785                	addi	a5,a5,1
    6420:	0585                	addi	a1,a1,1
    6422:	fed78fa3          	sb	a3,-1(a5)
    6426:	fee7eae3          	bltu	a5,a4,641a <memcpy+0x18>
    642a:	8082                	ret
    642c:	00357693          	andi	a3,a0,3
    6430:	87aa                	mv	a5,a0
    6432:	ca91                	beqz	a3,6446 <memcpy+0x44>
    6434:	0005c683          	lbu	a3,0(a1)
    6438:	0785                	addi	a5,a5,1
    643a:	0585                	addi	a1,a1,1
    643c:	fed78fa3          	sb	a3,-1(a5)
    6440:	0037f693          	andi	a3,a5,3
    6444:	b7fd                	j	6432 <memcpy+0x30>
    6446:	ffc77693          	andi	a3,a4,-4
    644a:	fe068613          	addi	a2,a3,-32
    644e:	06c7f063          	bgeu	a5,a2,64ae <memcpy+0xac>
    6452:	0005a383          	lw	t2,0(a1)
    6456:	0045a283          	lw	t0,4(a1)
    645a:	0085af83          	lw	t6,8(a1)
    645e:	00c5af03          	lw	t5,12(a1)
    6462:	0105ae83          	lw	t4,16(a1)
    6466:	0145ae03          	lw	t3,20(a1)
    646a:	0185a303          	lw	t1,24(a1)
    646e:	01c5a883          	lw	a7,28(a1)
    6472:	02458593          	addi	a1,a1,36
    6476:	0077a023          	sw	t2,0(a5)
    647a:	ffc5a803          	lw	a6,-4(a1)
    647e:	0057a223          	sw	t0,4(a5)
    6482:	01f7a423          	sw	t6,8(a5)
    6486:	01e7a623          	sw	t5,12(a5)
    648a:	01d7a823          	sw	t4,16(a5)
    648e:	01c7aa23          	sw	t3,20(a5)
    6492:	0067ac23          	sw	t1,24(a5)
    6496:	0117ae23          	sw	a7,28(a5)
    649a:	02478793          	addi	a5,a5,36
    649e:	ff07ae23          	sw	a6,-4(a5)
    64a2:	b775                	j	644e <memcpy+0x4c>
    64a4:	4190                	lw	a2,0(a1)
    64a6:	0791                	addi	a5,a5,4
    64a8:	0591                	addi	a1,a1,4
    64aa:	fec7ae23          	sw	a2,-4(a5)
    64ae:	fed7ebe3          	bltu	a5,a3,64a4 <memcpy+0xa2>
    64b2:	f6e7e4e3          	bltu	a5,a4,641a <memcpy+0x18>
    64b6:	8082                	ret
    64b8:	b882                	fsd	ft0,112(sp)
    64ba:	ffff                	0xffff
    64bc:	b8aa                	fsd	fa0,112(sp)
    64be:	ffff                	0xffff
    64c0:	b8d2                	fsd	fs4,112(sp)
    64c2:	ffff                	0xffff
    64c4:	b8ea                	fsd	fs10,112(sp)
    64c6:	ffff                	0xffff
    64c8:	b904                	fsd	fs1,48(a0)
    64ca:	ffff                	0xffff
    64cc:	bbc8                	fsd	fa0,176(a5)
    64ce:	ffff                	0xffff
    64d0:	bbc8                	fsd	fa0,176(a5)
    64d2:	ffff                	0xffff
    64d4:	bbaa                	fsd	fa0,496(sp)
    64d6:	ffff                	0xffff
    64d8:	bbb4                	fsd	fa3,112(a5)
    64da:	ffff                	0xffff
    64dc:	bbbc                	fsd	fa5,112(a5)
    64de:	ffff                	0xffff
    64e0:	bbb4                	fsd	fa3,112(a5)
    64e2:	ffff                	0xffff
    64e4:	bbb4                	fsd	fa3,112(a5)
    64e6:	ffff                	0xffff
    64e8:	bbb4                	fsd	fa3,112(a5)
    64ea:	ffff                	0xffff
    64ec:	bbc8                	fsd	fa0,176(a5)
    64ee:	ffff                	0xffff
    64f0:	38354843          	fmadd.s	fa6,fa0,ft3,ft7,rmm
    64f4:	5f78                	lw	a4,124(a4)
    64f6:	4c42                	lw	s8,16(sp)
    64f8:	5f45                	li	t5,-15
    64fa:	494c                	lw	a1,20(a0)
    64fc:	5f42                	lw	t5,48(sp)
    64fe:	3156                	fld	ft2,368(sp)
    6500:	342e                	fld	fs0,232(sp)
    6502:	0000                	unimp
    6504:	c688                	sw	a0,8(a3)
    6506:	ffff                	0xffff
    6508:	c60e                	sw	gp,12(sp)
    650a:	ffff                	0xffff
    650c:	c52c                	sw	a1,72(a0)
    650e:	ffff                	0xffff
    6510:	c52c                	sw	a1,72(a0)
    6512:	ffff                	0xffff
    6514:	c52c                	sw	a1,72(a0)
    6516:	ffff                	0xffff
    6518:	c5e4                	sw	s1,76(a1)
    651a:	ffff                	0xffff
    651c:	c486                	sw	ra,72(sp)
    651e:	ffff                	0xffff
    6520:	c52c                	sw	a1,72(a0)
    6522:	ffff                	0xffff
    6524:	c5ee                	sw	s11,200(sp)
    6526:	ffff                	0xffff
    6528:	c604                	sw	s1,8(a2)
    652a:	ffff                	0xffff
    652c:	c682                	sw	zero,76(sp)
    652e:	ffff                	0xffff

00006530 <KeyRepDesc>:
    6530:	0105 0609 01a1 0705 e019 e729 0015 0125     ..........)...%.
    6540:	0175 0895 0281 0195 0875 0181 0395 0175     u.......u.....u.
    6550:	0805 0119 0329 0291 0595 0175 0191 0695     ....).....u.....
    6560:	0875 ff26 0500 1907 2900 8191 c000 0000     u.&......)......

00006570 <MouseRepDesc>:
    6570:	0105 0209 01a1 0109 00a1 0905 0119 0329     ..............).
    6580:	0015 0125 0175 0395 0281 0575 0195 0181     ..%.u.....u.....
    6590:	0105 3009 3109 3809 8115 7f25 0875 0395     ...0.1.8..%.u...
    65a0:	0681 c0c0                                   ....

000065a4 <MyCfgDescr>:
    65a4:	0209 006b 0104 a000 0932 0004 0100 0103     ..k.....2.......
    65b4:	0001 2109 0111 0100 3e22 0700 8105 0803     ...!....">......
    65c4:	0a00 0409 0001 0301 0201 0900 1021 0001     ............!...
    65d4:	2201 0034 0507 0382 0004 090a 0204 0100     ."4.............
    65e4:	0103 0000 2109 0110 0100 2122 0700 8305     .....!...."!....
    65f4:	0103 0a00 0409 0003 0002 0000 0700 8405     ................
    6604:	4002 0000 0507 0204 0040 0000               .@......@...

00006610 <MyDevDescr>:
    6610:	0112 0110 0000 4000 434a 5540 0101 0201     .......@JC@U....
    6620:	0100 0000                                   ....

00006624 <MyManuInfo>:
    6624:	030e 006c 0061 0062 0034 0031 0038 0000     ..l.a.b.4.1.8...

00006634 <MyProdInfo>:
    6634:	030a 0054 0050 0037 0038 0000               ..T.P.7.8...

00006640 <VolumeRepDesc>:
    6640:	0c05 0109 01a1 b009 b509 b609 e909 ea09     ................
    6650:	e209 b109 b709 0015 0125 0895 0175 0281     ........%...u...
    6660:	00c0 0000                                   ....

00006664 <VER_LIB>:
    6664:	4843 3835 5f78 4c42 5f45 494c 5f42 3156     CH58x_BLE_LIB_V1
    6674:	342e 0031                                   .41.

00006678 <MyLangDescr>:
    6678:	0304 0409                                   ....
